Archive member included because of file (symbol)

f:/software_installations/mplab_xc32/bin/bin/../../lib/gcc/pic32mx/4.8.3\libgcc.a(floatunsisf.o)
                              build/default/production/_ext/1151653695/lodepng.o (__floatunsisf)
f:/software_installations/mplab_xc32/bin/bin/../../lib/gcc/pic32mx/4.8.3/../../../../pic32mx/lib\libpic32.a(memcpy.o)
                              build/default/production/_ext/1151653695/lodepng.o (memcpy)
f:/software_installations/mplab_xc32/bin/bin/../../lib/gcc/pic32mx/4.8.3/../../../../pic32mx/lib\libpic32.a(memset.o)
                              build/default/production/_ext/1151653695/lodepng.o (memset)
f:/software_installations/mplab_xc32/bin/bin/../../lib/gcc/pic32mx/4.8.3/../../../../pic32mx/lib\libpic32.a(strcmp.o)
                              build/default/production/_ext/1151653695/lodepng.o (strcmp)
f:/software_installations/mplab_xc32/bin/bin/../../lib/gcc/pic32mx/4.8.3/../../../../pic32mx/lib\libpic32.a(strcpy.o)
                              build/default/production/_ext/1988394548/drv_gfx_lcc_generic.o (strcpy)
f:/software_installations/mplab_xc32/bin/bin/../../lib/gcc/pic32mx/4.8.3/../../../../pic32mx/lib\libpic32.a(strlen.o)
                              build/default/production/_ext/1151653695/lodepng.o (strlen)
f:/software_installations/mplab_xc32/bin/bin/../../lib/gcc/pic32mx/4.8.3/../../../../pic32mx/lib\libpic32.a(default-bootstrap-exception-handler.o)
                              f:/software_installations/mplab_xc32/bin/bin/../../lib/gcc/pic32mx/4.8.3/../../../../pic32mx/lib/./proc/32MZ2064DAG176/crt0_mips32r2.o (_bootstrap_exception_handler)
f:/software_installations/mplab_xc32/bin/bin/../../lib/gcc/pic32mx/4.8.3/../../../../pic32mx/lib\libpic32.a(default-on-reset.o)
                              f:/software_installations/mplab_xc32/bin/bin/../../lib/gcc/pic32mx/4.8.3/../../../../pic32mx/lib/./proc/32MZ2064DAG176/crt0_mips32r2.o (_on_reset)
f:/software_installations/mplab_xc32/bin/bin/../../lib/gcc/pic32mx/4.8.3/../../../../pic32mx/lib\libpic32.a(default-on-bootstrap.o)
                              f:/software_installations/mplab_xc32/bin/bin/../../lib/gcc/pic32mx/4.8.3/../../../../pic32mx/lib/./proc/32MZ2064DAG176/crt0_mips32r2.o (_on_bootstrap)
f:/software_installations/mplab_xc32/bin/bin/../../lib/gcc/pic32mx/4.8.3/../../../../pic32mx/lib\libpic32.a(default-nmi-handler.o)
                              f:/software_installations/mplab_xc32/bin/bin/../../lib/gcc/pic32mx/4.8.3/../../../../pic32mx/lib/./proc/32MZ2064DAG176/crt0_mips32r2.o (_nmi_handler)
f:/software_installations/mplab_xc32/bin/bin/../../lib/gcc/pic32mx/4.8.3/../../../../pic32mx/lib\libpic32.a(pic32_data_init.o)
                              f:/software_installations/mplab_xc32/bin/bin/../../lib/gcc/pic32mx/4.8.3/../../../../pic32mx/lib/./proc/32MZ2064DAG176/crt0_mips32r2.o (__pic32_data_init)
f:/software_installations/mplab_xc32/bin/bin/../../lib/gcc/pic32mx/4.8.3/../../../../pic32mx/lib\libpic32.a(pic32_init_cache.o)
                              f:/software_installations/mplab_xc32/bin/bin/../../lib/gcc/pic32mx/4.8.3/../../../../pic32mx/lib/./proc/32MZ2064DAG176/crt0_mips32r2.o (__pic32_init_cache)
f:/software_installations/mplab_xc32/bin/bin/../../lib/gcc/pic32mx/4.8.3/../../../../pic32mx/lib\libpic32.a(pic32_init_tlb_ebi_sqi.o)
                              f:/software_installations/mplab_xc32/bin/bin/../../lib/gcc/pic32mx/4.8.3/../../../../pic32mx/lib/./proc/32MZ2064DAG176/crt0_mips32r2.o (__pic32_tlb_init_ebi_sqi)
f:/software_installations/mplab_xc32/bin/bin/../../lib/gcc/pic32mx/4.8.3/../../../../pic32mx/lib\libpic32.a(general-exception.o)
                              f:/software_installations/mplab_xc32/bin/bin/../../lib/gcc/pic32mx/4.8.3/../../../../pic32mx/lib/./proc/32MZ2064DAG176/crt0_mips32r2.o (_general_exception_context)
f:/software_installations/mplab_xc32/bin/bin/../../lib/gcc/pic32mx/4.8.3/../../../../pic32mx/lib\libpic32.a(cache-err-exception.o)
                              f:/software_installations/mplab_xc32/bin/bin/../../lib/gcc/pic32mx/4.8.3/../../../../pic32mx/lib/./proc/32MZ2064DAG176/crt0_mips32r2.o (_cache_err_exception_context)
f:/software_installations/mplab_xc32/bin/bin/../../lib/gcc/pic32mx/4.8.3/../../../../pic32mx/lib\libpic32.a(simple-tlb-refill-exception.o)
                              f:/software_installations/mplab_xc32/bin/bin/../../lib/gcc/pic32mx/4.8.3/../../../../pic32mx/lib/./proc/32MZ2064DAG176/crt0_mips32r2.o (_simple_tlb_refill_exception_context)
f:/software_installations/mplab_xc32/bin/bin/../../lib/gcc/pic32mx/4.8.3/../../../../pic32mx/lib\libpic32.a(defaultinterrupt.o)
                              f:/software_installations/mplab_xc32/bin/bin/../../lib/gcc/pic32mx/4.8.3/../../../../pic32mx/lib/./proc/32MZ2064DAG176\default_isr_vectors.o (_DefaultInterrupt)
f:/software_installations/mplab_xc32/bin/bin/../../lib/gcc/pic32mx/4.8.3/../../../../pic32mx/lib\libpic32.a(default-cache-err-exception-handler.o)
                              f:/software_installations/mplab_xc32/bin/bin/../../lib/gcc/pic32mx/4.8.3/../../../../pic32mx/lib\libpic32.a(cache-err-exception.o) (_cache_err_exception_handler)
f:/software_installations/mplab_xc32/bin/bin/../../lib/gcc/pic32mx/4.8.3/../../../../pic32mx/lib\libpic32.a(default-simple-tlb-refill-exception-handler.o)
                              f:/software_installations/mplab_xc32/bin/bin/../../lib/gcc/pic32mx/4.8.3/../../../../pic32mx/lib\libpic32.a(simple-tlb-refill-exception.o) (_simple_tlb_refill_exception_handler)
f:/software_installations/mplab_xc32/bin/bin/../../lib/gcc/pic32mx/4.8.3/../../../../pic32mx/lib\libc.a(fassert.o)
                              build/default/production/_ext/1572996423/gfxu_image_png_external.o (_fassert)
f:/software_installations/mplab_xc32/bin/bin/../../lib/gcc/pic32mx/4.8.3/../../../../pic32mx/lib\libc.a(calloc.o)
                              build/default/production/_ext/1572996423/gfxu_image_utils.o (calloc)
f:/software_installations/mplab_xc32/bin/bin/../../lib/gcc/pic32mx/4.8.3/../../../../pic32mx/lib\libc.a(malloc.o)
                              build/default/production/_ext/1860398633/drv_mxt336t.o (malloc)
f:/software_installations/mplab_xc32/bin/bin/../../lib/gcc/pic32mx/4.8.3/../../../../pic32mx/lib\libc.a(signal.o)
                              f:/software_installations/mplab_xc32/bin/bin/../../lib/gcc/pic32mx/4.8.3/../../../../pic32mx/lib\libc.a(fassert.o) (abort)
f:/software_installations/mplab_xc32/bin/bin/../../lib/gcc/pic32mx/4.8.3/../../../../pic32mx/lib\libc.a(exit.o)
                              f:/software_installations/mplab_xc32/bin/bin/../../lib/gcc/pic32mx/4.8.3/../../../../pic32mx/lib\libc.a(signal.o) (exit)
f:/software_installations/mplab_xc32/bin/bin/../../lib/gcc/pic32mx/4.8.3/../../../../pic32mx/lib\libc.a(stdclean_simple.o)
                              f:/software_installations/mplab_xc32/bin/bin/../../lib/gcc/pic32mx/4.8.3/../../../../pic32mx/lib\libc.a(exit.o) (_cleanup)
f:/software_installations/mplab_xc32/bin/bin/../../lib/gcc/pic32mx/4.8.3/../../../../pic32mx/lib\libc.a(fprintf_cdnopsuxX.eo)
                              f:/software_installations/mplab_xc32/bin/bin/../../lib/gcc/pic32mx/4.8.3/../../../../pic32mx/lib\libc.a(fassert.o) (_fprintf_cdnopsuxX)
f:/software_installations/mplab_xc32/bin/bin/../../lib/gcc/pic32mx/4.8.3/../../../../pic32mx/lib\libc.a(sprintf_cdnopuxX.eo)
                              build/default/production/_ext/493962524/libaria_widget_bar_graph_skin_classic.o (_sprintf_cdnopuxX)
f:/software_installations/mplab_xc32/bin/bin/../../lib/gcc/pic32mx/4.8.3/../../../../pic32mx/lib\libc.a(_iob.o)
                              f:/software_installations/mplab_xc32/bin/bin/../../lib/gcc/pic32mx/4.8.3/../../../../pic32mx/lib\libc.a(fassert.o) (_iob)
f:/software_installations/mplab_xc32/bin/bin/../../lib/gcc/pic32mx/4.8.3/../../../../pic32mx/lib\libc.a(doprnt_cdnopsuxX.eo)
                              f:/software_installations/mplab_xc32/bin/bin/../../lib/gcc/pic32mx/4.8.3/../../../../pic32mx/lib\libc.a(fprintf_cdnopsuxX.eo) (_vfprintf_cdnopsuxX)
f:/software_installations/mplab_xc32/bin/bin/../../lib/gcc/pic32mx/4.8.3/../../../../pic32mx/lib\libc.a(doprnt_cdnopuxX.eo)
                              f:/software_installations/mplab_xc32/bin/bin/../../lib/gcc/pic32mx/4.8.3/../../../../pic32mx/lib\libc.a(sprintf_cdnopuxX.eo) (_vfprintf_cdnopuxX)
f:/software_installations/mplab_xc32/bin/bin/../../lib/gcc/pic32mx/4.8.3/../../../../pic32mx/lib\libc.a(_fputc_simple.o)
                              f:/software_installations/mplab_xc32/bin/bin/../../lib/gcc/pic32mx/4.8.3/../../../../pic32mx/lib\libc.a(doprnt_cdnopsuxX.eo) (fputc)
f:/software_installations/mplab_xc32/bin/bin/../../lib/gcc/pic32mx/4.8.3/../../../../pic32mx/lib\libc.a(ctype.o)
                              f:/software_installations/mplab_xc32/bin/bin/../../lib/gcc/pic32mx/4.8.3/../../../../pic32mx/lib\libc.a(doprnt_cdnopsuxX.eo) (_ctype)
f:/software_installations/mplab_xc32/bin/bin/../../lib/gcc/pic32mx/4.8.3/../../../../pic32mx/lib\libc.a(_flsbuf_simple.o)
                              f:/software_installations/mplab_xc32/bin/bin/../../lib/gcc/pic32mx/4.8.3/../../../../pic32mx/lib\libc.a(_fputc_simple.o) (_flsbuf)
f:/software_installations/mplab_xc32/bin/bin/../../lib/gcc/pic32mx/4.8.3/../../../../pic32mx/lib\libm.a(fp32div.o)
                              build/default/production/_ext/1151653695/lodepng.o (fpdiv)
f:/software_installations/mplab_xc32/bin/bin/../../lib/gcc/pic32mx/4.8.3/../../../../pic32mx/lib\libm.a(fp32mul.o)
                              build/default/production/_ext/1151653695/lodepng.o (fpmul)
f:/software_installations/mplab_xc32/bin/bin/../../lib/gcc/pic32mx/4.8.3/../../../../pic32mx/lib\libm.a(fp32subadd.o)
                              build/default/production/_ext/1151653695/lodepng.o (fpsub)
f:/software_installations/mplab_xc32/bin/bin/../../lib/gcc/pic32mx/4.8.3/../../../../pic32mx/lib\libm.a(fpatan.o)
                              build/default/production/_ext/1026407831/gfx_math.o (atanf)
f:/software_installations/mplab_xc32/bin/bin/../../lib/gcc/pic32mx/4.8.3/../../../../pic32mx/lib\libm.a(fpcmp.o)
                              build/default/production/_ext/1151653695/lodepng.o (fpcmp)
f:/software_installations/mplab_xc32/bin/bin/../../lib/gcc/pic32mx/4.8.3/../../../../pic32mx/lib\libm.a(fpexatan.o)
                              f:/software_installations/mplab_xc32/bin/bin/../../lib/gcc/pic32mx/4.8.3/../../../../pic32mx/lib\libm.a(fpatan.o) (fpexatan)
f:/software_installations/mplab_xc32/bin/bin/../../lib/gcc/pic32mx/4.8.3/../../../../pic32mx/lib\libm.a(fpexsqrt32.o)
                              f:/software_installations/mplab_xc32/bin/bin/../../lib/gcc/pic32mx/4.8.3/../../../../pic32mx/lib\libm.a(fpatan.o) (fpexsqrt)
f:/software_installations/mplab_xc32/bin/bin/../../lib/gcc/pic32mx/4.8.3/../../../../pic32mx/lib\libm.a(fptoli.o)
                              build/default/production/_ext/493962524/libaria_widget_bar_graph_skin_classic.o (fptosi)
f:/software_installations/mplab_xc32/bin/bin/../../lib/gcc/pic32mx/4.8.3/../../../../pic32mx/lib\libm.a(fptoul.o)
                              build/default/production/_ext/1026407831/gfx_math.o (fptoui)
f:/software_installations/mplab_xc32/bin/bin/../../lib/gcc/pic32mx/4.8.3/../../../../pic32mx/lib\libm.a(sitofp.o)
                              build/default/production/_ext/493962524/libaria_widget_bar_graph_skin_classic.o (sitofp)
f:/software_installations/mplab_xc32/bin/bin/../../lib/gcc/pic32mx/4.8.3\libgcc.a(_udivdi3.o)
                              f:/software_installations/mplab_xc32/bin/bin/../../lib/gcc/pic32mx/4.8.3/../../../../pic32mx/lib\libc.a(doprnt_cdnopsuxX.eo) (__udivdi3)
f:/software_installations/mplab_xc32/bin/bin/../../lib/gcc/pic32mx/4.8.3\libgcc.a(_umoddi3.o)
                              f:/software_installations/mplab_xc32/bin/bin/../../lib/gcc/pic32mx/4.8.3/../../../../pic32mx/lib\libc.a(doprnt_cdnopsuxX.eo) (__umoddi3)
f:/software_installations/mplab_xc32/bin/bin/../../lib/gcc/pic32mx/4.8.3/../../../../pic32mx/lib\libpic32.a(sbrk.o)
                              f:/software_installations/mplab_xc32/bin/bin/../../lib/gcc/pic32mx/4.8.3/../../../../pic32mx/lib\libc.a(malloc.o) (sbrk)
f:/software_installations/mplab_xc32/bin/bin/../../lib/gcc/pic32mx/4.8.3/../../../../pic32mx/lib\libpic32.a(write.o)
                              f:/software_installations/mplab_xc32/bin/bin/../../lib/gcc/pic32mx/4.8.3/../../../../pic32mx/lib\libc.a(_fputc_simple.o) (write)
f:/software_installations/mplab_xc32/bin/bin/../../lib/gcc/pic32mx/4.8.3/../../../../pic32mx/lib\libpic32.a(errno.o)
                              f:/software_installations/mplab_xc32/bin/bin/../../lib/gcc/pic32mx/4.8.3/../../../../pic32mx/lib\libpic32.a(sbrk.o) (errno)
f:/software_installations/mplab_xc32/bin/bin/../../lib/gcc/pic32mx/4.8.3/../../../../pic32mx/lib\libpic32.a(_mon_putc.o)
                              f:/software_installations/mplab_xc32/bin/bin/../../lib/gcc/pic32mx/4.8.3/../../../../pic32mx/lib\libpic32.a(write.o) (_mon_putc)
f:/software_installations/mplab_xc32/bin/bin/../../lib/gcc/pic32mx/4.8.3/../../../../pic32mx/lib\libpic32.a(xc32_uart.o)
                              f:/software_installations/mplab_xc32/bin/bin/../../lib/gcc/pic32mx/4.8.3/../../../../pic32mx/lib\libpic32.a(_mon_putc.o) (__XC_UART)

Allocating common symbols
Common symbol       size              file

DISP_VER_RESOLUTION
                    0x4               build/default/production/_ext/1988394548/drv_gfx_lcc_generic.o
infoBlock           0xc               build/default/production/_ext/1860398633/drv_mxt336t.o
gDrvI2CCommonDataObj
                    0x3               build/default/production/_ext/1864665665/drv_i2c_bb_a.o
sMXT336TDriverInstances
                    0x80              build/default/production/_ext/1860398633/drv_mxt336t.o
VER_BLANK           0x4               build/default/production/_ext/1988394548/drv_gfx_lcc_generic.o
infoBlockData       0x4               build/default/production/_ext/1860398633/drv_mxt336t.o
sysObj              0xc               build/default/production/_ext/1688732426/system_init.o
listenerFlags       0x2               build/default/production/_ext/1691207160/sys_input.o
state               0x4               build/default/production/_ext/1988394548/drv_gfx_lcc_generic.o
touchScreenProcessor
                    0x4               build/default/production/_ext/1860398633/drv_mxt336t.o
SloganButton        0x4               build/default/production/_ext/458109090/libaria_init.o
libariaObj          0x4               build/default/production/_ext/458109090/libaria_harmony.o
eventCount          0x4               build/default/production/_ext/1691207160/sys_input.o
touchEndID          0x4               build/default/production/_ext/1860398633/drv_mxt336t.o
HBackPorch          0x2               build/default/production/_ext/1988394548/drv_gfx_lcc_generic.o
cntxt               0x4               build/default/production/_ext/1988394548/drv_gfx_lcc_generic.o
messageProcessor    0x4               build/default/production/_ext/1860398633/drv_mxt336t.o
objectTable         0x4               build/default/production/_ext/1860398633/drv_mxt336t.o
starttime           0x4               build/default/production/_ext/1864665665/drv_i2c_bb_a.o
sysDevconObj        0x8               build/default/production/_ext/340578644/sys_devcon.o
reportIDMapSize     0x4               build/default/production/_ext/1860398633/drv_mxt336t.o
infoBlockSize       0x4               build/default/production/_ext/1860398633/drv_mxt336t.o
touchBaseID         0x4               build/default/production/_ext/1860398633/drv_mxt336t.o
inputListener       0x30              build/default/production/_ext/458109090/libaria_harmony.o
TitleLabel          0x4               build/default/production/_ext/458109090/libaria_init.o
DISP_VER_BACK_PORCH
                    0x4               build/default/production/_ext/1988394548/drv_gfx_lcc_generic.o
DISP_HOR_FRONT_PORCH
                    0x4               build/default/production/_ext/1988394548/drv_gfx_lcc_generic.o
DISP_HOR_PULSE_WIDTH
                    0x4               build/default/production/_ext/1988394548/drv_gfx_lcc_generic.o
DISP_VER_PULSE_WIDTH
                    0x4               build/default/production/_ext/1988394548/drv_gfx_lcc_generic.o
generalEvents       0x200             build/default/production/_ext/1691207160/sys_input.o
DISP_HOR_RESOLUTION
                    0x4               build/default/production/_ext/1988394548/drv_gfx_lcc_generic.o
DISP_HOR_BACK_PORCH
                    0x4               build/default/production/_ext/1988394548/drv_gfx_lcc_generic.o
operationStatus     0x4               build/default/production/_ext/1860398633/drv_mxt336t.o
gSysDMAChannelObj   0x80              build/default/production/_ext/360842870/sys_dma.o
DISP_VER_FRONT_PORCH
                    0x4               build/default/production/_ext/1988394548/drv_gfx_lcc_generic.o
reportIDMapList     0x4               build/default/production/_ext/1860398633/drv_mxt336t.o
LogoWidget          0x4               build/default/production/_ext/458109090/libaria_init.o
appData             0x4               build/default/production/_ext/1360937237/app.o
listeners           0x60              build/default/production/_ext/1691207160/sys_input.o
objectCount         0x4               build/default/production/_ext/1860398633/drv_mxt336t.o
commandProcessor    0x4               build/default/production/_ext/1860398633/drv_mxt336t.o

Microchip PIC32 Memory-Usage Report

kseg0 Program-Memory Usage
section                    address  length [bytes]      (dec)  Description
-------                 ----------  -------------------------  -----------
.simple_tlb_refill_excp 0x9d000000           0x10          16   
.text.laString_Copy     0x9d000010           0xf0         240   
.cache_err_excpt        0x9d000100           0x10          16   
.text.laString_CreateFr 0x9d000110           0x70         112   
.app_excpt              0x9d000180           0x10          16  General-Exception 
.text.laWidget_SkinClas 0x9d000190           0x70         112   
.vectors                0x9d000200           0x78         120   
.rodata                 0x9d000278         0x4900       18688  Read-only const 
.text.lodepng_decode    0x9d004b78         0x15c4        5572   
.dinit                  0x9d00613c         0x10a0        4256   
.text.cpuDrawArc_Fill   0x9d0071dc          0xef4        3828   
.text._vfprintf_cdnopsu 0x9d0080d0          0xc8c        3212   
.text.DRV_I2C_BB_Tasks  0x9d008d5c          0xac0        2752   
.text.JPEG_bPaintOneBlo 0x9d00981c          0x98c        2444   
.text.lodepng_inflate   0x9d00a1a8          0x978        2424   
.text.JPEG_bReadHeader  0x9d00ab20          0x890        2192   
.text.DRV_MXT336T_Tasks 0x9d00b3b0          0x7c4        1988   
.text.SYS_MEMORY_DDR_In 0x9d00bb74          0x6c8        1736   
.text.jpeg_idct_islow   0x9d00c23c          0x6b8        1720   
.text.contextDefInitial 0x9d00c8f4          0x620        1568   
.text.SYS_PORTS_Initial 0x9d00cf14          0x598        1432   
.text.drawMultiLineStri 0x9d00d4ac          0x550        1360   
.text.getPixelColorsRGB 0x9d00d9fc          0x540        1344   
.text.lodepng_convert   0x9d00df3c          0x538        1336   
.text._laContext_ShowSc 0x9d00e474          0x4b0        1200   
.text                   0x9d00e924          0x8bc        2236  App's exec code 
.text.run               0x9d00f1e0          0x450        1104   
.text.cpuDrawStretchBli 0x9d00f630          0x440        1088   
.text.GFXU_DrawImageRLE 0x9d00fa70          0x428        1064   
.text.run               0x9d00fe98          0x414        1044   
.text.getPixelColorRGBA 0x9d0102ac          0x400        1024   
.text.drawMultiLineStri 0x9d0106ac          0x3fc        1020   
.text.laWidget_SkinClas 0x9d010aa8          0x3e8        1000   
.text.DRV_I2C_Initializ 0x9d010e90          0x3a4         932   
.text._laContext_PaintW 0x9d011234          0x39c         924   
.text.laWidget_SkinClas 0x9d0115d0          0x398         920   
.text.unfilter          0x9d011968          0x390         912   
.text.HuffmanTree_makeF 0x9d011cf8          0x350         848   
.text.run               0x9d012048          0x34c         844   
.text.GFX_Open          0x9d012394          0x334         820   
.text.GFXU_DrawImage    0x9d0126c8          0x330         816   
.text.cpuDrawStretchBli 0x9d0129f8          0x310         784   
.text.DRV_GFX_LCC_Displ 0x9d012d08          0x304         772   
.text.run               0x9d01300c          0x300         768   
.text.GFXU_DrawImageJpg 0x9d01330c          0x2d4         724   
.text.JPEG_bDecodeOneBl 0x9d0135e0          0x2c0         704   
.text.GFXU_DrawImagePng 0x9d0138a0          0x2bc         700   
.text.GFXU_DrawImageJpg 0x9d013b5c          0x2a4         676   
.text.laUtils_ArrangeRe 0x9d013e00          0x28c         652   
.text.malloc            0x9d01408c          0x28c         652   
.text.cpuDrawLine       0x9d014318          0x280         640   
.text.GFX_DrawDirectBli 0x9d014598          0x27c         636   
.text.fpsubadd          0x9d014814          0x278         632   
.text.GFX_DrawBlit      0x9d014a8c          0x250         592   
.text.lodepng_inspect   0x9d014cdc          0x24c         588   
.text._laContext_Paint  0x9d014f28          0x238         568   
.text.GFXU_DrawImageRaw 0x9d015160          0x230         560   
.text.fp32div           0x9d015390          0x230         560   
.text.lccInitialize     0x9d0155c0          0x228         552   
.text.getPixelColorRGBA 0x9d0157e8          0x224         548   
.text.GFX_DrawLine      0x9d015a0c          0x224         548   
.text.GFXU_DrawImagePng 0x9d015c30          0x21c         540   
.text._laLayer_Preframe 0x9d015e4c          0x200         512   
.text.laUtils_ArrangeRe 0x9d01604c          0x1fc         508   
.text.GFXU_DecodeUTF8   0x9d016248          0x1f8         504   
.text.GFXU_DrawUnknownG 0x9d016440          0x1f4         500   
.text.SYS_INP_Tasks     0x9d016634          0x1f4         500   
.text.lodepng_add_itext 0x9d016828          0x1f0         496   
.text.ScreenCreate_scre 0x9d016a18          0x1e0         480   
.text.lodepng_zlib_deco 0x9d016bf8          0x1dc         476   
.text._DRV_I2C_QueueSlo 0x9d016dd4          0x1d8         472   
.text._laButtonWidget_I 0x9d016fac          0x1d8         472   
.text.cpuDrawRect_Gradi 0x9d017184          0x1d4         468   
.text.cpuDrawRect_Gradi 0x9d017358          0x1d4         468   
.text.GFXU_DrawGlyph    0x9d01752c          0x1c8         456   
.text.SYS_CLK_Initializ 0x9d0176f4          0x1bc         444   
.text.fp32mul           0x9d0178b0          0x1bc         444   
.text.GFX_DrawArc       0x9d017a6c          0x1b8         440   
.text.GFX_DrawRect      0x9d017c24          0x1b8         440   
.text._IntHandlerDrvI2C 0x9d017ddc          0x1b8         440   
.text._IntHandlerExtern 0x9d017f94          0x1b8         440   
.text.laWidget_SkinClas 0x9d01814c          0x1b4         436   
.text.touchMoved        0x9d018300          0x1b4         436   
.text.DRV_I2C_BB_Initia 0x9d0184b4          0x1ac         428   
.text.SYS_Initialize    0x9d018660          0x1ac         428   
.text._laButtonWidget_G 0x9d01880c          0x1a8         424   
.text._IntHandlerSysDma 0x9d0189b4          0x1a8         424   
.text.DRV_I2C_Receive   0x9d018b5c          0x1a4         420   
.text.laScheme_Initiali 0x9d018d00          0x1a4         420   
.text._LCCRefreshISR    0x9d018ea4          0x1a0         416   
.text                   0x9d019044          0x1a0         416  App's exec code 
.text.DRV_I2C_Transmit  0x9d0191e4          0x19c         412   
.text.Adam7_getpassvalu 0x9d019380          0x19c         412   
.text.cpuDrawBlit       0x9d01951c          0x19c         412   
.text.laInput_InjectTou 0x9d0196b8          0x194         404   
.text._sbrk_init        0x9d01984c          0x194         404   
.text.GFXU_GetStringLin 0x9d0199e0          0x190         400   
.text._laButtonWidget_G 0x9d019b70          0x190         400   
.text.defColorModeSet   0x9d019d00          0x18c         396   
.text.cpuDrawLine_Thick 0x9d019e8c          0x188         392   
.text.laContext_Create  0x9d01a014          0x184         388   
.text.cpuDrawLine_Norma 0x9d01a198          0x184         388   
.text.cpuDrawEllipse_Li 0x9d01a31c          0x180         384   
.text.cpuDrawDirectBlit 0x9d01a49c          0x17c         380   
.text.touchUp           0x9d01a618          0x178         376   
.text.GFXU_CompareStrin 0x9d01a790          0x16c         364   
.text.SYS_DMA_ChannelSe 0x9d01a8fc          0x16c         364   
.text                   0x9d01aa68          0x2d0         720  App's exec code 
.text.GFX_Close         0x9d01ad38          0x164         356   
.text.GFX_RectSplit     0x9d01ae9c          0x164         356   
.text.laRectArray_SortB 0x9d01b000          0x15c         348   
.text.drawImage         0x9d01b15c          0x15c         348   
.text.cpuDrawPixel      0x9d01b2b8          0x15c         348   
.text.SYS_DMA_ChannelTr 0x9d01b414          0x15c         348   
.text.rleReadRequestCom 0x9d01b570          0x158         344   
.text.GFX_UtilPointFrom 0x9d01b6c8          0x158         344   
.text.getArcSoftEdgeCol 0x9d01b820          0x154         340   
.text._laImageWidget_Ge 0x9d01b974          0x150         336   
.text.GFXU_GetCharStrin 0x9d01bac4          0x14c         332   
.text.cpuDrawCircle_Lin 0x9d01bc10          0x148         328   
.text.realloc           0x9d01bd58          0x148         328   
.text.JPEG_bGet1Bit     0x9d01bea0          0x144         324   
.text.laString_DrawSubS 0x9d01bfe4          0x144         324   
.text.GFX_ColorBlend_RG 0x9d01c128          0x144         324   
.text.GFX_SineCosineGet 0x9d01c26c          0x144         324   
.text.fputc             0x9d01c3b0          0x144         324   
.text.cpuDrawRect_Fill  0x9d01c4f4          0x140         320   
.text.GFXU_DrawSubStrin 0x9d01c634          0x138         312   
.text.laInput_InjectTou 0x9d01c76c          0x134         308   
.text._laLayer_AddDamag 0x9d01c8a0          0x134         308   
.text.GFX_PixelBufferAr 0x9d01c9d4          0x134         308   
.text.GFXU_DrawImageRaw 0x9d01cb08          0x130         304   
.text.GFXU_DrawImageRLE 0x9d01cc38          0x130         304   
.text.setLayerAttribute 0x9d01cd68          0x130         304   
.text._laWidget_Constru 0x9d01ce98          0x130         304   
.text._laWidget_Invalid 0x9d01cfc8          0x130         304   
.text.laWidget_SkinClas 0x9d01d0f8          0x130         304   
.text.laWidget_SkinClas 0x9d01d228          0x130         304   
.text.GFX_DrawPixel     0x9d01d358          0x130         304   
.text.laEvent_ProcessEv 0x9d01d488          0x12c         300   
.text._flsbuf           0x9d01d5b4          0x12c         300   
.text.checkColorValidit 0x9d01d6e0          0x128         296   
.text.GFX_RectClipAdj   0x9d01d808          0x128         296   
.text.cpuDrawRect_Line  0x9d01d930          0x128         296   
.text.lccUpdate         0x9d01da58          0x128         296   
.rodata                 0x9d01db80          0x128         296  Read-only const 
.text.laWidget_SkinClas 0x9d01dca8          0x124         292   
.text.laWidget_SkinClas 0x9d01ddcc          0x124         292   
.text.GFX_LayerFromOrie 0x9d01def0          0x124         292   
.text.GFXU_DrawStringBu 0x9d01e014          0x120         288   
.text.nextState         0x9d01e134          0x120         288   
.text.drawImage         0x9d01e254          0x120         288   
.text.laLayer_New       0x9d01e374          0x118         280   
.text.lodepng_add_text  0x9d01e48c          0x114         276   
.text._laLabelWidget_Ge 0x9d01e5a0          0x114         276   
.text.GFX_UtilPointToOr 0x9d01e6b4          0x114         276   
.text.drawPaletteData   0x9d01e7c8          0x110         272   
.text.GFXU_DrawStringEx 0x9d01e8d8          0x110         272   
.text.defDestroy        0x9d01e9e8          0x110         272   
.text.GFXU_DecodeAndDra 0x9d01eaf8          0x10c         268   
.text.laRectArray_Merge 0x9d01ec04          0x10c         268   
.text.defLayerBufferCou 0x9d01ed10          0x10c         268   
.text.laInput_InjectTou 0x9d01ee1c          0x108         264   
.text.laWidget_SetSize  0x9d01ef24          0x108         264   
.text.layerBufferAlloca 0x9d01f02c          0x108         264   
.text.SYS_DEVCON_Perfor 0x9d01f134          0x104         260   
.rodata                 0x9d01f238          0x104         260  Read-only const 
.text.color_tree_add    0x9d01f33c          0x100         256   
.text.GFX_EllipsePoint  0x9d01f43c          0x100         256   
.text.DRV_I2C_MasterBuf 0x9d01f53c           0xfc         252   
.text.laString_Compare  0x9d01f638           0xfc         252   
.text.laWidget_SetPosit 0x9d01f734           0xfc         252   
.text.defDrawBlendModeS 0x9d01f830           0xfc         252   
.text.DRV_I2C_MasterBuf 0x9d01f92c           0xf8         248   
.text.GFX_LayerToOrient 0x9d01fa24           0xf8         248   
.text.arcsOverlapQuadra 0x9d01fb1c           0xf8         248   
.text.GFXU_DrawSubStrin 0x9d01fc14           0xf4         244   
.text.laList_Remove     0x9d01fd08           0xf4         244   
.text.la_strcmp         0x9d01fdfc           0xf4         244   
.text.DRV_I2C_Open      0x9d01fef0           0xec         236   
.text.pickChild         0x9d01ffdc           0xec         236   
.text.GFX_DrawPixelByDr 0x9d0200c8           0xec         236   
.text.SYS_DMA_Tasks     0x9d0201b4           0xec         236   
.text.getRLEDataAtIndex 0x9d0202a0           0xe8         232   
.text.updateDirtyFlags  0x9d020388           0xe8         232   
.text.laUtils_WidgetIsO 0x9d020470           0xe8         232   
.text.lodepng_color_mod 0x9d020558           0xe4         228   
.text.GFX_PixelBufferCr 0x9d02063c           0xe0         224   
.text.lodepng_color_mod 0x9d02071c           0xdc         220   
.text.touchDown         0x9d0207f8           0xdc         220   
.text.defMirroringSet   0x9d0208d4           0xdc         220   
.text.general_exception 0x9d0209b0           0xdc         220   
.text.defInitialize     0x9d020a8c           0xd8         216   
.text.defOrientationSet 0x9d020b64           0xd8         216   
.text._cache_err_except 0x9d020c3c           0xd8         216   
.text.simple_tlb_refill 0x9d020d14           0xd8         216   
.text.generateFixedLitL 0x9d020dec           0xd4         212   
.text.transformCoordina 0x9d020ec0           0xd4         212   
.text.laLayer_AddDamage 0x9d020f94           0xd4         212   
.text.laRectArray_Remov 0x9d021068           0xd4         212   
.text.drawBackground    0x9d02113c           0xd4         212   
.text._mon_putc         0x9d021210           0xd4         212   
.text.laWidget_SetBackg 0x9d0212e4           0xd0         208   
.text.nextState         0x9d0213b4           0xd0         208   
.rodata                 0x9d021484            0x4           4  Read-only const 
.rodata                 0x9d021488           0xd0         208  Read-only const 
.text.color_tree_get    0x9d021558           0xcc         204   
.text.LodePNGIText_clea 0x9d021624           0xc8         200   
.text.lodepng_chunk_app 0x9d0216ec           0xc8         200   
.text.laRectArray_Remov 0x9d0217b4           0xc8         200   
.text._laButtonWidget_C 0x9d02187c           0xc8         200   
.text._sbrk             0x9d021944           0xc8         200   
.text.handleTouchDown   0x9d021a0c           0xc4         196   
.text._laLayer_FinishFr 0x9d021ad0           0xc4         196   
.text.laWidget_SkinClas 0x9d021b94           0xc4         196   
.text.GFX_RectCombine   0x9d021c58           0xc4         196   
.text.removePaddingBits 0x9d021d1c           0xc0         192   
.text.laString_GetLineR 0x9d021ddc           0xc0         192   
.text.laWidget_SkinClas 0x9d021e9c           0xc0         192   
.text._DRV_I2C_QueuePus 0x9d021f5c           0xbc         188   
.text.JPEG_bGetNextHuff 0x9d022018           0xbc         188   
.text.GFXU_DrawCharSubS 0x9d0220d4           0xbc         188   
.text.laString_GetMulti 0x9d022190           0xbc         188   
.text.defLayerBufferAdd 0x9d02224c           0xbc         188   
.tlb.__pic32_tlb_init_e 0x9d022308           0xbc         188   
.text.laWidget_SkinClas 0x9d0223c4           0xb8         184   
.text._laButtonWidget_P 0x9d02247c           0xb8         184   
.rodata                 0x9d022534           0xb8         184  Read-only const 
.text.drawGlyphRow8bpp  0x9d0225ec           0xb4         180   
.text.laWidget_SkinClas 0x9d0226a0           0xb4         180   
.text._laImageWidget_Pa 0x9d022754           0xb4         180   
.text._laLabelWidget_Pa 0x9d022808           0xb4         180   
.text.GFX_RectsAreSimil 0x9d0228bc           0xb4         180   
.text.GFXU_DrawSubStrin 0x9d022970           0xb0         176   
.text.GFXU_FontGetLooku 0x9d022a20           0xb0         176   
.text._shuffleLeft      0x9d022ad0           0xb0         176   
.text.laRectArray_PushB 0x9d022b80           0xb0         176   
.text.nextState         0x9d022c30           0xb0         176   
.text.lerp_argb8888     0x9d022ce0           0xb0         176   
.text.lerp_rgba8888     0x9d022d90           0xb0         176   
.text.drawGlyphRow1bpp  0x9d022e40           0xac         172   
.text.laArray_Destroy   0x9d022eec           0xac         172   
.text.findNextLayer     0x9d022f98           0xac         172   
.text.laWidget_GetCumul 0x9d023044           0xac         172   
.text.laWidget_SkinClas 0x9d0230f0           0xac         172   
.text.GFX_PixelBufferAr 0x9d02319c           0xac         172   
.text.laScreen_New      0x9d023248           0xa8         168   
.text                   0x9d0232f0           0xa8         168  App's exec code 
.text.DRV_MXT336T_Open  0x9d023398           0xa4         164   
.text._laLayer_Invalida 0x9d02343c           0xa4         164   
.text.laRectArray_Copy  0x9d0234e0           0xa4         164   
.text.laWidget_RectToLa 0x9d023584           0xa4         164   
.text.invalidateContent 0x9d023628           0xa4         164   
.text.StartI2C          0x9d0236cc           0xa0         160   
.text.DRV_MXT336T_Initi 0x9d02376c           0xa0         160   
.text.HuffmanTree_makeF 0x9d02380c           0xa0         160   
.text.imageReadRequestC 0x9d0238ac           0xa0         160   
.text.GFXU_DecodeUTF16  0x9d02394c           0xa0         160   
.text._laWidget_Destruc 0x9d0239ec           0xa0         160   
.text.laWidget_AddChild 0x9d023a8c           0xa0         160   
.text.laWidget_SkinClas 0x9d023b2c           0xa0         160   
.text._DRV_I2C_QueuePop 0x9d023bcc           0x9c         156   
.text.GFX_ColorBilerp   0x9d023c68           0x9c         156   
.text.rejectPixel       0x9d023d04           0x9c         156   
.text.write             0x9d023da0           0x9c         156   
.text._laContext_Update 0x9d023e3c           0x98         152   
.text.lerp_rgba5551     0x9d023ed4           0x98         152   
.text.LibAria_Initializ 0x9d023f6c           0x98         152   
.text.GFXU_FontGetGlyph 0x9d024004           0x94         148   
.text.laArray_Resize    0x9d024098           0x94         148   
.text.laArray_PushBack  0x9d02412c           0x94         148   
.text.laArray_Free      0x9d0241c0           0x94         148   
.text.laContext_SetActi 0x9d024254           0x94         148   
.text._laLayer_Moved    0x9d0242e8           0x94         148   
.text._laLayer_Resized  0x9d02437c           0x94         148   
.text.laList_PushBack   0x9d024410           0x94         148   
.text.laRectArray_Resiz 0x9d0244a4           0x94         148   
.text.laUtils_ClipRectT 0x9d024538           0x94         148   
.text.laWidget_SkinClas 0x9d0245cc           0x94         148   
.text.GFX_PixelBufferCl 0x9d024660           0x94         148   
.text.LodePNGText_clean 0x9d0246f4           0x90         144   
.text.laContext_RedrawA 0x9d024784           0x90         144   
.text.laContext_SetEdit 0x9d024814           0x90         144   
.text.laUtils_PickFromL 0x9d0248a4           0x90         144   
.text.laWidget_DeleteAl 0x9d024934           0x90         144   
.text.laWidget_SkinClas 0x9d0249c4           0x90         144   
.text._RegWrite16       0x9d024a54           0x8c         140   
.rodata                 0x9d024ae0          0x118         280  Read-only const 
.text.lodepng_decode_me 0x9d024bf8           0x8c         140   
.text.GFXU_StringLookup 0x9d024c84           0x8c         140   
.text.laList_Destroy    0x9d024d10           0x8c         140   
.text.defLayerPositionS 0x9d024d9c           0x8c         140   
.text.GFX_RectClip      0x9d024e28           0x8c         140   
.text._IntHandlerChange 0x9d024eb4           0x8c         140   
.text._IntHandlerChange 0x9d024f40           0x8c         140   
.text.lodepng_chunk_typ 0x9d024fcc           0x88         136   
.text.waitImage         0x9d025054           0x88         136   
.text.defDrawPaletteSet 0x9d0250dc           0x88         136   
.text.defGlobalAlphaBle 0x9d025164           0x88         136   
.text.defPixelArrayGet  0x9d0251ec           0x88         136   
.text.JPEG_bGenerateHuf 0x9d025274           0x84         132   
.text.uivector_resize   0x9d0252f8           0x84         132   
.text.string_set        0x9d02537c           0x84         132   
.text.lodepng_info_init 0x9d025400           0x84         132   
.text.laButtonWidget_Se 0x9d025484           0x84         132   
.text.GFX_ReadPixelArra 0x9d025508           0x84         132   
.text.GFX_PolarToXY     0x9d02558c           0x84         132   
.text.SYS_INP_AddListen 0x9d025610           0x84         132   
.text                   0x9d025694           0x84         132  App's exec code 
.text.uivector_resizev  0x9d025718           0x80         128   
.text.generateFixedDist 0x9d025798           0x80         128   
.text._laLayer_Paint    0x9d025818           0x80         128   
.text.laUtils_WidgetLay 0x9d025898           0x80         128   
.text.laWidget_SkinClas 0x9d025918           0x80         128   
.text.layerBufferFree   0x9d025998           0x80         128   
.text.defLayerSwapSet   0x9d025a18           0x80         128   
.text.get_displayInfo   0x9d025a98           0x80         128   
.text.lerp_rgb888       0x9d025b18           0x80         128   
.text.lerp_rgb565       0x9d025b98           0x80         128   
.text.lerp_rgb332       0x9d025c18           0x80         128   
.text.rejectBlit        0x9d025c98           0x80         128   
.text._fassert          0x9d025d18           0x80         128   
.text.readBitsFromRever 0x9d025d98           0x7c         124   
.text.laString_GetHeigh 0x9d025e14           0x7c         124   
.text.laString_GetAscen 0x9d025e90           0x7c         124   
.text.laWidget_SkinClas 0x9d025f0c           0x7c         124   
.text.laLabelWidget_Set 0x9d025f88           0x7c         124   
.text.GFX_LayerSwap     0x9d026004           0x7c         124   
.text.cpuDrawLine_Horz  0x9d026080           0x7c         124   
.text.cpuDrawLine_Vert  0x9d0260fc           0x7c         124   
.text.GFX_PercentOf     0x9d026178           0x7c         124   
.text.fptoul            0x9d0261f4           0x7c         124   
.text.huffmanDecodeSymb 0x9d026270           0x78         120   
.text.addColorBits      0x9d0262e8           0x78         120   
.text.paethPredictor    0x9d026360           0x78         120   
.text.GFXU_StringIndexL 0x9d0263d8           0x78         120   
.text.laArray_Find      0x9d026450           0x78         120   
.text._laLabelWidget_Co 0x9d0264c8           0x78         120   
.text.defAlphaChannelBl 0x9d026540           0x78         120   
.rodata                 0x9d0265b8           0x78         120  Read-only const 
.text.ucvector_reserve  0x9d026630           0x74         116   
.text.GFXU_StringFontIn 0x9d0266a4           0x74         116   
.text._laContext_Update 0x9d026718           0x74         116   
.text.laContext_SetFocu 0x9d02678c           0x74         116   
.text.laLayer_SetBuffer 0x9d026800           0x74         116   
.text.laScreen_SetLayer 0x9d026874           0x74         116   
.text.laUtils_ChildInte 0x9d0268e8           0x74         116   
.text.laUtils_GetNextHi 0x9d02695c           0x74         116   
.text.laWidget_Invalida 0x9d0269d0           0x74         116   
.text.laWidget_SkinClas 0x9d026a44           0x74         116   
.text.drawBorder        0x9d026ab8           0x74         116   
.text.drawBackground    0x9d026b2c           0x74         116   
.text.laImageWidget_Set 0x9d026ba0           0x74         116   
.text.GFX_RectContainsR 0x9d026c14           0x74         116   
.text.GFX_RectIntersect 0x9d026c88           0x74         116   
.text.raise             0x9d026cfc           0x74         116   
.text.GFX_Set           0x9d026d70           0x70         112   
.text.GFX_PixelBufferSe 0x9d026de0           0x70         112   
.text.GFX_ScaleInteger  0x9d026e50           0x70         112   
.rodata                 0x9d026ec0           0x70         112  Read-only const 
.text.JPEG_wGetBits     0x9d026f30           0x6c         108   
.text._shuffleLeft      0x9d026f9c           0x6c         108   
.text.handleTouchUp     0x9d027008           0x6c         108   
.text.handleTouchMoved  0x9d027074           0x6c         108   
.text.laRectArray_Remov 0x9d0270e0           0x6c         108   
.text.laString_Destroy  0x9d02714c           0x6c         108   
.text.laUtils_GetLayer  0x9d0271b8           0x6c         108   
.text.laWidget_SkinClas 0x9d027224           0x6c         108   
.text.laWidget_SkinClas 0x9d027290           0x6c         108   
.text.GFX_Lerp          0x9d0272fc           0x6c         108   
.text.SYS_DMA_Initializ 0x9d027368           0x6c         108   
.text._MXT336T_FindObje 0x9d0273d4           0x68         104   
.text.JPEG_wReadWord    0x9d02743c           0x68         104   
.text.externalMemoryRea 0x9d0274a4           0x68         104   
.text.setBitOfReversedS 0x9d02750c           0x68         104   
.text.laArray_Remove    0x9d027574           0x68         104   
.text.laContext_GetScre 0x9d0275dc           0x68         104   
.text.laRectArray_Destr 0x9d027644           0x68         104   
.text.waitString        0x9d0276ac           0x68         104   
.text.waitImage         0x9d027714           0x68         104   
.text._laImageWidget_Co 0x9d02777c           0x68         104   
.text.waitString        0x9d0277e4           0x68         104   
.text.defDrawGradientCo 0x9d02784c           0x68         104   
.text.defLayerSizeGet   0x9d0278b4           0x68         104   
.text.defLayerSizeSet   0x9d02791c           0x68         104   
.text._GFX_LayerSizeSet 0x9d027984           0x68         104   
.text.GFX_PixelBufferSe 0x9d0279ec           0x68         104   
.text.getNumColorChanne 0x9d027a54           0x64         100   
.text._laInput_HandleIn 0x9d027ab8           0x64         100   
.text.isAncestorOf      0x9d027b1c           0x64         100   
.text.laWidget_RemoveCh 0x9d027b80           0x64         100   
.text.defLayerActiveSet 0x9d027be4           0x64         100   
.text.defDrawMaskEnable 0x9d027c48           0x64         100   
.text.rgb565_gs8        0x9d027cac           0x64         100   
.text.rgb332_gs8        0x9d027d10           0x64         100   
.text.JPEG_sGetBitsValu 0x9d027d74           0x60          96   
.text.color_tree_cleanu 0x9d027dd4           0x60          96   
.text.GFXU_GetStringHei 0x9d027e34           0x60          96   
.text.GFXU_GetStringAsc 0x9d027e94           0x60          96   
.text.laLayer_Delete    0x9d027ef4           0x60          96   
.text._laWidget_Validat 0x9d027f54           0x60          96   
.text.GFX_PixelBufferOf 0x9d027fb4           0x60          96   
.text.GFX_RectFromPoint 0x9d028014           0x60          96   
.text.lut_argb8888      0x9d028074           0x60          96   
.text.lut_rgba8888      0x9d0280d4           0x60          96   
.text.lut_rgb888        0x9d028134           0x60          96   
.text.lut_rgba5551      0x9d028194           0x60          96   
.text.lut_rgb565        0x9d0281f4           0x60          96   
.text.lut_rgb332        0x9d028254           0x60          96   
.text.lut_gs8           0x9d0282b4           0x60          96   
.text.sitofp            0x9d028314           0x60          96   
.text.lodepng_chunk_che 0x9d028374           0x5c          92   
.text.done              0x9d0283d0           0xb8         184   
.text.laUtils_RectToLay 0x9d028488           0x5c          92   
.text.drawBorder        0x9d0284e4           0x5c          92   
.text.defDrawGradientCo 0x9d028540           0x5c          92   
.text.defLayerPositionG 0x9d02859c           0x5c          92   
.text.indexGet          0x9d0285f8           0x5c          92   
.text.GFX_PixelBufferDe 0x9d028654           0x5c          92   
.text.pointRelPositionF 0x9d0286b0           0x5c          92   
.text.SYS_DMA_ChannelAl 0x9d02870c           0x5c          92   
.text.createDefaultMemI 0x9d028768           0x58          88   
.text._laLayer_NeedsDra 0x9d0287c0           0x58          88   
.text.laImageWidget_New 0x9d028818           0x58          88   
.text.drawBorder        0x9d028870           0xb0         176   
.text.GFX_ColorModeInfo 0x9d028920           0x58          88   
.text.defDrawPipelineMo 0x9d028978           0x58          88   
.text.defDrawPaletteGet 0x9d0289d0           0x58          88   
.text.GFX_PixelBufferGe 0x9d028a28           0x58          88   
.text.GFX_ColorLerp     0x9d028a80           0x58          88   
.text.GFX_PercentWholeR 0x9d028ad8           0x58          88   
.text.LibAria_Tasks     0x9d028b30           0x58          88   
.text.SYS_DEVCON_System 0x9d028b88           0x58          88   
.text.main_entry        0x9d028be0           0x54          84   
.text.ucvector_push_bac 0x9d028c34           0x54          84   
.text.lodepng_crc32     0x9d028c88           0x54          84   
.text.lodepng_get_raw_s 0x9d028cdc           0x54          84   
.text.lodepng_get_raw_s 0x9d028d30           0x54          84   
.text._laLayer_Postfram 0x9d028d84           0x54          84   
.text.laWidget_GetCumul 0x9d028dd8           0x54          84   
.text.laWidget_SkinClas 0x9d028e2c           0x54          84   
.text.laWidget_SkinClas 0x9d028e80           0x54          84   
.text._laButtonWidget_D 0x9d028ed4           0x54          84   
.text._laLabelWidget_De 0x9d028f28           0x54          84   
.text.GFX_Get           0x9d028f7c           0x54          84   
.text.GFX_PixelBufferGe 0x9d028fd0           0x54          84   
.text.SYS_INT_SourceDis 0x9d029024           0x54          84   
.text.libaria_initializ 0x9d029078           0x54          84   
.text.lodepng_info_clea 0x9d0290cc           0x50          80   
.text._laLayer_Reset    0x9d02911c           0x50          80   
.text.laButtonWidget_Ne 0x9d02916c           0x50          80   
.text.laLabelWidget_New 0x9d0291bc           0x50          80   
.text.GFX_PixelBufferGe 0x9d02920c           0x50          80   
.text.GFX_RectContainsP 0x9d02925c           0x50          80   
.text.sbrk              0x9d0292ac           0x50          80   
.rodata                 0x9d0292fc           0x4c          76  Read-only const 
.text.readBitsFromStrea 0x9d029348           0x4c          76   
.text.laWidget_SetBorde 0x9d029394           0x4c          76   
.text._laWidget_Paint   0x9d0293e0           0x4c          76   
.text.defLayerBufferCoh 0x9d02942c           0x4c          76   
.text                   0x9d029478           0x4c          76  App's exec code 
.text.calloc            0x9d0294c4           0x4c          76   
.text.GFXU_GetStringSiz 0x9d029510           0x48          72   
.text.laContext_AddScre 0x9d029558           0x48          72   
.text.laEvent_AddEvent  0x9d0295a0           0x48          72   
.text.la_strcpy         0x9d0295e8           0x48          72   
.text._laImageWidget_De 0x9d029630           0x48          72   
.text.defDrawTargetSet  0x9d029678           0x48          72   
.text.defDrawClipRectGe 0x9d0296c0           0x48          72   
.text.defDrawClipRectSe 0x9d029708           0x48          72   
.text.GFX_RectCompare   0x9d029750           0x48          72   
.text.SYS_INP_InjectTou 0x9d029798           0x48          72   
.text.SYS_INP_InjectTou 0x9d0297e0           0x48          72   
.text.SYS_INP_InjectTou 0x9d029828           0x48          72   
.text.driverLCCInfoGet  0x9d029870           0x48          72   
.text.SYS_DEVCON_System 0x9d0298b8           0x48          72   
.text._bootstrap_except 0x9d029900           0x48          72   
.text._cache_err_except 0x9d029948           0x48          72   
.text._simple_tlb_refil 0x9d029990           0x48          72   
.text.lodepng_encoder_s 0x9d0299d8           0x44          68   
.text.lodepng_state_ini 0x9d029a1c           0x44          68   
.text.GFXU_DrawGlyphRow 0x9d029a60           0x44          68   
.text.invalidateImageRe 0x9d029aa4           0x44          68   
.text.invalidateTextRec 0x9d029ae8           0x44          68   
.text.defBegin          0x9d029b2c           0x44          68   
.text.defLayerBufferIsA 0x9d029b70           0x44          68   
.text.get_layerBufferAd 0x9d029bb4           0x44          68   
.text.get_layerBufferCo 0x9d029bf8           0x44          68   
.text.get_layerBufferAl 0x9d029c3c           0x44          68   
.text.SYS_INP_Init      0x9d029c80           0x44          68   
.text.lccDestroy        0x9d029cc4           0x44          68   
.text                   0x9d029d08           0x44          68  App's exec code 
.text.internalMemoryRea 0x9d029d4c           0x40          64   
.text.lodepng_realloc   0x9d029d8c           0x40          64   
.text.ucvector_resize   0x9d029dcc           0x40          64   
.text.string_init       0x9d029e0c           0x40          64   
.text.laContext_Update  0x9d029e4c           0x40          64   
.text.laWidget_GetIndex 0x9d029e8c           0x40          64   
.text.defBrightnessSet  0x9d029ecc           0x40          64   
.text.get_drawGradientC 0x9d029f0c           0x40          64   
.text.rgba5551_rgba8888 0x9d029f4c           0x40          64   
.text.rgba5551_argb8888 0x9d029f8c           0x40          64   
.text.GFX_ColorConvert  0x9d029fcc           0x40          64   
.text.SYS_Tasks         0x9d02a00c           0x40          64   
.text._DRV_I2C_IsQueueE 0x9d02a04c           0x3c          60   
.text.zlib_decompress   0x9d02a088           0x3c          60   
.text.lodepng_compress_ 0x9d02a0c4           0x3c          60   
.text.lodepng_palette_c 0x9d02a100           0x3c          60   
.text.laContext_GetActi 0x9d02a13c           0x3c          60   
.text.defVSyncCallbackS 0x9d02a178           0x3c          60   
.text.defHSyncCallbackS 0x9d02a1b4           0x3c          60   
.text.defLayerBufferAdd 0x9d02a1f0           0x3c          60   
.text.defLayerBufferCoh 0x9d02a22c           0x3c          60   
.text.defLayerAlphaAmou 0x9d02a268           0x3c          60   
.text.GFX_RectToPoints  0x9d02a2a4           0x3c          60   
.text.set_layerAlphaEna 0x9d02a2e0           0x3c          60   
.text.set_layerAlphaAmo 0x9d02a31c           0x3c          60   
.text.set_layerMaskEnab 0x9d02a358           0x3c          60   
.text.set_layerMaskColo 0x9d02a394           0x3c          60   
.text.set_drawGradientC 0x9d02a3d0           0x3c          60   
.text._general_exceptio 0x9d02a40c           0x3c          60   
.text._DRV_I2C_Advance_ 0x9d02a448           0x38          56   
.text.lodepng_free      0x9d02a480           0x38          56   
.text.HuffmanTree_clean 0x9d02a4b8           0x38          56   
.text.GFXU_DecodeCodePo 0x9d02a4f0           0x38          56   
.text.laInitialize      0x9d02a528           0x38          56   
.text.laEditWidget_Star 0x9d02a560           0x38          56   
.text.laUtils_ScreenToO 0x9d02a598           0x38          56   
.text.laUtils_ScreenToM 0x9d02a5d0           0x38          56   
.text.languageChanging  0x9d02a608           0x70         112   
.text.GFX_Update        0x9d02a678           0x38          56   
.text.GFX_Begin         0x9d02a6b0           0x38          56   
.text.GFX_DriverIntfGet 0x9d02a6e8           0x38          56   
.text.get_brightness    0x9d02a720           0x38          56   
.text.get_vsyncCallback 0x9d02a758           0x38          56   
.text.get_hsyncCallback 0x9d02a790           0x38          56   
.text.get_orientation   0x9d02a7c8           0x38          56   
.text.get_mirroring     0x9d02a800           0x38          56   
.text.get_colorMode     0x9d02a838           0x38          56   
.text.get_globalPalette 0x9d02a870           0x38          56   
.text.get_layerEnabled  0x9d02a8a8           0x38          56   
.text.get_layerVisible  0x9d02a8e0           0x38          56   
.text.get_layerInvalid  0x9d02a918           0x38          56   
.text.get_layerVsync    0x9d02a950           0x38          56   
.text.get_layerSwapSync 0x9d02a988           0x38          56   
.text.get_layerSwap     0x9d02a9c0           0x38          56   
.text.get_layerAlphaEna 0x9d02a9f8           0x38          56   
.text.get_layerAlphaAmo 0x9d02aa30           0x38          56   
.text.get_layerMaskEnab 0x9d02aa68           0x38          56   
.text.get_layerMaskColo 0x9d02aaa0           0x38          56   
.text.get_layerBufferCo 0x9d02aad8           0x38          56   
.text.get_drawPipelineM 0x9d02ab10           0x38          56   
.text.get_drawMode      0x9d02ab48           0x38          56   
.text.get_drawColor     0x9d02ab80           0x38          56   
.text.get_drawBlendMode 0x9d02abb8           0x38          56   
.text.get_drawResizeMod 0x9d02abf0           0x38          56   
.text.get_drawAlphaEnab 0x9d02ac28           0x38          56   
.text.get_drawAlphaValu 0x9d02ac60           0x38          56   
.text.get_drawMaskEnabl 0x9d02ac98           0x38          56   
.text.get_drawMaskValue 0x9d02acd0           0x38          56   
.text.get_drawThickness 0x9d02ad08           0x38          56   
.text.get_drawClipEnabl 0x9d02ad40           0x38          56   
.text.GFX_PixelBufferOf 0x9d02ad78           0x38          56   
.text.GFX_UtilOrientPoi 0x9d02adb0           0x38          56   
.text.GFX_UtilMirrorPoi 0x9d02ade8           0x38          56   
.text.SYS_DMA_ChannelEn 0x9d02ae20           0x38          56   
.text.SYS_DMA_ChannelFo 0x9d02ae58           0x38          56   
.text.uivector_cleanup  0x9d02ae90           0x34          52   
.text.ucvector_cleanup  0x9d02aec4           0x34          52   
.text.laInput_SetEnable 0x9d02aef8           0x34          52   
.text.la_strlen         0x9d02af2c           0x34          52   
.text.laWidget_GetChild 0x9d02af60           0x34          52   
.text.defLayerBufferFre 0x9d02af94           0x34          52   
.text.defLayerBufferAll 0x9d02afc8           0x34          52   
.text.get_driverInfo    0x9d02affc           0x34          52   
.text.get_brightnessRan 0x9d02b030           0x34          52   
.text.get_layerCount    0x9d02b064           0x34          52   
.text.get_layerActive   0x9d02b098           0x34          52   
.text.get_layerPosition 0x9d02b0cc           0x34          52   
.text.get_layerSize     0x9d02b100           0x34          52   
.text.get_drawPalette   0x9d02b134           0x34          52   
.text.get_drawTarget    0x9d02b168           0x34          52   
.text.set_layerPosition 0x9d02b19c           0x34          52   
.text.set_layerSize     0x9d02b1d0           0x34          52   
.text.set_layerBufferAd 0x9d02b204           0x34          52   
.text.set_layerBufferCo 0x9d02b238           0x34          52   
.text.rgba8888_rgba5551 0x9d02b26c           0x34          52   
.text.exit              0x9d02b2a0           0x34          52   
.text.JPEG_bReadByte    0x9d02b2d4           0x30          48   
.text.lodepng_malloc    0x9d02b304           0x30          48   
.text.lodepng_get_bpp   0x9d02b334           0x30          48   
.text.lodepng_state_cle 0x9d02b364           0x30          48   
.text.laEditWidget_EndE 0x9d02b394           0x30          48   
.text.orient_180        0x9d02b3c4           0x30          48   
.text.laUtils_WidgetLoc 0x9d02b3f4           0x30          48   
.text.__pic32_alloc_coh 0x9d02b424           0x30          48   
.text.GFX_End           0x9d02b454           0x30          48   
.text.defLayerEnabledSe 0x9d02b484           0x30          48   
.text.defLayerVisibleSe 0x9d02b4b4           0x30          48   
.text.defLayerVsyncSet  0x9d02b4e4           0x30          48   
.text.defLayerInvalidSe 0x9d02b514           0x30          48   
.text.defLayerAlphaEnab 0x9d02b544           0x30          48   
.text.defLayerMaskEnabl 0x9d02b574           0x30          48   
.text.defLayerMaskColor 0x9d02b5a4           0x30          48   
.text.defDrawTargetGet  0x9d02b5d4           0x30          48   
.text.get_drawClipRect  0x9d02b604           0x30          48   
.text.orient_180        0x9d02b634           0x30          48   
.text.GFX_UtilSizeFromO 0x9d02b664           0x30          48   
.text.set_brightness    0x9d02b694           0x30          48   
.text.set_vsyncCallback 0x9d02b6c4           0x30          48   
.text.set_hsyncCallback 0x9d02b6f4           0x30          48   
.text.set_orientation   0x9d02b724           0x30          48   
.text.set_mirroring     0x9d02b754           0x30          48   
.text.set_colorMode     0x9d02b784           0x30          48   
.text.set_globalPalette 0x9d02b7b4           0x30          48   
.text.set_layerActive   0x9d02b7e4           0x30          48   
.text.set_layerEnabled  0x9d02b814           0x30          48   
.text.set_layerVisible  0x9d02b844           0x30          48   
.text.set_layerInvalid  0x9d02b874           0x30          48   
.text.set_layerVsync    0x9d02b8a4           0x30          48   
.text.set_layerSwapSync 0x9d02b8d4           0x30          48   
.text.set_layerSwap     0x9d02b904           0x30          48   
.text.set_layerBufferCo 0x9d02b934           0x30          48   
.text.set_layerBufferAl 0x9d02b964           0x30          48   
.text.set_layerBufferFr 0x9d02b994           0x30          48   
.text.set_drawPipelineM 0x9d02b9c4           0x30          48   
.text.set_drawMode      0x9d02b9f4           0x30          48   
.text.set_drawColor     0x9d02ba24           0x30          48   
.text.set_drawPalette   0x9d02ba54           0x30          48   
.text.set_drawTarget    0x9d02ba84           0x30          48   
.text.set_drawBlendMode 0x9d02bab4           0x30          48   
.text.set_drawResizeMod 0x9d02bae4           0x30          48   
.text.set_drawAlphaEnab 0x9d02bb14           0x30          48   
.text.set_drawAlphaValu 0x9d02bb44           0x30          48   
.text.set_drawMaskEnabl 0x9d02bb74           0x30          48   
.text.set_drawMaskValue 0x9d02bba4           0x30          48   
.text.set_drawThickness 0x9d02bbd4           0x30          48   
.text.set_drawClipEnabl 0x9d02bc04           0x30          48   
.text.set_drawClipRect  0x9d02bc34           0x30          48   
.text.rgb332_rgb888     0x9d02bc64           0x30          48   
.text.rgb332_rgba8888   0x9d02bc94           0x30          48   
.text.rgb332_argb8888   0x9d02bcc4           0x30          48   
.text.rgba5551_rgb888   0x9d02bcf4           0x30          48   
.text.argb8888_rgba5551 0x9d02bd24           0x30          48   
.text.SYS_CLK_Periphera 0x9d02bd54           0x30          48   
.text.free              0x9d02bd84           0x30          48   
.text.lodepng_read32bit 0x9d02bdb4           0x2c          44   
.text.lodepng_chunk_nex 0x9d02bde0           0x2c          44   
.text.lodepng_color_mod 0x9d02be0c           0x2c          44   
.text.getDiscreteValueA 0x9d02be38           0x2c          44   
.text.getOffsetFromInde 0x9d02be64           0x2c          44   
.text._laContext_Handle 0x9d02be90           0x2c          44   
.text.laString_IsEmpty  0x9d02bebc           0x2c          44   
.text.drawBackground    0x9d02bee8           0x58          88   
.text.defGlobalPaletteS 0x9d02bf40           0x2c          44   
.text.defLayerSwapSyncS 0x9d02bf6c           0x2c          44   
.text.defDrawModeSet    0x9d02bf98           0x2c          44   
.text.defDrawColorSet   0x9d02bfc4           0x2c          44   
.text.defDrawResizeMode 0x9d02bff0           0x2c          44   
.text.defDrawAlphaEnabl 0x9d02c01c           0x2c          44   
.text.defDrawAlphaValue 0x9d02c048           0x2c          44   
.text.defDrawMaskValueS 0x9d02c074           0x2c          44   
.text.defDrawThicknessS 0x9d02c0a0           0x2c          44   
.text.defDrawClipEnable 0x9d02c0cc           0x2c          44   
.text.indexGet1bpp      0x9d02c0f8           0x2c          44   
.text.rgb565_argb8888   0x9d02c124           0x2c          44   
.text.GFX_Percent       0x9d02c150           0x2c          44   
.text._fprintf_cdnopsux 0x9d02c17c           0x2c          44   
.text._stub_sbd_memlayo 0x9d02c1a8           0x2c          44   
.text.readBitFromRevers 0x9d02c1d4           0x28          40   
.text.lodepng_decoder_s 0x9d02c1fc           0x28          40   
.text.headerReadRequest 0x9d02c224           0x28          40   
.text.GFXU_GetGlyphRowD 0x9d02c24c           0x28          40   
.text.laContext_SetStri 0x9d02c274           0x28          40   
.text.GFX_Initialize    0x9d02c29c           0x28          40   
.text.defOrientPoint    0x9d02c2c4           0x28          40   
.text.defMirrorPoint    0x9d02c2ec           0x28          40   
.text.rgb332_rgb565     0x9d02c314           0x28          40   
.text.rgb332_rgba5551   0x9d02c33c           0x28          40   
.text.rgb565_rgba8888   0x9d02c364           0x28          40   
.text.rgb888_rgba5551   0x9d02c38c           0x28          40   
.text.SYS_INT_ExternalI 0x9d02c3b4           0x28          40   
.text.touchMoveHandler  0x9d02c3dc           0x28          40   
.text.touchUpHandler    0x9d02c404           0x28          40   
.text.touchDownHandler  0x9d02c42c           0x28          40   
.text.GFX_InitializeDri 0x9d02c454           0x28          40   
.text.getGlyphRowDataSi 0x9d02c47c           0x24          36   
.text.laArray_Create    0x9d02c4a0           0x24          36   
.text.laRectArray_Creat 0x9d02c4c4           0x24          36   
.text.laScreen_GetLayer 0x9d02c4e8           0x24          36   
.text.laString_Initiali 0x9d02c50c           0x24          36   
.text.orient_90         0x9d02c530           0x24          36   
.text.orient_270        0x9d02c554           0x24          36   
.text.mirror_0          0x9d02c578           0x24          36   
.text.mirror_90         0x9d02c59c           0x24          36   
.text.mirror_180        0x9d02c5c0           0x24          36   
.text.mirror_270        0x9d02c5e4           0x24          36   
.text.defAlphaGetPoint  0x9d02c608           0x24          36   
.text.defEnd            0x9d02c62c           0x24          36   
.text.defLayerEnabledGe 0x9d02c650           0x24          36   
.text.defLayerVisibleGe 0x9d02c674           0x24          36   
.text.defLayerBufferCou 0x9d02c698           0x24          36   
.text.defLayerVsyncGet  0x9d02c6bc           0x24          36   
.text.defLayerInvalidGe 0x9d02c6e0           0x24          36   
.text.defLayerSwapGet   0x9d02c704           0x24          36   
.text.defLayerAlphaEnab 0x9d02c728           0x24          36   
.text.defLayerAlphaAmou 0x9d02c74c           0x24          36   
.text.defLayerMaskEnabl 0x9d02c770           0x24          36   
.text.defLayerMaskColor 0x9d02c794           0x24          36   
.text.indexGet4bpp      0x9d02c7b8           0x24          36   
.text.orient_90         0x9d02c7dc           0x24          36   
.text.orient_270        0x9d02c800           0x24          36   
.text.mirror_0          0x9d02c824           0x24          36   
.text.mirror_90         0x9d02c848           0x24          36   
.text.mirror_180        0x9d02c86c           0x24          36   
.text.mirror_270        0x9d02c890           0x24          36   
.text.rgb565_rgb888     0x9d02c8b4           0x24          36   
.text.rgb888_rgb332     0x9d02c8d8           0x24          36   
.text.rgba8888_rgb332   0x9d02c8fc           0x24          36   
.text.rgba8888_rgb565   0x9d02c920           0x24          36   
.text.rgba8888_rgb888   0x9d02c944           0x24          36   
.text.main              0x9d02c968           0x20          32   
.text.JPEG_vResetDecode 0x9d02c988           0x20          32   
.text.getDiscreteValueA 0x9d02c9a8           0x20          32   
.rodata                 0x9d02c9c8           0x20          32  Read-only const 
.text.defBrightnessGet  0x9d02c9e8           0x20          32   
.text.defVSyncCallbackG 0x9d02ca08           0x20          32   
.text.defHSyncCallbackG 0x9d02ca28           0x20          32   
.text.defOrientationGet 0x9d02ca48           0x20          32   
.text.defMirroringGet   0x9d02ca68           0x20          32   
.text.defColorModeGet   0x9d02ca88           0x20          32   
.text.defGlobalPaletteG 0x9d02caa8           0x20          32   
.text.defLayerActiveGet 0x9d02cac8           0x20          32   
.text.defLayerSwapSyncG 0x9d02cae8           0x20          32   
.text.defDrawPipelineMo 0x9d02cb08           0x20          32   
.text.defDrawModeGet    0x9d02cb28           0x20          32   
.text.defDrawColorGet   0x9d02cb48           0x20          32   
.text.defDrawBlendModeG 0x9d02cb68           0x20          32   
.text.defDrawResizeMode 0x9d02cb88           0x20          32   
.text.defDrawAlphaEnabl 0x9d02cba8           0x20          32   
.text.defDrawAlphaValue 0x9d02cbc8           0x20          32   
.text.defDrawMaskEnable 0x9d02cbe8           0x20          32   
.text.defDrawMaskValueG 0x9d02cc08           0x20          32   
.text.defDrawThicknessG 0x9d02cc28           0x20          32   
.text.defDrawClipEnable 0x9d02cc48           0x20          32   
.text.get3byte          0x9d02cc68           0x20          32   
.rodata                 0x9d02cc88           0x20          32  Read-only const 
.text.gs8_rgb565        0x9d02cca8           0x20          32   
.text.gs8_rgba5551      0x9d02ccc8           0x20          32   
.text.rgb565_rgb332     0x9d02cce8           0x20          32   
.text.rgba5551_rgb332   0x9d02cd08           0x20          32   
.text.rgb888_rgb565     0x9d02cd28           0x20          32   
.text.layerSwapPending  0x9d02cd48           0x20          32   
.text.driverLCCContextI 0x9d02cd68           0x20          32   
.text.laUpdate          0x9d02cd88           0x1c          28   
.text.laContext_GetStri 0x9d02cda4           0x1c          28   
.text.laContext_GetStri 0x9d02cdc0           0x1c          28   
.text.laContext_GetEdit 0x9d02cddc           0x1c          28   
.text.laRectArray_Clear 0x9d02cdf8           0x1c          28   
.text.__pic32_free_cohe 0x9d02ce14           0x1c          28   
.text.defPixelGet       0x9d02ce30           0x1c          28   
.text.defPixelSet       0x9d02ce4c           0x1c          28   
.text.GFX_DriverIntfIni 0x9d02ce68           0x1c          28   
.text.set3byte          0x9d02ce84           0x1c          28   
.text.gs8_rgba8888      0x9d02cea0           0x1c          28   
.text.gs8_argb8888      0x9d02cebc           0x1c          28   
.text.lerp_gs8          0x9d02ced8           0x1c          28   
.text.SYS_MEMORY_Initia 0x9d02cef4           0x1c          28   
.text.APP_Tasks         0x9d02cf10           0x18          24   
.text.DRV_MXT336T_ReadR 0x9d02cf28           0x18          24   
.text.getDiscreteValueA 0x9d02cf40           0x18          24   
.text.GFXU_DecodeASCII  0x9d02cf58           0x18          24   
.text.orient_0          0x9d02cf70           0x18          24   
.text._laWidget_Increas 0x9d02cf88           0x18          24   
.text.defMirrorPointEmp 0x9d02cfa0           0x18          24   
.text.GFX_DisplayInfoPt 0x9d02cfb8           0x18          24   
.text.orient_0          0x9d02cfd0           0x18          24   
.text.gs8_rgb332        0x9d02cfe8           0x18          24   
.text.rgb565_rgba5551   0x9d02d000           0x18          24   
.text                   0x9d02d018           0x18          24  App's exec code 
.text.abort             0x9d02d030           0x18          24   
.text.paletteReadReques 0x9d02d048           0x28          40   
.text.fontDataRequestCo 0x9d02d070           0x28          40   
.text.laContext_GetDefa 0x9d02d098           0x14          20   
.text.defBrightnessRang 0x9d02d0ac           0x14          20   
.text.get_displayCount  0x9d02d0c0           0x14          20   
.text.get_driverCount   0x9d02d0d4           0x14          20   
.text.gs8_rgb888        0x9d02d0e8           0x14          20   
.text.rgba5551_rgb565   0x9d02d0fc           0x14          20   
.text.SYS_DMA_Suspend   0x9d02d110           0x14          20   
.text.SYS_DMA_Resume    0x9d02d124           0x14          20   
.text.SYS_INT_Initializ 0x9d02d138           0x14          20   
.text.SYS_DEVCON_Initia 0x9d02d14c           0x14          20   
.rodata                 0x9d02d160           0x20          32  Read-only const 
.text.defMaskColor      0x9d02d180           0x10          16   
.text.GFX_Mini          0x9d02d190           0x10          16   
.text.GFX_Maxi          0x9d02d1a0           0x10          16   
.text.JPEG_vInitDisplay 0x9d02d1b0            0xc          12   
.text.calcOffset24bpp   0x9d02d1bc            0xc          12   
.text.laContext_SetActi 0x9d02d1c8            0xc          12   
.text.GFX_DriverIntfPtr 0x9d02d1d4            0xc          12   
.text.set1byte          0x9d02d1e0            0xc          12   
.text.set2byte          0x9d02d1ec            0xc          12   
.text.set4byte          0x9d02d1f8            0xc          12   
.text.rgb888_rgba8888   0x9d02d204            0xc          12   
.text.rgb888_argb8888   0x9d02d210            0xc          12   
.text.SYS_CLK_SystemFre 0x9d02d21c            0xc          12   
.text.APP_Initialize    0x9d02d228            0x8           8   
.text.DRV_I2C_TransferS 0x9d02d230            0x8           8   
.text.getDiscreteValueA 0x9d02d238            0x8           8   
.text.calcOffset1bpp    0x9d02d240            0x8           8   
.text.calcOffset4bpp    0x9d02d248            0x8           8   
.text.calcOffset8bpp    0x9d02d250            0x8           8   
.text.calcOffset16bpp   0x9d02d258            0x8           8   
.text.calcOffset32bpp   0x9d02d260            0x8           8   
.text.getGlyphRowDataSi 0x9d02d268            0x8           8   
.text.laContext_GetActi 0x9d02d270            0x8           8   
.text.update            0x9d02d278            0x8           8   
.text.moved             0x9d02d280            0x8           8   
.text.resized           0x9d02d288            0x8           8   
.text.focusGained       0x9d02d290            0x8           8   
.text.focusLost         0x9d02d298            0x8           8   
.text.touchDownEvent    0x9d02d2a0            0x8           8   
.text.touchUpEvent      0x9d02d2a8            0x8           8   
.text.touchMovedEvent   0x9d02d2b0            0x8           8   
.text.languageChangingE 0x9d02d2b8            0x8           8   
.text._laWidget_SetDirt 0x9d02d2c0            0x8           8   
.text._laWidget_ClearDi 0x9d02d2c8            0x8           8   
.text.GFX_ActiveContext 0x9d02d2d0            0x8           8   
.text.GFX_ContextActive 0x9d02d2d8            0x8           8   
.text._GFX_DefaultSyncC 0x9d02d2e0            0x8           8   
.text.defUpdate         0x9d02d2e8            0x8           8   
.text.defLayerSwapPendi 0x9d02d2f0            0x8           8   
.text.defLayerSwapped   0x9d02d2f8            0x8           8   
.text.defMaskEmpty      0x9d02d300            0x8           8   
.text.defAlphaEmptyPoin 0x9d02d308            0x8           8   
.text.defEmptyAlphaBlen 0x9d02d310            0x8           8   
.text.defInterrupt      0x9d02d318            0x8           8   
.text.get_unimplemented 0x9d02d320            0x8           8   
.text.get1byte          0x9d02d328            0x8           8   
.text.get2byte          0x9d02d330            0x8           8   
.text.get4byte          0x9d02d338            0x8           8   
.text.set_unimplemented 0x9d02d340            0x8           8   
.text.no_conv           0x9d02d348            0x8           8   
.text.gs8_yuv           0x9d02d350            0x8           8   
.text.rgb332_yuv        0x9d02d358            0x8           8   
.text.rgb565_yuv        0x9d02d360            0x8           8   
.text.rgba5551_gs8      0x9d02d368            0x8           8   
.text.rgba5551_yuv      0x9d02d370            0x8           8   
.text.rgb888_gs8        0x9d02d378            0x8           8   
.text.rgb888_yuv        0x9d02d380            0x8           8   
.text.rgba8888_gs8      0x9d02d388            0x8           8   
.text.rgba8888_argb8888 0x9d02d390            0x8           8   
.text.rgba8888_yuv      0x9d02d398            0x8           8   
.text.argb8888_rgb888   0x9d02d3a0            0x8           8   
.text.argb8888_rgba8888 0x9d02d3a8            0x8           8   
.text.yuv_gs8           0x9d02d3b0            0x8           8   
.text.yuv_rgb332        0x9d02d3b8            0x8           8   
.text.yuv_rgb565        0x9d02d3c0            0x8           8   
.text.yuv_rgba5551      0x9d02d3c8            0x8           8   
.text.yuv_rgb888        0x9d02d3d0            0x8           8   
.text.yuv_rgba8888      0x9d02d3d8            0x8           8   
.text.yuv_argb8888      0x9d02d3e0            0x8           8   
.text.lut_yuv           0x9d02d3e8            0x8           8   
.text.cpuDrawLine_AA    0x9d02d3f0            0x8           8   
.text.cpuDrawRect_Line_ 0x9d02d3f8            0x8           8   
.text.cpuDrawRect_Fill_ 0x9d02d400            0x8           8   
.text.layerBufferCountS 0x9d02d408            0x8           8   
.text.layerBufferAddres 0x9d02d410            0x8           8   
.text.layerBufferAlloca 0x9d02d418            0x8           8   
.text.BSP_Initialize    0x9d02d420            0x8           8   
.text._on_reset         0x9d02d428            0x8           8   
.text._on_bootstrap     0x9d02d430            0x8           8   
.text._cleanup          0x9d02d438            0x8           8   
      Total kseg0_program_mem used  :     0x2d440      185408  8.8% of 0x200000

kseg0 Boot-Memory Usage
section                    address  length [bytes]      (dec)  Description
-------                 ----------  -------------------------  -----------
         Total kseg0_boot_mem used  :           0           0  

kseg1 Boot-Memory Usage
section                    address  length [bytes]      (dec)  Description
-------                 ----------  -------------------------  -----------
.reset                  0xbfc00000          0x1b0         432  Reset handler 
.bev_excpt              0xbfc00380           0x10          16  BEV-Exception 
         Total kseg1_boot_mem used  :       0x1c0         448  38.9% of 0x480
        --------------------------------------------------------------------------
         Total Program Memory used  :     0x2d600      185856  8.9% of 0x200480
        --------------------------------------------------------------------------


kseg0 Data-Memory Usage
section                    address  length [bytes]      (dec)  Description
-------                 ----------  -------------------------  -----------
.sdata                  0x80000000          0x284         644  Small init data 
.sbss                   0x80000284          0x130         304  Small uninit data 
.bss                    0x800003b4          0x3a8         936  Uninitialized data 
.bss.errno              0x8000075c            0x4           4   
.bss                    0x80025f60         0x13f8        5112  Uninitialized data 
.bss                    0x80027358          0x254         596  Uninitialized data 
.data                   0x800275ac          0x410        1040  Initialized data 
.data                   0x800279bc          0x2d8         728  Initialized data 
.data                   0x80027c94           0xa4         164  Initialized data 
.bss                    0x80027d38           0x48          72  Uninitialized data 
.data                   0x80027d80           0x44          68  Initialized data 
.bss                    0x80027dc4           0x44          68  Uninitialized data 
.data                   0x80027e08           0x68         104  Initialized data 
.data                   0x80027e70           0x2c          44  Initialized data 
.bss                    0x80027e9c           0x44          68  Uninitialized data 
.bss                    0x80027ee0           0x18          24  Uninitialized data 
.data                   0x80027ef8            0xc          12  Initialized data 
.COHERENTBSS$           0x80000760        0x25800      153600   
         Total kseg0_data_mem used  :     0x27f04      163588  25.0% of 0xa0000
        --------------------------------------------------------------------------
            Total Data Memory used  :     0x27f04      163588  25.0% of 0xa0000
        --------------------------------------------------------------------------


Dynamic Data-Memory Reservation
section                    address  length [bytes]      (dec)  Description
-------                 ----------  -------------------------  -----------
heap                    0x80027f08        0x19000      102400  Reserved for heap 
stack                   0x80040f20        0x5f0d0      389328  Reserved for stack 

        --------------------------------------------------------------------------

Discarded input sections

 .text          0x00000000        0x0 f:/software_installations/mplab_xc32/bin/bin/../../lib/gcc/pic32mx/4.8.3/../../../../pic32mx/lib/./proc/32MZ2064DAG176/crt0_mips32r2.o
 .data          0x00000000        0x0 f:/software_installations/mplab_xc32/bin/bin/../../lib/gcc/pic32mx/4.8.3/../../../../pic32mx/lib/./proc/32MZ2064DAG176/crt0_mips32r2.o
 .bss           0x00000000        0x0 f:/software_installations/mplab_xc32/bin/bin/../../lib/gcc/pic32mx/4.8.3/../../../../pic32mx/lib/./proc/32MZ2064DAG176/crt0_mips32r2.o
 .text          0x00000000        0x0 f:/software_installations/mplab_xc32/bin/bin/../../lib/gcc/pic32mx/4.8.3/../../../../pic32mx/lib\debug-exception-return.o
 .data          0x00000000        0x0 f:/software_installations/mplab_xc32/bin/bin/../../lib/gcc/pic32mx/4.8.3/../../../../pic32mx/lib\debug-exception-return.o
 .bss           0x00000000        0x0 f:/software_installations/mplab_xc32/bin/bin/../../lib/gcc/pic32mx/4.8.3/../../../../pic32mx/lib\debug-exception-return.o
 .reginfo       0x00000000       0x18 f:/software_installations/mplab_xc32/bin/bin/../../lib/gcc/pic32mx/4.8.3/../../../../pic32mx/lib\debug-exception-return.o
 .text          0x00000000        0x0 build/default/production/_ext/1360937237/app.o
 .data          0x00000000        0x0 build/default/production/_ext/1360937237/app.o
 .bss           0x00000000        0x0 build/default/production/_ext/1360937237/app.o
 .reginfo       0x00000000       0x18 build/default/production/_ext/1360937237/app.o
 COMMON         0x00000000        0x0 build/default/production/_ext/1360937237/app.o
 .text          0x00000000        0x0 build/default/production/_ext/1360937237/main.o
 .data          0x00000000        0x0 build/default/production/_ext/1360937237/main.o
 .bss           0x00000000        0x0 build/default/production/_ext/1360937237/main.o
 .reginfo       0x00000000       0x18 build/default/production/_ext/1360937237/main.o
 .text          0x00000000        0x0 build/default/production/_ext/1864665665/drv_i2c_bb_a.o
 .data          0x00000000        0x0 build/default/production/_ext/1864665665/drv_i2c_bb_a.o
 .reginfo       0x00000000       0x18 build/default/production/_ext/1864665665/drv_i2c_bb_a.o
 .text.DRV_I2C_Deinitialize
                0x00000000       0xfc build/default/production/_ext/1864665665/drv_i2c_bb_a.o
 .text.DRV_I2C_Status
                0x00000000       0x1c build/default/production/_ext/1864665665/drv_i2c_bb_a.o
 .text.DRV_I2C_Tasks
                0x00000000      0x8d0 build/default/production/_ext/1864665665/drv_i2c_bb_a.o
 .text.DRV_I2C_Close
                0x00000000       0x38 build/default/production/_ext/1864665665/drv_i2c_bb_a.o
 .text.DRV_I2C_ClientSetup
                0x00000000       0x70 build/default/production/_ext/1864665665/drv_i2c_bb_a.o
 .text.DRV_I2C_BufferEventHandlerSet
                0x00000000        0xc build/default/production/_ext/1864665665/drv_i2c_bb_a.o
 .text.DRV_I2C_BufferAddRead
                0x00000000      0x1a8 build/default/production/_ext/1864665665/drv_i2c_bb_a.o
 .text.DRV_I2C_BufferAddWrite
                0x00000000      0x1a0 build/default/production/_ext/1864665665/drv_i2c_bb_a.o
 .text.DRV_I2C_TransmitThenReceive
                0x00000000      0x1c0 build/default/production/_ext/1864665665/drv_i2c_bb_a.o
 .text.DRV_I2C_BufferAddWriteRead
                0x00000000      0x1c4 build/default/production/_ext/1864665665/drv_i2c_bb_a.o
 .text.DRV_I2C_BufferStatus
                0x00000000        0x8 build/default/production/_ext/1864665665/drv_i2c_bb_a.o
 .text.DRV_I2C_BytesTransferred
                0x00000000        0x8 build/default/production/_ext/1864665665/drv_i2c_bb_a.o
 .text.DRV_I2C_VersionGet
                0x00000000        0x8 build/default/production/_ext/1864665665/drv_i2c_bb_a.o
 .rodata        0x00000000        0xc build/default/production/_ext/1864665665/drv_i2c_bb_a.o
 .text.DRV_I2C_VersionStrGet
                0x00000000        0xc build/default/production/_ext/1864665665/drv_i2c_bb_a.o
 .text.DRV_I2C_Bus_Reset
                0x00000000      0x4a0 build/default/production/_ext/1864665665/drv_i2c_bb_a.o
 .text.DRV_I2C_StopEventSend
                0x00000000       0x20 build/default/production/_ext/1864665665/drv_i2c_bb_a.o
 .text.DRV_I2C_RestartEventSend
                0x00000000       0x20 build/default/production/_ext/1864665665/drv_i2c_bb_a.o
 .text.DRV_I2C_IRQEventSend
                0x00000000       0x50 build/default/production/_ext/1864665665/drv_i2c_bb_a.o
 .text          0x00000000        0x0 build/default/production/_ext/1864665665/drv_i2c_bb.o
 .data          0x00000000        0x0 build/default/production/_ext/1864665665/drv_i2c_bb.o
 .bss           0x00000000        0x0 build/default/production/_ext/1864665665/drv_i2c_bb.o
 .reginfo       0x00000000       0x18 build/default/production/_ext/1864665665/drv_i2c_bb.o
 .text.DRV_I2C_MasterBufferWrite
                0x00000000       0xe4 build/default/production/_ext/1864665665/drv_i2c_bb.o
 .text.DRV_I2C_MasterBufferRead
                0x00000000       0xe4 build/default/production/_ext/1864665665/drv_i2c_bb.o
 .text.DRV_I2C_MasterBufferWriteReadXE
                0x00000000      0x104 build/default/production/_ext/1864665665/drv_i2c_bb.o
 .text.DRV_I2C_MasterBufferWriteRead
                0x00000000       0xf0 build/default/production/_ext/1864665665/drv_i2c_bb.o
 .text          0x00000000        0x0 build/default/production/_ext/1860398633/drv_mxt336t.o
 .data          0x00000000        0x0 build/default/production/_ext/1860398633/drv_mxt336t.o
 .reginfo       0x00000000       0x18 build/default/production/_ext/1860398633/drv_mxt336t.o
 .text.MXT_INTERRUPT_PIN_VALUE_GET
                0x00000000       0x14 build/default/production/_ext/1860398633/drv_mxt336t.o
 .text.DRV_MXT336T_Deinitialize
                0x00000000       0x40 build/default/production/_ext/1860398633/drv_mxt336t.o
 .text.DRV_MXT336T_Status
                0x00000000       0x1c build/default/production/_ext/1860398633/drv_mxt336t.o
 .text.DRV_MXT336T_Close
                0x00000000       0x30 build/default/production/_ext/1860398633/drv_mxt336t.o
 .text          0x00000000        0x0 build/default/production/_ext/1528952846/jidctint.o
 .data          0x00000000        0x0 build/default/production/_ext/1528952846/jidctint.o
 .bss           0x00000000        0x0 build/default/production/_ext/1528952846/jidctint.o
 .reginfo       0x00000000       0x18 build/default/production/_ext/1528952846/jidctint.o
 .text          0x00000000        0x0 build/default/production/_ext/1572996423/gfxu_image_jpg_common.o
 .data          0x00000000        0x0 build/default/production/_ext/1572996423/gfxu_image_jpg_common.o
 .bss           0x00000000        0x0 build/default/production/_ext/1572996423/gfxu_image_jpg_common.o
 .reginfo       0x00000000       0x18 build/default/production/_ext/1572996423/gfxu_image_jpg_common.o
 .text.JPEG_bInterpretResourceHeader
                0x00000000       0x44 build/default/production/_ext/1572996423/gfxu_image_jpg_common.o
 .text          0x00000000        0x0 build/default/production/_ext/1572996423/gfxu_image_jpg_internal.o
 .data          0x00000000        0x0 build/default/production/_ext/1572996423/gfxu_image_jpg_internal.o
 .reginfo       0x00000000       0x18 build/default/production/_ext/1572996423/gfxu_image_jpg_internal.o
 .text          0x00000000        0x0 build/default/production/_ext/1572996423/gfxu_image_jpg_external.o
 .data          0x00000000        0x0 build/default/production/_ext/1572996423/gfxu_image_jpg_external.o
 .reginfo       0x00000000       0x18 build/default/production/_ext/1572996423/gfxu_image_jpg_external.o
 .text          0x00000000        0x0 build/default/production/_ext/1572996423/gfxu_image_png_external.o
 .data          0x00000000        0x0 build/default/production/_ext/1572996423/gfxu_image_png_external.o
 .bss           0x00000000        0x0 build/default/production/_ext/1572996423/gfxu_image_png_external.o
 .reginfo       0x00000000       0x18 build/default/production/_ext/1572996423/gfxu_image_png_external.o
 .text          0x00000000        0x0 build/default/production/_ext/1572996423/gfxu_image_png_internal.o
 .data          0x00000000        0x0 build/default/production/_ext/1572996423/gfxu_image_png_internal.o
 .bss           0x00000000        0x0 build/default/production/_ext/1572996423/gfxu_image_png_internal.o
 .reginfo       0x00000000       0x18 build/default/production/_ext/1572996423/gfxu_image_png_internal.o
 .text          0x00000000        0x0 build/default/production/_ext/1151653695/lodepng.o
 .data          0x00000000        0x0 build/default/production/_ext/1151653695/lodepng.o
 .bss           0x00000000        0x0 build/default/production/_ext/1151653695/lodepng.o
 .reginfo       0x00000000       0x18 build/default/production/_ext/1151653695/lodepng.o
 .text.bpmnode_create
                0x00000000      0x124 build/default/production/_ext/1151653695/lodepng.o
 .text.boundaryPM
                0x00000000      0x184 build/default/production/_ext/1151653695/lodepng.o
 .text.searchCodeIndex
                0x00000000       0x68 build/default/production/_ext/1151653695/lodepng.o
 .text.getHash  0x00000000       0x78 build/default/production/_ext/1151653695/lodepng.o
 .text.updateHashChain
                0x00000000       0x84 build/default/production/_ext/1151653695/lodepng.o
 .text.filterScanline
                0x00000000      0x318 build/default/production/_ext/1151653695/lodepng.o
 .text.addPaddingBits
                0x00000000       0xe0 build/default/production/_ext/1151653695/lodepng.o
 .text.addBitsToStream
                0x00000000       0xb4 build/default/production/_ext/1151653695/lodepng.o
 .text.addBitsToStreamReversed
                0x00000000       0xbc build/default/production/_ext/1151653695/lodepng.o
 .text.lodepng_add32bitInt
                0x00000000       0x64 build/default/production/_ext/1151653695/lodepng.o
 .text.uivector_push_back
                0x00000000       0x64 build/default/production/_ext/1151653695/lodepng.o
 .text.encodeLZ77
                0x00000000      0x6bc build/default/production/_ext/1151653695/lodepng.o
 .text.writeLZ77data
                0x00000000      0x150 build/default/production/_ext/1151653695/lodepng.o
 .text.lodepng_huffman_code_lengths
                0x00000000      0x4b4 build/default/production/_ext/1151653695/lodepng.o
 .text.HuffmanTree_makeFromFrequencies
                0x00000000       0xec build/default/production/_ext/1151653695/lodepng.o
 .text.lodepng_deflate
                0x00000000      0xf44 build/default/production/_ext/1151653695/lodepng.o
 .text.lodepng_zlib_compress
                0x00000000      0x1c8 build/default/production/_ext/1151653695/lodepng.o
 .text.zlib_compress
                0x00000000       0x3c build/default/production/_ext/1151653695/lodepng.o
 .text.lodepng_decompress_settings_init
                0x00000000       0x14 build/default/production/_ext/1151653695/lodepng.o
 .text.lodepng_chunk_length
                0x00000000       0x1c build/default/production/_ext/1151653695/lodepng.o
 .text.lodepng_chunk_type
                0x00000000       0x28 build/default/production/_ext/1151653695/lodepng.o
 .text.lodepng_chunk_ancillary
                0x00000000        0xc build/default/production/_ext/1151653695/lodepng.o
 .text.lodepng_chunk_private
                0x00000000        0xc build/default/production/_ext/1151653695/lodepng.o
 .text.lodepng_chunk_safetocopy
                0x00000000        0xc build/default/production/_ext/1151653695/lodepng.o
 .text.lodepng_chunk_data
                0x00000000        0x8 build/default/production/_ext/1151653695/lodepng.o
 .text.lodepng_chunk_data_const
                0x00000000        0x8 build/default/production/_ext/1151653695/lodepng.o
 .text.lodepng_chunk_generate_crc
                0x00000000       0x64 build/default/production/_ext/1151653695/lodepng.o
 .text.lodepng_chunk_next
                0x00000000       0x2c build/default/production/_ext/1151653695/lodepng.o
 .text.addUnknownChunks
                0x00000000       0x9c build/default/production/_ext/1151653695/lodepng.o
 .text.lodepng_chunk_create
                0x00000000      0x108 build/default/production/_ext/1151653695/lodepng.o
 .text.addChunk
                0x00000000       0x48 build/default/production/_ext/1151653695/lodepng.o
 .text.addChunk_PLTE
                0x00000000       0xa4 build/default/production/_ext/1151653695/lodepng.o
 .text.addChunk_tRNS
                0x00000000      0x170 build/default/production/_ext/1151653695/lodepng.o
 .text.addChunk_tEXt
                0x00000000       0xec build/default/production/_ext/1151653695/lodepng.o
 .text.lodepng_color_mode_cleanup
                0x00000000       0x1c build/default/production/_ext/1151653695/lodepng.o
 .text.lodepng_palette_add
                0x00000000       0xc8 build/default/production/_ext/1151653695/lodepng.o
 .text.filter   0x00000000      0xa18 build/default/production/_ext/1151653695/lodepng.o
 .text.preProcessScanlines
                0x00000000      0x62c build/default/production/_ext/1151653695/lodepng.o
 .text.lodepng_get_channels
                0x00000000       0x1c build/default/production/_ext/1151653695/lodepng.o
 .text.lodepng_is_greyscale_type
                0x00000000       0x10 build/default/production/_ext/1151653695/lodepng.o
 .text.lodepng_is_alpha_type
                0x00000000        0xc build/default/production/_ext/1151653695/lodepng.o
 .text.lodepng_is_palette_type
                0x00000000       0x10 build/default/production/_ext/1151653695/lodepng.o
 .text.lodepng_has_palette_alpha
                0x00000000       0x64 build/default/production/_ext/1151653695/lodepng.o
 .text.lodepng_can_have_alpha
                0x00000000       0x40 build/default/production/_ext/1151653695/lodepng.o
 .text.lodepng_get_raw_size_lct
                0x00000000       0x64 build/default/production/_ext/1151653695/lodepng.o
 .text.lodepng_clear_text
                0x00000000       0x1c build/default/production/_ext/1151653695/lodepng.o
 .text.lodepng_clear_itext
                0x00000000       0x1c build/default/production/_ext/1151653695/lodepng.o
 .text.lodepng_info_copy
                0x00000000      0x224 build/default/production/_ext/1151653695/lodepng.o
 .text.lodepng_info_swap
                0x00000000       0xac build/default/production/_ext/1151653695/lodepng.o
 .text.lodepng_color_profile_init
                0x00000000       0x28 build/default/production/_ext/1151653695/lodepng.o
 .text.lodepng_get_color_profile
                0x00000000      0x798 build/default/production/_ext/1151653695/lodepng.o
 .text.lodepng_auto_choose_color
                0x00000000      0x260 build/default/production/_ext/1151653695/lodepng.o
 .text.lodepng_state_copy
                0x00000000       0xbc build/default/production/_ext/1151653695/lodepng.o
 .text.lodepng_encode
                0x00000000      0xb64 build/default/production/_ext/1151653695/lodepng.o
 .text.lodepng_decode32
                0x00000000       0x30 build/default/production/_ext/1151653695/lodepng.o
 .text.lodepng_decode24
                0x00000000       0x30 build/default/production/_ext/1151653695/lodepng.o
 .text.lodepng_encode_memory
                0x00000000       0xb0 build/default/production/_ext/1151653695/lodepng.o
 .text.lodepng_encode32
                0x00000000       0x30 build/default/production/_ext/1151653695/lodepng.o
 .text.lodepng_encode24
                0x00000000       0x30 build/default/production/_ext/1151653695/lodepng.o
 .text.lodepng_error_text
                0x00000000      0x574 build/default/production/_ext/1151653695/lodepng.o
 .text          0x00000000        0x0 build/default/production/_ext/1572996423/gfxu_image.o
 .data          0x00000000        0x0 build/default/production/_ext/1572996423/gfxu_image.o
 .bss           0x00000000        0x0 build/default/production/_ext/1572996423/gfxu_image.o
 .reginfo       0x00000000       0x18 build/default/production/_ext/1572996423/gfxu_image.o
 .text.GFXU_PreprocessImage
                0x00000000      0x1ec build/default/production/_ext/1572996423/gfxu_image.o
 .text          0x00000000        0x0 build/default/production/_ext/1572996423/gfxu_image_raw_external.o
 .data          0x00000000        0x0 build/default/production/_ext/1572996423/gfxu_image_raw_external.o
 .bss           0x00000000        0x0 build/default/production/_ext/1572996423/gfxu_image_raw_external.o
 .reginfo       0x00000000       0x18 build/default/production/_ext/1572996423/gfxu_image_raw_external.o
 .text          0x00000000        0x0 build/default/production/_ext/1572996423/gfxu_image_raw_internal.o
 .data          0x00000000        0x0 build/default/production/_ext/1572996423/gfxu_image_raw_internal.o
 .bss           0x00000000        0x0 build/default/production/_ext/1572996423/gfxu_image_raw_internal.o
 .reginfo       0x00000000       0x18 build/default/production/_ext/1572996423/gfxu_image_raw_internal.o
 .text          0x00000000        0x0 build/default/production/_ext/1572996423/gfxu_image_rle_external.o
 .data          0x00000000        0x0 build/default/production/_ext/1572996423/gfxu_image_rle_external.o
 .bss           0x00000000        0x0 build/default/production/_ext/1572996423/gfxu_image_rle_external.o
 .reginfo       0x00000000       0x18 build/default/production/_ext/1572996423/gfxu_image_rle_external.o
 .text          0x00000000        0x0 build/default/production/_ext/1572996423/gfxu_image_rle_internal.o
 .data          0x00000000        0x0 build/default/production/_ext/1572996423/gfxu_image_rle_internal.o
 .bss           0x00000000        0x0 build/default/production/_ext/1572996423/gfxu_image_rle_internal.o
 .reginfo       0x00000000       0x18 build/default/production/_ext/1572996423/gfxu_image_rle_internal.o
 .text          0x00000000        0x0 build/default/production/_ext/1572996423/gfxu_image_utils.o
 .bss           0x00000000        0x0 build/default/production/_ext/1572996423/gfxu_image_utils.o
 .reginfo       0x00000000       0x18 build/default/production/_ext/1572996423/gfxu_image_utils.o
 .text.convertColorAndSetDraw
                0x00000000       0x68 build/default/production/_ext/1572996423/gfxu_image_utils.o
 .text          0x00000000        0x0 build/default/production/_ext/1572996423/gfxu_palette.o
 .data          0x00000000        0x0 build/default/production/_ext/1572996423/gfxu_palette.o
 .bss           0x00000000        0x0 build/default/production/_ext/1572996423/gfxu_palette.o
 .reginfo       0x00000000       0x18 build/default/production/_ext/1572996423/gfxu_palette.o
 .text.GFXU_PaletteGetColor
                0x00000000        0x8 build/default/production/_ext/1572996423/gfxu_palette.o
 .text          0x00000000        0x0 build/default/production/_ext/1572996423/gfxu_string.o
 .data          0x00000000        0x0 build/default/production/_ext/1572996423/gfxu_string.o
 .bss           0x00000000        0x0 build/default/production/_ext/1572996423/gfxu_string.o
 .reginfo       0x00000000       0x18 build/default/production/_ext/1572996423/gfxu_string.o
 .text.GFXU_DrawString
                0x00000000      0x13c build/default/production/_ext/1572996423/gfxu_string.o
 .text.GFXU_DrawStringClipped
                0x00000000      0x124 build/default/production/_ext/1572996423/gfxu_string.o
 .text.GFXU_DrawCharString
                0x00000000       0x8c build/default/production/_ext/1572996423/gfxu_string.o
 .text.GFXU_DrawCharStringClipped
                0x00000000       0xa4 build/default/production/_ext/1572996423/gfxu_string.o
 .text          0x00000000        0x0 build/default/production/_ext/1572996423/gfxu_string_external.o
 .data          0x00000000        0x0 build/default/production/_ext/1572996423/gfxu_string_external.o
 .bss           0x00000000        0x0 build/default/production/_ext/1572996423/gfxu_string_external.o
 .reginfo       0x00000000       0x18 build/default/production/_ext/1572996423/gfxu_string_external.o
 .text          0x00000000        0x0 build/default/production/_ext/1572996423/gfxu_stringbuffer_external.o
 .data          0x00000000        0x0 build/default/production/_ext/1572996423/gfxu_stringbuffer_external.o
 .bss           0x00000000        0x0 build/default/production/_ext/1572996423/gfxu_stringbuffer_external.o
 .reginfo       0x00000000       0x18 build/default/production/_ext/1572996423/gfxu_stringbuffer_external.o
 .text          0x00000000        0x0 build/default/production/_ext/1572996423/gfxu_string_internal.o
 .data          0x00000000        0x0 build/default/production/_ext/1572996423/gfxu_string_internal.o
 .bss           0x00000000        0x0 build/default/production/_ext/1572996423/gfxu_string_internal.o
 .reginfo       0x00000000       0x18 build/default/production/_ext/1572996423/gfxu_string_internal.o
 .text.GFXU_DrawStringInternal
                0x00000000       0xa0 build/default/production/_ext/1572996423/gfxu_string_internal.o
 .text.GFXU_DrawStringBufferInternal
                0x00000000       0xdc build/default/production/_ext/1572996423/gfxu_string_internal.o
 .text          0x00000000        0x0 build/default/production/_ext/1572996423/gfxu_string_query.o
 .data          0x00000000        0x0 build/default/production/_ext/1572996423/gfxu_string_query.o
 .bss           0x00000000        0x0 build/default/production/_ext/1572996423/gfxu_string_query.o
 .reginfo       0x00000000       0x18 build/default/production/_ext/1572996423/gfxu_string_query.o
 .text.GFXU_GetCharAt
                0x00000000      0x108 build/default/production/_ext/1572996423/gfxu_string_query.o
 .text.GFXU_GetStringLength
                0x00000000       0xc0 build/default/production/_ext/1572996423/gfxu_string_query.o
 .text.GFXU_GetCharWidth
                0x00000000       0x44 build/default/production/_ext/1572996423/gfxu_string_query.o
 .text.GFXU_CalculateStringWidth
                0x00000000      0x118 build/default/production/_ext/1572996423/gfxu_string_query.o
 .text.GFXU_GetStringRect
                0x00000000       0xac build/default/production/_ext/1572996423/gfxu_string_query.o
 .text.GFXU_CalculatePartialStringWidth
                0x00000000      0x150 build/default/production/_ext/1572996423/gfxu_string_query.o
 .text.GFXU_CalculateCharStringWidth
                0x00000000       0xc8 build/default/production/_ext/1572996423/gfxu_string_query.o
 .text.GFXU_CalculatePartialCharStringWidth
                0x00000000       0xe0 build/default/production/_ext/1572996423/gfxu_string_query.o
 .text          0x00000000        0x0 build/default/production/_ext/1572996423/gfxu_string_utils.o
 .bss           0x00000000        0x0 build/default/production/_ext/1572996423/gfxu_string_utils.o
 .reginfo       0x00000000       0x18 build/default/production/_ext/1572996423/gfxu_string_utils.o
 .text.GFXU_ExtractString
                0x00000000      0x14c build/default/production/_ext/1572996423/gfxu_string_utils.o
 .text.GFXU_DecodeAndDrawString
                0x00000000       0xf8 build/default/production/_ext/1572996423/gfxu_string_utils.o
 .text          0x00000000        0x0 build/default/production/_ext/493962524/libaria.o
 .data          0x00000000        0x0 build/default/production/_ext/493962524/libaria.o
 .bss           0x00000000        0x0 build/default/production/_ext/493962524/libaria.o
 .reginfo       0x00000000       0x18 build/default/production/_ext/493962524/libaria.o
 .text.laShutdown
                0x00000000       0x44 build/default/production/_ext/493962524/libaria.o
 .text          0x00000000        0x0 build/default/production/_ext/493962524/libaria_array.o
 .data          0x00000000        0x0 build/default/production/_ext/493962524/libaria_array.o
 .bss           0x00000000        0x0 build/default/production/_ext/493962524/libaria_array.o
 .reginfo       0x00000000       0x18 build/default/production/_ext/493962524/libaria_array.o
 .text._shuffleRight
                0x00000000       0x70 build/default/production/_ext/493962524/libaria_array.o
 .text.laArray_PushFront
                0x00000000       0x90 build/default/production/_ext/493962524/libaria_array.o
 .text.laArray_PopFront
                0x00000000       0x48 build/default/production/_ext/493962524/libaria_array.o
 .text.laArray_PopBack
                0x00000000       0x34 build/default/production/_ext/493962524/libaria_array.o
 .text.laArray_InsertAt
                0x00000000       0xc0 build/default/production/_ext/493962524/libaria_array.o
 .text.laArray_RemoveAt
                0x00000000       0x6c build/default/production/_ext/493962524/libaria_array.o
 .text.laArray_Get
                0x00000000       0x24 build/default/production/_ext/493962524/libaria_array.o
 .text.laArray_Copy
                0x00000000       0xa4 build/default/production/_ext/493962524/libaria_array.o
 .text.laArray_Clear
                0x00000000       0x1c build/default/production/_ext/493962524/libaria_array.o
 .text          0x00000000        0x0 build/default/production/_ext/493962524/libaria_context.o
 .data          0x00000000        0x0 build/default/production/_ext/493962524/libaria_context.o
 .bss           0x00000000        0x0 build/default/production/_ext/493962524/libaria_context.o
 .reginfo       0x00000000       0x18 build/default/production/_ext/493962524/libaria_context.o
 .text.signalLanguageChanging
                0x00000000       0x60 build/default/production/_ext/493962524/libaria_context.o
 .text.laContext_Destroy
                0x00000000       0x9c build/default/production/_ext/493962524/libaria_context.o
 .text.laContext_GetColorMode
                0x00000000       0x1c build/default/production/_ext/493962524/libaria_context.o
 .text.laContext_RemoveScreen
                0x00000000       0x44 build/default/production/_ext/493962524/libaria_context.o
 .text.laContext_GetActiveScreen
                0x00000000       0x1c build/default/production/_ext/493962524/libaria_context.o
 .text.laContext_HideActiveScreen
                0x00000000       0x3c build/default/production/_ext/493962524/libaria_context.o
 .text.laContext_GetPreemptionLevel
                0x00000000       0x1c build/default/production/_ext/493962524/libaria_context.o
 .text.laContext_SetPreemptionLevel
                0x00000000       0x20 build/default/production/_ext/493962524/libaria_context.o
 .text.laContext_SetStringLanguage
                0x00000000       0xe4 build/default/production/_ext/493962524/libaria_context.o
 .text.laContext_GetFocusWidget
                0x00000000       0x1c build/default/production/_ext/493962524/libaria_context.o
 .text.laContext_IsDrawing
                0x00000000       0x4c build/default/production/_ext/493962524/libaria_context.o
 .text.laContext_IsLayerDrawing
                0x00000000       0x44 build/default/production/_ext/493962524/libaria_context.o
 .text          0x00000000        0x0 build/default/production/_ext/493962524/libaria_context_paint.o
 .data          0x00000000        0x0 build/default/production/_ext/493962524/libaria_context_paint.o
 .bss           0x00000000        0x0 build/default/production/_ext/493962524/libaria_context_paint.o
 .reginfo       0x00000000       0x18 build/default/production/_ext/493962524/libaria_context_paint.o
 .text          0x00000000        0x0 build/default/production/_ext/493962524/libaria_draw.o
 .data          0x00000000        0x0 build/default/production/_ext/493962524/libaria_draw.o
 .bss           0x00000000        0x0 build/default/production/_ext/493962524/libaria_draw.o
 .reginfo       0x00000000       0x18 build/default/production/_ext/493962524/libaria_draw.o
 .text.laDraw_LineBorder
                0x00000000       0x58 build/default/production/_ext/493962524/libaria_draw.o
 .text.laDraw_2x1BevelBorder
                0x00000000      0x14c build/default/production/_ext/493962524/libaria_draw.o
 .text.laDraw_1x2BevelBorder
                0x00000000      0x158 build/default/production/_ext/493962524/libaria_draw.o
 .text.laDraw_2x2BevelBorder
                0x00000000      0x1ac build/default/production/_ext/493962524/libaria_draw.o
 .text          0x00000000        0x0 build/default/production/_ext/493962524/libaria_editwidget.o
 .data          0x00000000        0x0 build/default/production/_ext/493962524/libaria_editwidget.o
 .bss           0x00000000        0x0 build/default/production/_ext/493962524/libaria_editwidget.o
 .reginfo       0x00000000       0x18 build/default/production/_ext/493962524/libaria_editwidget.o
 .text.startEdit
                0x00000000        0x8 build/default/production/_ext/493962524/libaria_editwidget.o
 .text.endEdit  0x00000000        0x8 build/default/production/_ext/493962524/libaria_editwidget.o
 .text.clear    0x00000000        0x8 build/default/production/_ext/493962524/libaria_editwidget.o
 .text.accept   0x00000000        0x8 build/default/production/_ext/493962524/libaria_editwidget.o
 .text.set      0x00000000       0x10 build/default/production/_ext/493962524/libaria_editwidget.o
 .text.append   0x00000000       0x10 build/default/production/_ext/493962524/libaria_editwidget.o
 .text.backspace
                0x00000000        0x8 build/default/production/_ext/493962524/libaria_editwidget.o
 .text._laEditWidget_Constructor
                0x00000000       0x80 build/default/production/_ext/493962524/libaria_editwidget.o
 .text._laEditWidget_Destructor
                0x00000000       0x28 build/default/production/_ext/493962524/libaria_editwidget.o
 .text.laEditWidget_Clear
                0x00000000       0x30 build/default/production/_ext/493962524/libaria_editwidget.o
 .text.laEditWidget_Accept
                0x00000000       0x30 build/default/production/_ext/493962524/libaria_editwidget.o
 .text.laEditWidget_Set
                0x00000000       0x54 build/default/production/_ext/493962524/libaria_editwidget.o
 .text.laEditWidget_Append
                0x00000000       0x54 build/default/production/_ext/493962524/libaria_editwidget.o
 .text.laEditWidget_Backspace
                0x00000000       0x30 build/default/production/_ext/493962524/libaria_editwidget.o
 .text          0x00000000        0x0 build/default/production/_ext/493962524/libaria_event.o
 .data          0x00000000        0x0 build/default/production/_ext/493962524/libaria_event.o
 .bss           0x00000000        0x0 build/default/production/_ext/493962524/libaria_event.o
 .reginfo       0x00000000       0x18 build/default/production/_ext/493962524/libaria_event.o
 .text.laEvent_GetCount
                0x00000000       0x28 build/default/production/_ext/493962524/libaria_event.o
 .text.laEvent_SetFilter
                0x00000000       0x34 build/default/production/_ext/493962524/libaria_event.o
 .text.laEvent_ClearList
                0x00000000       0x30 build/default/production/_ext/493962524/libaria_event.o
 .text          0x00000000        0x0 build/default/production/_ext/493962524/libaria_input.o
 .data          0x00000000        0x0 build/default/production/_ext/493962524/libaria_input.o
 .bss           0x00000000        0x0 build/default/production/_ext/493962524/libaria_input.o
 .reginfo       0x00000000       0x18 build/default/production/_ext/493962524/libaria_input.o
 .text.laInput_GetEnabled
                0x00000000       0x28 build/default/production/_ext/493962524/libaria_input.o
 .text          0x00000000        0x0 build/default/production/_ext/493962524/libaria_layer.o
 .data          0x00000000        0x0 build/default/production/_ext/493962524/libaria_layer.o
 .bss           0x00000000        0x0 build/default/production/_ext/493962524/libaria_layer.o
 .reginfo       0x00000000       0x18 build/default/production/_ext/493962524/libaria_layer.o
 .text.laLayer_GetEnabled
                0x00000000       0x18 build/default/production/_ext/493962524/libaria_layer.o
 .text.laLayer_SetEnabled
                0x00000000       0x78 build/default/production/_ext/493962524/libaria_layer.o
 .text.laLayer_GetAlphaEnable
                0x00000000       0x18 build/default/production/_ext/493962524/libaria_layer.o
 .text.laLayer_SetAlphaEnable
                0x00000000       0x7c build/default/production/_ext/493962524/libaria_layer.o
 .text.laLayer_SetAlphaAmount
                0x00000000       0x7c build/default/production/_ext/493962524/libaria_layer.o
 .text.laLayer_GetMaskEnable
                0x00000000       0x18 build/default/production/_ext/493962524/libaria_layer.o
 .text.laLayer_SetMaskEnable
                0x00000000       0x88 build/default/production/_ext/493962524/libaria_layer.o
 .text.laLayer_GetMaskColor
                0x00000000       0x18 build/default/production/_ext/493962524/libaria_layer.o
 .text.laLayer_SetMaskColor
                0x00000000       0x88 build/default/production/_ext/493962524/libaria_layer.o
 .text.laLayer_GetBufferCount
                0x00000000       0x18 build/default/production/_ext/493962524/libaria_layer.o
 .text.laLayer_GetVSync
                0x00000000       0x18 build/default/production/_ext/493962524/libaria_layer.o
 .text.laLayer_SetVSync
                0x00000000       0x74 build/default/production/_ext/493962524/libaria_layer.o
 .text.laLayer_GetInputRect
                0x00000000       0x40 build/default/production/_ext/493962524/libaria_layer.o
 .text.laLayer_SetInputRect
                0x00000000       0x44 build/default/production/_ext/493962524/libaria_layer.o
 .text.laLayer_GetInputRectLocked
                0x00000000       0x18 build/default/production/_ext/493962524/libaria_layer.o
 .text.laLayer_SetInputRectLocked
                0x00000000       0x48 build/default/production/_ext/493962524/libaria_layer.o
 .text.laLayer_GetAllowInputPassThrough
                0x00000000       0x18 build/default/production/_ext/493962524/libaria_layer.o
 .text.laLayer_SetAllowInputPassthrough
                0x00000000       0x1c build/default/production/_ext/493962524/libaria_layer.o
 .text.laLayer_IsDrawing
                0x00000000       0x20 build/default/production/_ext/493962524/libaria_layer.o
 .text          0x00000000        0x0 build/default/production/_ext/493962524/libaria_list.o
 .data          0x00000000        0x0 build/default/production/_ext/493962524/libaria_list.o
 .bss           0x00000000        0x0 build/default/production/_ext/493962524/libaria_list.o
 .reginfo       0x00000000       0x18 build/default/production/_ext/493962524/libaria_list.o
 .text.laList_Create
                0x00000000       0x24 build/default/production/_ext/493962524/libaria_list.o
 .text.laList_Assign
                0x00000000       0x5c build/default/production/_ext/493962524/libaria_list.o
 .text.laList_PushFront
                0x00000000       0x9c build/default/production/_ext/493962524/libaria_list.o
 .text.laList_PopFront
                0x00000000       0x98 build/default/production/_ext/493962524/libaria_list.o
 .text.laList_Get
                0x00000000       0x48 build/default/production/_ext/493962524/libaria_list.o
 .text.laList_Find
                0x00000000       0x70 build/default/production/_ext/493962524/libaria_list.o
 .text.laList_InsertAt
                0x00000000      0x114 build/default/production/_ext/493962524/libaria_list.o
 .text.laList_RemoveAt
                0x00000000       0xdc build/default/production/_ext/493962524/libaria_list.o
 .text.laList_Clear
                0x00000000       0x78 build/default/production/_ext/493962524/libaria_list.o
 .text.laList_Copy
                0x00000000       0xc4 build/default/production/_ext/493962524/libaria_list.o
 .text          0x00000000        0x0 build/default/production/_ext/493962524/libaria_rectarray.o
 .data          0x00000000        0x0 build/default/production/_ext/493962524/libaria_rectarray.o
 .bss           0x00000000        0x0 build/default/production/_ext/493962524/libaria_rectarray.o
 .reginfo       0x00000000       0x18 build/default/production/_ext/493962524/libaria_rectarray.o
 .text._shuffleRight
                0x00000000       0xb4 build/default/production/_ext/493962524/libaria_rectarray.o
 .text.laRectArray_PushFront
                0x00000000       0xac build/default/production/_ext/493962524/libaria_rectarray.o
 .text.laRectArray_PopFront
                0x00000000       0x48 build/default/production/_ext/493962524/libaria_rectarray.o
 .text.laRectArray_PopBack
                0x00000000       0x34 build/default/production/_ext/493962524/libaria_rectarray.o
 .text.laRectArray_InsertAt
                0x00000000       0xdc build/default/production/_ext/493962524/libaria_rectarray.o
 .text          0x00000000        0x0 build/default/production/_ext/493962524/libaria_scheme.o
 .data          0x00000000        0x0 build/default/production/_ext/493962524/libaria_scheme.o
 .bss           0x00000000        0x0 build/default/production/_ext/493962524/libaria_scheme.o
 .reginfo       0x00000000       0x18 build/default/production/_ext/493962524/libaria_scheme.o
 .text          0x00000000        0x0 build/default/production/_ext/493962524/libaria_screen.o
 .data          0x00000000        0x0 build/default/production/_ext/493962524/libaria_screen.o
 .bss           0x00000000        0x0 build/default/production/_ext/493962524/libaria_screen.o
 .reginfo       0x00000000       0x18 build/default/production/_ext/493962524/libaria_screen.o
 .text.laScreen_Delete
                0x00000000       0xa4 build/default/production/_ext/493962524/libaria_screen.o
 .text.laScreen_Show
                0x00000000      0x108 build/default/production/_ext/493962524/libaria_screen.o
 .text.laScreen_Hide
                0x00000000       0xe4 build/default/production/_ext/493962524/libaria_screen.o
 .text.laScreen_GetOrientation
                0x00000000       0x18 build/default/production/_ext/493962524/libaria_screen.o
 .text.laScreen_SetOrientation
                0x00000000       0x1c build/default/production/_ext/493962524/libaria_screen.o
 .text.laScreen_GetMirrored
                0x00000000       0x18 build/default/production/_ext/493962524/libaria_screen.o
 .text.laScreen_SetMirrored
                0x00000000       0x1c build/default/production/_ext/493962524/libaria_screen.o
 .text.laScreen_GetLayerSwapSync
                0x00000000       0x18 build/default/production/_ext/493962524/libaria_screen.o
 .text.laScreen_SetLayerSwapSync
                0x00000000       0x1c build/default/production/_ext/493962524/libaria_screen.o
 .text.laScreen_GetShowEventCallback
                0x00000000       0x18 build/default/production/_ext/493962524/libaria_screen.o
 .text.laScreen_SetShowEventCallback
                0x00000000       0x1c build/default/production/_ext/493962524/libaria_screen.o
 .text.laScreen_GetHideEventCallback
                0x00000000       0x18 build/default/production/_ext/493962524/libaria_screen.o
 .text.laScreen_SetHideEventCallback
                0x00000000       0x1c build/default/production/_ext/493962524/libaria_screen.o
 .text          0x00000000        0x0 build/default/production/_ext/493962524/libaria_string.o
 .data          0x00000000        0x0 build/default/production/_ext/493962524/libaria_string.o
 .bss           0x00000000        0x0 build/default/production/_ext/493962524/libaria_string.o
 .reginfo       0x00000000       0x18 build/default/production/_ext/493962524/libaria_string.o
 .text.laString_Delete
                0x00000000       0x7c build/default/production/_ext/493962524/libaria_string.o
 .text.laString_Allocate
                0x00000000       0xb4 build/default/production/_ext/493962524/libaria_string.o
 .text.laString_CreateFromCharBuffer
                0x00000000      0x174 build/default/production/_ext/493962524/libaria_string.o
 .text.laString_Set
                0x00000000       0xc8 build/default/production/_ext/493962524/libaria_string.o
 .text.laString_CreateFromBuffer
                0x00000000       0xc4 build/default/production/_ext/493962524/libaria_string.o
 .text.laString_New
                0x00000000       0x6c build/default/production/_ext/493962524/libaria_string.o
 .text.laString_ExtractFromTable
                0x00000000       0xe0 build/default/production/_ext/493962524/libaria_string.o
 .text.laString_CharAt
                0x00000000       0x88 build/default/production/_ext/493962524/libaria_string.o
 .text.laString_Length
                0x00000000       0x6c build/default/production/_ext/493962524/libaria_string.o
 .text.laString_ReduceLength
                0x00000000       0x3c build/default/production/_ext/493962524/libaria_string.o
 .text.laString_Capacity
                0x00000000       0x18 build/default/production/_ext/493962524/libaria_string.o
 .text.laString_SetCapacity
                0x00000000      0x124 build/default/production/_ext/493962524/libaria_string.o
 .text.laString_CompareBuffer
                0x00000000       0x40 build/default/production/_ext/493962524/libaria_string.o
 .text.laString_Append
                0x00000000      0x1fc build/default/production/_ext/493962524/libaria_string.o
 .text.laString_Insert
                0x00000000      0x198 build/default/production/_ext/493962524/libaria_string.o
 .text.laString_Remove
                0x00000000       0x68 build/default/production/_ext/493962524/libaria_string.o
 .text.laString_Clear
                0x00000000       0x2c build/default/production/_ext/493962524/libaria_string.o
 .text.laString_ToCharBuffer
                0x00000000       0x70 build/default/production/_ext/493962524/libaria_string.o
 .text.laString_GetRect
                0x00000000       0xac build/default/production/_ext/493962524/libaria_string.o
 .text.laString_GetCharOffset
                0x00000000       0x90 build/default/production/_ext/493962524/libaria_string.o
 .text.laString_GetCharWidth
                0x00000000       0xbc build/default/production/_ext/493962524/libaria_string.o
 .text.laString_GetCharIndexAtPoint
                0x00000000       0xcc build/default/production/_ext/493962524/libaria_string.o
 .text.laString_Draw
                0x00000000       0xe4 build/default/production/_ext/493962524/libaria_string.o
 .text.laString_DrawClipped
                0x00000000      0x124 build/default/production/_ext/493962524/libaria_string.o
 .text          0x00000000        0x0 build/default/production/_ext/493962524/libaria_utils.o
 .data          0x00000000        0x0 build/default/production/_ext/493962524/libaria_utils.o
 .bss           0x00000000        0x0 build/default/production/_ext/493962524/libaria_utils.o
 .reginfo       0x00000000       0x18 build/default/production/_ext/493962524/libaria_utils.o
 .text.laUtils_Pick
                0x00000000       0xe4 build/default/production/_ext/493962524/libaria_utils.o
 .text.laUtils_PointToLayerSpace
                0x00000000       0x5c build/default/production/_ext/493962524/libaria_utils.o
 .text.laUtils_PointScreenToLocalSpace
                0x00000000       0x70 build/default/production/_ext/493962524/libaria_utils.o
 .text.laUtils_RectToParentSpace
                0x00000000       0x48 build/default/production/_ext/493962524/libaria_utils.o
 .text.laUtils_RectFromParentSpace
                0x00000000       0x48 build/default/production/_ext/493962524/libaria_utils.o
 .text.laUtils_RectFromLayerSpace
                0x00000000       0x70 build/default/production/_ext/493962524/libaria_utils.o
 .text.laUtils_RectToScreenSpace
                0x00000000       0x44 build/default/production/_ext/493962524/libaria_utils.o
 .text._occlusionCullTestAscending
                0x00000000      0x108 build/default/production/_ext/493962524/libaria_utils.o
 .text.laUtils_OcclusionCullTest
                0x00000000       0xe0 build/default/production/_ext/493962524/libaria_utils.o
 .text.laUtils_ListOcclusionCullTest
                0x00000000      0x174 build/default/production/_ext/493962524/libaria_utils.o
 .text          0x00000000        0x0 build/default/production/_ext/493962524/libaria_widget.o
 .data          0x00000000        0x0 build/default/production/_ext/493962524/libaria_widget.o
 .bss           0x00000000        0x0 build/default/production/_ext/493962524/libaria_widget.o
 .reginfo       0x00000000       0x18 build/default/production/_ext/493962524/libaria_widget.o
 .text.laWidget_New
                0x00000000       0x58 build/default/production/_ext/493962524/libaria_widget.o
 .text.laWidget_Delete
                0x00000000       0x54 build/default/production/_ext/493962524/libaria_widget.o
 .text._laWidget_Update
                0x00000000        0x8 build/default/production/_ext/493962524/libaria_widget.o
 .text.laWidget_GetEnabled
                0x00000000       0x18 build/default/production/_ext/493962524/libaria_widget.o
 .text.laWidget_GetVisible
                0x00000000       0x18 build/default/production/_ext/493962524/libaria_widget.o
 .text.laWidget_GetX
                0x00000000       0x18 build/default/production/_ext/493962524/libaria_widget.o
 .text.laWidget_GetY
                0x00000000       0x18 build/default/production/_ext/493962524/libaria_widget.o
 .text.laWidget_GetWidth
                0x00000000       0x18 build/default/production/_ext/493962524/libaria_widget.o
 .text.laWidget_GetHeight
                0x00000000       0x18 build/default/production/_ext/493962524/libaria_widget.o
 .text.laWidget_GetAlphaEnable
                0x00000000       0x18 build/default/production/_ext/493962524/libaria_widget.o
 .text.laWidget_GetAlphaAmount
                0x00000000       0x18 build/default/production/_ext/493962524/libaria_widget.o
 .text.laWidget_isOpaque
                0x00000000       0x58 build/default/production/_ext/493962524/libaria_widget.o
 .text.laWidget_RectToParentSpace
                0x00000000       0x6c build/default/production/_ext/493962524/libaria_widget.o
 .text.laWidget_SetX
                0x00000000       0xd8 build/default/production/_ext/493962524/libaria_widget.o
 .text.laWidget_SetY
                0x00000000       0xd8 build/default/production/_ext/493962524/libaria_widget.o
 .text.laWidget_Translate
                0x00000000      0x108 build/default/production/_ext/493962524/libaria_widget.o
 .text.laWidget_SetWidth
                0x00000000       0xd8 build/default/production/_ext/493962524/libaria_widget.o
 .text.laWidget_SetHeight
                0x00000000       0xd8 build/default/production/_ext/493962524/libaria_widget.o
 .text.laWidget_RectToScreenSpace
                0x00000000       0x8c build/default/production/_ext/493962524/libaria_widget.o
 .text.laWidget_Resize
                0x00000000      0x124 build/default/production/_ext/493962524/libaria_widget.o
 .text.laWidget_GetBorderType
                0x00000000       0x18 build/default/production/_ext/493962524/libaria_widget.o
 .text.laWidget_GetBackgroundType
                0x00000000       0x18 build/default/production/_ext/493962524/libaria_widget.o
 .text.laWidget_GetOptimizationFlags
                0x00000000       0x18 build/default/production/_ext/493962524/libaria_widget.o
 .text.laWidget_SetOptimizationFlags
                0x00000000       0x1c build/default/production/_ext/493962524/libaria_widget.o
 .text.laWidget_GetMargins
                0x00000000       0x24 build/default/production/_ext/493962524/libaria_widget.o
 .text.laWidget_GetCornerRadius
                0x00000000       0x18 build/default/production/_ext/493962524/libaria_widget.o
 .text.laWidget_HasFocus
                0x00000000       0x40 build/default/production/_ext/493962524/libaria_widget.o
 .text.laWidget_SetFocus
                0x00000000       0x1c build/default/production/_ext/493962524/libaria_widget.o
 .text.laWidget_OverrideTouchDownEvent
                0x00000000       0x2c build/default/production/_ext/493962524/libaria_widget.o
 .text.laWidget_OverrideTouchUpEvent
                0x00000000       0x2c build/default/production/_ext/493962524/libaria_widget.o
 .text.laWidget_OverrideTouchMovedEvent
                0x00000000       0x2c build/default/production/_ext/493962524/libaria_widget.o
 .text.laWidget_GetChildCount
                0x00000000       0x18 build/default/production/_ext/493962524/libaria_widget.o
 .text.laWidget_GetScheme
                0x00000000       0x18 build/default/production/_ext/493962524/libaria_widget.o
 .text.laWidget_SetEnabled
                0x00000000       0x60 build/default/production/_ext/493962524/libaria_widget.o
 .text.laWidget_SetVisible
                0x00000000       0x48 build/default/production/_ext/493962524/libaria_widget.o
 .text.laWidget_SetAlphaEnable
                0x00000000       0x60 build/default/production/_ext/493962524/libaria_widget.o
 .text.laWidget_SetAlphaAmount
                0x00000000       0x68 build/default/production/_ext/493962524/libaria_widget.o
 .text.laWidget_SetMargins
                0x00000000       0x6c build/default/production/_ext/493962524/libaria_widget.o
 .text.laWidget_SetCornerRadius
                0x00000000       0x60 build/default/production/_ext/493962524/libaria_widget.o
 .text.laWidget_SetParent
                0x00000000       0x68 build/default/production/_ext/493962524/libaria_widget.o
 .text.laWidget_SetScheme
                0x00000000       0x48 build/default/production/_ext/493962524/libaria_widget.o
 .text          0x00000000        0x0 build/default/production/_ext/493962524/libaria_widget_skin_classic.o
 .data          0x00000000        0x0 build/default/production/_ext/493962524/libaria_widget_skin_classic.o
 .bss           0x00000000        0x0 build/default/production/_ext/493962524/libaria_widget_skin_classic.o
 .reginfo       0x00000000       0x18 build/default/production/_ext/493962524/libaria_widget_skin_classic.o
 .text          0x00000000        0x0 build/default/production/_ext/493962524/libaria_widget_skin_classic_common.o
 .data          0x00000000        0x0 build/default/production/_ext/493962524/libaria_widget_skin_classic_common.o
 .bss           0x00000000        0x0 build/default/production/_ext/493962524/libaria_widget_skin_classic_common.o
 .reginfo       0x00000000       0x18 build/default/production/_ext/493962524/libaria_widget_skin_classic_common.o
 .text.laWidget_SkinClassic_DrawStandardRoundCornerLineBorder
                0x00000000       0x64 build/default/production/_ext/493962524/libaria_widget_skin_classic_common.o
 .text          0x00000000        0x0 build/default/production/_ext/493962524/libaria_widget_arc.o
 .data          0x00000000        0x0 build/default/production/_ext/493962524/libaria_widget_arc.o
 .bss           0x00000000        0x0 build/default/production/_ext/493962524/libaria_widget_arc.o
 .reginfo       0x00000000       0x18 build/default/production/_ext/493962524/libaria_widget_arc.o
 .text._laArcWidget_Destructor
                0x00000000       0x1c build/default/production/_ext/493962524/libaria_widget_arc.o
 .text._laArcWidget_Constructor
                0x00000000       0x7c build/default/production/_ext/493962524/libaria_widget_arc.o
 .text.laArcWidget_New
                0x00000000       0x58 build/default/production/_ext/493962524/libaria_widget_arc.o
 .text.laArcWidget_GetRadius
                0x00000000       0x18 build/default/production/_ext/493962524/libaria_widget_arc.o
 .text.laArcWidget_SetRadius
                0x00000000       0x44 build/default/production/_ext/493962524/libaria_widget_arc.o
 .text.laArcWidget_GetStartAngle
                0x00000000       0x18 build/default/production/_ext/493962524/libaria_widget_arc.o
 .text.laArcWidget_SetStartAngle
                0x00000000       0x44 build/default/production/_ext/493962524/libaria_widget_arc.o
 .text.laArcWidget_GetThickness
                0x00000000       0x18 build/default/production/_ext/493962524/libaria_widget_arc.o
 .text.laArcWidget_SetThickness
                0x00000000       0x5c build/default/production/_ext/493962524/libaria_widget_arc.o
 .text.laArcWidget_GetCenterAngle
                0x00000000       0x18 build/default/production/_ext/493962524/libaria_widget_arc.o
 .text.laArcWidget_SetCenterAngle
                0x00000000       0x44 build/default/production/_ext/493962524/libaria_widget_arc.o
 .text.laArcWidget_GetRoundEdge
                0x00000000       0x18 build/default/production/_ext/493962524/libaria_widget_arc.o
 .text.laArcWidget_SetRoundEdge
                0x00000000       0x1c build/default/production/_ext/493962524/libaria_widget_arc.o
 .text          0x00000000        0x0 build/default/production/_ext/493962524/libaria_widget_arc_skin_classic.o
 .data          0x00000000        0x0 build/default/production/_ext/493962524/libaria_widget_arc_skin_classic.o
 .bss           0x00000000        0x0 build/default/production/_ext/493962524/libaria_widget_arc_skin_classic.o
 .reginfo       0x00000000       0x18 build/default/production/_ext/493962524/libaria_widget_arc_skin_classic.o
 .text.nextState
                0x00000000       0xa8 build/default/production/_ext/493962524/libaria_widget_arc_skin_classic.o
 .text.drawBorder
                0x00000000       0x58 build/default/production/_ext/493962524/libaria_widget_arc_skin_classic.o
 .text._laArcWidget_GetMidPointAtAngle
                0x00000000       0xd8 build/default/production/_ext/493962524/libaria_widget_arc_skin_classic.o
 .text.drawArc  0x00000000      0x1cc build/default/production/_ext/493962524/libaria_widget_arc_skin_classic.o
 .text.drawBackground
                0x00000000       0x2c build/default/production/_ext/493962524/libaria_widget_arc_skin_classic.o
 .text._laArcWidget_Paint
                0x00000000       0x9c build/default/production/_ext/493962524/libaria_widget_arc_skin_classic.o
 .text          0x00000000        0x0 build/default/production/_ext/493962524/libaria_widget_bar_graph.o
 .data          0x00000000        0x0 build/default/production/_ext/493962524/libaria_widget_bar_graph.o
 .bss           0x00000000        0x0 build/default/production/_ext/493962524/libaria_widget_bar_graph.o
 .reginfo       0x00000000       0x18 build/default/production/_ext/493962524/libaria_widget_bar_graph.o
 .text._laBarGraphWidget_Constructor
                0x00000000       0xb8 build/default/production/_ext/493962524/libaria_widget_bar_graph.o
 .text.laBarGraphWidget_New
                0x00000000       0x58 build/default/production/_ext/493962524/libaria_widget_bar_graph.o
 .text.laBarGraphWidget_GetTickLength
                0x00000000       0x18 build/default/production/_ext/493962524/libaria_widget_bar_graph.o
 .text.laBarGraphWidget_SetTickLength
                0x00000000       0x44 build/default/production/_ext/493962524/libaria_widget_bar_graph.o
 .text.laBarGraphWidget_GetStacked
                0x00000000       0x18 build/default/production/_ext/493962524/libaria_widget_bar_graph.o
 .text.laBarGraphWidget_SetStacked
                0x00000000       0x44 build/default/production/_ext/493962524/libaria_widget_bar_graph.o
 .text.laBarGraphWidget_GetMaxValue
                0x00000000       0x18 build/default/production/_ext/493962524/libaria_widget_bar_graph.o
 .text.laBarGraphWidget_SetMaxValue
                0x00000000       0x5c build/default/production/_ext/493962524/libaria_widget_bar_graph.o
 .text.laBarGraphWidget_GetMinValue
                0x00000000       0x18 build/default/production/_ext/493962524/libaria_widget_bar_graph.o
 .text.laBarGraphWidget_SetMinValue
                0x00000000       0x5c build/default/production/_ext/493962524/libaria_widget_bar_graph.o
 .text.laBarGraphWidget_GetValueAxisLabelsVisible
                0x00000000       0x18 build/default/production/_ext/493962524/libaria_widget_bar_graph.o
 .text.laBarGraphWidget_SetValueAxisLabelsVisible
                0x00000000       0x44 build/default/production/_ext/493962524/libaria_widget_bar_graph.o
 .text.laBarGraphWidget_GetFillGraphArea
                0x00000000       0x18 build/default/production/_ext/493962524/libaria_widget_bar_graph.o
 .text.laBarGraphWidget_SetFillGraphArea
                0x00000000       0x44 build/default/production/_ext/493962524/libaria_widget_bar_graph.o
 .text.laBarGraphWidget_GetGridlinesVisible
                0x00000000       0x18 build/default/production/_ext/493962524/libaria_widget_bar_graph.o
 .text.laBarGraphWidget_SetGridlinesVisible
                0x00000000       0x44 build/default/production/_ext/493962524/libaria_widget_bar_graph.o
 .text.laBarGraphWidget_GetValueAxisTicksVisible
                0x00000000       0x18 build/default/production/_ext/493962524/libaria_widget_bar_graph.o
 .text.laBarGraphWidget_SetValueAxisTicksVisible
                0x00000000       0x44 build/default/production/_ext/493962524/libaria_widget_bar_graph.o
 .text.laBarGraphWidget_GetValueAxisTickInterval
                0x00000000       0x18 build/default/production/_ext/493962524/libaria_widget_bar_graph.o
 .text.laBarGraphWidget_SetValueAxisTickInterval
                0x00000000       0x44 build/default/production/_ext/493962524/libaria_widget_bar_graph.o
 .text.laBarGraphWidget_GetValueAxisSubtickInterval
                0x00000000       0x18 build/default/production/_ext/493962524/libaria_widget_bar_graph.o
 .text.laBarGraphWidget_SetValueAxisSubtickInterval
                0x00000000       0x44 build/default/production/_ext/493962524/libaria_widget_bar_graph.o
 .text.laBarGraphWidget_GetValueAxisSubticksVisible
                0x00000000       0x18 build/default/production/_ext/493962524/libaria_widget_bar_graph.o
 .text.laBarGraphWidget_SetValueAxisSubticksVisible
                0x00000000       0x44 build/default/production/_ext/493962524/libaria_widget_bar_graph.o
 .text.laBarGraphWidget_GetCategoryAxisTicksVisible
                0x00000000       0x18 build/default/production/_ext/493962524/libaria_widget_bar_graph.o
 .text.laBarGraphWidget_SetCategoryAxisTicksVisible
                0x00000000       0x44 build/default/production/_ext/493962524/libaria_widget_bar_graph.o
 .text.laBarGraphWidget_AddCategory
                0x00000000       0x90 build/default/production/_ext/493962524/libaria_widget_bar_graph.o
 .text.laBarGraphWidget_GetCategoryText
                0x00000000       0x6c build/default/production/_ext/493962524/libaria_widget_bar_graph.o
 .text.laBarGraphWidget_SetCategoryText
                0x00000000       0x8c build/default/production/_ext/493962524/libaria_widget_bar_graph.o
 .text.laBarGraphWidget_AddSeries
                0x00000000       0x9c build/default/production/_ext/493962524/libaria_widget_bar_graph.o
 .text.laBarGraphWidget_AddDataToSeries
                0x00000000       0xc8 build/default/production/_ext/493962524/libaria_widget_bar_graph.o
 .text.laBarGraphWidget_SetDataInSeries
                0x00000000       0xa0 build/default/production/_ext/493962524/libaria_widget_bar_graph.o
 .text.laBarGraphWidget_GetSeriesScheme
                0x00000000       0x54 build/default/production/_ext/493962524/libaria_widget_bar_graph.o
 .text.laBarGraphWidget_SetSeriesScheme
                0x00000000       0x84 build/default/production/_ext/493962524/libaria_widget_bar_graph.o
 .text.laBarGraphWidget_DestroyAll
                0x00000000       0xe4 build/default/production/_ext/493962524/libaria_widget_bar_graph.o
 .text._laBarGraphWidget_Destructor
                0x00000000       0x2c build/default/production/_ext/493962524/libaria_widget_bar_graph.o
 .text.laBarGraphWidget_SetStringTable
                0x00000000       0x48 build/default/production/_ext/493962524/libaria_widget_bar_graph.o
 .text.laBarGraphWidget_SetTicksLabelsStringID
                0x00000000       0x44 build/default/production/_ext/493962524/libaria_widget_bar_graph.o
 .text.laBarGraphWidget_GetCategoryAxisLabelsVisible
                0x00000000       0x18 build/default/production/_ext/493962524/libaria_widget_bar_graph.o
 .text.laBarGraphWidget_SetCategoryAxisLabelsVisible
                0x00000000       0x44 build/default/production/_ext/493962524/libaria_widget_bar_graph.o
 .text.laBarGraphWidget_GetValueAxisTicksPosition
                0x00000000       0x18 build/default/production/_ext/493962524/libaria_widget_bar_graph.o
 .text.laBarGraphWidget_SetValueAxisTicksPosition
                0x00000000       0x44 build/default/production/_ext/493962524/libaria_widget_bar_graph.o
 .text.laBarGraphWidget_GetValueAxisSubticksPosition
                0x00000000       0x18 build/default/production/_ext/493962524/libaria_widget_bar_graph.o
 .text.laBarGraphWidget_SetValueAxisSubticksPosition
                0x00000000       0x44 build/default/production/_ext/493962524/libaria_widget_bar_graph.o
 .text.laBarGraphWidget_GetCategoryAxisTicksPosition
                0x00000000       0x18 build/default/production/_ext/493962524/libaria_widget_bar_graph.o
 .text.laBarGraphWidget_SetCategoryAxisTicksPosition
                0x00000000       0x44 build/default/production/_ext/493962524/libaria_widget_bar_graph.o
 .text          0x00000000        0x0 build/default/production/_ext/493962524/libaria_widget_bar_graph_skin_classic.o
 .data          0x00000000        0x0 build/default/production/_ext/493962524/libaria_widget_bar_graph_skin_classic.o
 .bss           0x00000000        0x0 build/default/production/_ext/493962524/libaria_widget_bar_graph_skin_classic.o
 .reginfo       0x00000000       0x18 build/default/production/_ext/493962524/libaria_widget_bar_graph_skin_classic.o
 .text.nextState
                0x00000000       0xd0 build/default/production/_ext/493962524/libaria_widget_bar_graph_skin_classic.o
 .text.waitString
                0x00000000       0x68 build/default/production/_ext/493962524/libaria_widget_bar_graph_skin_classic.o
 .text.drawBorder
                0x00000000       0x58 build/default/production/_ext/493962524/libaria_widget_bar_graph_skin_classic.o
 .rodata        0x00000000        0x4 build/default/production/_ext/493962524/libaria_widget_bar_graph_skin_classic.o
 .text._laBarGraphWidget_GetGraphRect
                0x00000000      0x458 build/default/production/_ext/493962524/libaria_widget_bar_graph_skin_classic.o
 .text.drawString
                0x00000000      0x27c build/default/production/_ext/493962524/libaria_widget_bar_graph_skin_classic.o
 .text.drawTickLabelWithValue
                0x00000000      0x208 build/default/production/_ext/493962524/libaria_widget_bar_graph_skin_classic.o
 .text.drawBarGraph
                0x00000000      0xdc0 build/default/production/_ext/493962524/libaria_widget_bar_graph_skin_classic.o
 .text.drawBackground
                0x00000000       0x2c build/default/production/_ext/493962524/libaria_widget_bar_graph_skin_classic.o
 .text._laBarGraphWidget_Paint
                0x00000000       0x9c build/default/production/_ext/493962524/libaria_widget_bar_graph_skin_classic.o
 .text          0x00000000        0x0 build/default/production/_ext/493962524/libaria_widget_button.o
 .data          0x00000000        0x0 build/default/production/_ext/493962524/libaria_widget_button.o
 .bss           0x00000000        0x0 build/default/production/_ext/493962524/libaria_widget_button.o
 .reginfo       0x00000000       0x18 build/default/production/_ext/493962524/libaria_widget_button.o
 .text.laButtonWidget_GetToggleable
                0x00000000       0x18 build/default/production/_ext/493962524/libaria_widget_button.o
 .text.laButtonWidget_SetToggleable
                0x00000000       0x1c build/default/production/_ext/493962524/libaria_widget_button.o
 .text.laButtonWidget_GetPressed
                0x00000000       0x20 build/default/production/_ext/493962524/libaria_widget_button.o
 .text.laButtonWidget_SetPressed
                0x00000000      0x10c build/default/production/_ext/493962524/libaria_widget_button.o
 .text.laButtonWidget_GetHAlignment
                0x00000000       0x18 build/default/production/_ext/493962524/libaria_widget_button.o
 .text.laButtonWidget_SetHAlignment
                0x00000000       0x5c build/default/production/_ext/493962524/libaria_widget_button.o
 .text.laButtonWidget_GetVAlignment
                0x00000000       0x18 build/default/production/_ext/493962524/libaria_widget_button.o
 .text.laButtonWidget_SetVAlignment
                0x00000000       0x5c build/default/production/_ext/493962524/libaria_widget_button.o
 .text.laButtonWidget_GetText
                0x00000000       0x34 build/default/production/_ext/493962524/libaria_widget_button.o
 .text.laButtonWidget_GetPressedImage
                0x00000000       0x18 build/default/production/_ext/493962524/libaria_widget_button.o
 .text.laButtonWidget_SetPressedImage
                0x00000000       0x60 build/default/production/_ext/493962524/libaria_widget_button.o
 .text.laButtonWidget_GetReleasedImage
                0x00000000       0x18 build/default/production/_ext/493962524/libaria_widget_button.o
 .text.laButtonWidget_SetReleasedImage
                0x00000000       0x60 build/default/production/_ext/493962524/libaria_widget_button.o
 .text.laButtonWidget_GetImagePosition
                0x00000000       0x18 build/default/production/_ext/493962524/libaria_widget_button.o
 .text.laButtonWidget_SetImagePosition
                0x00000000       0x60 build/default/production/_ext/493962524/libaria_widget_button.o
 .text.laButtonWidget_GetImageMargin
                0x00000000       0x18 build/default/production/_ext/493962524/libaria_widget_button.o
 .text.laButtonWidget_SetImageMargin
                0x00000000       0x5c build/default/production/_ext/493962524/libaria_widget_button.o
 .text.laButtonWidget_GetPressedOffset
                0x00000000       0x18 build/default/production/_ext/493962524/libaria_widget_button.o
 .text.laButtonWidget_SetPressedOffset
                0x00000000       0x78 build/default/production/_ext/493962524/libaria_widget_button.o
 .text.laButtonWidget_GetPressedEventCallback
                0x00000000       0x18 build/default/production/_ext/493962524/libaria_widget_button.o
 .text.laButtonWidget_SetPressedEventCallback
                0x00000000       0x30 build/default/production/_ext/493962524/libaria_widget_button.o
 .text.laButtonWidget_GetReleasedEventCallback
                0x00000000       0x18 build/default/production/_ext/493962524/libaria_widget_button.o
 .text.laButtonWidget_SetReleasedEventCallback
                0x00000000       0x30 build/default/production/_ext/493962524/libaria_widget_button.o
 .text          0x00000000        0x0 build/default/production/_ext/493962524/libaria_widget_button_skin_classic.o
 .data          0x00000000        0x0 build/default/production/_ext/493962524/libaria_widget_button_skin_classic.o
 .bss           0x00000000        0x0 build/default/production/_ext/493962524/libaria_widget_button_skin_classic.o
 .reginfo       0x00000000       0x18 build/default/production/_ext/493962524/libaria_widget_button_skin_classic.o
 .text          0x00000000        0x0 build/default/production/_ext/493962524/libaria_widget_checkbox.o
 .data          0x00000000        0x0 build/default/production/_ext/493962524/libaria_widget_checkbox.o
 .bss           0x00000000        0x0 build/default/production/_ext/493962524/libaria_widget_checkbox.o
 .reginfo       0x00000000       0x18 build/default/production/_ext/493962524/libaria_widget_checkbox.o
 .text._laCheckBoxWidget_TouchMovedEvent
                0x00000000        0xc build/default/production/_ext/493962524/libaria_widget_checkbox.o
 .text.invalidateTextRect
                0x00000000       0x44 build/default/production/_ext/493962524/libaria_widget_checkbox.o
 .text.languageChanging
                0x00000000       0x38 build/default/production/_ext/493962524/libaria_widget_checkbox.o
 .text._laCheckBoxWidget_Destructor
                0x00000000       0x54 build/default/production/_ext/493962524/libaria_widget_checkbox.o
 .text.invalidateImageRect
                0x00000000       0x44 build/default/production/_ext/493962524/libaria_widget_checkbox.o
 .text.invalidateContents
                0x00000000       0x40 build/default/production/_ext/493962524/libaria_widget_checkbox.o
 .text._laCheckBoxWidget_TouchDownEvent
                0x00000000       0x5c build/default/production/_ext/493962524/libaria_widget_checkbox.o
 .text._laCheckBoxWidget_TouchUpEvent
                0x00000000       0xc0 build/default/production/_ext/493962524/libaria_widget_checkbox.o
 .text._laCheckBoxWidget_Constructor
                0x00000000       0xb0 build/default/production/_ext/493962524/libaria_widget_checkbox.o
 .text.laCheckBoxWidget_New
                0x00000000       0x58 build/default/production/_ext/493962524/libaria_widget_checkbox.o
 .text.laButtonWidget_GetChecked
                0x00000000       0x18 build/default/production/_ext/493962524/libaria_widget_checkbox.o
 .text.laCheckBoxWidget_SetChecked
                0x00000000       0x8c build/default/production/_ext/493962524/libaria_widget_checkbox.o
 .text.laCheckBoxWidget_GetHAlignment
                0x00000000       0x18 build/default/production/_ext/493962524/libaria_widget_checkbox.o
 .text.laCheckBoxWidget_SetHAlignment
                0x00000000       0x5c build/default/production/_ext/493962524/libaria_widget_checkbox.o
 .text.laCheckBoxWidget_GetVAlignment
                0x00000000       0x18 build/default/production/_ext/493962524/libaria_widget_checkbox.o
 .text.laCheckBoxWidget_SetVAlignment
                0x00000000       0x60 build/default/production/_ext/493962524/libaria_widget_checkbox.o
 .text.laCheckBoxWidget_GetText
                0x00000000       0x34 build/default/production/_ext/493962524/libaria_widget_checkbox.o
 .text.laCheckBoxWidget_SetText
                0x00000000       0x7c build/default/production/_ext/493962524/libaria_widget_checkbox.o
 .text.laCheckBoxWidget_GetCheckedImage
                0x00000000       0x18 build/default/production/_ext/493962524/libaria_widget_checkbox.o
 .text.laCheckBoxWidget_SetCheckedImage
                0x00000000       0x60 build/default/production/_ext/493962524/libaria_widget_checkbox.o
 .text.laCheckBoxWidget_GetUncheckedImage
                0x00000000       0x18 build/default/production/_ext/493962524/libaria_widget_checkbox.o
 .text.laCheckBoxWidget_SetUncheckedImage
                0x00000000       0x60 build/default/production/_ext/493962524/libaria_widget_checkbox.o
 .text.laCheckBoxWidget_GetImagePosition
                0x00000000       0x18 build/default/production/_ext/493962524/libaria_widget_checkbox.o
 .text.laCheckBoxWidget_SetImagePosition
                0x00000000       0x60 build/default/production/_ext/493962524/libaria_widget_checkbox.o
 .text.laCheckBoxWidget_GetImageMargin
                0x00000000       0x18 build/default/production/_ext/493962524/libaria_widget_checkbox.o
 .text.laCheckBoxWidget_SetImageMargin
                0x00000000       0x60 build/default/production/_ext/493962524/libaria_widget_checkbox.o
 .text.laCheckBoxWidget_GetCheckedEventCallback
                0x00000000       0x18 build/default/production/_ext/493962524/libaria_widget_checkbox.o
 .text.laCheckBoxWidget_SetCheckedEventCallback
                0x00000000       0x1c build/default/production/_ext/493962524/libaria_widget_checkbox.o
 .text.laCheckBoxWidget_GetUncheckedEventCallback
                0x00000000       0x18 build/default/production/_ext/493962524/libaria_widget_checkbox.o
 .text.laCheckBoxWidget_SetUncheckedEventCallback
                0x00000000       0x1c build/default/production/_ext/493962524/libaria_widget_checkbox.o
 .text          0x00000000        0x0 build/default/production/_ext/493962524/libaria_widget_checkbox_skin_classic.o
 .data          0x00000000        0x0 build/default/production/_ext/493962524/libaria_widget_checkbox_skin_classic.o
 .bss           0x00000000        0x0 build/default/production/_ext/493962524/libaria_widget_checkbox_skin_classic.o
 .reginfo       0x00000000       0x18 build/default/production/_ext/493962524/libaria_widget_checkbox_skin_classic.o
 .text.nextState
                0x00000000       0xfc build/default/production/_ext/493962524/libaria_widget_checkbox_skin_classic.o
 .text.waitString
                0x00000000       0x68 build/default/production/_ext/493962524/libaria_widget_checkbox_skin_classic.o
 .text.waitImage
                0x00000000       0x68 build/default/production/_ext/493962524/libaria_widget_checkbox_skin_classic.o
 .text.drawBorder
                0x00000000       0x58 build/default/production/_ext/493962524/libaria_widget_checkbox_skin_classic.o
 .text.drawBackground
                0x00000000       0x2c build/default/production/_ext/493962524/libaria_widget_checkbox_skin_classic.o
 .text._laCheckBoxWidget_GetImageRect
                0x00000000      0x198 build/default/production/_ext/493962524/libaria_widget_checkbox_skin_classic.o
 .text.drawImage
                0x00000000      0x2ac build/default/production/_ext/493962524/libaria_widget_checkbox_skin_classic.o
 .text._laCheckBoxWidget_GetTextRect
                0x00000000      0x184 build/default/production/_ext/493962524/libaria_widget_checkbox_skin_classic.o
 .text.drawString
                0x00000000       0xe0 build/default/production/_ext/493962524/libaria_widget_checkbox_skin_classic.o
 .text._laCheckBoxWidget_Paint
                0x00000000       0xb8 build/default/production/_ext/493962524/libaria_widget_checkbox_skin_classic.o
 .text          0x00000000        0x0 build/default/production/_ext/493962524/libaria_widget_circle.o
 .data          0x00000000        0x0 build/default/production/_ext/493962524/libaria_widget_circle.o
 .bss           0x00000000        0x0 build/default/production/_ext/493962524/libaria_widget_circle.o
 .reginfo       0x00000000       0x18 build/default/production/_ext/493962524/libaria_widget_circle.o
 .text._laCircleWidget_Destructor
                0x00000000       0x1c build/default/production/_ext/493962524/libaria_widget_circle.o
 .text._laCircleWidget_Constructor
                0x00000000       0x68 build/default/production/_ext/493962524/libaria_widget_circle.o
 .text.laCircleWidget_New
                0x00000000       0x58 build/default/production/_ext/493962524/libaria_widget_circle.o
 .text.laCircleWidget_GetOrigin
                0x00000000       0x48 build/default/production/_ext/493962524/libaria_widget_circle.o
 .text.laCircleWidget_SetOrigin
                0x00000000       0x48 build/default/production/_ext/493962524/libaria_widget_circle.o
 .text.laCircleWidget_GetRadius
                0x00000000       0x18 build/default/production/_ext/493962524/libaria_widget_circle.o
 .text.laCircleWidget_SetRadius
                0x00000000       0x44 build/default/production/_ext/493962524/libaria_widget_circle.o
 .text          0x00000000        0x0 build/default/production/_ext/493962524/libaria_widget_circle_skin_classic.o
 .data          0x00000000        0x0 build/default/production/_ext/493962524/libaria_widget_circle_skin_classic.o
 .bss           0x00000000        0x0 build/default/production/_ext/493962524/libaria_widget_circle_skin_classic.o
 .reginfo       0x00000000       0x18 build/default/production/_ext/493962524/libaria_widget_circle_skin_classic.o
 .text.nextState
                0x00000000       0xa8 build/default/production/_ext/493962524/libaria_widget_circle_skin_classic.o
 .text.drawBorder
                0x00000000       0x58 build/default/production/_ext/493962524/libaria_widget_circle_skin_classic.o
 .text.drawCircle
                0x00000000       0xe8 build/default/production/_ext/493962524/libaria_widget_circle_skin_classic.o
 .text.drawBackground
                0x00000000       0x2c build/default/production/_ext/493962524/libaria_widget_circle_skin_classic.o
 .text._laCircleWidget_Paint
                0x00000000       0x9c build/default/production/_ext/493962524/libaria_widget_circle_skin_classic.o
 .text          0x00000000        0x0 build/default/production/_ext/493962524/libaria_widget_circular_gauge.o
 .data          0x00000000        0x0 build/default/production/_ext/493962524/libaria_widget_circular_gauge.o
 .bss           0x00000000        0x0 build/default/production/_ext/493962524/libaria_widget_circular_gauge.o
 .reginfo       0x00000000       0x18 build/default/production/_ext/493962524/libaria_widget_circular_gauge.o
 .text._laCircularGaugeWidget_Destructor
                0x00000000       0x40 build/default/production/_ext/493962524/libaria_widget_circular_gauge.o
 .text._laCircularGaugeWidget_Constructor
                0x00000000       0xd0 build/default/production/_ext/493962524/libaria_widget_circular_gauge.o
 .text.laCircularGaugeWidget_New
                0x00000000       0x58 build/default/production/_ext/493962524/libaria_widget_circular_gauge.o
 .text.laCircularGaugeWidget_GetRadius
                0x00000000       0x18 build/default/production/_ext/493962524/libaria_widget_circular_gauge.o
 .text.laCircularGaugeWidget_SetRadius
                0x00000000       0x44 build/default/production/_ext/493962524/libaria_widget_circular_gauge.o
 .text.laCircularGaugeWidget_GetStartAngle
                0x00000000       0x18 build/default/production/_ext/493962524/libaria_widget_circular_gauge.o
 .text.laCircularGaugeWidget_SetStartAngle
                0x00000000       0x44 build/default/production/_ext/493962524/libaria_widget_circular_gauge.o
 .text.laCircularGaugeWidget_GetCenterAngle
                0x00000000       0x18 build/default/production/_ext/493962524/libaria_widget_circular_gauge.o
 .text.laCircularGaugeWidget_SetCenterAngle
                0x00000000       0x70 build/default/production/_ext/493962524/libaria_widget_circular_gauge.o
 .text.laCircularGaugeWidget_GetDirection
                0x00000000       0x18 build/default/production/_ext/493962524/libaria_widget_circular_gauge.o
 .text.laCircularGaugeWidget_SetDirection
                0x00000000       0x44 build/default/production/_ext/493962524/libaria_widget_circular_gauge.o
 .text.laCircularGaugeWidget_AddValueArc
                0x00000000       0xfc build/default/production/_ext/493962524/libaria_widget_circular_gauge.o
 .text.laCircularGaugeWidget_AddAngularArc
                0x00000000       0xe8 build/default/production/_ext/493962524/libaria_widget_circular_gauge.o
 .text.laCircularGaugeWidget_DeleteArcs
                0x00000000       0x34 build/default/production/_ext/493962524/libaria_widget_circular_gauge.o
 .text.laCircularGaugeWidget_AddMinorTicks
                0x00000000      0x114 build/default/production/_ext/493962524/libaria_widget_circular_gauge.o
 .text.laCircularGaugeWidget_DeleteMinorTicks
                0x00000000       0x34 build/default/production/_ext/493962524/libaria_widget_circular_gauge.o
 .text.laCircularGaugeWidget_AddMinorTickLabels
                0x00000000      0x114 build/default/production/_ext/493962524/libaria_widget_circular_gauge.o
 .text.laCircularGaugeWidget_DeleteMinorTickLabels
                0x00000000       0x34 build/default/production/_ext/493962524/libaria_widget_circular_gauge.o
 .text.laCircularGaugeWidget_GetValue
                0x00000000       0x18 build/default/production/_ext/493962524/libaria_widget_circular_gauge.o
 .text.laCircularGaugeWidget_SetValue
                0x00000000       0x78 build/default/production/_ext/493962524/libaria_widget_circular_gauge.o
 .text.laCircularGaugeWidget_GetStartValue
                0x00000000       0x18 build/default/production/_ext/493962524/libaria_widget_circular_gauge.o
 .text.laCircularGaugeWidget_SetStartValue
                0x00000000       0x44 build/default/production/_ext/493962524/libaria_widget_circular_gauge.o
 .text.laCircularGaugeWidget_GetEndValue
                0x00000000       0x18 build/default/production/_ext/493962524/libaria_widget_circular_gauge.o
 .text.laCircularGaugeWidget_SetEndValue
                0x00000000       0x44 build/default/production/_ext/493962524/libaria_widget_circular_gauge.o
 .text.laCircularGaugeWidget_GetTicksVisible
                0x00000000       0x18 build/default/production/_ext/493962524/libaria_widget_circular_gauge.o
 .text.laCircularGaugeWidget_SetTicksVisible
                0x00000000       0x44 build/default/production/_ext/493962524/libaria_widget_circular_gauge.o
 .text.laCircularGaugeWidget_GetTickValue
                0x00000000       0x18 build/default/production/_ext/493962524/libaria_widget_circular_gauge.o
 .text.laCircularGaugeWidget_SetTickValue
                0x00000000       0x44 build/default/production/_ext/493962524/libaria_widget_circular_gauge.o
 .text.laCircularGaugeWidget_GetTickLength
                0x00000000       0x18 build/default/production/_ext/493962524/libaria_widget_circular_gauge.o
 .text.laCircularGaugeWidget_SetTickLength
                0x00000000       0x60 build/default/production/_ext/493962524/libaria_widget_circular_gauge.o
 .text.laCircularGaugeWidget_GetTickLabelsVisible
                0x00000000       0x18 build/default/production/_ext/493962524/libaria_widget_circular_gauge.o
 .text.laCircularGaugeWidget_SetTickLabelsVisible
                0x00000000       0x44 build/default/production/_ext/493962524/libaria_widget_circular_gauge.o
 .text.laCircularGaugeWidget_GetHandVisible
                0x00000000       0x18 build/default/production/_ext/493962524/libaria_widget_circular_gauge.o
 .text.laCircularGaugeWidget_SetHandVisible
                0x00000000       0x44 build/default/production/_ext/493962524/libaria_widget_circular_gauge.o
 .text.laCircularGaugeWidget_GetHandRadius
                0x00000000       0x18 build/default/production/_ext/493962524/libaria_widget_circular_gauge.o
 .text.laCircularGaugeWidget_SetHandRadius
                0x00000000       0x60 build/default/production/_ext/493962524/libaria_widget_circular_gauge.o
 .text.laCircularGaugeWidget_GetCenterCircleVisible
                0x00000000       0x18 build/default/production/_ext/493962524/libaria_widget_circular_gauge.o
 .text.laCircularGaugeWidget_SetCenterCircleVisible
                0x00000000       0x44 build/default/production/_ext/493962524/libaria_widget_circular_gauge.o
 .text.laCircularGaugeWidget_GetCenterCircleRadius
                0x00000000       0x18 build/default/production/_ext/493962524/libaria_widget_circular_gauge.o
 .text.laCircularGaugeWidget_SetCenterCircleRadius
                0x00000000       0x60 build/default/production/_ext/493962524/libaria_widget_circular_gauge.o
 .text.laCircularGaugeWidget_GetCenterCircleThickness
                0x00000000       0x18 build/default/production/_ext/493962524/libaria_widget_circular_gauge.o
 .text.laCircularGaugeWidget_SetCenterCircleThickness
                0x00000000       0x5c build/default/production/_ext/493962524/libaria_widget_circular_gauge.o
 .text.laCircularGaugeWidget_SetStringTable
                0x00000000       0x48 build/default/production/_ext/493962524/libaria_widget_circular_gauge.o
 .text.laCircularGaugeWidget_SetTicksLabelsStringID
                0x00000000       0x44 build/default/production/_ext/493962524/libaria_widget_circular_gauge.o
 .text.laCircularGaugeWidget_SetValueChangedEventCallback
                0x00000000       0x30 build/default/production/_ext/493962524/libaria_widget_circular_gauge.o
 .text          0x00000000        0x0 build/default/production/_ext/493962524/libaria_widget_circular_gauge_skin_classic.o
 .data          0x00000000        0x0 build/default/production/_ext/493962524/libaria_widget_circular_gauge_skin_classic.o
 .bss           0x00000000        0x0 build/default/production/_ext/493962524/libaria_widget_circular_gauge_skin_classic.o
 .reginfo       0x00000000       0x18 build/default/production/_ext/493962524/libaria_widget_circular_gauge_skin_classic.o
 .text.nextState
                0x00000000       0xa8 build/default/production/_ext/493962524/libaria_widget_circular_gauge_skin_classic.o
 .text.drawBorder
                0x00000000       0x58 build/default/production/_ext/493962524/libaria_widget_circular_gauge_skin_classic.o
 .text.drawTicksAtAngle
                0x00000000      0x11c build/default/production/_ext/493962524/libaria_widget_circular_gauge_skin_classic.o
 .text.drawBackground
                0x00000000       0x2c build/default/production/_ext/493962524/libaria_widget_circular_gauge_skin_classic.o
 .rodata        0x00000000        0x4 build/default/production/_ext/493962524/libaria_widget_circular_gauge_skin_classic.o
 .text.drawTickLabelsAtAngleWithValue
                0x00000000      0x62c build/default/production/_ext/493962524/libaria_widget_circular_gauge_skin_classic.o
 .text.drawCircularGauge
                0x00000000      0x898 build/default/production/_ext/493962524/libaria_widget_circular_gauge_skin_classic.o
 .text._laCircularGaugeWidget_Paint
                0x00000000       0x9c build/default/production/_ext/493962524/libaria_widget_circular_gauge_skin_classic.o
 .text          0x00000000        0x0 build/default/production/_ext/493962524/libaria_widget_circular_slider.o
 .data          0x00000000        0x0 build/default/production/_ext/493962524/libaria_widget_circular_slider.o
 .bss           0x00000000        0x0 build/default/production/_ext/493962524/libaria_widget_circular_slider.o
 .reginfo       0x00000000       0x18 build/default/production/_ext/493962524/libaria_widget_circular_slider.o
 .text.touchUp  0x00000000       0x48 build/default/production/_ext/493962524/libaria_widget_circular_slider.o
 .text.getSliderValueAtPoint
                0x00000000      0x308 build/default/production/_ext/493962524/libaria_widget_circular_slider.o
 .text._laCircularSliderWidget_Destructor
                0x00000000       0x1c build/default/production/_ext/493962524/libaria_widget_circular_slider.o
 .text._laCircularSliderWidget_GetCircleCenterPointAtValue
                0x00000000      0x188 build/default/production/_ext/493962524/libaria_widget_circular_slider.o
 .text._laCircularSliderWidget_Constructor
                0x00000000      0x14c build/default/production/_ext/493962524/libaria_widget_circular_slider.o
 .text.laCircularSliderWidget_New
                0x00000000       0x58 build/default/production/_ext/493962524/libaria_widget_circular_slider.o
 .text.laCircularSliderWidget_GetRadius
                0x00000000       0x18 build/default/production/_ext/493962524/libaria_widget_circular_slider.o
 .text.laCircularSliderWidget_SetRadius
                0x00000000       0x70 build/default/production/_ext/493962524/libaria_widget_circular_slider.o
 .text.laCircularSliderWidget_GetStartAngle
                0x00000000       0x18 build/default/production/_ext/493962524/libaria_widget_circular_slider.o
 .text.laCircularSliderWidget_SetStartAngle
                0x00000000       0x80 build/default/production/_ext/493962524/libaria_widget_circular_slider.o
 .text.laCircularSliderWidget_GetStartValue
                0x00000000       0x18 build/default/production/_ext/493962524/libaria_widget_circular_slider.o
 .text.laCircularSliderWidget_SetStartValue
                0x00000000       0x90 build/default/production/_ext/493962524/libaria_widget_circular_slider.o
 .text.laCircularSliderWidget_GetEndValue
                0x00000000       0x18 build/default/production/_ext/493962524/libaria_widget_circular_slider.o
 .text.laCircularSliderWidget_SetEndValue
                0x00000000       0x90 build/default/production/_ext/493962524/libaria_widget_circular_slider.o
 .text.laCircularSliderWidget_GetValue
                0x00000000       0x18 build/default/production/_ext/493962524/libaria_widget_circular_slider.o
 .text.laCircularSliderWidget_SetValue
                0x00000000       0x80 build/default/production/_ext/493962524/libaria_widget_circular_slider.o
 .text.touchMoved
                0x00000000      0x138 build/default/production/_ext/493962524/libaria_widget_circular_slider.o
 .text.touchDown
                0x00000000      0x1b0 build/default/production/_ext/493962524/libaria_widget_circular_slider.o
 .text.laCircularSliderWidget_GetRoundEdges
                0x00000000       0x18 build/default/production/_ext/493962524/libaria_widget_circular_slider.o
 .text.laCircularSliderWidget_SetRoundEdges
                0x00000000       0x44 build/default/production/_ext/493962524/libaria_widget_circular_slider.o
 .text.laCircularSliderWidget_GetStickyButton
                0x00000000       0x18 build/default/production/_ext/493962524/libaria_widget_circular_slider.o
 .text.laCircularSliderWidget_SetStickyButton
                0x00000000       0x30 build/default/production/_ext/493962524/libaria_widget_circular_slider.o
 .text.laCircularSliderWidget_GetTouchOnButtonOnly
                0x00000000       0x18 build/default/production/_ext/493962524/libaria_widget_circular_slider.o
 .text.laCircularSliderWidget_SetTouchOnButtonOnly
                0x00000000       0x30 build/default/production/_ext/493962524/libaria_widget_circular_slider.o
 .text.laCircularSliderWidget_GetArcThickness
                0x00000000       0x74 build/default/production/_ext/493962524/libaria_widget_circular_slider.o
 .text.laCircularSliderWidget_SetArcThickness
                0x00000000      0x110 build/default/production/_ext/493962524/libaria_widget_circular_slider.o
 .text.laCircularSliderWidget_GetArcRadius
                0x00000000       0x2c build/default/production/_ext/493962524/libaria_widget_circular_slider.o
 .text.laCircularSliderWidget_SetArcRadius
                0x00000000       0x74 build/default/production/_ext/493962524/libaria_widget_circular_slider.o
 .text.laCircularSliderWidget_GetArcScheme
                0x00000000       0x2c build/default/production/_ext/493962524/libaria_widget_circular_slider.o
 .text.laCircularSliderWidget_SetArcScheme
                0x00000000       0x48 build/default/production/_ext/493962524/libaria_widget_circular_slider.o
 .text.laCircularSliderWidget_GetArcVisible
                0x00000000       0x74 build/default/production/_ext/493962524/libaria_widget_circular_slider.o
 .text.laCircularSliderWidget_SetArcVisible
                0x00000000       0xc8 build/default/production/_ext/493962524/libaria_widget_circular_slider.o
 .text.laCircularSliderWidget_GetDirection
                0x00000000       0x18 build/default/production/_ext/493962524/libaria_widget_circular_slider.o
 .text.laCircularSliderWidget_SetDirection
                0x00000000       0x44 build/default/production/_ext/493962524/libaria_widget_circular_slider.o
 .text.laCircularSliderWidget_SetPressedEventCallback
                0x00000000       0x1c build/default/production/_ext/493962524/libaria_widget_circular_slider.o
 .text.laCircularSliderWidget_SetValueChangedEventCallback
                0x00000000       0x1c build/default/production/_ext/493962524/libaria_widget_circular_slider.o
 .text.laCircularSliderWidget_SetReleasedEventCallback
                0x00000000       0x1c build/default/production/_ext/493962524/libaria_widget_circular_slider.o
 .rodata        0x00000000        0xc build/default/production/_ext/493962524/libaria_widget_circular_slider.o
 .text          0x00000000        0x0 build/default/production/_ext/493962524/libaria_widget_circular_slider_skin_classic.o
 .data          0x00000000        0x0 build/default/production/_ext/493962524/libaria_widget_circular_slider_skin_classic.o
 .bss           0x00000000        0x0 build/default/production/_ext/493962524/libaria_widget_circular_slider_skin_classic.o
 .reginfo       0x00000000       0x18 build/default/production/_ext/493962524/libaria_widget_circular_slider_skin_classic.o
 .text.nextState
                0x00000000       0xa8 build/default/production/_ext/493962524/libaria_widget_circular_slider_skin_classic.o
 .text.drawBorder
                0x00000000       0x58 build/default/production/_ext/493962524/libaria_widget_circular_slider_skin_classic.o
 .text.drawCircularSlider
                0x00000000      0x584 build/default/production/_ext/493962524/libaria_widget_circular_slider_skin_classic.o
 .text.drawBackground
                0x00000000       0x50 build/default/production/_ext/493962524/libaria_widget_circular_slider_skin_classic.o
 .text._laCircularSliderWidget_Paint
                0x00000000       0x9c build/default/production/_ext/493962524/libaria_widget_circular_slider_skin_classic.o
 .text          0x00000000        0x0 build/default/production/_ext/493962524/libaria_widget_drawsurface.o
 .data          0x00000000        0x0 build/default/production/_ext/493962524/libaria_widget_drawsurface.o
 .bss           0x00000000        0x0 build/default/production/_ext/493962524/libaria_widget_drawsurface.o
 .reginfo       0x00000000       0x18 build/default/production/_ext/493962524/libaria_widget_drawsurface.o
 .text._laDrawSurfaceWidget_Destructor
                0x00000000       0x1c build/default/production/_ext/493962524/libaria_widget_drawsurface.o
 .text._laDrawSurfaceWidget_Constructor
                0x00000000       0x60 build/default/production/_ext/493962524/libaria_widget_drawsurface.o
 .text.laDrawSurfaceWidget_New
                0x00000000       0x58 build/default/production/_ext/493962524/libaria_widget_drawsurface.o
 .text.laDrawSurfaceWidget_GetDrawCallback
                0x00000000       0x18 build/default/production/_ext/493962524/libaria_widget_drawsurface.o
 .text.laDrawSurfaceWidget_SetDrawCallback
                0x00000000       0x48 build/default/production/_ext/493962524/libaria_widget_drawsurface.o
 .text          0x00000000        0x0 build/default/production/_ext/493962524/libaria_widget_drawsurface_skin_classic.o
 .data          0x00000000        0x0 build/default/production/_ext/493962524/libaria_widget_drawsurface_skin_classic.o
 .bss           0x00000000        0x0 build/default/production/_ext/493962524/libaria_widget_drawsurface_skin_classic.o
 .reginfo       0x00000000       0x18 build/default/production/_ext/493962524/libaria_widget_drawsurface_skin_classic.o
 .text.nextState
                0x00000000       0xa8 build/default/production/_ext/493962524/libaria_widget_drawsurface_skin_classic.o
 .text.drawBorder
                0x00000000       0x58 build/default/production/_ext/493962524/libaria_widget_drawsurface_skin_classic.o
 .text.drawCallback
                0x00000000       0x74 build/default/production/_ext/493962524/libaria_widget_drawsurface_skin_classic.o
 .text.drawBackground
                0x00000000       0x2c build/default/production/_ext/493962524/libaria_widget_drawsurface_skin_classic.o
 .text._laDrawSurfaceWidget_Paint
                0x00000000       0x9c build/default/production/_ext/493962524/libaria_widget_drawsurface_skin_classic.o
 .text          0x00000000        0x0 build/default/production/_ext/493962524/libaria_widget_gradient.o
 .data          0x00000000        0x0 build/default/production/_ext/493962524/libaria_widget_gradient.o
 .bss           0x00000000        0x0 build/default/production/_ext/493962524/libaria_widget_gradient.o
 .reginfo       0x00000000       0x18 build/default/production/_ext/493962524/libaria_widget_gradient.o
 .text._laGradientWidget_Destructor
                0x00000000       0x1c build/default/production/_ext/493962524/libaria_widget_gradient.o
 .text._laGradientWidget_Constructor
                0x00000000       0x60 build/default/production/_ext/493962524/libaria_widget_gradient.o
 .text.laGradientWidget_New
                0x00000000       0x58 build/default/production/_ext/493962524/libaria_widget_gradient.o
 .text.laGradientWidget_GetDirection
                0x00000000       0x18 build/default/production/_ext/493962524/libaria_widget_gradient.o
 .text.laGradientWidget_SetDirection
                0x00000000       0x44 build/default/production/_ext/493962524/libaria_widget_gradient.o
 .text          0x00000000        0x0 build/default/production/_ext/493962524/libaria_widget_gradient_skin_classic.o
 .data          0x00000000        0x0 build/default/production/_ext/493962524/libaria_widget_gradient_skin_classic.o
 .bss           0x00000000        0x0 build/default/production/_ext/493962524/libaria_widget_gradient_skin_classic.o
 .reginfo       0x00000000       0x18 build/default/production/_ext/493962524/libaria_widget_gradient_skin_classic.o
 .text.nextState
                0x00000000       0x78 build/default/production/_ext/493962524/libaria_widget_gradient_skin_classic.o
 .text.drawBorder
                0x00000000       0x58 build/default/production/_ext/493962524/libaria_widget_gradient_skin_classic.o
 .text.drawBackground
                0x00000000      0x158 build/default/production/_ext/493962524/libaria_widget_gradient_skin_classic.o
 .text._laGradientWidget_Paint
                0x00000000       0x9c build/default/production/_ext/493962524/libaria_widget_gradient_skin_classic.o
 .text          0x00000000        0x0 build/default/production/_ext/493962524/libaria_widget_groupbox.o
 .data          0x00000000        0x0 build/default/production/_ext/493962524/libaria_widget_groupbox.o
 .bss           0x00000000        0x0 build/default/production/_ext/493962524/libaria_widget_groupbox.o
 .reginfo       0x00000000       0x18 build/default/production/_ext/493962524/libaria_widget_groupbox.o
 .text.languageChanging
                0x00000000       0x58 build/default/production/_ext/493962524/libaria_widget_groupbox.o
 .text._laGroupBoxWidget_Destructor
                0x00000000       0x30 build/default/production/_ext/493962524/libaria_widget_groupbox.o
 .text._laGroupBoxWidget_Constructor
                0x00000000       0x6c build/default/production/_ext/493962524/libaria_widget_groupbox.o
 .text.laGroupBoxWidget_New
                0x00000000       0x50 build/default/production/_ext/493962524/libaria_widget_groupbox.o
 .text.laGroupBoxWidget_GetAlignment
                0x00000000       0x18 build/default/production/_ext/493962524/libaria_widget_groupbox.o
 .text.laGroupBoxWidget_SetAlignment
                0x00000000       0x44 build/default/production/_ext/493962524/libaria_widget_groupbox.o
 .text.laGroupBoxWidget_GetText
                0x00000000       0x34 build/default/production/_ext/493962524/libaria_widget_groupbox.o
 .text.laGroupBoxWidget_SetText
                0x00000000       0x84 build/default/production/_ext/493962524/libaria_widget_groupbox.o
 .text          0x00000000        0x0 build/default/production/_ext/493962524/libaria_widget_groupbox_skin_classic.o
 .data          0x00000000        0x0 build/default/production/_ext/493962524/libaria_widget_groupbox_skin_classic.o
 .bss           0x00000000        0x0 build/default/production/_ext/493962524/libaria_widget_groupbox_skin_classic.o
 .reginfo       0x00000000       0x18 build/default/production/_ext/493962524/libaria_widget_groupbox_skin_classic.o
 .text.nextState
                0x00000000       0xf8 build/default/production/_ext/493962524/libaria_widget_groupbox_skin_classic.o
 .text.waitString
                0x00000000       0x68 build/default/production/_ext/493962524/libaria_widget_groupbox_skin_classic.o
 .text.drawBorder
                0x00000000       0x58 build/default/production/_ext/493962524/libaria_widget_groupbox_skin_classic.o
 .text.drawLine
                0x00000000       0x84 build/default/production/_ext/493962524/libaria_widget_groupbox_skin_classic.o
 .text.drawOutline
                0x00000000      0x2e0 build/default/production/_ext/493962524/libaria_widget_groupbox_skin_classic.o
 .text.drawBackground
                0x00000000       0x2c build/default/production/_ext/493962524/libaria_widget_groupbox_skin_classic.o
 .text._laGroupBoxWidget_GetTextRect
                0x00000000      0x100 build/default/production/_ext/493962524/libaria_widget_groupbox_skin_classic.o
 .text.drawString
                0x00000000       0xe0 build/default/production/_ext/493962524/libaria_widget_groupbox_skin_classic.o
 .text._laGroupBoxWidget_Paint
                0x00000000       0xb4 build/default/production/_ext/493962524/libaria_widget_groupbox_skin_classic.o
 .rodata        0x00000000       0x10 build/default/production/_ext/493962524/libaria_widget_groupbox_skin_classic.o
 .text          0x00000000        0x0 build/default/production/_ext/493962524/libaria_widget_image.o
 .data          0x00000000        0x0 build/default/production/_ext/493962524/libaria_widget_image.o
 .bss           0x00000000        0x0 build/default/production/_ext/493962524/libaria_widget_image.o
 .reginfo       0x00000000       0x18 build/default/production/_ext/493962524/libaria_widget_image.o
 .text.laImageWidget_GetHAlignment
                0x00000000       0x18 build/default/production/_ext/493962524/libaria_widget_image.o
 .text.laImageWidget_SetHAlignment
                0x00000000       0x5c build/default/production/_ext/493962524/libaria_widget_image.o
 .text.laImageWidget_GetVAlignment
                0x00000000       0x18 build/default/production/_ext/493962524/libaria_widget_image.o
 .text.laImageWidget_SetVAlignment
                0x00000000       0x5c build/default/production/_ext/493962524/libaria_widget_image.o
 .text.laImageWidget_GetImage
                0x00000000       0x18 build/default/production/_ext/493962524/libaria_widget_image.o
 .text.laImageWidget_SetCallBackStart
                0x00000000        0x8 build/default/production/_ext/493962524/libaria_widget_image.o
 .text.laImageWidget_SetCallBackEnd
                0x00000000        0x8 build/default/production/_ext/493962524/libaria_widget_image.o
 .text          0x00000000        0x0 build/default/production/_ext/493962524/libaria_widget_image_skin_classic.o
 .data          0x00000000        0x0 build/default/production/_ext/493962524/libaria_widget_image_skin_classic.o
 .bss           0x00000000        0x0 build/default/production/_ext/493962524/libaria_widget_image_skin_classic.o
 .reginfo       0x00000000       0x18 build/default/production/_ext/493962524/libaria_widget_image_skin_classic.o
 .text          0x00000000        0x0 build/default/production/_ext/493962524/libaria_widget_imageplus.o
 .data          0x00000000        0x0 build/default/production/_ext/493962524/libaria_widget_imageplus.o
 .bss           0x00000000        0x0 build/default/production/_ext/493962524/libaria_widget_imageplus.o
 .reginfo       0x00000000       0x18 build/default/production/_ext/493962524/libaria_widget_imageplus.o
 .text.touchDown
                0x00000000       0x60 build/default/production/_ext/493962524/libaria_widget_imageplus.o
 .text.touchUp  0x00000000       0x38 build/default/production/_ext/493962524/libaria_widget_imageplus.o
 .text.invalidateImageRect
                0x00000000       0x44 build/default/production/_ext/493962524/libaria_widget_imageplus.o
 .text.touchMoved
                0x00000000      0x138 build/default/production/_ext/493962524/libaria_widget_imageplus.o
 .text._laImagePlusWidget_Destructor
                0x00000000       0x1c build/default/production/_ext/493962524/libaria_widget_imageplus.o
 .text._laImagePlusWidget_Constructor
                0x00000000       0xb8 build/default/production/_ext/493962524/libaria_widget_imageplus.o
 .text.laImagePlusWidget_New
                0x00000000       0x58 build/default/production/_ext/493962524/libaria_widget_imageplus.o
 .text.laImagePlusWidget_GetImage
                0x00000000       0x18 build/default/production/_ext/493962524/libaria_widget_imageplus.o
 .text.laImagePlusWidget_SetImage
                0x00000000       0xa8 build/default/production/_ext/493962524/libaria_widget_imageplus.o
 .text.laImagePlusWidget_GetTransformX
                0x00000000       0x18 build/default/production/_ext/493962524/libaria_widget_imageplus.o
 .text.laImagePlusWidget_SetTransformX
                0x00000000       0x78 build/default/production/_ext/493962524/libaria_widget_imageplus.o
 .text.laImagePlusWidget_GetTransformY
                0x00000000       0x18 build/default/production/_ext/493962524/libaria_widget_imageplus.o
 .text.laImagePlusWidget_SetTransformY
                0x00000000       0x78 build/default/production/_ext/493962524/libaria_widget_imageplus.o
 .text.laImagePlusWidget_GetTransformWidth
                0x00000000       0x18 build/default/production/_ext/493962524/libaria_widget_imageplus.o
 .text.laImagePlusWidget_SetTransformWidth
                0x00000000       0x78 build/default/production/_ext/493962524/libaria_widget_imageplus.o
 .text.laImagePlusWidget_GetTransformHeight
                0x00000000       0x18 build/default/production/_ext/493962524/libaria_widget_imageplus.o
 .text.laImagePlusWidget_SetTransformHeight
                0x00000000       0x78 build/default/production/_ext/493962524/libaria_widget_imageplus.o
 .text.laImagePlusWidget_ResetTransform
                0x00000000       0x68 build/default/production/_ext/493962524/libaria_widget_imageplus.o
 .text.laImagePlusWidget_GetStretchEnabled
                0x00000000       0x18 build/default/production/_ext/493962524/libaria_widget_imageplus.o
 .text.laImagePlusWidget_SetStretchEnabled
                0x00000000       0x78 build/default/production/_ext/493962524/libaria_widget_imageplus.o
 .text.laImagePlusWidget_GetPreserveAspectEnabled
                0x00000000       0x18 build/default/production/_ext/493962524/libaria_widget_imageplus.o
 .text.laImagePlusWidget_SetPreserveAspectEnabled
                0x00000000       0x78 build/default/production/_ext/493962524/libaria_widget_imageplus.o
 .text.laImagePlusWidget_GetResizeFilter
                0x00000000       0x18 build/default/production/_ext/493962524/libaria_widget_imageplus.o
 .text.laImagePlusWidget_SetResizeFilter
                0x00000000       0x78 build/default/production/_ext/493962524/libaria_widget_imageplus.o
 .text.laImagePlusWidget_GetInteractive
                0x00000000       0x18 build/default/production/_ext/493962524/libaria_widget_imageplus.o
 .text.laImagePlusWidget_SetInteractive
                0x00000000       0x30 build/default/production/_ext/493962524/libaria_widget_imageplus.o
 .text          0x00000000        0x0 build/default/production/_ext/493962524/libaria_widget_imageplus_skin_classic.o
 .data          0x00000000        0x0 build/default/production/_ext/493962524/libaria_widget_imageplus_skin_classic.o
 .bss           0x00000000        0x0 build/default/production/_ext/493962524/libaria_widget_imageplus_skin_classic.o
 .reginfo       0x00000000       0x18 build/default/production/_ext/493962524/libaria_widget_imageplus_skin_classic.o
 .text.nextState
                0x00000000       0xb0 build/default/production/_ext/493962524/libaria_widget_imageplus_skin_classic.o
 .text.drawBorder
                0x00000000       0x58 build/default/production/_ext/493962524/libaria_widget_imageplus_skin_classic.o
 .text.drawBackground
                0x00000000       0x2c build/default/production/_ext/493962524/libaria_widget_imageplus_skin_classic.o
 .text._laImagePlusWidget_GetImageRect
                0x00000000      0x390 build/default/production/_ext/493962524/libaria_widget_imageplus_skin_classic.o
 .text.drawImage
                0x00000000       0x7c build/default/production/_ext/493962524/libaria_widget_imageplus_skin_classic.o
 .text._laImagePlusWidget_Paint
                0x00000000       0x9c build/default/production/_ext/493962524/libaria_widget_imageplus_skin_classic.o
 .text          0x00000000        0x0 build/default/production/_ext/493962524/libaria_widget_imagesequence.o
 .data          0x00000000        0x0 build/default/production/_ext/493962524/libaria_widget_imagesequence.o
 .bss           0x00000000        0x0 build/default/production/_ext/493962524/libaria_widget_imagesequence.o
 .reginfo       0x00000000       0x18 build/default/production/_ext/493962524/libaria_widget_imagesequence.o
 .text._laImageSequenceWidget_Destructor
                0x00000000       0x48 build/default/production/_ext/493962524/libaria_widget_imagesequence.o
 .text._laImageSequenceWidget_Update
                0x00000000       0xec build/default/production/_ext/493962524/libaria_widget_imagesequence.o
 .text._laImageSequenceWidget_Constructor
                0x00000000       0x80 build/default/production/_ext/493962524/libaria_widget_imagesequence.o
 .text.laImageSequenceWidget_New
                0x00000000       0x44 build/default/production/_ext/493962524/libaria_widget_imagesequence.o
 .text.laImageSequenceWidget_GetImageCount
                0x00000000       0x18 build/default/production/_ext/493962524/libaria_widget_imagesequence.o
 .text.laImageSequenceWidget_SetImageCount
                0x00000000       0xc4 build/default/production/_ext/493962524/libaria_widget_imagesequence.o
 .text.laImageSequenceWidget_GetImage
                0x00000000       0x34 build/default/production/_ext/493962524/libaria_widget_imagesequence.o
 .text.laImageSequenceWidget_SetImage
                0x00000000       0x80 build/default/production/_ext/493962524/libaria_widget_imagesequence.o
 .text.laImageSequenceWidget_GetImageDelay
                0x00000000       0x30 build/default/production/_ext/493962524/libaria_widget_imagesequence.o
 .text.laImageSequenceWidget_SetImageDelay
                0x00000000       0x3c build/default/production/_ext/493962524/libaria_widget_imagesequence.o
 .text.laImageSequenceWidget_GetImageHAlignment
                0x00000000       0x30 build/default/production/_ext/493962524/libaria_widget_imagesequence.o
 .text.laImageSequenceWidget_SetImageHAlignment
                0x00000000       0x80 build/default/production/_ext/493962524/libaria_widget_imagesequence.o
 .text.laImageSequenceWidget_GetImageVAlignment
                0x00000000       0x30 build/default/production/_ext/493962524/libaria_widget_imagesequence.o
 .text.laImageSequenceWidget_SetImageVAlignment
                0x00000000       0x80 build/default/production/_ext/493962524/libaria_widget_imagesequence.o
 .text.laImageSequenceWidget_Stop
                0x00000000       0x1c build/default/production/_ext/493962524/libaria_widget_imagesequence.o
 .text.laImageSequenceWidget_Play
                0x00000000       0x20 build/default/production/_ext/493962524/libaria_widget_imagesequence.o
 .text.laImageSequenceWidget_Rewind
                0x00000000       0x24 build/default/production/_ext/493962524/libaria_widget_imagesequence.o
 .text.laImageSequenceWidget_IsPlaying
                0x00000000       0x18 build/default/production/_ext/493962524/libaria_widget_imagesequence.o
 .text.laImageSequenceWidget_GetRepeat
                0x00000000       0x18 build/default/production/_ext/493962524/libaria_widget_imagesequence.o
 .text.laImageSequenceWidget_SetRepeat
                0x00000000       0x1c build/default/production/_ext/493962524/libaria_widget_imagesequence.o
 .text.laImageSequenceWidget_ShowImage
                0x00000000       0x64 build/default/production/_ext/493962524/libaria_widget_imagesequence.o
 .text.laImageSequenceWidget_ShowNextImage
                0x00000000       0x5c build/default/production/_ext/493962524/libaria_widget_imagesequence.o
 .text.laImageSequenceWidget_ShowPreviousImage
                0x00000000       0x58 build/default/production/_ext/493962524/libaria_widget_imagesequence.o
 .text.laImageSequenceWidget_GetImageChangedEventCallback
                0x00000000       0x18 build/default/production/_ext/493962524/libaria_widget_imagesequence.o
 .text.laImageSequenceWidget_SetImageChangedEventCallback
                0x00000000       0x1c build/default/production/_ext/493962524/libaria_widget_imagesequence.o
 .text          0x00000000        0x0 build/default/production/_ext/493962524/libaria_widget_imagesequence_skin_classic.o
 .data          0x00000000        0x0 build/default/production/_ext/493962524/libaria_widget_imagesequence_skin_classic.o
 .bss           0x00000000        0x0 build/default/production/_ext/493962524/libaria_widget_imagesequence_skin_classic.o
 .reginfo       0x00000000       0x18 build/default/production/_ext/493962524/libaria_widget_imagesequence_skin_classic.o
 .text.nextState
                0x00000000       0xd4 build/default/production/_ext/493962524/libaria_widget_imagesequence_skin_classic.o
 .text.waitImage
                0x00000000       0x68 build/default/production/_ext/493962524/libaria_widget_imagesequence_skin_classic.o
 .text.drawBorder
                0x00000000       0x58 build/default/production/_ext/493962524/libaria_widget_imagesequence_skin_classic.o
 .text.drawBackground
                0x00000000       0x2c build/default/production/_ext/493962524/libaria_widget_imagesequence_skin_classic.o
 .text._laImageSequenceWidget_GetImageRect
                0x00000000      0x178 build/default/production/_ext/493962524/libaria_widget_imagesequence_skin_classic.o
 .text.drawImage
                0x00000000      0x120 build/default/production/_ext/493962524/libaria_widget_imagesequence_skin_classic.o
 .text._laImageSequenceWidget_Paint
                0x00000000       0xb4 build/default/production/_ext/493962524/libaria_widget_imagesequence_skin_classic.o
 .rodata        0x00000000       0x10 build/default/production/_ext/493962524/libaria_widget_imagesequence_skin_classic.o
 .text          0x00000000        0x0 build/default/production/_ext/493962524/libaria_widget_keypad.o
 .data          0x00000000        0x0 build/default/production/_ext/493962524/libaria_widget_keypad.o
 .bss           0x00000000        0x0 build/default/production/_ext/493962524/libaria_widget_keypad.o
 .reginfo       0x00000000       0x18 build/default/production/_ext/493962524/libaria_widget_keypad.o
 .text._buttonClicked
                0x00000000      0x158 build/default/production/_ext/493962524/libaria_widget_keypad.o
 .text.languageChanging
                0x00000000       0x84 build/default/production/_ext/493962524/libaria_widget_keypad.o
 .text._getButton
                0x00000000       0x60 build/default/production/_ext/493962524/libaria_widget_keypad.o
 .text._resizeCells
                0x00000000      0x154 build/default/production/_ext/493962524/libaria_widget_keypad.o
 .text._resized
                0x00000000       0x1c build/default/production/_ext/493962524/libaria_widget_keypad.o
 .text._laKeyPadWidget_Destructor
                0x00000000       0xa0 build/default/production/_ext/493962524/libaria_widget_keypad.o
 .text._laKeyPadWidget_Constructor
                0x00000000      0x138 build/default/production/_ext/493962524/libaria_widget_keypad.o
 .text.laKeyPadWidget_New
                0x00000000       0x70 build/default/production/_ext/493962524/libaria_widget_keypad.o
 .text.laKeyPadWidget_GetKeyPadActionTrigger
                0x00000000       0x18 build/default/production/_ext/493962524/libaria_widget_keypad.o
 .text.laKeyPadWidget_SetKeyPadActionTrigger
                0x00000000       0x1c build/default/production/_ext/493962524/libaria_widget_keypad.o
 .text.laKeyPadWidget_GetKeyClickEventCallback
                0x00000000       0x18 build/default/production/_ext/493962524/libaria_widget_keypad.o
 .text.laKeyPadWidget_SetKeyClickEventCallback
                0x00000000       0x1c build/default/production/_ext/493962524/libaria_widget_keypad.o
 .text.laKeyPadWidget_GetKeyEnabled
                0x00000000       0x5c build/default/production/_ext/493962524/libaria_widget_keypad.o
 .text.laKeyPadWidget_SetKeyEnabled
                0x00000000       0x70 build/default/production/_ext/493962524/libaria_widget_keypad.o
 .text.laKeyPadWidget_GetKeyText
                0x00000000       0x70 build/default/production/_ext/493962524/libaria_widget_keypad.o
 .text.laKeyPadWidget_SetKeyText
                0x00000000       0x74 build/default/production/_ext/493962524/libaria_widget_keypad.o
 .text.laKeyPadWidget_GetKeyPressedImage
                0x00000000       0x60 build/default/production/_ext/493962524/libaria_widget_keypad.o
 .text.laKeyPadWidget_SetKeyPressedImage
                0x00000000       0x70 build/default/production/_ext/493962524/libaria_widget_keypad.o
 .text.laKeyPadWidget_GetKeyReleasedImage
                0x00000000       0x60 build/default/production/_ext/493962524/libaria_widget_keypad.o
 .text.laKeyPadWidget_SetKeyReleasedImage
                0x00000000       0x70 build/default/production/_ext/493962524/libaria_widget_keypad.o
 .text.laKeyPadWidget_GetKeyImagePosition
                0x00000000       0x5c build/default/production/_ext/493962524/libaria_widget_keypad.o
 .text.laKeyPadWidget_SetKeyImagePosition
                0x00000000       0x70 build/default/production/_ext/493962524/libaria_widget_keypad.o
 .text.laKeyPadWidget_GetKeyImageMargin
                0x00000000       0x5c build/default/production/_ext/493962524/libaria_widget_keypad.o
 .text.laKeyPadWidget_SetKeyImageMargin
                0x00000000       0x70 build/default/production/_ext/493962524/libaria_widget_keypad.o
 .text.laKeyPadWidget_GetKeyBackgroundType
                0x00000000       0x5c build/default/production/_ext/493962524/libaria_widget_keypad.o
 .text.laKeyPadWidget_SetKeyBackgroundType
                0x00000000       0x6c build/default/production/_ext/493962524/libaria_widget_keypad.o
 .text.laKeyPadWidget_GetKeyAction
                0x00000000       0x44 build/default/production/_ext/493962524/libaria_widget_keypad.o
 .text.laKeyPadWidget_SetKeyAction
                0x00000000       0x4c build/default/production/_ext/493962524/libaria_widget_keypad.o
 .text.laKeyPadWidget_GetKeyValue
                0x00000000       0x60 build/default/production/_ext/493962524/libaria_widget_keypad.o
 .text.laKeyPadWidget_SetKeyValue
                0x00000000       0xbc build/default/production/_ext/493962524/libaria_widget_keypad.o
 .text          0x00000000        0x0 build/default/production/_ext/493962524/libaria_widget_keypad_skin_classic.o
 .data          0x00000000        0x0 build/default/production/_ext/493962524/libaria_widget_keypad_skin_classic.o
 .bss           0x00000000        0x0 build/default/production/_ext/493962524/libaria_widget_keypad_skin_classic.o
 .reginfo       0x00000000       0x18 build/default/production/_ext/493962524/libaria_widget_keypad_skin_classic.o
 .text.nextState
                0x00000000       0x78 build/default/production/_ext/493962524/libaria_widget_keypad_skin_classic.o
 .text.drawBorder
                0x00000000       0x58 build/default/production/_ext/493962524/libaria_widget_keypad_skin_classic.o
 .text.drawBackground
                0x00000000       0x2c build/default/production/_ext/493962524/libaria_widget_keypad_skin_classic.o
 .text._laKeyPadWidget_InvalidateBorderAreas
                0x00000000       0x1c build/default/production/_ext/493962524/libaria_widget_keypad_skin_classic.o
 .text._laKeyPadWidget_Paint
                0x00000000       0xdc build/default/production/_ext/493962524/libaria_widget_keypad_skin_classic.o
 .text          0x00000000        0x0 build/default/production/_ext/493962524/libaria_widget_label.o
 .data          0x00000000        0x0 build/default/production/_ext/493962524/libaria_widget_label.o
 .bss           0x00000000        0x0 build/default/production/_ext/493962524/libaria_widget_label.o
 .reginfo       0x00000000       0x18 build/default/production/_ext/493962524/libaria_widget_label.o
 .text.laLabelWidget_GetHAlignment
                0x00000000       0x18 build/default/production/_ext/493962524/libaria_widget_label.o
 .text.laLabelWidget_SetHAlignment
                0x00000000       0x5c build/default/production/_ext/493962524/libaria_widget_label.o
 .text.laLabelWidget_GetVAlignment
                0x00000000       0x18 build/default/production/_ext/493962524/libaria_widget_label.o
 .text.laLabelWidget_SetVAlignment
                0x00000000       0x60 build/default/production/_ext/493962524/libaria_widget_label.o
 .text.laLabelWidget_GetText
                0x00000000       0x34 build/default/production/_ext/493962524/libaria_widget_label.o
 .text          0x00000000        0x0 build/default/production/_ext/493962524/libaria_widget_label_skin_classic.o
 .data          0x00000000        0x0 build/default/production/_ext/493962524/libaria_widget_label_skin_classic.o
 .bss           0x00000000        0x0 build/default/production/_ext/493962524/libaria_widget_label_skin_classic.o
 .reginfo       0x00000000       0x18 build/default/production/_ext/493962524/libaria_widget_label_skin_classic.o
 .text          0x00000000        0x0 build/default/production/_ext/493962524/libaria_widget_line.o
 .data          0x00000000        0x0 build/default/production/_ext/493962524/libaria_widget_line.o
 .bss           0x00000000        0x0 build/default/production/_ext/493962524/libaria_widget_line.o
 .reginfo       0x00000000       0x18 build/default/production/_ext/493962524/libaria_widget_line.o
 .text._laLineWidget_Destructor
                0x00000000       0x1c build/default/production/_ext/493962524/libaria_widget_line.o
 .text._laLineWidget_Constructor
                0x00000000       0x6c build/default/production/_ext/493962524/libaria_widget_line.o
 .text.laLineWidget_New
                0x00000000       0x58 build/default/production/_ext/493962524/libaria_widget_line.o
 .text.laLineWidget_GetStartPoint
                0x00000000       0x48 build/default/production/_ext/493962524/libaria_widget_line.o
 .text.laLineWidget_SetStartPoint
                0x00000000       0x48 build/default/production/_ext/493962524/libaria_widget_line.o
 .text.laLineWidget_GetEndPoint
                0x00000000       0x48 build/default/production/_ext/493962524/libaria_widget_line.o
 .text.laLineWidget_SetEndPoint
                0x00000000       0x48 build/default/production/_ext/493962524/libaria_widget_line.o
 .text          0x00000000        0x0 build/default/production/_ext/493962524/libaria_widget_line_skin_classic.o
 .data          0x00000000        0x0 build/default/production/_ext/493962524/libaria_widget_line_skin_classic.o
 .bss           0x00000000        0x0 build/default/production/_ext/493962524/libaria_widget_line_skin_classic.o
 .reginfo       0x00000000       0x18 build/default/production/_ext/493962524/libaria_widget_line_skin_classic.o
 .text.nextState
                0x00000000       0xa8 build/default/production/_ext/493962524/libaria_widget_line_skin_classic.o
 .text.drawBorder
                0x00000000       0x58 build/default/production/_ext/493962524/libaria_widget_line_skin_classic.o
 .text.drawLine
                0x00000000      0x138 build/default/production/_ext/493962524/libaria_widget_line_skin_classic.o
 .text.drawBackground
                0x00000000       0x2c build/default/production/_ext/493962524/libaria_widget_line_skin_classic.o
 .text._laLineWidget_Paint
                0x00000000       0x9c build/default/production/_ext/493962524/libaria_widget_line_skin_classic.o
 .text          0x00000000        0x0 build/default/production/_ext/493962524/libaria_widget_line_graph.o
 .data          0x00000000        0x0 build/default/production/_ext/493962524/libaria_widget_line_graph.o
 .bss           0x00000000        0x0 build/default/production/_ext/493962524/libaria_widget_line_graph.o
 .reginfo       0x00000000       0x18 build/default/production/_ext/493962524/libaria_widget_line_graph.o
 .text._laLineGraphWidget_Constructor
                0x00000000       0xbc build/default/production/_ext/493962524/libaria_widget_line_graph.o
 .text.laLineGraphWidget_New
                0x00000000       0x58 build/default/production/_ext/493962524/libaria_widget_line_graph.o
 .text.laLineGraphWidget_GetTickLength
                0x00000000       0x18 build/default/production/_ext/493962524/libaria_widget_line_graph.o
 .text.laLineGraphWidget_SetTickLength
                0x00000000       0x44 build/default/production/_ext/493962524/libaria_widget_line_graph.o
 .text.laLineGraphWidget_GetStacked
                0x00000000       0x18 build/default/production/_ext/493962524/libaria_widget_line_graph.o
 .text.laLineGraphWidget_SetStacked
                0x00000000       0x44 build/default/production/_ext/493962524/libaria_widget_line_graph.o
 .text.laLineGraphWidget_GetMaxValue
                0x00000000       0x18 build/default/production/_ext/493962524/libaria_widget_line_graph.o
 .text.laLineGraphWidget_SetMaxValue
                0x00000000       0x5c build/default/production/_ext/493962524/libaria_widget_line_graph.o
 .text.laLineGraphWidget_GetMinValue
                0x00000000       0x18 build/default/production/_ext/493962524/libaria_widget_line_graph.o
 .text.laLineGraphWidget_SetMinValue
                0x00000000       0x5c build/default/production/_ext/493962524/libaria_widget_line_graph.o
 .text.laLineGraphWidget_GetValueAxisLabelsVisible
                0x00000000       0x18 build/default/production/_ext/493962524/libaria_widget_line_graph.o
 .text.laLineGraphWidget_SetValueAxisLabelsVisible
                0x00000000       0x44 build/default/production/_ext/493962524/libaria_widget_line_graph.o
 .text.laLineGraphWidget_GetFillGraphArea
                0x00000000       0x18 build/default/production/_ext/493962524/libaria_widget_line_graph.o
 .text.laLineGraphWidget_SetFillGraphArea
                0x00000000       0x44 build/default/production/_ext/493962524/libaria_widget_line_graph.o
 .text.laLineGraphWidget_GetFillSeriesArea
                0x00000000       0x18 build/default/production/_ext/493962524/libaria_widget_line_graph.o
 .text.laLineGraphWidget_SetFillSeriesArea
                0x00000000       0x44 build/default/production/_ext/493962524/libaria_widget_line_graph.o
 .text.laLineGraphWidget_GetGridlinesVisible
                0x00000000       0x18 build/default/production/_ext/493962524/libaria_widget_line_graph.o
 .text.laLineGraphWidget_SetGridlinesVisible
                0x00000000       0x44 build/default/production/_ext/493962524/libaria_widget_line_graph.o
 .text.laLineGraphWidget_GetValueAxisTicksVisible
                0x00000000       0x18 build/default/production/_ext/493962524/libaria_widget_line_graph.o
 .text.laLineGraphWidget_SetValueAxisTicksVisible
                0x00000000       0x44 build/default/production/_ext/493962524/libaria_widget_line_graph.o
 .text.laLineGraphWidget_GetValueAxisTickInterval
                0x00000000       0x18 build/default/production/_ext/493962524/libaria_widget_line_graph.o
 .text.laLineGraphWidget_SetValueAxisTickInterval
                0x00000000       0x44 build/default/production/_ext/493962524/libaria_widget_line_graph.o
 .text.laLineGraphWidget_GetValueAxisSubtickInterval
                0x00000000       0x18 build/default/production/_ext/493962524/libaria_widget_line_graph.o
 .text.laLineGraphWidget_SetValueAxisSubtickInterval
                0x00000000       0x44 build/default/production/_ext/493962524/libaria_widget_line_graph.o
 .text.laLineGraphWidget_GetValueAxisSubticksVisible
                0x00000000       0x18 build/default/production/_ext/493962524/libaria_widget_line_graph.o
 .text.laLineGraphWidget_SetValueAxisSubticksVisible
                0x00000000       0x44 build/default/production/_ext/493962524/libaria_widget_line_graph.o
 .text.laLineGraphWidget_GetCategoryAxisTicksVisible
                0x00000000       0x18 build/default/production/_ext/493962524/libaria_widget_line_graph.o
 .text.laLineGraphWidget_SetCategoryAxisTicksVisible
                0x00000000       0x44 build/default/production/_ext/493962524/libaria_widget_line_graph.o
 .text.laLineGraphWidget_AddCategory
                0x00000000       0x90 build/default/production/_ext/493962524/libaria_widget_line_graph.o
 .text.laLineGraphWidget_GetCategoryText
                0x00000000       0x6c build/default/production/_ext/493962524/libaria_widget_line_graph.o
 .text.laLineGraphWidget_SetCategoryText
                0x00000000       0x8c build/default/production/_ext/493962524/libaria_widget_line_graph.o
 .text.laLineGraphWidget_AddSeries
                0x00000000       0xb4 build/default/production/_ext/493962524/libaria_widget_line_graph.o
 .text.laLineGraphWidget_AddDataToSeries
                0x00000000       0xc0 build/default/production/_ext/493962524/libaria_widget_line_graph.o
 .text.laLineGraphWidget_SetDataInSeries
                0x00000000       0x90 build/default/production/_ext/493962524/libaria_widget_line_graph.o
 .text.laLineGraphWidget_GetSeriesScheme
                0x00000000       0x54 build/default/production/_ext/493962524/libaria_widget_line_graph.o
 .text.laLineGraphWidget_SetSeriesScheme
                0x00000000       0x84 build/default/production/_ext/493962524/libaria_widget_line_graph.o
 .text.laLineGraphWidget_GetSeriesFillPoints
                0x00000000       0x50 build/default/production/_ext/493962524/libaria_widget_line_graph.o
 .text.laLineGraphWidget_SetSeriesFillPoints
                0x00000000       0x78 build/default/production/_ext/493962524/libaria_widget_line_graph.o
 .text.laLineGraphWidget_GetSeriesLinesVisible
                0x00000000       0x50 build/default/production/_ext/493962524/libaria_widget_line_graph.o
 .text.laLineGraphWidget_SetSeriesLinesVisible
                0x00000000       0x78 build/default/production/_ext/493962524/libaria_widget_line_graph.o
 .text.laLineGraphWidget_GetSeriesPointType
                0x00000000       0x50 build/default/production/_ext/493962524/libaria_widget_line_graph.o
 .text.laLineGraphWidget_SetSeriesPointType
                0x00000000       0x78 build/default/production/_ext/493962524/libaria_widget_line_graph.o
 .text.laLineGraphWidget_GetSeriesPointSize
                0x00000000       0x50 build/default/production/_ext/493962524/libaria_widget_line_graph.o
 .text.laLineGraphWidget_SetSeriesPointSize
                0x00000000       0x78 build/default/production/_ext/493962524/libaria_widget_line_graph.o
 .text.laLineGraphWidget_DestroyAll
                0x00000000       0xe4 build/default/production/_ext/493962524/libaria_widget_line_graph.o
 .text._laLineGraphWidget_Destructor
                0x00000000       0x2c build/default/production/_ext/493962524/libaria_widget_line_graph.o
 .text.laLineGraphWidget_SetStringTable
                0x00000000       0x48 build/default/production/_ext/493962524/libaria_widget_line_graph.o
 .text.laLineGraphWidget_SetTicksLabelsStringID
                0x00000000       0x44 build/default/production/_ext/493962524/libaria_widget_line_graph.o
 .text.laLineGraphWidget_GetCategoryAxisLabelsVisible
                0x00000000       0x18 build/default/production/_ext/493962524/libaria_widget_line_graph.o
 .text.laLineGraphWidget_SetCategoryAxisLabelsVisible
                0x00000000       0x44 build/default/production/_ext/493962524/libaria_widget_line_graph.o
 .text.laLineGraphWidget_GetValueAxisTicksPosition
                0x00000000       0x18 build/default/production/_ext/493962524/libaria_widget_line_graph.o
 .text.laLineGraphWidget_SetValueAxisTicksPosition
                0x00000000       0x44 build/default/production/_ext/493962524/libaria_widget_line_graph.o
 .text.laLineGraphWidget_GetValueAxisSubticksPosition
                0x00000000       0x18 build/default/production/_ext/493962524/libaria_widget_line_graph.o
 .text.laLineGraphWidget_SetValueAxisSubticksPosition
                0x00000000       0x44 build/default/production/_ext/493962524/libaria_widget_line_graph.o
 .text.laLineGraphWidget_GetCategoryAxisTicksPosition
                0x00000000       0x18 build/default/production/_ext/493962524/libaria_widget_line_graph.o
 .text.laLineGraphWidget_SetCategoryAxisTicksPosition
                0x00000000       0x44 build/default/production/_ext/493962524/libaria_widget_line_graph.o
 .text          0x00000000        0x0 build/default/production/_ext/493962524/libaria_widget_line_graph_skin_classic.o
 .data          0x00000000        0x0 build/default/production/_ext/493962524/libaria_widget_line_graph_skin_classic.o
 .bss           0x00000000        0x0 build/default/production/_ext/493962524/libaria_widget_line_graph_skin_classic.o
 .reginfo       0x00000000       0x18 build/default/production/_ext/493962524/libaria_widget_line_graph_skin_classic.o
 .text.nextState
                0x00000000       0xd0 build/default/production/_ext/493962524/libaria_widget_line_graph_skin_classic.o
 .text.waitString
                0x00000000       0x68 build/default/production/_ext/493962524/libaria_widget_line_graph_skin_classic.o
 .text.drawBorder
                0x00000000       0x58 build/default/production/_ext/493962524/libaria_widget_line_graph_skin_classic.o
 .rodata        0x00000000        0x4 build/default/production/_ext/493962524/libaria_widget_line_graph_skin_classic.o
 .text._laLineGraphWidget_GetGraphRect
                0x00000000      0x530 build/default/production/_ext/493962524/libaria_widget_line_graph_skin_classic.o
 .text.drawString
                0x00000000      0x2cc build/default/production/_ext/493962524/libaria_widget_line_graph_skin_classic.o
 .text.drawTickLabelWithValue
                0x00000000      0x208 build/default/production/_ext/493962524/libaria_widget_line_graph_skin_classic.o
 .text.drawSeriesPoint
                0x00000000      0x100 build/default/production/_ext/493962524/libaria_widget_line_graph_skin_classic.o
 .text.drawLineGraph
                0x00000000     0x1680 build/default/production/_ext/493962524/libaria_widget_line_graph_skin_classic.o
 .text.drawBackground
                0x00000000       0x2c build/default/production/_ext/493962524/libaria_widget_line_graph_skin_classic.o
 .text._laLineGraphWidget_Paint
                0x00000000       0x9c build/default/production/_ext/493962524/libaria_widget_line_graph_skin_classic.o
 .text          0x00000000        0x0 build/default/production/_ext/493962524/libaria_widget_list.o
 .data          0x00000000        0x0 build/default/production/_ext/493962524/libaria_widget_list.o
 .bss           0x00000000        0x0 build/default/production/_ext/493962524/libaria_widget_list.o
 .reginfo       0x00000000       0x18 build/default/production/_ext/493962524/libaria_widget_list.o
 .text.resized  0x00000000       0x4c build/default/production/_ext/493962524/libaria_widget_list.o
 .text.invalidateListArea
                0x00000000       0x40 build/default/production/_ext/493962524/libaria_widget_list.o
 .text.scrollBarMoved
                0x00000000       0x1c build/default/production/_ext/493962524/libaria_widget_list.o
 .text.getRowAtPoint
                0x00000000       0x90 build/default/production/_ext/493962524/libaria_widget_list.o
 .text.invalidateRow
                0x00000000       0x74 build/default/production/_ext/493962524/libaria_widget_list.o
 .text.touchMoved
                0x00000000       0xb4 build/default/production/_ext/493962524/libaria_widget_list.o
 .text.touchDown
                0x00000000       0x8c build/default/production/_ext/493962524/libaria_widget_list.o
 .text.languageChanging
                0x00000000       0x6c build/default/production/_ext/493962524/libaria_widget_list.o
 .text.recalculateScrollBarValues
                0x00000000       0xa4 build/default/production/_ext/493962524/libaria_widget_list.o
 .text._laListWidget_Constructor
                0x00000000      0x11c build/default/production/_ext/493962524/libaria_widget_list.o
 .text.laListWidget_New
                0x00000000       0x50 build/default/production/_ext/493962524/libaria_widget_list.o
 .text.laListWidget_GetSelectionMode
                0x00000000       0x18 build/default/production/_ext/493962524/libaria_widget_list.o
 .text.laListWidget_GetAllowEmptySelection
                0x00000000       0x18 build/default/production/_ext/493962524/libaria_widget_list.o
 .text.laListWidget_GetAlignment
                0x00000000       0x18 build/default/production/_ext/493962524/libaria_widget_list.o
 .text.laListWidget_SetAlignment
                0x00000000       0x44 build/default/production/_ext/493962524/libaria_widget_list.o
 .text.laListWidget_GetIconPosition
                0x00000000       0x18 build/default/production/_ext/493962524/libaria_widget_list.o
 .text.laListWidget_SetIconPosition
                0x00000000       0x54 build/default/production/_ext/493962524/libaria_widget_list.o
 .text.laListWidget_GetIconMargin
                0x00000000       0x18 build/default/production/_ext/493962524/libaria_widget_list.o
 .text.laListWidget_SetIconMargin
                0x00000000       0x44 build/default/production/_ext/493962524/libaria_widget_list.o
 .text.laListWidget_GetItemCount
                0x00000000       0x18 build/default/production/_ext/493962524/libaria_widget_list.o
 .text.laListWidget_RemoveItem
                0x00000000       0x9c build/default/production/_ext/493962524/libaria_widget_list.o
 .text.laListWidget_RemoveAllItems
                0x00000000       0xa8 build/default/production/_ext/493962524/libaria_widget_list.o
 .text._laListWidget_Destructor
                0x00000000       0x58 build/default/production/_ext/493962524/libaria_widget_list.o
 .text.laListWidget_GetItemSelected
                0x00000000       0x30 build/default/production/_ext/493962524/libaria_widget_list.o
 .text.laListWidget_DeselectAll
                0x00000000       0xc0 build/default/production/_ext/493962524/libaria_widget_list.o
 .text.laListWidget_SetSelectionMode
                0x00000000       0x44 build/default/production/_ext/493962524/libaria_widget_list.o
 .text.laListWidget_GetFirstSelectedItem
                0x00000000       0x64 build/default/production/_ext/493962524/libaria_widget_list.o
 .text.laListWidget_GetLastSelectedItem
                0x00000000       0x44 build/default/production/_ext/493962524/libaria_widget_list.o
 .text.laListWidget_GetSelectionCount
                0x00000000       0x48 build/default/production/_ext/493962524/libaria_widget_list.o
 .text.laListWidget_SetItemSelected
                0x00000000      0x304 build/default/production/_ext/493962524/libaria_widget_list.o
 .text.laListWidget_ToggleItemSelected
                0x00000000       0x68 build/default/production/_ext/493962524/libaria_widget_list.o
 .text.touchUp  0x00000000       0x80 build/default/production/_ext/493962524/libaria_widget_list.o
 .text.laListWidget_SelectAll
                0x00000000       0xdc build/default/production/_ext/493962524/libaria_widget_list.o
 .text.laListWidget_SetAllowEmptySelection
                0x00000000       0x68 build/default/production/_ext/493962524/libaria_widget_list.o
 .text.laListWidget_AppendItem
                0x00000000       0xb4 build/default/production/_ext/493962524/libaria_widget_list.o
 .text.laListWidget_InsertItem
                0x00000000       0xb4 build/default/production/_ext/493962524/libaria_widget_list.o
 .text.laListWidget_GetItemText
                0x00000000       0x50 build/default/production/_ext/493962524/libaria_widget_list.o
 .text.laListWidget_SetItemText
                0x00000000       0x88 build/default/production/_ext/493962524/libaria_widget_list.o
 .text.laListWidget_GetItemIcon
                0x00000000       0x38 build/default/production/_ext/493962524/libaria_widget_list.o
 .text.laListWidget_SetItemIcon
                0x00000000       0x68 build/default/production/_ext/493962524/libaria_widget_list.o
 .text.laListWidget_SetItemVisible
                0x00000000      0x13c build/default/production/_ext/493962524/libaria_widget_list.o
 .text.laListWidget_GetSelectedItemChangedEventCallback
                0x00000000       0x18 build/default/production/_ext/493962524/libaria_widget_list.o
 .text.laListWidget_SetSelectedItemChangedEventCallback
                0x00000000       0x30 build/default/production/_ext/493962524/libaria_widget_list.o
 .text          0x00000000        0x0 build/default/production/_ext/493962524/libaria_widget_list_skin_classic.o
 .data          0x00000000        0x0 build/default/production/_ext/493962524/libaria_widget_list_skin_classic.o
 .bss           0x00000000        0x0 build/default/production/_ext/493962524/libaria_widget_list_skin_classic.o
 .reginfo       0x00000000       0x18 build/default/production/_ext/493962524/libaria_widget_list_skin_classic.o
 .text.nextState
                0x00000000       0xec build/default/production/_ext/493962524/libaria_widget_list_skin_classic.o
 .text.waitString
                0x00000000       0x78 build/default/production/_ext/493962524/libaria_widget_list_skin_classic.o
 .text.waitIcon
                0x00000000       0x78 build/default/production/_ext/493962524/libaria_widget_list_skin_classic.o
 .text.drawBorder
                0x00000000       0x64 build/default/production/_ext/493962524/libaria_widget_list_skin_classic.o
 .text._laListWidget_GetListRect
                0x00000000      0x118 build/default/production/_ext/493962524/libaria_widget_list_skin_classic.o
 .text._laListWidget_GetRowY
                0x00000000       0x44 build/default/production/_ext/493962524/libaria_widget_list_skin_classic.o
 .text._laListWidget_GetRowRect
                0x00000000       0xa4 build/default/production/_ext/493962524/libaria_widget_list_skin_classic.o
 .text.drawBackground
                0x00000000      0x1cc build/default/production/_ext/493962524/libaria_widget_list_skin_classic.o
 .text._laListWidget_GetTextRect
                0x00000000      0x190 build/default/production/_ext/493962524/libaria_widget_list_skin_classic.o
 .text.drawString
                0x00000000      0x1b8 build/default/production/_ext/493962524/libaria_widget_list_skin_classic.o
 .text._laListWidget_GetIconRect
                0x00000000      0x1c0 build/default/production/_ext/493962524/libaria_widget_list_skin_classic.o
 .text.drawIcon
                0x00000000      0x220 build/default/production/_ext/493962524/libaria_widget_list_skin_classic.o
 .text._laListWidget_recalculateRowRect
                0x00000000       0xdc build/default/production/_ext/493962524/libaria_widget_list_skin_classic.o
 .text._laListWidget_GetLogicalRect
                0x00000000       0x88 build/default/production/_ext/493962524/libaria_widget_list_skin_classic.o
 .text._laListWidget_Paint
                0x00000000       0xb8 build/default/production/_ext/493962524/libaria_widget_list_skin_classic.o
 .text          0x00000000        0x0 build/default/production/_ext/493962524/libaria_widget_listwheel.o
 .data          0x00000000        0x0 build/default/production/_ext/493962524/libaria_widget_listwheel.o
 .bss           0x00000000        0x0 build/default/production/_ext/493962524/libaria_widget_listwheel.o
 .reginfo       0x00000000       0x18 build/default/production/_ext/493962524/libaria_widget_listwheel.o
 .text.calculateTopItem
                0x00000000       0x54 build/default/production/_ext/493962524/libaria_widget_listwheel.o
 .text.resized  0x00000000       0x34 build/default/production/_ext/493962524/libaria_widget_listwheel.o
 .text.touchMoved
                0x00000000      0x128 build/default/production/_ext/493962524/libaria_widget_listwheel.o
 .text.touchDown
                0x00000000       0x78 build/default/production/_ext/493962524/libaria_widget_listwheel.o
 .text.touchUp  0x00000000       0xc4 build/default/production/_ext/493962524/libaria_widget_listwheel.o
 .text.languageChanging
                0x00000000       0x88 build/default/production/_ext/493962524/libaria_widget_listwheel.o
 .text.adjustRotation
                0x00000000       0xe0 build/default/production/_ext/493962524/libaria_widget_listwheel.o
 .text.update   0x00000000      0x260 build/default/production/_ext/493962524/libaria_widget_listwheel.o
 .text._laListWheelWidget_Constructor
                0x00000000      0x130 build/default/production/_ext/493962524/libaria_widget_listwheel.o
 .text.laListWheelWidget_New
                0x00000000       0x50 build/default/production/_ext/493962524/libaria_widget_listwheel.o
 .text.laListWheelWidget_GetAlignment
                0x00000000       0x18 build/default/production/_ext/493962524/libaria_widget_listwheel.o
 .text.laListWheelWidget_SetAlignment
                0x00000000       0x44 build/default/production/_ext/493962524/libaria_widget_listwheel.o
 .text.laListWheelWidget_GetVisibleItemCount
                0x00000000       0x18 build/default/production/_ext/493962524/libaria_widget_listwheel.o
 .text.laListWheelWidget_SetVisibleItemCount
                0x00000000       0x60 build/default/production/_ext/493962524/libaria_widget_listwheel.o
 .text.laListWheelWidget_GetIconPosition
                0x00000000       0x18 build/default/production/_ext/493962524/libaria_widget_listwheel.o
 .text.laListWheelWidget_SetIconPosition
                0x00000000       0x54 build/default/production/_ext/493962524/libaria_widget_listwheel.o
 .text.laListWheelWidget_GetIconMargin
                0x00000000       0x18 build/default/production/_ext/493962524/libaria_widget_listwheel.o
 .text.laListWheelWidget_SetIconMargin
                0x00000000       0x44 build/default/production/_ext/493962524/libaria_widget_listwheel.o
 .text.laListWheelWidget_GetShowIndicators
                0x00000000       0x18 build/default/production/_ext/493962524/libaria_widget_listwheel.o
 .text.laListWheelWidget_SetShowIndicators
                0x00000000       0x44 build/default/production/_ext/493962524/libaria_widget_listwheel.o
 .text.laListWheelWidget_GetIndicatorArea
                0x00000000       0x18 build/default/production/_ext/493962524/libaria_widget_listwheel.o
 .text.laListWheelWidget_SetIndicatorArea
                0x00000000       0x44 build/default/production/_ext/493962524/libaria_widget_listwheel.o
 .text.laListWheelWidget_GetShaded
                0x00000000       0x18 build/default/production/_ext/493962524/libaria_widget_listwheel.o
 .text.laListWheelWidget_SetShaded
                0x00000000       0x44 build/default/production/_ext/493962524/libaria_widget_listwheel.o
 .text.laListWheelWidget_GetFlickInitSpeed
                0x00000000       0x18 build/default/production/_ext/493962524/libaria_widget_listwheel.o
 .text.laListWheelWidget_SetFlickInitSpeed
                0x00000000       0x1c build/default/production/_ext/493962524/libaria_widget_listwheel.o
 .text.laListWheelWidget_GetMaxMomentum
                0x00000000       0x18 build/default/production/_ext/493962524/libaria_widget_listwheel.o
 .text.laListWheelWidget_SetMaxMomentum
                0x00000000       0x1c build/default/production/_ext/493962524/libaria_widget_listwheel.o
 .text.laListWheelWidget_GetMomentumFalloffRate
                0x00000000       0x18 build/default/production/_ext/493962524/libaria_widget_listwheel.o
 .text.laListWheelWidget_SetMomentumFalloffRate
                0x00000000       0x1c build/default/production/_ext/493962524/libaria_widget_listwheel.o
 .text.laListWheelWidget_GetRotationUpdateRate
                0x00000000       0x18 build/default/production/_ext/493962524/libaria_widget_listwheel.o
 .text.laListWheelWidget_SetRotationUpdateRate
                0x00000000       0x1c build/default/production/_ext/493962524/libaria_widget_listwheel.o
 .text.laListWheelWidget_GetItemCount
                0x00000000       0x18 build/default/production/_ext/493962524/libaria_widget_listwheel.o
 .text.laListWheelWidget_AppendItem
                0x00000000       0x90 build/default/production/_ext/493962524/libaria_widget_listwheel.o
 .text.laListWheelWidget_InsertItem
                0x00000000       0x98 build/default/production/_ext/493962524/libaria_widget_listwheel.o
 .text.laListWheelWidget_RemoveItem
                0x00000000       0xa0 build/default/production/_ext/493962524/libaria_widget_listwheel.o
 .text.laListWheelWidget_RemoveAllItems
                0x00000000       0xb0 build/default/production/_ext/493962524/libaria_widget_listwheel.o
 .text._laListWheelWidget_Destructor
                0x00000000       0x50 build/default/production/_ext/493962524/libaria_widget_listwheel.o
 .text.laListWheelWidget_GetSelectedItem
                0x00000000       0x18 build/default/production/_ext/493962524/libaria_widget_listwheel.o
 .text.laListWheelWidget_SetSelectedItem
                0x00000000       0x74 build/default/production/_ext/493962524/libaria_widget_listwheel.o
 .text.laListWheelWidget_SelectPreviousItem
                0x00000000       0x80 build/default/production/_ext/493962524/libaria_widget_listwheel.o
 .text.laListWheelWidget_SelectNextItem
                0x00000000       0x8c build/default/production/_ext/493962524/libaria_widget_listwheel.o
 .text.laListWheelWidget_GetItemText
                0x00000000       0x54 build/default/production/_ext/493962524/libaria_widget_listwheel.o
 .text.laListWheelWidget_SetItemText
                0x00000000       0x68 build/default/production/_ext/493962524/libaria_widget_listwheel.o
 .text.laListWheelWidget_GetItemIcon
                0x00000000       0x38 build/default/production/_ext/493962524/libaria_widget_listwheel.o
 .text.laListWheelWidget_SetItemIcon
                0x00000000       0x54 build/default/production/_ext/493962524/libaria_widget_listwheel.o
 .text.laListWheelWidget_GetSelectedItemChangedEventCallback
                0x00000000       0x18 build/default/production/_ext/493962524/libaria_widget_listwheel.o
 .text.laListWheelWidget_SetSelectedItemChangedEventCallback
                0x00000000       0x30 build/default/production/_ext/493962524/libaria_widget_listwheel.o
 .text.laListWheelWidget_GetIndicatorFill
                0x00000000       0x18 build/default/production/_ext/493962524/libaria_widget_listwheel.o
 .text.laListWheelWidget_SetIndicatorFill
                0x00000000       0x58 build/default/production/_ext/493962524/libaria_widget_listwheel.o
 .text.laListWheelWidget_GetZoomEffects
                0x00000000       0x18 build/default/production/_ext/493962524/libaria_widget_listwheel.o
 .text.laListWheelWidget_SetZoomEffects
                0x00000000       0x58 build/default/production/_ext/493962524/libaria_widget_listwheel.o
 .text.laListWheelWidget_GetAutoHideWheel
                0x00000000       0x18 build/default/production/_ext/493962524/libaria_widget_listwheel.o
 .text.laListWheelWidget_SetAutoHideWheel
                0x00000000       0x84 build/default/production/_ext/493962524/libaria_widget_listwheel.o
 .text          0x00000000        0x0 build/default/production/_ext/493962524/libaria_widget_listwheel_skin_classic.o
 .data          0x00000000        0x0 build/default/production/_ext/493962524/libaria_widget_listwheel_skin_classic.o
 .bss           0x00000000        0x0 build/default/production/_ext/493962524/libaria_widget_listwheel_skin_classic.o
 .reginfo       0x00000000       0x18 build/default/production/_ext/493962524/libaria_widget_listwheel_skin_classic.o
 .text.nextItem
                0x00000000       0x30 build/default/production/_ext/493962524/libaria_widget_listwheel_skin_classic.o
 .text.waitString
                0x00000000       0x74 build/default/production/_ext/493962524/libaria_widget_listwheel_skin_classic.o
 .text.waitIcon
                0x00000000       0x74 build/default/production/_ext/493962524/libaria_widget_listwheel_skin_classic.o
 .text.nextState
                0x00000000      0x158 build/default/production/_ext/493962524/libaria_widget_listwheel_skin_classic.o
 .text.drawBorder
                0x00000000       0x58 build/default/production/_ext/493962524/libaria_widget_listwheel_skin_classic.o
 .text.drawIndicators
                0x00000000      0x2a8 build/default/production/_ext/493962524/libaria_widget_listwheel_skin_classic.o
 .text._laListWheelWidget_GetItemTextRect
                0x00000000      0x194 build/default/production/_ext/493962524/libaria_widget_listwheel_skin_classic.o
 .text._laListWheelWidget_GetIndicatorRect
                0x00000000       0x74 build/default/production/_ext/493962524/libaria_widget_listwheel_skin_classic.o
 .text.drawBackground
                0x00000000      0x378 build/default/production/_ext/493962524/libaria_widget_listwheel_skin_classic.o
 .text._laListWheelWidget_ItemRectApplyEffects
                0x00000000      0x188 build/default/production/_ext/493962524/libaria_widget_listwheel_skin_classic.o
 .text._laListWheelWidget_GetItemIconRect
                0x00000000      0x1f4 build/default/production/_ext/493962524/libaria_widget_listwheel_skin_classic.o
 .text._laListWheelWidget_GetItemRect
                0x00000000       0xe4 build/default/production/_ext/493962524/libaria_widget_listwheel_skin_classic.o
 .text.drawIcon
                0x00000000      0x5bc build/default/production/_ext/493962524/libaria_widget_listwheel_skin_classic.o
 .text.drawString
                0x00000000      0x5a8 build/default/production/_ext/493962524/libaria_widget_listwheel_skin_classic.o
 .text._laListWheelWidget_Paint
                0x00000000       0xb8 build/default/production/_ext/493962524/libaria_widget_listwheel_skin_classic.o
 .text          0x00000000        0x0 build/default/production/_ext/493962524/libaria_widget_pie_chart.o
 .data          0x00000000        0x0 build/default/production/_ext/493962524/libaria_widget_pie_chart.o
 .bss           0x00000000        0x0 build/default/production/_ext/493962524/libaria_widget_pie_chart.o
 .reginfo       0x00000000       0x18 build/default/production/_ext/493962524/libaria_widget_pie_chart.o
 .text.touchUp  0x00000000        0x8 build/default/production/_ext/493962524/libaria_widget_pie_chart.o
 .text.touchMoved
                0x00000000        0x8 build/default/production/_ext/493962524/libaria_widget_pie_chart.o
 .text.touchDown
                0x00000000      0x5b0 build/default/production/_ext/493962524/libaria_widget_pie_chart.o
 .text._laPieChartWidget_Destructor
                0x00000000       0x30 build/default/production/_ext/493962524/libaria_widget_pie_chart.o
 .text._laPieChartWidget_Constructor
                0x00000000       0xa0 build/default/production/_ext/493962524/libaria_widget_pie_chart.o
 .text.laPieChartWidget_New
                0x00000000       0x58 build/default/production/_ext/493962524/libaria_widget_pie_chart.o
 .text.laPieChartWidget_GetStartAngle
                0x00000000       0x18 build/default/production/_ext/493962524/libaria_widget_pie_chart.o
 .text.laPieChartWidget_SetStartAngle
                0x00000000       0x44 build/default/production/_ext/493962524/libaria_widget_pie_chart.o
 .text.laPieChartWidget_GetCenterAngle
                0x00000000       0x18 build/default/production/_ext/493962524/libaria_widget_pie_chart.o
 .text.laPieChartWidget_SetCenterAngle
                0x00000000       0x44 build/default/production/_ext/493962524/libaria_widget_pie_chart.o
 .text.laPieChartWidget_AddEntry
                0x00000000       0xb8 build/default/production/_ext/493962524/libaria_widget_pie_chart.o
 .text.laPieChartWidget_DeletePies
                0x00000000       0x34 build/default/production/_ext/493962524/libaria_widget_pie_chart.o
 .text.laPieChartWidget_GetEntryValue
                0x00000000       0x3c build/default/production/_ext/493962524/libaria_widget_pie_chart.o
 .text.laPieChartWidget_SetEntryValue
                0x00000000       0x6c build/default/production/_ext/493962524/libaria_widget_pie_chart.o
 .text.laPieChartWidget_GetEntryRadius
                0x00000000       0x3c build/default/production/_ext/493962524/libaria_widget_pie_chart.o
 .text.laPieChartWidget_SetEntryRadius
                0x00000000       0x6c build/default/production/_ext/493962524/libaria_widget_pie_chart.o
 .text.laPieChartWidget_GetEntryOffset
                0x00000000       0x3c build/default/production/_ext/493962524/libaria_widget_pie_chart.o
 .text.laPieChartWidget_SetEntryOffset
                0x00000000       0x6c build/default/production/_ext/493962524/libaria_widget_pie_chart.o
 .text.laPieChartWidget_SetEntryScheme
                0x00000000       0x64 build/default/production/_ext/493962524/libaria_widget_pie_chart.o
 .text.laPieChartWidget_GetEntryScheme
                0x00000000       0x3c build/default/production/_ext/493962524/libaria_widget_pie_chart.o
 .text.laPieChartWidget_SetPressedEventCallback
                0x00000000       0x1c build/default/production/_ext/493962524/libaria_widget_pie_chart.o
 .text.laPieChartWidget_SetStringTable
                0x00000000       0x48 build/default/production/_ext/493962524/libaria_widget_pie_chart.o
 .text.laPieChartWidget_SetLabelsStringID
                0x00000000       0x44 build/default/production/_ext/493962524/libaria_widget_pie_chart.o
 .text.laPieChartWidget_GetLabelsVisible
                0x00000000       0x18 build/default/production/_ext/493962524/libaria_widget_pie_chart.o
 .text.laPieChartWidget_SetLabelsVisible
                0x00000000       0x44 build/default/production/_ext/493962524/libaria_widget_pie_chart.o
 .text.laPieChartWidget_GetLabelsOffset
                0x00000000       0x18 build/default/production/_ext/493962524/libaria_widget_pie_chart.o
 .text.laPieChartWidget_SetLabelsOffset
                0x00000000       0x44 build/default/production/_ext/493962524/libaria_widget_pie_chart.o
 .rodata        0x00000000        0x8 build/default/production/_ext/493962524/libaria_widget_pie_chart.o
 .text          0x00000000        0x0 build/default/production/_ext/493962524/libaria_widget_pie_chart_skin_classic.o
 .data          0x00000000        0x0 build/default/production/_ext/493962524/libaria_widget_pie_chart_skin_classic.o
 .bss           0x00000000        0x0 build/default/production/_ext/493962524/libaria_widget_pie_chart_skin_classic.o
 .reginfo       0x00000000       0x18 build/default/production/_ext/493962524/libaria_widget_pie_chart_skin_classic.o
 .text.nextState
                0x00000000       0xa8 build/default/production/_ext/493962524/libaria_widget_pie_chart_skin_classic.o
 .text.drawBorder
                0x00000000       0x58 build/default/production/_ext/493962524/libaria_widget_pie_chart_skin_classic.o
 .rodata        0x00000000        0x8 build/default/production/_ext/493962524/libaria_widget_pie_chart_skin_classic.o
 .text.drawPieChart
                0x00000000      0x774 build/default/production/_ext/493962524/libaria_widget_pie_chart_skin_classic.o
 .text.drawBackground
                0x00000000       0x2c build/default/production/_ext/493962524/libaria_widget_pie_chart_skin_classic.o
 .text._laPieChartWidget_Paint
                0x00000000       0x9c build/default/production/_ext/493962524/libaria_widget_pie_chart_skin_classic.o
 .text          0x00000000        0x0 build/default/production/_ext/493962524/libaria_widget_progressbar.o
 .data          0x00000000        0x0 build/default/production/_ext/493962524/libaria_widget_progressbar.o
 .bss           0x00000000        0x0 build/default/production/_ext/493962524/libaria_widget_progressbar.o
 .reginfo       0x00000000       0x18 build/default/production/_ext/493962524/libaria_widget_progressbar.o
 .text._laProgressBarWidget_Destructor
                0x00000000       0x1c build/default/production/_ext/493962524/libaria_widget_progressbar.o
 .text._laProgressBarWidget_Constructor
                0x00000000       0x64 build/default/production/_ext/493962524/libaria_widget_progressbar.o
 .text.laProgressBarWidget_New
                0x00000000       0x58 build/default/production/_ext/493962524/libaria_widget_progressbar.o
 .text.laProgressBarWidget_GetDirection
                0x00000000       0x18 build/default/production/_ext/493962524/libaria_widget_progressbar.o
 .text.laProgressBarWidget_SetDirection
                0x00000000       0x44 build/default/production/_ext/493962524/libaria_widget_progressbar.o
 .text.laProgressBarWidget_GetValue
                0x00000000       0x18 build/default/production/_ext/493962524/libaria_widget_progressbar.o
 .text.laProgressBarWidget_SetValue
                0x00000000       0x98 build/default/production/_ext/493962524/libaria_widget_progressbar.o
 .text.laProgressBarWidget_GetValueChangedEventCallback
                0x00000000       0x18 build/default/production/_ext/493962524/libaria_widget_progressbar.o
 .text.laProgressBarWidget_SetValueChangedCallback
                0x00000000       0x1c build/default/production/_ext/493962524/libaria_widget_progressbar.o
 .text          0x00000000        0x0 build/default/production/_ext/493962524/libaria_widget_progressbar_skin_classic.o
 .data          0x00000000        0x0 build/default/production/_ext/493962524/libaria_widget_progressbar_skin_classic.o
 .bss           0x00000000        0x0 build/default/production/_ext/493962524/libaria_widget_progressbar_skin_classic.o
 .reginfo       0x00000000       0x18 build/default/production/_ext/493962524/libaria_widget_progressbar_skin_classic.o
 .text.nextState
                0x00000000       0xb4 build/default/production/_ext/493962524/libaria_widget_progressbar_skin_classic.o
 .text.drawBorder
                0x00000000       0x58 build/default/production/_ext/493962524/libaria_widget_progressbar_skin_classic.o
 .text.drawBackground
                0x00000000       0x5c build/default/production/_ext/493962524/libaria_widget_progressbar_skin_classic.o
 .text._laProgressBarWidget_GetBarRect
                0x00000000      0x17c build/default/production/_ext/493962524/libaria_widget_progressbar_skin_classic.o
 .text.drawFill
                0x00000000       0xa4 build/default/production/_ext/493962524/libaria_widget_progressbar_skin_classic.o
 .text._laProgressBarWidget_Paint
                0x00000000       0x9c build/default/production/_ext/493962524/libaria_widget_progressbar_skin_classic.o
 .text          0x00000000        0x0 build/default/production/_ext/493962524/libaria_widget_radial_menu.o
 .data          0x00000000        0x0 build/default/production/_ext/493962524/libaria_widget_radial_menu.o
 .bss           0x00000000        0x0 build/default/production/_ext/493962524/libaria_widget_radial_menu.o
 .reginfo       0x00000000       0x18 build/default/production/_ext/493962524/libaria_widget_radial_menu.o
 .text._laRadialMenuWidget_Resized
                0x00000000       0x14 build/default/production/_ext/493962524/libaria_widget_radial_menu.o
 .text._laRadialMenuWidget_GetWidgetItem
                0x00000000       0x94 build/default/production/_ext/493962524/libaria_widget_radial_menu.o
 .text._laRadialMenuWidget_DeriveWidestTallestItem
                0x00000000      0x1f0 build/default/production/_ext/493962524/libaria_widget_radial_menu.o
 .text._laRadialMenuWidget_RotateMenuItems
                0x00000000      0x1f0 build/default/production/_ext/493962524/libaria_widget_radial_menu.o
 .text._laRadialMenuWidget_RespaceItems
                0x00000000      0x188 build/default/production/_ext/493962524/libaria_widget_radial_menu.o
 .text.invalidateContents
                0x00000000       0x34 build/default/production/_ext/493962524/libaria_widget_radial_menu.o
 .text.languageChanging
                0x00000000       0x1c build/default/production/_ext/493962524/libaria_widget_radial_menu.o
 .text._laRadialMenuWidget_TouchMovedEvent
                0x00000000      0x1a0 build/default/production/_ext/493962524/libaria_widget_radial_menu.o
 .text._laRadialMenuWidget_Destructor
                0x00000000       0x58 build/default/production/_ext/493962524/libaria_widget_radial_menu.o
 .text.laRadialMenuWidget_New
                0x00000000      0x140 build/default/production/_ext/493962524/libaria_widget_radial_menu.o
 .text.laRadialMenuWidget_SetHighlightProminent
                0x00000000       0x30 build/default/production/_ext/493962524/libaria_widget_radial_menu.o
 .text.laRadialMenuWidget_IsProminent
                0x00000000       0x80 build/default/production/_ext/493962524/libaria_widget_radial_menu.o
 .text._laRadialMenuWidget_TouchUpEvent
                0x00000000      0x144 build/default/production/_ext/493962524/libaria_widget_radial_menu.o
 .text._laRadialMenuWidget_TouchDownEvent
                0x00000000      0x150 build/default/production/_ext/493962524/libaria_widget_radial_menu.o
 .text.laRadialMenuWidget_SetProminent
                0x00000000       0x64 build/default/production/_ext/493962524/libaria_widget_radial_menu.o
 .text.laRadialMenuWidget_GetProminentIndex
                0x00000000       0xa4 build/default/production/_ext/493962524/libaria_widget_radial_menu.o
 .text._laRadialMenuWidget_Update
                0x00000000      0x578 build/default/production/_ext/493962524/libaria_widget_radial_menu.o
 .text.laRadialMenuWidget_SetProminentIndex
                0x00000000       0x70 build/default/production/_ext/493962524/libaria_widget_radial_menu.o
 .text.laRadialMenuWidget_GetWidget
                0x00000000       0x5c build/default/production/_ext/493962524/libaria_widget_radial_menu.o
 .text.laRadialMenuWidget_SetNumberOfItemsShown
                0x00000000       0x60 build/default/production/_ext/493962524/libaria_widget_radial_menu.o
 .text.laRadialMenuWidget_SetWidgetAt
                0x00000000      0x178 build/default/production/_ext/493962524/libaria_widget_radial_menu.o
 .text.laRadialMenuWidget_AddWidget
                0x00000000      0x14c build/default/production/_ext/493962524/libaria_widget_radial_menu.o
 .text.laRadialMenuWidget_RemoveWidget
                0x00000000      0x104 build/default/production/_ext/493962524/libaria_widget_radial_menu.o
 .text.laRadialMenuWidget_ClearItems
                0x00000000       0xec build/default/production/_ext/493962524/libaria_widget_radial_menu.o
 .text.laRadialMenuWidget_SetSizeScaling
                0x00000000       0x48 build/default/production/_ext/493962524/libaria_widget_radial_menu.o
 .text.laRadialMenuWidget_SetAlphaScaling
                0x00000000       0xb8 build/default/production/_ext/493962524/libaria_widget_radial_menu.o
 .text.laRadialMenuWidget_SetSizeScaleMinMax
                0x00000000       0x70 build/default/production/_ext/493962524/libaria_widget_radial_menu.o
 .text.laRadialMenuWidget_SetAlphaScaleMinMax
                0x00000000       0x68 build/default/production/_ext/493962524/libaria_widget_radial_menu.o
 .text.laRadialMenuWidget_SetDrawEllipse
                0x00000000       0x34 build/default/production/_ext/493962524/libaria_widget_radial_menu.o
 .text.laRadialMenuWidget_SetTouchArea
                0x00000000       0x2c build/default/production/_ext/493962524/libaria_widget_radial_menu.o
 .text.laRadialMenuWidget_SetEllipseType
                0x00000000       0x34 build/default/production/_ext/493962524/libaria_widget_radial_menu.o
 .text.laRadialMenuWidget_GetTheta
                0x00000000       0x18 build/default/production/_ext/493962524/libaria_widget_radial_menu.o
 .text.laRadialMenuWidget_SetTheta
                0x00000000       0x54 build/default/production/_ext/493962524/libaria_widget_radial_menu.o
 .text.laRadialMenuWidget_GetItemSelectedEventCallback
                0x00000000       0x18 build/default/production/_ext/493962524/libaria_widget_radial_menu.o
 .text.laRadialMenuWidget_SetItemSelectedEventCallback
                0x00000000       0x30 build/default/production/_ext/493962524/libaria_widget_radial_menu.o
 .text.laRadialMenuWidget_SetItemProminenceChangedEventCallback
                0x00000000       0x30 build/default/production/_ext/493962524/libaria_widget_radial_menu.o
 .text.laRadialMenuWidget_GetItemProminenceChangeddEventCallback
                0x00000000       0x18 build/default/production/_ext/493962524/libaria_widget_radial_menu.o
 .text.laRadialMenuWidget_SetDeselectedEventCallback
                0x00000000       0x30 build/default/production/_ext/493962524/libaria_widget_radial_menu.o
 .text          0x00000000        0x0 build/default/production/_ext/493962524/libaria_widget_radial_menu_skin_classic.o
 .data          0x00000000        0x0 build/default/production/_ext/493962524/libaria_widget_radial_menu_skin_classic.o
 .bss           0x00000000        0x0 build/default/production/_ext/493962524/libaria_widget_radial_menu_skin_classic.o
 .reginfo       0x00000000       0x18 build/default/production/_ext/493962524/libaria_widget_radial_menu_skin_classic.o
 .text.nextState
                0x00000000       0xd8 build/default/production/_ext/493962524/libaria_widget_radial_menu_skin_classic.o
 .text.drawEllipse
                0x00000000       0xd4 build/default/production/_ext/493962524/libaria_widget_radial_menu_skin_classic.o
 .text.drawBackground
                0x00000000       0x34 build/default/production/_ext/493962524/libaria_widget_radial_menu_skin_classic.o
 .text._weighAngle
                0x00000000       0x50 build/default/production/_ext/493962524/libaria_widget_radial_menu_skin_classic.o
 .text.arrangeItems
                0x00000000      0x43c build/default/production/_ext/493962524/libaria_widget_radial_menu_skin_classic.o
 .text._laRadialMenuWidget_Paint
                0x00000000       0x9c build/default/production/_ext/493962524/libaria_widget_radial_menu_skin_classic.o
 .text          0x00000000        0x0 build/default/production/_ext/493962524/libaria_widget_radiobutton.o
 .data          0x00000000        0x0 build/default/production/_ext/493962524/libaria_widget_radiobutton.o
 .bss           0x00000000        0x0 build/default/production/_ext/493962524/libaria_widget_radiobutton.o
 .reginfo       0x00000000       0x18 build/default/production/_ext/493962524/libaria_widget_radiobutton.o
 .text.touchMoved
                0x00000000        0xc build/default/production/_ext/493962524/libaria_widget_radiobutton.o
 .text.touchDown
                0x00000000       0xac build/default/production/_ext/493962524/libaria_widget_radiobutton.o
 .text.touchUp  0x00000000       0xb4 build/default/production/_ext/493962524/libaria_widget_radiobutton.o
 .text.invalidateContents
                0x00000000       0x7c build/default/production/_ext/493962524/libaria_widget_radiobutton.o
 .text.languageChanging
                0x00000000       0x38 build/default/production/_ext/493962524/libaria_widget_radiobutton.o
 .text._laRadioButtonWidget_Destructor
                0x00000000       0x68 build/default/production/_ext/493962524/libaria_widget_radiobutton.o
 .text.laRadioButtonWidget_New
                0x00000000       0xf4 build/default/production/_ext/493962524/libaria_widget_radiobutton.o
 .text.laRadioButtonWidget_GetGroup
                0x00000000       0x18 build/default/production/_ext/493962524/libaria_widget_radiobutton.o
 .text.laRadioButtonWidget_GetSelected
                0x00000000       0x34 build/default/production/_ext/493962524/libaria_widget_radiobutton.o
 .text.laRadioButtonWidget_SetSelected
                0x00000000       0x80 build/default/production/_ext/493962524/libaria_widget_radiobutton.o
 .text._laRadioButtonWidget_Select
                0x00000000       0x58 build/default/production/_ext/493962524/libaria_widget_radiobutton.o
 .text._laRadioButtonWidget_Deselect
                0x00000000       0x50 build/default/production/_ext/493962524/libaria_widget_radiobutton.o
 .text.laRadioButtonWidget_GetHAlignment
                0x00000000       0x18 build/default/production/_ext/493962524/libaria_widget_radiobutton.o
 .text.laRadioButtonWidget_SetHAlignment
                0x00000000       0x5c build/default/production/_ext/493962524/libaria_widget_radiobutton.o
 .text.laRadioButtonWidget_GetVAlignment
                0x00000000       0x18 build/default/production/_ext/493962524/libaria_widget_radiobutton.o
 .text.laRadioButtonWidget_SetVAlignment
                0x00000000       0x60 build/default/production/_ext/493962524/libaria_widget_radiobutton.o
 .text.laRadioButtonWidget_GetText
                0x00000000       0x38 build/default/production/_ext/493962524/libaria_widget_radiobutton.o
 .text.laRadioButtonWidget_SetText
                0x00000000       0x7c build/default/production/_ext/493962524/libaria_widget_radiobutton.o
 .text.laRadioButtonWidget_GetSelectedImage
                0x00000000       0x18 build/default/production/_ext/493962524/libaria_widget_radiobutton.o
 .text.laRadioButtonWidget_SetSelectedImage
                0x00000000       0x60 build/default/production/_ext/493962524/libaria_widget_radiobutton.o
 .text.laRadioButtonWidget_GetUnselectedImage
                0x00000000       0x18 build/default/production/_ext/493962524/libaria_widget_radiobutton.o
 .text.laRadioButtonWidget_SetUnselectedImage
                0x00000000       0x60 build/default/production/_ext/493962524/libaria_widget_radiobutton.o
 .text.laRadioButtonWidget_GetImagePosition
                0x00000000       0x18 build/default/production/_ext/493962524/libaria_widget_radiobutton.o
 .text.laRadioButtonWidget_SetImagePosition
                0x00000000       0x5c build/default/production/_ext/493962524/libaria_widget_radiobutton.o
 .text.laRadioButtonWidget_GetImageMargin
                0x00000000       0x18 build/default/production/_ext/493962524/libaria_widget_radiobutton.o
 .text.laRadioButtonWidget_SetImageMargin
                0x00000000       0x5c build/default/production/_ext/493962524/libaria_widget_radiobutton.o
 .text.laRadioButtonWidget_GetSelectedEventCallback
                0x00000000       0x18 build/default/production/_ext/493962524/libaria_widget_radiobutton.o
 .text.laRadioButtonWidget_SetSelectedEventCallback
                0x00000000       0x30 build/default/production/_ext/493962524/libaria_widget_radiobutton.o
 .text.laRadioButtonWidget_GetDeselectedEventCallback
                0x00000000       0x18 build/default/production/_ext/493962524/libaria_widget_radiobutton.o
 .text.laRadioButtonWidget_SetDeselectedEventCallback
                0x00000000       0x30 build/default/production/_ext/493962524/libaria_widget_radiobutton.o
 .text.laRadioButtonWidget_GetCircleButtonSize
                0x00000000       0x18 build/default/production/_ext/493962524/libaria_widget_radiobutton.o
 .text.laRadioButtonWidget_SetCircleButtonSize
                0x00000000       0x88 build/default/production/_ext/493962524/libaria_widget_radiobutton.o
 .text          0x00000000        0x0 build/default/production/_ext/493962524/libaria_widget_radiobutton_skin_classic.o
 .data          0x00000000        0x0 build/default/production/_ext/493962524/libaria_widget_radiobutton_skin_classic.o
 .bss           0x00000000        0x0 build/default/production/_ext/493962524/libaria_widget_radiobutton_skin_classic.o
 .reginfo       0x00000000       0x18 build/default/production/_ext/493962524/libaria_widget_radiobutton_skin_classic.o
 .text.nextState
                0x00000000       0xfc build/default/production/_ext/493962524/libaria_widget_radiobutton_skin_classic.o
 .text.waitString
                0x00000000       0x68 build/default/production/_ext/493962524/libaria_widget_radiobutton_skin_classic.o
 .text.waitImage
                0x00000000       0x68 build/default/production/_ext/493962524/libaria_widget_radiobutton_skin_classic.o
 .text.drawBorder
                0x00000000       0x58 build/default/production/_ext/493962524/libaria_widget_radiobutton_skin_classic.o
 .text.drawBackground
                0x00000000       0x2c build/default/production/_ext/493962524/libaria_widget_radiobutton_skin_classic.o
 .text._laRadioButtonWidget_GetImageRect
                0x00000000      0x1a4 build/default/production/_ext/493962524/libaria_widget_radiobutton_skin_classic.o
 .text.drawImage
                0x00000000      0x7cc build/default/production/_ext/493962524/libaria_widget_radiobutton_skin_classic.o
 .text._laRadioButtonWidget_GetTextRect
                0x00000000      0x184 build/default/production/_ext/493962524/libaria_widget_radiobutton_skin_classic.o
 .text.drawString
                0x00000000       0xe0 build/default/production/_ext/493962524/libaria_widget_radiobutton_skin_classic.o
 .text._laRadioButtonWidget_Paint
                0x00000000       0xb8 build/default/production/_ext/493962524/libaria_widget_radiobutton_skin_classic.o
 .text          0x00000000        0x0 build/default/production/_ext/493962524/libaria_radiobutton_group.o
 .data          0x00000000        0x0 build/default/production/_ext/493962524/libaria_radiobutton_group.o
 .bss           0x00000000        0x0 build/default/production/_ext/493962524/libaria_radiobutton_group.o
 .reginfo       0x00000000       0x18 build/default/production/_ext/493962524/libaria_radiobutton_group.o
 .text.laRadioButtonGroup_Create
                0x00000000       0x8c build/default/production/_ext/493962524/libaria_radiobutton_group.o
 .text.laRadioButtonGroup_Destroy
                0x00000000       0x40 build/default/production/_ext/493962524/libaria_radiobutton_group.o
 .text.laRadioButtonGroup_AddButton
                0x00000000       0x88 build/default/production/_ext/493962524/libaria_radiobutton_group.o
 .text.laRadioButtonGroup_RemoveButton
                0x00000000       0x8c build/default/production/_ext/493962524/libaria_radiobutton_group.o
 .text.laRadioButtonGroup_SelectButton
                0x00000000       0x84 build/default/production/_ext/493962524/libaria_radiobutton_group.o
 .text          0x00000000        0x0 build/default/production/_ext/493962524/libaria_widget_rectangle.o
 .data          0x00000000        0x0 build/default/production/_ext/493962524/libaria_widget_rectangle.o
 .bss           0x00000000        0x0 build/default/production/_ext/493962524/libaria_widget_rectangle.o
 .reginfo       0x00000000       0x18 build/default/production/_ext/493962524/libaria_widget_rectangle.o
 .text._laRectangleWidget_Destructor
                0x00000000       0x1c build/default/production/_ext/493962524/libaria_widget_rectangle.o
 .text.laRectangleWidget_New
                0x00000000       0x98 build/default/production/_ext/493962524/libaria_widget_rectangle.o
 .text.laRectangleWidget_GetThickness
                0x00000000       0x18 build/default/production/_ext/493962524/libaria_widget_rectangle.o
 .text.laRectangleWidget_SetThickness
                0x00000000       0x68 build/default/production/_ext/493962524/libaria_widget_rectangle.o
 .text          0x00000000        0x0 build/default/production/_ext/493962524/libaria_widget_rectangle_skin_classic.o
 .data          0x00000000        0x0 build/default/production/_ext/493962524/libaria_widget_rectangle_skin_classic.o
 .bss           0x00000000        0x0 build/default/production/_ext/493962524/libaria_widget_rectangle_skin_classic.o
 .reginfo       0x00000000       0x18 build/default/production/_ext/493962524/libaria_widget_rectangle_skin_classic.o
 .text.nextState
                0x00000000       0xb0 build/default/production/_ext/493962524/libaria_widget_rectangle_skin_classic.o
 .text.drawBorder
                0x00000000       0x58 build/default/production/_ext/493962524/libaria_widget_rectangle_skin_classic.o
 .text.drawEdge
                0x00000000      0x21c build/default/production/_ext/493962524/libaria_widget_rectangle_skin_classic.o
 .text.drawBackground
                0x00000000       0x2c build/default/production/_ext/493962524/libaria_widget_rectangle_skin_classic.o
 .text._laRectangleWidget_InvalidateRect
                0x00000000      0x13c build/default/production/_ext/493962524/libaria_widget_rectangle_skin_classic.o
 .text._laRectangleWidget_Paint
                0x00000000       0x9c build/default/production/_ext/493962524/libaria_widget_rectangle_skin_classic.o
 .text          0x00000000        0x0 build/default/production/_ext/493962524/libaria_widget_scrollbar.o
 .data          0x00000000        0x0 build/default/production/_ext/493962524/libaria_widget_scrollbar.o
 .bss           0x00000000        0x0 build/default/production/_ext/493962524/libaria_widget_scrollbar.o
 .reginfo       0x00000000       0x18 build/default/production/_ext/493962524/libaria_widget_scrollbar.o
 .text._laScrollBarWidget_Destructor
                0x00000000       0x1c build/default/production/_ext/493962524/libaria_widget_scrollbar.o
 .text.invalidateHandleRect
                0x00000000       0x40 build/default/production/_ext/493962524/libaria_widget_scrollbar.o
 .text.invalidateScrollArea
                0x00000000       0x40 build/default/production/_ext/493962524/libaria_widget_scrollbar.o
 .text.invalidateUpLeftButton
                0x00000000       0x40 build/default/production/_ext/493962524/libaria_widget_scrollbar.o
 .text.invalidateDownRightButton
                0x00000000       0x40 build/default/production/_ext/493962524/libaria_widget_scrollbar.o
 .text._laScrollBarWidget_TouchDownEvent
                0x00000000      0x100 build/default/production/_ext/493962524/libaria_widget_scrollbar.o
 .text._laScrollWidget_GetExtent
                0x00000000       0x1c build/default/production/_ext/493962524/libaria_widget_scrollbar.o
 .text._laScrollBar_GetPercentFromPoint
                0x00000000       0xcc build/default/production/_ext/493962524/libaria_widget_scrollbar.o
 .text._laScrollBar_GetValueFromPercent
                0x00000000       0x38 build/default/production/_ext/493962524/libaria_widget_scrollbar.o
 .text._laScrollBarWidget_Constructor
                0x00000000       0xa8 build/default/production/_ext/493962524/libaria_widget_scrollbar.o
 .text.laScrollBarWidget_New
                0x00000000       0x50 build/default/production/_ext/493962524/libaria_widget_scrollbar.o
 .text.laScrollBarWidget_GetOrientation
                0x00000000       0x18 build/default/production/_ext/493962524/libaria_widget_scrollbar.o
 .text.laScrollBarWidget_SetOrientation
                0x00000000       0x64 build/default/production/_ext/493962524/libaria_widget_scrollbar.o
 .text.laScrollBarWidget_GetValueChangedEventCallback
                0x00000000       0x18 build/default/production/_ext/493962524/libaria_widget_scrollbar.o
 .text.laScrollBarWidget_GetMaxinumValue
                0x00000000       0x18 build/default/production/_ext/493962524/libaria_widget_scrollbar.o
 .text.laScrollBarWidget_SetMaximumValue
                0x00000000       0x44 build/default/production/_ext/493962524/libaria_widget_scrollbar.o
 .text.laScrollBarWidget_GetExtentValue
                0x00000000       0x18 build/default/production/_ext/493962524/libaria_widget_scrollbar.o
 .text.laScrollBarWidget_SetExtentValue
                0x00000000       0x44 build/default/production/_ext/493962524/libaria_widget_scrollbar.o
 .text.laScrollBarWidget_GetScrollPercentage
                0x00000000       0x34 build/default/production/_ext/493962524/libaria_widget_scrollbar.o
 .text.laScrollBarWidget_SetScrollPercentage
                0x00000000       0x5c build/default/production/_ext/493962524/libaria_widget_scrollbar.o
 .text.laScrollBarWidget_GetScrollValue
                0x00000000       0x18 build/default/production/_ext/493962524/libaria_widget_scrollbar.o
 .text.laScrollBarWidget_SetScrollValue
                0x00000000       0x78 build/default/production/_ext/493962524/libaria_widget_scrollbar.o
 .text._laScrollBarWidget_TouchMovedEvent
                0x00000000      0x1cc build/default/production/_ext/493962524/libaria_widget_scrollbar.o
 .text.laScrollBarWidget_GetStepSize
                0x00000000       0x18 build/default/production/_ext/493962524/libaria_widget_scrollbar.o
 .text.laScrollBarWidget_SetStepSize
                0x00000000       0x1c build/default/production/_ext/493962524/libaria_widget_scrollbar.o
 .text.laScrollBarWidget_StepBackward
                0x00000000       0x7c build/default/production/_ext/493962524/libaria_widget_scrollbar.o
 .text.laScrollBarWidget_StepForward
                0x00000000       0x80 build/default/production/_ext/493962524/libaria_widget_scrollbar.o
 .text._laScrollBarWidget_TouchUpEvent
                0x00000000       0xec build/default/production/_ext/493962524/libaria_widget_scrollbar.o
 .text.laScrollBarWidget_SetValueChangedEventCallback
                0x00000000       0x30 build/default/production/_ext/493962524/libaria_widget_scrollbar.o
 .text          0x00000000        0x0 build/default/production/_ext/493962524/libaria_widget_scrollbar_skin_classic.o
 .data          0x00000000        0x0 build/default/production/_ext/493962524/libaria_widget_scrollbar_skin_classic.o
 .bss           0x00000000        0x0 build/default/production/_ext/493962524/libaria_widget_scrollbar_skin_classic.o
 .reginfo       0x00000000       0x18 build/default/production/_ext/493962524/libaria_widget_scrollbar_skin_classic.o
 .text.nextState
                0x00000000       0xb4 build/default/production/_ext/493962524/libaria_widget_scrollbar_skin_classic.o
 .text._laScrollBar_GetUpLeftButtonRect
                0x00000000       0x48 build/default/production/_ext/493962524/libaria_widget_scrollbar_skin_classic.o
 .text.drawUpButton
                0x00000000      0x2a0 build/default/production/_ext/493962524/libaria_widget_scrollbar_skin_classic.o
 .text._laScrollBar_GetDownRightButtonRect
                0x00000000       0x60 build/default/production/_ext/493962524/libaria_widget_scrollbar_skin_classic.o
 .text.drawDownButton
                0x00000000      0x2cc build/default/production/_ext/493962524/libaria_widget_scrollbar_skin_classic.o
 .text._laScrollBar_GetScrollAreaRect
                0x00000000       0x64 build/default/production/_ext/493962524/libaria_widget_scrollbar_skin_classic.o
 .text.drawBackground
                0x00000000       0x84 build/default/production/_ext/493962524/libaria_widget_scrollbar_skin_classic.o
 .text._laScrollBar_GetHandleRect
                0x00000000       0xf8 build/default/production/_ext/493962524/libaria_widget_scrollbar_skin_classic.o
 .text.drawHandle
                0x00000000       0xac build/default/production/_ext/493962524/libaria_widget_scrollbar_skin_classic.o
 .text._laScrollBarWidget_InvalidateBorderAreas
                0x00000000       0x1c build/default/production/_ext/493962524/libaria_widget_scrollbar_skin_classic.o
 .text._laScrollBarWidget_Paint
                0x00000000       0x9c build/default/production/_ext/493962524/libaria_widget_scrollbar_skin_classic.o
 .text          0x00000000        0x0 build/default/production/_ext/493962524/libaria_widget_slider.o
 .data          0x00000000        0x0 build/default/production/_ext/493962524/libaria_widget_slider.o
 .bss           0x00000000        0x0 build/default/production/_ext/493962524/libaria_widget_slider.o
 .reginfo       0x00000000       0x18 build/default/production/_ext/493962524/libaria_widget_slider.o
 .text._laSliderWidget_Update
                0x00000000        0x8 build/default/production/_ext/493962524/libaria_widget_slider.o
 .text._laSliderWidget_TouchUpEvent
                0x00000000       0x10 build/default/production/_ext/493962524/libaria_widget_slider.o
 .text._laSliderWidget_Destructor
                0x00000000       0x1c build/default/production/_ext/493962524/libaria_widget_slider.o
 .text.invalidateHandle
                0x00000000       0x40 build/default/production/_ext/493962524/libaria_widget_slider.o
 .text._laSliderWidget_GetPercentFromPoint
                0x00000000       0xb4 build/default/production/_ext/493962524/libaria_widget_slider.o
 .text._laSliderWidget_GetValueFromPercent
                0x00000000       0x54 build/default/production/_ext/493962524/libaria_widget_slider.o
 .text._laSliderWidget_TouchDownEvent
                0x00000000      0x128 build/default/production/_ext/493962524/libaria_widget_slider.o
 .text._laSliderWidget_TouchMovedEvent
                0x00000000       0xac build/default/production/_ext/493962524/libaria_widget_slider.o
 .text._laSliderWidget_Constructor
                0x00000000       0xb8 build/default/production/_ext/493962524/libaria_widget_slider.o
 .text.laSliderWidget_New
                0x00000000       0x50 build/default/production/_ext/493962524/libaria_widget_slider.o
 .text.laSliderWidget_GetOrientation
                0x00000000       0x18 build/default/production/_ext/493962524/libaria_widget_slider.o
 .text.laSliderWidget_SetOrientation
                0x00000000       0x64 build/default/production/_ext/493962524/libaria_widget_slider.o
 .text.laSliderWidget_GetGripSize
                0x00000000       0x18 build/default/production/_ext/493962524/libaria_widget_slider.o
 .text.laSliderWidget_SetGripSize
                0x00000000       0x5c build/default/production/_ext/493962524/libaria_widget_slider.o
 .text.laSliderWidget_GetMininumValue
                0x00000000       0x18 build/default/production/_ext/493962524/libaria_widget_slider.o
 .text.laSliderWidget_SetMinimumValue
                0x00000000       0x70 build/default/production/_ext/493962524/libaria_widget_slider.o
 .text.laSliderWidget_GetMaxinumValue
                0x00000000       0x18 build/default/production/_ext/493962524/libaria_widget_slider.o
 .text.laSliderWidget_SetMaximumValue
                0x00000000       0x70 build/default/production/_ext/493962524/libaria_widget_slider.o
 .text.laSliderWidget_GetSliderPercentage
                0x00000000       0x3c build/default/production/_ext/493962524/libaria_widget_slider.o
 .text.laSliderWidget_SetSliderPercentage
                0x00000000       0x84 build/default/production/_ext/493962524/libaria_widget_slider.o
 .text.laSliderWidget_GetSliderValue
                0x00000000       0x18 build/default/production/_ext/493962524/libaria_widget_slider.o
 .text.laSliderWidget_SetSliderValue
                0x00000000       0x84 build/default/production/_ext/493962524/libaria_widget_slider.o
 .text.laSliderWidget_Step
                0x00000000       0xac build/default/production/_ext/493962524/libaria_widget_slider.o
 .text.laSliderWidget_GetValueChangedEventCallback
                0x00000000       0x18 build/default/production/_ext/493962524/libaria_widget_slider.o
 .text.laSliderWidget_SetValueChangedEventCallback
                0x00000000       0x30 build/default/production/_ext/493962524/libaria_widget_slider.o
 .text          0x00000000        0x0 build/default/production/_ext/493962524/libaria_widget_slider_skin_classic.o
 .data          0x00000000        0x0 build/default/production/_ext/493962524/libaria_widget_slider_skin_classic.o
 .bss           0x00000000        0x0 build/default/production/_ext/493962524/libaria_widget_slider_skin_classic.o
 .reginfo       0x00000000       0x18 build/default/production/_ext/493962524/libaria_widget_slider_skin_classic.o
 .text.nextState
                0x00000000       0x9c build/default/production/_ext/493962524/libaria_widget_slider_skin_classic.o
 .text.drawBackground
                0x00000000       0x2c build/default/production/_ext/493962524/libaria_widget_slider_skin_classic.o
 .text._laSliderWidget_GetSlideAreaRect
                0x00000000       0xe4 build/default/production/_ext/493962524/libaria_widget_slider_skin_classic.o
 .text.drawBar  0x00000000       0xb0 build/default/production/_ext/493962524/libaria_widget_slider_skin_classic.o
 .text._laSliderWidget_GetHandleRect
                0x00000000       0xf4 build/default/production/_ext/493962524/libaria_widget_slider_skin_classic.o
 .text.drawHandle
                0x00000000       0xac build/default/production/_ext/493962524/libaria_widget_slider_skin_classic.o
 .text._laSliderWidget_InvalidateBorderAreas
                0x00000000       0x1c build/default/production/_ext/493962524/libaria_widget_slider_skin_classic.o
 .text._laSliderWidget_Paint
                0x00000000       0x9c build/default/production/_ext/493962524/libaria_widget_slider_skin_classic.o
 .text          0x00000000        0x0 build/default/production/_ext/493962524/libaria_widget_textfield.o
 .data          0x00000000        0x0 build/default/production/_ext/493962524/libaria_widget_textfield.o
 .bss           0x00000000        0x0 build/default/production/_ext/493962524/libaria_widget_textfield.o
 .reginfo       0x00000000       0x18 build/default/production/_ext/493962524/libaria_widget_textfield.o
 .text._laTextFieldWidget_FocusLost
                0x00000000        0x8 build/default/production/_ext/493962524/libaria_widget_textfield.o
 .text._laTextFieldWidget_TouchUpEvent
                0x00000000        0xc build/default/production/_ext/493962524/libaria_widget_textfield.o
 .text._laTextFieldWidget_TouchMovedEvent
                0x00000000        0xc build/default/production/_ext/493962524/libaria_widget_textfield.o
 .text.invalidateText
                0x00000000       0x44 build/default/production/_ext/493962524/libaria_widget_textfield.o
 .text.invalidateCursor
                0x00000000       0x40 build/default/production/_ext/493962524/libaria_widget_textfield.o
 .text.backspace
                0x00000000       0xa8 build/default/production/_ext/493962524/libaria_widget_textfield.o
 .text.endEdit  0x00000000       0x20 build/default/production/_ext/493962524/libaria_widget_textfield.o
 .text.set      0x00000000       0x88 build/default/production/_ext/493962524/libaria_widget_textfield.o
 .text.append   0x00000000       0xb8 build/default/production/_ext/493962524/libaria_widget_textfield.o
 .text.accept   0x00000000       0x1c build/default/production/_ext/493962524/libaria_widget_textfield.o
 .text._laTextFieldWidget_FocusGained
                0x00000000       0x1c build/default/production/_ext/493962524/libaria_widget_textfield.o
 .text.clear    0x00000000       0x48 build/default/production/_ext/493962524/libaria_widget_textfield.o
 .text.startEdit
                0x00000000       0x58 build/default/production/_ext/493962524/libaria_widget_textfield.o
 .text._laTextFieldWidget_Update
                0x00000000       0x70 build/default/production/_ext/493962524/libaria_widget_textfield.o
 .text._laTextFieldWidget_Destructor
                0x00000000       0x54 build/default/production/_ext/493962524/libaria_widget_textfield.o
 .text._laTextFieldWidget_Constructor
                0x00000000      0x118 build/default/production/_ext/493962524/libaria_widget_textfield.o
 .text.laTextFieldWidget_New
                0x00000000       0x50 build/default/production/_ext/493962524/libaria_widget_textfield.o
 .text.laTextFieldWidget_GetAlignment
                0x00000000       0x18 build/default/production/_ext/493962524/libaria_widget_textfield.o
 .text.laTextFieldWidget_SetAlignment
                0x00000000       0x44 build/default/production/_ext/493962524/libaria_widget_textfield.o
 .text.laTextFieldWidget_GetCursorDelay
                0x00000000       0x18 build/default/production/_ext/493962524/libaria_widget_textfield.o
 .text.laTextFieldWidget_SetCursorDelay
                0x00000000       0x68 build/default/production/_ext/493962524/libaria_widget_textfield.o
 .text.laTextFieldWidget_GetCursorEnabled
                0x00000000       0x18 build/default/production/_ext/493962524/libaria_widget_textfield.o
 .text.laTextFieldWidget_SetCursorEnabled
                0x00000000       0x64 build/default/production/_ext/493962524/libaria_widget_textfield.o
 .text.laTextFieldWidget_GetCursorPosition
                0x00000000       0x18 build/default/production/_ext/493962524/libaria_widget_textfield.o
 .text.laTextFieldWidget_SetCursorPosition
                0x00000000       0x5c build/default/production/_ext/493962524/libaria_widget_textfield.o
 .text._laTextFieldWidget_TouchDownEvent
                0x00000000      0x100 build/default/production/_ext/493962524/libaria_widget_textfield.o
 .text.laTextFieldWidget_GetText
                0x00000000       0x38 build/default/production/_ext/493962524/libaria_widget_textfield.o
 .text.laTextFieldWidget_SetText
                0x00000000       0xa0 build/default/production/_ext/493962524/libaria_widget_textfield.o
 .text.laTextFieldWidget_SetClearOnFirstEdit
                0x00000000       0x30 build/default/production/_ext/493962524/libaria_widget_textfield.o
 .text.laTextFieldWidget_GetTextChangedEventCallback
                0x00000000       0x18 build/default/production/_ext/493962524/libaria_widget_textfield.o
 .text.laTextFieldWidget_SetTextChangedEventCallback
                0x00000000       0x30 build/default/production/_ext/493962524/libaria_widget_textfield.o
 .rodata        0x00000000       0x10 build/default/production/_ext/493962524/libaria_widget_textfield.o
 .text          0x00000000        0x0 build/default/production/_ext/493962524/libaria_widget_textfield_skin_classic.o
 .data          0x00000000        0x0 build/default/production/_ext/493962524/libaria_widget_textfield_skin_classic.o
 .bss           0x00000000        0x0 build/default/production/_ext/493962524/libaria_widget_textfield_skin_classic.o
 .reginfo       0x00000000       0x18 build/default/production/_ext/493962524/libaria_widget_textfield_skin_classic.o
 .text.nextState
                0x00000000      0x110 build/default/production/_ext/493962524/libaria_widget_textfield_skin_classic.o
 .text.waitString
                0x00000000       0x68 build/default/production/_ext/493962524/libaria_widget_textfield_skin_classic.o
 .text.drawBorder
                0x00000000       0x58 build/default/production/_ext/493962524/libaria_widget_textfield_skin_classic.o
 .text.drawBackground
                0x00000000       0x5c build/default/production/_ext/493962524/libaria_widget_textfield_skin_classic.o
 .text._laTextFieldWidget_GetTextRect
                0x00000000       0xf4 build/default/production/_ext/493962524/libaria_widget_textfield_skin_classic.o
 .text.drawString
                0x00000000       0xe0 build/default/production/_ext/493962524/libaria_widget_textfield_skin_classic.o
 .text._laTextFieldWidget_GetCursorRect
                0x00000000      0x144 build/default/production/_ext/493962524/libaria_widget_textfield_skin_classic.o
 .text.drawCursor
                0x00000000       0xa8 build/default/production/_ext/493962524/libaria_widget_textfield_skin_classic.o
 .text._laTextFieldWidget_Paint
                0x00000000       0xb4 build/default/production/_ext/493962524/libaria_widget_textfield_skin_classic.o
 .rodata        0x00000000       0x10 build/default/production/_ext/493962524/libaria_widget_textfield_skin_classic.o
 .text          0x00000000        0x0 build/default/production/_ext/493962524/libaria_widget_touchtest.o
 .data          0x00000000        0x0 build/default/production/_ext/493962524/libaria_widget_touchtest.o
 .bss           0x00000000        0x0 build/default/production/_ext/493962524/libaria_widget_touchtest.o
 .reginfo       0x00000000       0x18 build/default/production/_ext/493962524/libaria_widget_touchtest.o
 .text._laTouchTestWidget_Destructor
                0x00000000       0x1c build/default/production/_ext/493962524/libaria_widget_touchtest.o
 .text.invalidateLineList
                0x00000000       0x8c build/default/production/_ext/493962524/libaria_widget_touchtest.o
 .text._laTouchTestWidget_Constructor
                0x00000000       0x90 build/default/production/_ext/493962524/libaria_widget_touchtest.o
 .text.laTouchTestWidget_New
                0x00000000       0x58 build/default/production/_ext/493962524/libaria_widget_touchtest.o
 .text.laTouchTest_AddPoint
                0x00000000       0xc4 build/default/production/_ext/493962524/libaria_widget_touchtest.o
 .text._laTouchTestWidget_TouchDownEvent
                0x00000000       0x50 build/default/production/_ext/493962524/libaria_widget_touchtest.o
 .text._laTouchTestWidget_TouchMovedEvent
                0x00000000       0x84 build/default/production/_ext/493962524/libaria_widget_touchtest.o
 .text.laTouchTest_ClearPoints
                0x00000000       0x4c build/default/production/_ext/493962524/libaria_widget_touchtest.o
 .text._laTouchTestWidget_TouchUpEvent
                0x00000000       0x24 build/default/production/_ext/493962524/libaria_widget_touchtest.o
 .text.laTouchTestWidget_GetPointAddedEventCallback
                0x00000000       0x18 build/default/production/_ext/493962524/libaria_widget_touchtest.o
 .text.laTouchTestWidget_SetPointAddedEventCallback
                0x00000000       0x1c build/default/production/_ext/493962524/libaria_widget_touchtest.o
 .text          0x00000000        0x0 build/default/production/_ext/493962524/libaria_widget_touchtest_skin_classic.o
 .data          0x00000000        0x0 build/default/production/_ext/493962524/libaria_widget_touchtest_skin_classic.o
 .bss           0x00000000        0x0 build/default/production/_ext/493962524/libaria_widget_touchtest_skin_classic.o
 .reginfo       0x00000000       0x18 build/default/production/_ext/493962524/libaria_widget_touchtest_skin_classic.o
 .text.nextState
                0x00000000       0xb4 build/default/production/_ext/493962524/libaria_widget_touchtest_skin_classic.o
 .text.drawBorder
                0x00000000       0x58 build/default/production/_ext/493962524/libaria_widget_touchtest_skin_classic.o
 .text.drawBackground
                0x00000000       0x2c build/default/production/_ext/493962524/libaria_widget_touchtest_skin_classic.o
 .text._laTouchTestWidget_GetLineRects
                0x00000000       0x9c build/default/production/_ext/493962524/libaria_widget_touchtest_skin_classic.o
 .text.drawLines
                0x00000000      0x1dc build/default/production/_ext/493962524/libaria_widget_touchtest_skin_classic.o
 .text._laTouchTestWidget_Paint
                0x00000000       0x9c build/default/production/_ext/493962524/libaria_widget_touchtest_skin_classic.o
 .text          0x00000000        0x0 build/default/production/_ext/493962524/libaria_widget_window.o
 .data          0x00000000        0x0 build/default/production/_ext/493962524/libaria_widget_window.o
 .bss           0x00000000        0x0 build/default/production/_ext/493962524/libaria_widget_window.o
 .reginfo       0x00000000       0x18 build/default/production/_ext/493962524/libaria_widget_window.o
 .text.invalidateTitleText
                0x00000000       0x44 build/default/production/_ext/493962524/libaria_widget_window.o
 .text.languageChanging
                0x00000000       0x38 build/default/production/_ext/493962524/libaria_widget_window.o
 .text._laWindowWidget_Destructor
                0x00000000       0x54 build/default/production/_ext/493962524/libaria_widget_window.o
 .text.invalidateTitleBar
                0x00000000       0x40 build/default/production/_ext/493962524/libaria_widget_window.o
 .text._laWindowWidget_Constructor
                0x00000000       0x74 build/default/production/_ext/493962524/libaria_widget_window.o
 .text.laWindowWidget_New
                0x00000000       0x50 build/default/production/_ext/493962524/libaria_widget_window.o
 .text.laWindowWidget_GetTitle
                0x00000000       0x34 build/default/production/_ext/493962524/libaria_widget_window.o
 .text.laWindowWidget_SetTitle
                0x00000000       0x78 build/default/production/_ext/493962524/libaria_widget_window.o
 .text.laWindowWidget_GetIcon
                0x00000000       0x18 build/default/production/_ext/493962524/libaria_widget_window.o
 .text.laWindowWidget_SetIcon
                0x00000000       0x48 build/default/production/_ext/493962524/libaria_widget_window.o
 .text.laWindowWidget_GetIconMargin
                0x00000000       0x18 build/default/production/_ext/493962524/libaria_widget_window.o
 .text.laWindowWidget_SetIconMargin
                0x00000000       0x44 build/default/production/_ext/493962524/libaria_widget_window.o
 .text          0x00000000        0x0 build/default/production/_ext/493962524/libaria_widget_window_skin_classic.o
 .data          0x00000000        0x0 build/default/production/_ext/493962524/libaria_widget_window_skin_classic.o
 .bss           0x00000000        0x0 build/default/production/_ext/493962524/libaria_widget_window_skin_classic.o
 .reginfo       0x00000000       0x18 build/default/production/_ext/493962524/libaria_widget_window_skin_classic.o
 .text.nextState
                0x00000000      0x120 build/default/production/_ext/493962524/libaria_widget_window_skin_classic.o
 .text.waitString
                0x00000000       0x68 build/default/production/_ext/493962524/libaria_widget_window_skin_classic.o
 .text.waitIcon
                0x00000000       0x68 build/default/production/_ext/493962524/libaria_widget_window_skin_classic.o
 .text.drawBorder
                0x00000000       0xc0 build/default/production/_ext/493962524/libaria_widget_window_skin_classic.o
 .text.drawBackground
                0x00000000       0x2c build/default/production/_ext/493962524/libaria_widget_window_skin_classic.o
 .text.laWindowWidget_GetTitleBarRect
                0x00000000       0x80 build/default/production/_ext/493962524/libaria_widget_window_skin_classic.o
 .text.drawTitleBar
                0x00000000       0x64 build/default/production/_ext/493962524/libaria_widget_window_skin_classic.o
 .text.laWindowWidget_GetIconRect
                0x00000000      0x160 build/default/production/_ext/493962524/libaria_widget_window_skin_classic.o
 .text.drawIcon
                0x00000000      0x114 build/default/production/_ext/493962524/libaria_widget_window_skin_classic.o
 .text.laWindowWidget_GetTextRect
                0x00000000      0x114 build/default/production/_ext/493962524/libaria_widget_window_skin_classic.o
 .text.drawString
                0x00000000       0xe0 build/default/production/_ext/493962524/libaria_widget_window_skin_classic.o
 .text._laWindowWidget_Paint
                0x00000000       0xb8 build/default/production/_ext/493962524/libaria_widget_window_skin_classic.o
 .rodata        0x00000000       0x10 build/default/production/_ext/493962524/libaria_widget_window_skin_classic.o
 .text          0x00000000        0x0 build/default/production/_ext/1026407831/gfx.o
 .data          0x00000000        0x0 build/default/production/_ext/1026407831/gfx.o
 .bss           0x00000000        0x0 build/default/production/_ext/1026407831/gfx.o
 .reginfo       0x00000000       0x18 build/default/production/_ext/1026407831/gfx.o
 .text.GFX_HandleInterrupt
                0x00000000       0x40 build/default/production/_ext/1026407831/gfx.o
 .text.GFX_ReadPixel
                0x00000000       0xf8 build/default/production/_ext/1026407831/gfx.o
 .text          0x00000000        0x0 build/default/production/_ext/1026407831/gfx_color.o
 .bss           0x00000000        0x0 build/default/production/_ext/1026407831/gfx_color.o
 .reginfo       0x00000000       0x18 build/default/production/_ext/1026407831/gfx_color.o
 .text.GFX_ColorChannelRed
                0x00000000       0x24 build/default/production/_ext/1026407831/gfx_color.o
 .text.GFX_ColorChannelGreen
                0x00000000       0x24 build/default/production/_ext/1026407831/gfx_color.o
 .text.GFX_ColorChannelBlue
                0x00000000       0x24 build/default/production/_ext/1026407831/gfx_color.o
 .text.GFX_ColorChannelAlpha
                0x00000000       0x40 build/default/production/_ext/1026407831/gfx_color.o
 .text          0x00000000        0x0 build/default/production/_ext/1026407831/gfx_context.o
 .data          0x00000000        0x0 build/default/production/_ext/1026407831/gfx_context.o
 .bss           0x00000000        0x0 build/default/production/_ext/1026407831/gfx_context.o
 .reginfo       0x00000000       0x18 build/default/production/_ext/1026407831/gfx_context.o
 .text          0x00000000        0x0 build/default/production/_ext/1026407831/gfx_default_impl.o
 .data          0x00000000        0x0 build/default/production/_ext/1026407831/gfx_default_impl.o
 .bss           0x00000000        0x0 build/default/production/_ext/1026407831/gfx_default_impl.o
 .reginfo       0x00000000       0x18 build/default/production/_ext/1026407831/gfx_default_impl.o
 .text.defUnsupported
                0x00000000        0x8 build/default/production/_ext/1026407831/gfx_default_impl.o
 .text.defSwap  0x00000000      0x104 build/default/production/_ext/1026407831/gfx_default_impl.o
 .text          0x00000000        0x0 build/default/production/_ext/1026407831/gfx_display.o
 .data          0x00000000        0x0 build/default/production/_ext/1026407831/gfx_display.o
 .bss           0x00000000        0x0 build/default/production/_ext/1026407831/gfx_display.o
 .reginfo       0x00000000       0x18 build/default/production/_ext/1026407831/gfx_display.o
 .text          0x00000000        0x0 build/default/production/_ext/1026407831/gfx_driver_interface.o
 .data          0x00000000        0x0 build/default/production/_ext/1026407831/gfx_driver_interface.o
 .bss           0x00000000        0x0 build/default/production/_ext/1026407831/gfx_driver_interface.o
 .reginfo       0x00000000       0x18 build/default/production/_ext/1026407831/gfx_driver_interface.o
 .text          0x00000000        0x0 build/default/production/_ext/1026407831/gfx_get.o
 .data          0x00000000        0x0 build/default/production/_ext/1026407831/gfx_get.o
 .bss           0x00000000        0x0 build/default/production/_ext/1026407831/gfx_get.o
 .reginfo       0x00000000       0x18 build/default/production/_ext/1026407831/gfx_get.o
 .text.get_drawAntialias
                0x00000000       0x38 build/default/production/_ext/1026407831/gfx_get.o
 .text          0x00000000        0x0 build/default/production/_ext/1026407831/gfx_interface.o
 .bss           0x00000000        0x0 build/default/production/_ext/1026407831/gfx_interface.o
 .reginfo       0x00000000       0x18 build/default/production/_ext/1026407831/gfx_interface.o
 .text          0x00000000        0x0 build/default/production/_ext/1026407831/gfx_layer.o
 .data          0x00000000        0x0 build/default/production/_ext/1026407831/gfx_layer.o
 .bss           0x00000000        0x0 build/default/production/_ext/1026407831/gfx_layer.o
 .reginfo       0x00000000       0x18 build/default/production/_ext/1026407831/gfx_layer.o
 .text.GFX_LayerReadBuffer
                0x00000000       0x1c build/default/production/_ext/1026407831/gfx_layer.o
 .text.GFX_LayerWriteBuffer
                0x00000000       0x1c build/default/production/_ext/1026407831/gfx_layer.o
 .text.GFX_LayerRotate
                0x00000000       0x24 build/default/production/_ext/1026407831/gfx_layer.o
 .text.GFX_LayerPointFromOrientedSpace
                0x00000000      0x14c build/default/production/_ext/1026407831/gfx_layer.o
 .text.GFX_LayerPointToOrientedSpace
                0x00000000      0x154 build/default/production/_ext/1026407831/gfx_layer.o
 .text.GFX_LayerRectFromOrientedSpace
                0x00000000      0x130 build/default/production/_ext/1026407831/gfx_layer.o
 .text.GFX_LayerRectToOrientedSpace
                0x00000000       0x18 build/default/production/_ext/1026407831/gfx_layer.o
 .text          0x00000000        0x0 build/default/production/_ext/1026407831/gfx_pixel_buffer.o
 .bss           0x00000000        0x0 build/default/production/_ext/1026407831/gfx_pixel_buffer.o
 .reginfo       0x00000000       0x18 build/default/production/_ext/1026407831/gfx_pixel_buffer.o
 .text.GFX_PixelBufferCopy
                0x00000000       0xa8 build/default/production/_ext/1026407831/gfx_pixel_buffer.o
 .text.GFX_PixelBufferConvert
                0x00000000      0x140 build/default/production/_ext/1026407831/gfx_pixel_buffer.o
 .text.GFX_PixelBufferAreaSet_Unsafe
                0x00000000      0x19c build/default/production/_ext/1026407831/gfx_pixel_buffer.o
 .text.GFX_PixelBufferAreaSet
                0x00000000      0x144 build/default/production/_ext/1026407831/gfx_pixel_buffer.o
 .text.GFX_PixelBufferAreaFill_Unsafe
                0x00000000       0xb4 build/default/production/_ext/1026407831/gfx_pixel_buffer.o
 .text.GFX_PixelBufferAreaFill
                0x00000000       0x70 build/default/production/_ext/1026407831/gfx_pixel_buffer.o
 .text          0x00000000        0x0 build/default/production/_ext/1026407831/gfx_processor_interface.o
 .data          0x00000000        0x0 build/default/production/_ext/1026407831/gfx_processor_interface.o
 .bss           0x00000000        0x0 build/default/production/_ext/1026407831/gfx_processor_interface.o
 .reginfo       0x00000000       0x18 build/default/production/_ext/1026407831/gfx_processor_interface.o
 .text          0x00000000        0x0 build/default/production/_ext/1026407831/gfx_rect.o
 .data          0x00000000        0x0 build/default/production/_ext/1026407831/gfx_rect.o
 .bss           0x00000000        0x0 build/default/production/_ext/1026407831/gfx_rect.o
 .reginfo       0x00000000       0x18 build/default/production/_ext/1026407831/gfx_rect.o
 .text          0x00000000        0x0 build/default/production/_ext/1026407831/gfx_util.o
 .data          0x00000000        0x0 build/default/production/_ext/1026407831/gfx_util.o
 .bss           0x00000000        0x0 build/default/production/_ext/1026407831/gfx_util.o
 .reginfo       0x00000000       0x18 build/default/production/_ext/1026407831/gfx_util.o
 .text.GFX_UtilSizeToOrientedSpace
                0x00000000       0x30 build/default/production/_ext/1026407831/gfx_util.o
 .text.GFX_UtilSortPointsX
                0x00000000       0x30 build/default/production/_ext/1026407831/gfx_util.o
 .text.GFX_UtilSortPointsY
                0x00000000       0x30 build/default/production/_ext/1026407831/gfx_util.o
 .text.GFX_UtilGetXGivenYOnLine
                0x00000000       0x44 build/default/production/_ext/1026407831/gfx_util.o
 .text.GFX_UtilGetYGivenXOnLine
                0x00000000       0x44 build/default/production/_ext/1026407831/gfx_util.o
 .text          0x00000000        0x0 build/default/production/_ext/1026407831/gfx_set.o
 .data          0x00000000        0x0 build/default/production/_ext/1026407831/gfx_set.o
 .bss           0x00000000        0x0 build/default/production/_ext/1026407831/gfx_set.o
 .reginfo       0x00000000       0x18 build/default/production/_ext/1026407831/gfx_set.o
 .text.set_drawAntialias
                0x00000000       0x30 build/default/production/_ext/1026407831/gfx_set.o
 .text          0x00000000        0x0 build/default/production/_ext/1026407831/gfx_color_blend.o
 .data          0x00000000        0x0 build/default/production/_ext/1026407831/gfx_color_blend.o
 .bss           0x00000000        0x0 build/default/production/_ext/1026407831/gfx_color_blend.o
 .reginfo       0x00000000       0x18 build/default/production/_ext/1026407831/gfx_color_blend.o
 .text          0x00000000        0x0 build/default/production/_ext/1026407831/gfx_color_convert.o
 .bss           0x00000000        0x0 build/default/production/_ext/1026407831/gfx_color_convert.o
 .reginfo       0x00000000       0x18 build/default/production/_ext/1026407831/gfx_color_convert.o
 .text          0x00000000        0x0 build/default/production/_ext/1026407831/gfx_color_lerp.o
 .bss           0x00000000        0x0 build/default/production/_ext/1026407831/gfx_color_lerp.o
 .reginfo       0x00000000       0x18 build/default/production/_ext/1026407831/gfx_color_lerp.o
 .text          0x00000000        0x0 build/default/production/_ext/1026407831/gfx_color_value.o
 .data          0x00000000        0x0 build/default/production/_ext/1026407831/gfx_color_value.o
 .bss           0x00000000        0x0 build/default/production/_ext/1026407831/gfx_color_value.o
 .reginfo       0x00000000       0x18 build/default/production/_ext/1026407831/gfx_color_value.o
 .text.GFX_ColorValue
                0x00000000       0x44 build/default/production/_ext/1026407831/gfx_color_value.o
 .rodata        0x00000000       0x48 build/default/production/_ext/1026407831/gfx_color_value.o
 .text          0x00000000        0x0 build/default/production/_ext/1026407831/gfx_draw_arc.o
 .data          0x00000000        0x0 build/default/production/_ext/1026407831/gfx_draw_arc.o
 .bss           0x00000000        0x0 build/default/production/_ext/1026407831/gfx_draw_arc.o
 .reginfo       0x00000000       0x18 build/default/production/_ext/1026407831/gfx_draw_arc.o
 .text.cpuDrawArc_Line
                0x00000000       0xb8 build/default/production/_ext/1026407831/gfx_draw_arc.o
 .text          0x00000000        0x0 build/default/production/_ext/1026407831/gfx_draw_blit.o
 .data          0x00000000        0x0 build/default/production/_ext/1026407831/gfx_draw_blit.o
 .bss           0x00000000        0x0 build/default/production/_ext/1026407831/gfx_draw_blit.o
 .reginfo       0x00000000       0x18 build/default/production/_ext/1026407831/gfx_draw_blit.o
 .text          0x00000000        0x0 build/default/production/_ext/1026407831/gfx_draw_circle.o
 .data          0x00000000        0x0 build/default/production/_ext/1026407831/gfx_draw_circle.o
 .bss           0x00000000        0x0 build/default/production/_ext/1026407831/gfx_draw_circle.o
 .reginfo       0x00000000       0x18 build/default/production/_ext/1026407831/gfx_draw_circle.o
 .text.GFX_DrawCircle
                0x00000000      0x1bc build/default/production/_ext/1026407831/gfx_draw_circle.o
 .text          0x00000000        0x0 build/default/production/_ext/1026407831/gfx_draw_ellipse.o
 .data          0x00000000        0x0 build/default/production/_ext/1026407831/gfx_draw_ellipse.o
 .bss           0x00000000        0x0 build/default/production/_ext/1026407831/gfx_draw_ellipse.o
 .reginfo       0x00000000       0x18 build/default/production/_ext/1026407831/gfx_draw_ellipse.o
 .text.GFX_DrawEllipse
                0x00000000      0x1e8 build/default/production/_ext/1026407831/gfx_draw_ellipse.o
 .text          0x00000000        0x0 build/default/production/_ext/1026407831/gfx_draw_line.o
 .data          0x00000000        0x0 build/default/production/_ext/1026407831/gfx_draw_line.o
 .bss           0x00000000        0x0 build/default/production/_ext/1026407831/gfx_draw_line.o
 .reginfo       0x00000000       0x18 build/default/production/_ext/1026407831/gfx_draw_line.o
 .text.cpuDrawLine_Gradient
                0x00000000        0x8 build/default/production/_ext/1026407831/gfx_draw_line.o
 .text.cpuDrawLine_Gradient_AA
                0x00000000        0x8 build/default/production/_ext/1026407831/gfx_draw_line.o
 .text          0x00000000        0x0 build/default/production/_ext/1026407831/gfx_draw_pixel.o
 .data          0x00000000        0x0 build/default/production/_ext/1026407831/gfx_draw_pixel.o
 .bss           0x00000000        0x0 build/default/production/_ext/1026407831/gfx_draw_pixel.o
 .reginfo       0x00000000       0x18 build/default/production/_ext/1026407831/gfx_draw_pixel.o
 .text          0x00000000        0x0 build/default/production/_ext/1026407831/gfx_draw_rect.o
 .data          0x00000000        0x0 build/default/production/_ext/1026407831/gfx_draw_rect.o
 .bss           0x00000000        0x0 build/default/production/_ext/1026407831/gfx_draw_rect.o
 .reginfo       0x00000000       0x18 build/default/production/_ext/1026407831/gfx_draw_rect.o
 .text.cpuDrawRect_Gradient_Quad
                0x00000000        0x8 build/default/production/_ext/1026407831/gfx_draw_rect.o
 .text.cpuDrawRect_Gradient_Bi_AA
                0x00000000        0x8 build/default/production/_ext/1026407831/gfx_draw_rect.o
 .text.cpuDrawRect_Gradient_Quad_AA
                0x00000000        0x8 build/default/production/_ext/1026407831/gfx_draw_rect.o
 .text          0x00000000        0x0 build/default/production/_ext/1026407831/gfx_draw_stretchblit.o
 .data          0x00000000        0x0 build/default/production/_ext/1026407831/gfx_draw_stretchblit.o
 .bss           0x00000000        0x0 build/default/production/_ext/1026407831/gfx_draw_stretchblit.o
 .reginfo       0x00000000       0x18 build/default/production/_ext/1026407831/gfx_draw_stretchblit.o
 .text.GFX_DrawStretchBlit
                0x00000000      0x1dc build/default/production/_ext/1026407831/gfx_draw_stretchblit.o
 .text          0x00000000        0x0 build/default/production/_ext/1026407831/gfx_math.o
 .data          0x00000000        0x0 build/default/production/_ext/1026407831/gfx_math.o
 .bss           0x00000000        0x0 build/default/production/_ext/1026407831/gfx_math.o
 .reginfo       0x00000000       0x18 build/default/production/_ext/1026407831/gfx_math.o
 .text.GFX_Normalize360
                0x00000000       0x2c build/default/production/_ext/1026407831/gfx_math.o
 .text.GFX_Atan
                0x00000000       0x1c build/default/production/_ext/1026407831/gfx_math.o
 .text.GFX_Minf
                0x00000000       0x40 build/default/production/_ext/1026407831/gfx_math.o
 .text.GFX_Maxf
                0x00000000       0x44 build/default/production/_ext/1026407831/gfx_math.o
 .text.GFX_Clampi
                0x00000000       0x20 build/default/production/_ext/1026407831/gfx_math.o
 .text.GFX_Clampf
                0x00000000       0x64 build/default/production/_ext/1026407831/gfx_math.o
 .text.GFX_PercentOfDec
                0x00000000       0x88 build/default/production/_ext/1026407831/gfx_math.o
 .text.GFX_ScaleIntegerSigned
                0x00000000       0x70 build/default/production/_ext/1026407831/gfx_math.o
 .text.GFX_AbsoluteValue
                0x00000000       0x14 build/default/production/_ext/1026407831/gfx_math.o
 .text.GFX_DivideRounding
                0x00000000       0x90 build/default/production/_ext/1026407831/gfx_math.o
 .text          0x00000000        0x0 build/default/production/_ext/360842870/sys_dma.o
 .data          0x00000000        0x0 build/default/production/_ext/360842870/sys_dma.o
 .bss           0x00000000        0x0 build/default/production/_ext/360842870/sys_dma.o
 .reginfo       0x00000000       0x18 build/default/production/_ext/360842870/sys_dma.o
 .text.SYS_DMA_ChannelRelease
                0x00000000      0x16c build/default/production/_ext/360842870/sys_dma.o
 .text.SYS_DMA_ChannelSetupMatchAbortMode
                0x00000000       0x5c build/default/production/_ext/360842870/sys_dma.o
 .text.SYS_DMA_ChannelCRCSet
                0x00000000       0xe4 build/default/production/_ext/360842870/sys_dma.o
 .text.SYS_DMA_ChannelCRCGet
                0x00000000       0x14 build/default/production/_ext/360842870/sys_dma.o
 .text.SYS_DMA_ChannelDisable
                0x00000000       0x38 build/default/production/_ext/360842870/sys_dma.o
 .text.SYS_DMA_ChannelTransferSet
                0x00000000      0x154 build/default/production/_ext/360842870/sys_dma.o
 .text.SYS_DMA_ChannelSourceTransferredSizeGet
                0x00000000       0x34 build/default/production/_ext/360842870/sys_dma.o
 .text.SYS_DMA_ChannelDestinationTransferredSizeGet
                0x00000000       0x34 build/default/production/_ext/360842870/sys_dma.o
 .text.SYS_DMA_ChannelTransferEventHandlerSet
                0x00000000       0x20 build/default/production/_ext/360842870/sys_dma.o
 .text.SYS_DMA_ChannelErrorGet
                0x00000000        0x8 build/default/production/_ext/360842870/sys_dma.o
 .text.SYS_DMA_ChannelForceAbort
                0x00000000       0x38 build/default/production/_ext/360842870/sys_dma.o
 .text.SYS_DMA_ChannelAbortEventSet
                0x00000000       0x70 build/default/production/_ext/360842870/sys_dma.o
 .text.SYS_DMA_ChannelIsBusy
                0x00000000       0x30 build/default/production/_ext/360842870/sys_dma.o
 .text.SYS_DMA_IsBusy
                0x00000000       0x10 build/default/production/_ext/360842870/sys_dma.o
 .text          0x00000000        0x0 build/default/production/_ext/1691207160/sys_input.o
 .data          0x00000000        0x0 build/default/production/_ext/1691207160/sys_input.o
 .bss           0x00000000        0x0 build/default/production/_ext/1691207160/sys_input.o
 .reginfo       0x00000000       0x18 build/default/production/_ext/1691207160/sys_input.o
 .text.SYS_INP_RemoveListener
                0x00000000       0x40 build/default/production/_ext/1691207160/sys_input.o
 .text.SYS_INP_InjectKeyDown
                0x00000000       0x3c build/default/production/_ext/1691207160/sys_input.o
 .text.SYS_INP_InjectKeyUp
                0x00000000       0x40 build/default/production/_ext/1691207160/sys_input.o
 .text.SYS_INP_InjectMouseButtonDown
                0x00000000       0x40 build/default/production/_ext/1691207160/sys_input.o
 .text.SYS_INP_InjectMouseButtonUp
                0x00000000       0x40 build/default/production/_ext/1691207160/sys_input.o
 .text.SYS_INP_InjectMouseMove
                0x00000000       0x44 build/default/production/_ext/1691207160/sys_input.o
 .text.SYS_INP_InjectFlickGesture
                0x00000000       0x4c build/default/production/_ext/1691207160/sys_input.o
 .text.SYS_INP_InjectPinchGesture
                0x00000000       0x4c build/default/production/_ext/1691207160/sys_input.o
 .text.SYS_INP_InjectStretchGesture
                0x00000000       0x4c build/default/production/_ext/1691207160/sys_input.o
 .text.SYS_INP_InjectRotateGesture
                0x00000000       0x54 build/default/production/_ext/1691207160/sys_input.o
 .text          0x00000000        0x0 build/default/production/_ext/1691207160/sys_input_listener.o
 .data          0x00000000        0x0 build/default/production/_ext/1691207160/sys_input_listener.o
 .bss           0x00000000        0x0 build/default/production/_ext/1691207160/sys_input_listener.o
 .reginfo       0x00000000       0x18 build/default/production/_ext/1691207160/sys_input_listener.o
 .text.defaultKeyDownHandler
                0x00000000        0x8 build/default/production/_ext/1691207160/sys_input_listener.o
 .text.defaultKeyUpHandler
                0x00000000        0x8 build/default/production/_ext/1691207160/sys_input_listener.o
 .text.defaultMouseMoveHandler
                0x00000000        0x8 build/default/production/_ext/1691207160/sys_input_listener.o
 .text.defaultMouseButtonHandler
                0x00000000        0x8 build/default/production/_ext/1691207160/sys_input_listener.o
 .text.defaultTouchStateHandler
                0x00000000        0x8 build/default/production/_ext/1691207160/sys_input_listener.o
 .text.defaultTouchMoveHandler
                0x00000000        0x8 build/default/production/_ext/1691207160/sys_input_listener.o
 .text.defaultFlickGestureHandler
                0x00000000        0x8 build/default/production/_ext/1691207160/sys_input_listener.o
 .text.defaultPinchEventHandler
                0x00000000        0x8 build/default/production/_ext/1691207160/sys_input_listener.o
 .text.defaultStretchEventHandler
                0x00000000        0x8 build/default/production/_ext/1691207160/sys_input_listener.o
 .text.defaultRotateEventHandler
                0x00000000        0x8 build/default/production/_ext/1691207160/sys_input_listener.o
 .text.SYS_INP_ListenerInit
                0x00000000       0x8c build/default/production/_ext/1691207160/sys_input_listener.o
 .text          0x00000000        0x0 build/default/production/_ext/549570029/sys_int_pic32.o
 .data          0x00000000        0x0 build/default/production/_ext/549570029/sys_int_pic32.o
 .bss           0x00000000        0x0 build/default/production/_ext/549570029/sys_int_pic32.o
 .reginfo       0x00000000       0x18 build/default/production/_ext/549570029/sys_int_pic32.o
 .text.SYS_INT_StatusGetAndDisable
                0x00000000       0x1c build/default/production/_ext/549570029/sys_int_pic32.o
 .text.SYS_INT_StatusRestore
                0x00000000       0x1c build/default/production/_ext/549570029/sys_int_pic32.o
 .text.SYS_INT_Disable
                0x00000000       0x20 build/default/production/_ext/549570029/sys_int_pic32.o
 .text          0x00000000        0x0 build/default/production/_ext/1988394548/drv_gfx_lcc_generic.o
 .data          0x00000000        0x0 build/default/production/_ext/1988394548/drv_gfx_lcc_generic.o
 .bss           0x00000000        0x0 build/default/production/_ext/1988394548/drv_gfx_lcc_generic.o
 .reginfo       0x00000000       0x18 build/default/production/_ext/1988394548/drv_gfx_lcc_generic.o
 .text          0x00000000        0x0 build/default/production/_ext/458109090/libaria_harmony.o
 .data          0x00000000        0x0 build/default/production/_ext/458109090/libaria_harmony.o
 .bss           0x00000000        0x0 build/default/production/_ext/458109090/libaria_harmony.o
 .reginfo       0x00000000       0x18 build/default/production/_ext/458109090/libaria_harmony.o
 .text          0x00000000        0x0 build/default/production/_ext/458109090/libaria_init.o
 .data          0x00000000        0x0 build/default/production/_ext/458109090/libaria_init.o
 .bss           0x00000000        0x0 build/default/production/_ext/458109090/libaria_init.o
 .reginfo       0x00000000       0x18 build/default/production/_ext/458109090/libaria_init.o
 .text          0x00000000        0x0 build/default/production/_ext/458109090/libaria_events.o
 .data          0x00000000        0x0 build/default/production/_ext/458109090/libaria_events.o
 .bss           0x00000000        0x0 build/default/production/_ext/458109090/libaria_events.o
 .reginfo       0x00000000       0x18 build/default/production/_ext/458109090/libaria_events.o
 .text          0x00000000        0x0 build/default/production/_ext/458109090/libaria_macros.o
 .data          0x00000000        0x0 build/default/production/_ext/458109090/libaria_macros.o
 .bss           0x00000000        0x0 build/default/production/_ext/458109090/libaria_macros.o
 .reginfo       0x00000000       0x18 build/default/production/_ext/458109090/libaria_macros.o
 .text          0x00000000        0x0 build/default/production/_ext/2065038297/gfx_display_def.o
 .bss           0x00000000        0x0 build/default/production/_ext/2065038297/gfx_display_def.o
 .reginfo       0x00000000       0x18 build/default/production/_ext/2065038297/gfx_display_def.o
 .text          0x00000000        0x0 build/default/production/_ext/2065038297/gfx_driver_def.o
 .data          0x00000000        0x0 build/default/production/_ext/2065038297/gfx_driver_def.o
 .bss           0x00000000        0x0 build/default/production/_ext/2065038297/gfx_driver_def.o
 .reginfo       0x00000000       0x18 build/default/production/_ext/2065038297/gfx_driver_def.o
 .text          0x00000000        0x0 build/default/production/_ext/2065038297/gfx_processor_def.o
 .data          0x00000000        0x0 build/default/production/_ext/2065038297/gfx_processor_def.o
 .bss           0x00000000        0x0 build/default/production/_ext/2065038297/gfx_processor_def.o
 .reginfo       0x00000000       0x18 build/default/production/_ext/2065038297/gfx_processor_def.o
 .text.GFX_InitializeProcessorList
                0x00000000        0x8 build/default/production/_ext/2065038297/gfx_processor_def.o
 .text          0x00000000        0x0 build/default/production/_ext/639803181/sys_clk_pic32mz.o
 .data          0x00000000        0x0 build/default/production/_ext/639803181/sys_clk_pic32mz.o
 .bss           0x00000000        0x0 build/default/production/_ext/639803181/sys_clk_pic32mz.o
 .reginfo       0x00000000       0x18 build/default/production/_ext/639803181/sys_clk_pic32mz.o
 .text.SYS_CLK_ReferenceFrequencyGet
                0x00000000       0x1c build/default/production/_ext/639803181/sys_clk_pic32mz.o
 .text.SYS_CLK_SecondaryOscillatorEnable
                0x00000000       0x48 build/default/production/_ext/639803181/sys_clk_pic32mz.o
 .text.SYS_CLK_SecondaryOscillatorDisable
                0x00000000       0x48 build/default/production/_ext/639803181/sys_clk_pic32mz.o
 .text.SYS_CLK_SecondaryOscillatorIsEnabled
                0x00000000       0x10 build/default/production/_ext/639803181/sys_clk_pic32mz.o
 .text          0x00000000        0x0 build/default/production/_ext/340578644/sys_devcon.o
 .data          0x00000000        0x0 build/default/production/_ext/340578644/sys_devcon.o
 .bss           0x00000000        0x0 build/default/production/_ext/340578644/sys_devcon.o
 .reginfo       0x00000000       0x18 build/default/production/_ext/340578644/sys_devcon.o
 .text.SYS_DEVCON_Reinitialize
                0x00000000       0x10 build/default/production/_ext/340578644/sys_devcon.o
 .text.SYS_DEVCON_Deinitialize
                0x00000000        0x8 build/default/production/_ext/340578644/sys_devcon.o
 .text.SYS_DEVCON_Status
                0x00000000        0x8 build/default/production/_ext/340578644/sys_devcon.o
 .text.SYS_DEVCON_Tasks
                0x00000000        0x8 build/default/production/_ext/340578644/sys_devcon.o
 .text.SYS_DEVCON_JTAGEnable
                0x00000000       0x18 build/default/production/_ext/340578644/sys_devcon.o
 .text.SYS_DEVCON_JTAGDisable
                0x00000000       0x18 build/default/production/_ext/340578644/sys_devcon.o
 .text.SYS_DEVCON_TraceEnable
                0x00000000       0x1c build/default/production/_ext/340578644/sys_devcon.o
 .text.SYS_DEVCON_TraceDisable
                0x00000000       0x18 build/default/production/_ext/340578644/sys_devcon.o
 .text.SYS_DEVCON_PowerModeEnter
                0x00000000       0x44 build/default/production/_ext/340578644/sys_devcon.o
 .text          0x00000000        0x0 build/default/production/_ext/340578644/sys_devcon_pic32mz.o
 .data          0x00000000        0x0 build/default/production/_ext/340578644/sys_devcon_pic32mz.o
 .bss           0x00000000        0x0 build/default/production/_ext/340578644/sys_devcon_pic32mz.o
 .reginfo       0x00000000       0x18 build/default/production/_ext/340578644/sys_devcon_pic32mz.o
 .text.SYS_DEVCON_CacheInit
                0x00000000       0x24 build/default/production/_ext/340578644/sys_devcon_pic32mz.o
 .text.SYS_DEVCON_CacheFlush
                0x00000000       0x24 build/default/production/_ext/340578644/sys_devcon_pic32mz.o
 .text.SYS_DEVCON_DataCacheFlush
                0x00000000       0x24 build/default/production/_ext/340578644/sys_devcon_pic32mz.o
 .text.SYS_DEVCON_InstructionCacheFlush
                0x00000000       0x24 build/default/production/_ext/340578644/sys_devcon_pic32mz.o
 .text.SYS_DEVCON_CacheClean
                0x00000000       0x24 build/default/production/_ext/340578644/sys_devcon_pic32mz.o
 .text.SYS_DEVCON_DataCacheClean
                0x00000000       0x24 build/default/production/_ext/340578644/sys_devcon_pic32mz.o
 .text.SYS_DEVCON_DataCacheInvalidate
                0x00000000       0x24 build/default/production/_ext/340578644/sys_devcon_pic32mz.o
 .text.SYS_DEVCON_InstructionCacheInvalidate
                0x00000000       0x24 build/default/production/_ext/340578644/sys_devcon_pic32mz.o
 .text.SYS_DEVCON_InstructionCacheLock
                0x00000000       0x24 build/default/production/_ext/340578644/sys_devcon_pic32mz.o
 .text.SYS_DEVCON_DataCacheLock
                0x00000000       0x24 build/default/production/_ext/340578644/sys_devcon_pic32mz.o
 .text.SYS_DEVCON_CacheSync
                0x00000000       0x24 build/default/production/_ext/340578644/sys_devcon_pic32mz.o
 .text.SYS_DEVCON_CacheCoherencySet
                0x00000000       0x28 build/default/production/_ext/340578644/sys_devcon_pic32mz.o
 .text.SYS_DEVCON_CacheCoherencyGet
                0x00000000       0x1c build/default/production/_ext/340578644/sys_devcon_pic32mz.o
 .text.SYS_DEVCON_DataCacheAssociativityGet
                0x00000000       0x24 build/default/production/_ext/340578644/sys_devcon_pic32mz.o
 .text.SYS_DEVCON_InstructionCacheAssociativityGet
                0x00000000       0x24 build/default/production/_ext/340578644/sys_devcon_pic32mz.o
 .text.SYS_DEVCON_DataCacheLineSizeGet
                0x00000000       0x24 build/default/production/_ext/340578644/sys_devcon_pic32mz.o
 .text.SYS_DEVCON_InstructionCacheLineSizeGet
                0x00000000       0x24 build/default/production/_ext/340578644/sys_devcon_pic32mz.o
 .text.SYS_DEVCON_DataCacheLinesPerWayGet
                0x00000000       0x24 build/default/production/_ext/340578644/sys_devcon_pic32mz.o
 .text.SYS_DEVCON_InstructionCacheLinesPerWayGet
                0x00000000       0x24 build/default/production/_ext/340578644/sys_devcon_pic32mz.o
 .text.SYS_DEVCON_DataCacheSizeGet
                0x00000000       0x24 build/default/production/_ext/340578644/sys_devcon_pic32mz.o
 .text.SYS_DEVCON_InstructionCacheSizeGet
                0x00000000       0x24 build/default/production/_ext/340578644/sys_devcon_pic32mz.o
 .text          0x00000000      0x6bc build/default/production/_ext/340578644/sys_devcon_cache_pic32mz.o
 .data          0x00000000        0x0 build/default/production/_ext/340578644/sys_devcon_cache_pic32mz.o
 .bss           0x00000000        0x0 build/default/production/_ext/340578644/sys_devcon_cache_pic32mz.o
 .reginfo       0x00000000       0x18 build/default/production/_ext/340578644/sys_devcon_cache_pic32mz.o
 .debug_line    0x00000000      0x220 build/default/production/_ext/340578644/sys_devcon_cache_pic32mz.o
 .debug_info    0x00000000       0xcd build/default/production/_ext/340578644/sys_devcon_cache_pic32mz.o
 .debug_abbrev  0x00000000       0x14 build/default/production/_ext/340578644/sys_devcon_cache_pic32mz.o
 .debug_aranges
                0x00000000       0x20 build/default/production/_ext/340578644/sys_devcon_cache_pic32mz.o
 .text          0x00000000        0x0 build/default/production/_ext/822048611/sys_ports_static.o
 .data          0x00000000        0x0 build/default/production/_ext/822048611/sys_ports_static.o
 .bss           0x00000000        0x0 build/default/production/_ext/822048611/sys_ports_static.o
 .reginfo       0x00000000       0x18 build/default/production/_ext/822048611/sys_ports_static.o
 .text.SYS_PORTS_Read
                0x00000000       0x24 build/default/production/_ext/822048611/sys_ports_static.o
 .text.SYS_PORTS_Write
                0x00000000       0x28 build/default/production/_ext/822048611/sys_ports_static.o
 .text.SYS_PORTS_LatchedGet
                0x00000000        0x8 build/default/production/_ext/822048611/sys_ports_static.o
 .text.SYS_PORTS_Set
                0x00000000       0x2c build/default/production/_ext/822048611/sys_ports_static.o
 .text.SYS_PORTS_Clear
                0x00000000       0x28 build/default/production/_ext/822048611/sys_ports_static.o
 .text.SYS_PORTS_DirectionSelect
                0x00000000       0x54 build/default/production/_ext/822048611/sys_ports_static.o
 .text.SYS_PORTS_DirectionGet
                0x00000000       0x24 build/default/production/_ext/822048611/sys_ports_static.o
 .text.SYS_PORTS_Toggle
                0x00000000       0x28 build/default/production/_ext/822048611/sys_ports_static.o
 .text.SYS_PORTS_OpenDrainEnable
                0x00000000       0x28 build/default/production/_ext/822048611/sys_ports_static.o
 .text.SYS_PORTS_OpenDrainDisable
                0x00000000       0x28 build/default/production/_ext/822048611/sys_ports_static.o
 .text.SYS_PORTS_InterruptStatusGet
                0x00000000        0x8 build/default/production/_ext/822048611/sys_ports_static.o
 .text.SYS_PORTS_ChangeNotificationGlobalEnable
                0x00000000        0x8 build/default/production/_ext/822048611/sys_ports_static.o
 .text.SYS_PORTS_ChangeNotificationGlobalDisable
                0x00000000        0x8 build/default/production/_ext/822048611/sys_ports_static.o
 .text.SYS_PORTS_GlobalChangeNotificationDisable
                0x00000000        0x8 build/default/production/_ext/822048611/sys_ports_static.o
 .text.SYS_PORTS_ChangeNotificationEnable
                0x00000000        0x8 build/default/production/_ext/822048611/sys_ports_static.o
 .text.SYS_PORTS_ChangeNotificationDisable
                0x00000000        0x8 build/default/production/_ext/822048611/sys_ports_static.o
 .text.SYS_PORTS_ChangeNotificationInIdleModeEnable
                0x00000000        0x8 build/default/production/_ext/822048611/sys_ports_static.o
 .text.SYS_PORTS_ChangeNotificationInIdleModeDisable
                0x00000000        0x8 build/default/production/_ext/822048611/sys_ports_static.o
 .text.SYS_PORTS_ChangeNotificationPullUpEnable
                0x00000000        0x8 build/default/production/_ext/822048611/sys_ports_static.o
 .text.SYS_PORTS_ChangeNotificationPullUpDisable
                0x00000000        0x8 build/default/production/_ext/822048611/sys_ports_static.o
 .text.SYS_PORTS_PinModeSelect
                0x00000000       0x64 build/default/production/_ext/822048611/sys_ports_static.o
 .text.SYS_PORTS_PinWrite
                0x00000000       0x60 build/default/production/_ext/822048611/sys_ports_static.o
 .text.SYS_PORTS_PinLatchedGet
                0x00000000        0x8 build/default/production/_ext/822048611/sys_ports_static.o
 .text.SYS_PORTS_PinRead
                0x00000000       0x28 build/default/production/_ext/822048611/sys_ports_static.o
 .text.SYS_PORTS_PinToggle
                0x00000000       0x30 build/default/production/_ext/822048611/sys_ports_static.o
 .text.SYS_PORTS_PinSet
                0x00000000       0x30 build/default/production/_ext/822048611/sys_ports_static.o
 .text.SYS_PORTS_PinClear
                0x00000000       0x30 build/default/production/_ext/822048611/sys_ports_static.o
 .text.SYS_PORTS_PinDirectionSelect
                0x00000000       0x60 build/default/production/_ext/822048611/sys_ports_static.o
 .text.SYS_PORTS_PinOpenDrainEnable
                0x00000000       0x30 build/default/production/_ext/822048611/sys_ports_static.o
 .text.SYS_PORTS_PinOpenDrainDisable
                0x00000000       0x30 build/default/production/_ext/822048611/sys_ports_static.o
 .text.SYS_PORTS_PinPullUpEnable
                0x00000000        0x8 build/default/production/_ext/822048611/sys_ports_static.o
 .text.SYS_PORTS_PinPullUpDisable
                0x00000000        0x8 build/default/production/_ext/822048611/sys_ports_static.o
 .text.SYS_PORTS_PinPullDownEnable
                0x00000000        0x8 build/default/production/_ext/822048611/sys_ports_static.o
 .text.SYS_PORTS_PinPullDownDisable
                0x00000000        0x8 build/default/production/_ext/822048611/sys_ports_static.o
 .text.SYS_PORTS_InterruptEnable
                0x00000000        0x8 build/default/production/_ext/822048611/sys_ports_static.o
 .text.SYS_PORTS_RemapInput
                0x00000000       0x5c build/default/production/_ext/822048611/sys_ports_static.o
 .text.SYS_PORTS_RemapOutput
                0x00000000       0x68 build/default/production/_ext/822048611/sys_ports_static.o
 .text          0x00000000        0x0 build/default/production/_ext/494920387/sys_memory_ddr_static.o
 .data          0x00000000        0x0 build/default/production/_ext/494920387/sys_memory_ddr_static.o
 .bss           0x00000000        0x0 build/default/production/_ext/494920387/sys_memory_ddr_static.o
 .reginfo       0x00000000       0x18 build/default/production/_ext/494920387/sys_memory_ddr_static.o
 .text          0x00000000        0x0 build/default/production/_ext/1541531744/sys_memory_static.o
 .data          0x00000000        0x0 build/default/production/_ext/1541531744/sys_memory_static.o
 .bss           0x00000000        0x0 build/default/production/_ext/1541531744/sys_memory_static.o
 .reginfo       0x00000000       0x18 build/default/production/_ext/1541531744/sys_memory_static.o
 .text          0x00000000        0x0 build/default/production/_ext/74298950/bsp.o
 .data          0x00000000        0x0 build/default/production/_ext/74298950/bsp.o
 .bss           0x00000000        0x0 build/default/production/_ext/74298950/bsp.o
 .reginfo       0x00000000       0x18 build/default/production/_ext/74298950/bsp.o
 .text          0x00000000        0x0 build/default/production/_ext/1688732426/system_init.o
 .data          0x00000000        0x0 build/default/production/_ext/1688732426/system_init.o
 .bss           0x00000000        0x0 build/default/production/_ext/1688732426/system_init.o
 .reginfo       0x00000000       0x18 build/default/production/_ext/1688732426/system_init.o
 .text          0x00000000        0x0 build/default/production/_ext/1688732426/system_interrupt.o
 .data          0x00000000        0x0 build/default/production/_ext/1688732426/system_interrupt.o
 .bss           0x00000000        0x0 build/default/production/_ext/1688732426/system_interrupt.o
 .reginfo       0x00000000       0x18 build/default/production/_ext/1688732426/system_interrupt.o
 .text          0x00000000        0x0 build/default/production/_ext/1688732426/system_exceptions.o
 .data          0x00000000        0x0 build/default/production/_ext/1688732426/system_exceptions.o
 .bss           0x00000000        0x0 build/default/production/_ext/1688732426/system_exceptions.o
 .reginfo       0x00000000       0x18 build/default/production/_ext/1688732426/system_exceptions.o
 .text          0x00000000        0x0 build/default/production/_ext/1688732426/system_tasks.o
 .data          0x00000000        0x0 build/default/production/_ext/1688732426/system_tasks.o
 .bss           0x00000000        0x0 build/default/production/_ext/1688732426/system_tasks.o
 .reginfo       0x00000000       0x18 build/default/production/_ext/1688732426/system_tasks.o
 .text          0x00000000        0x0 build/default/production/_ext/259038627/gfx_assets.o
 .bss           0x00000000        0x0 build/default/production/_ext/259038627/gfx_assets.o
 .reginfo       0x00000000       0x18 build/default/production/_ext/259038627/gfx_assets.o
 .text          0x00000000        0x0 f:/software_installations/mplab_xc32/bin/bin/../../lib/gcc/pic32mx/4.8.3/../../../../pic32mx/lib/./proc/32MZ2064DAG176\default_isr_vectors.o
 .data          0x00000000        0x0 f:/software_installations/mplab_xc32/bin/bin/../../lib/gcc/pic32mx/4.8.3/../../../../pic32mx/lib/./proc/32MZ2064DAG176\default_isr_vectors.o
 .bss           0x00000000        0x0 f:/software_installations/mplab_xc32/bin/bin/../../lib/gcc/pic32mx/4.8.3/../../../../pic32mx/lib/./proc/32MZ2064DAG176\default_isr_vectors.o
 .reginfo       0x00000000       0x18 f:/software_installations/mplab_xc32/bin/bin/../../lib/gcc/pic32mx/4.8.3/../../../../pic32mx/lib/./proc/32MZ2064DAG176\default_isr_vectors.o
 .discard       0x00000000        0x4 f:/software_installations/mplab_xc32/bin/bin/../../lib/gcc/pic32mx/4.8.3/../../../../pic32mx/lib/./proc/32MZ2064DAG176\default_isr_vectors.o
 .data          0x00000000        0x0 f:/software_installations/mplab_xc32/bin/bin/../../lib/gcc/pic32mx/4.8.3/../../../../pic32mx/lib\pic32_software_reset.o
 .bss           0x00000000        0x0 f:/software_installations/mplab_xc32/bin/bin/../../lib/gcc/pic32mx/4.8.3/../../../../pic32mx/lib\pic32_software_reset.o
 .reginfo       0x00000000       0x18 f:/software_installations/mplab_xc32/bin/bin/../../lib/gcc/pic32mx/4.8.3/../../../../pic32mx/lib\pic32_software_reset.o
 .text          0x00000000        0x0 f:/software_installations/mplab_xc32/bin/bin/../../lib/gcc/pic32mx/4.8.3/../../../../pic32mx/lib/./proc/32MZ2064DAG176\processor.o
 .data          0x00000000        0x0 f:/software_installations/mplab_xc32/bin/bin/../../lib/gcc/pic32mx/4.8.3/../../../../pic32mx/lib/./proc/32MZ2064DAG176\processor.o
 .bss           0x00000000        0x0 f:/software_installations/mplab_xc32/bin/bin/../../lib/gcc/pic32mx/4.8.3/../../../../pic32mx/lib/./proc/32MZ2064DAG176\processor.o
 .reginfo       0x00000000       0x18 f:/software_installations/mplab_xc32/bin/bin/../../lib/gcc/pic32mx/4.8.3/../../../../pic32mx/lib/./proc/32MZ2064DAG176\processor.o
 .text          0x00000000        0x0 f:/software_installations/mplab_xc32/bin/bin/../../lib/gcc/pic32mx/4.8.3/../../../../pic32mx/lib/./proc/32MZ2064DAG176\vector_offset_init.o
 .data          0x00000000        0x0 f:/software_installations/mplab_xc32/bin/bin/../../lib/gcc/pic32mx/4.8.3/../../../../pic32mx/lib/./proc/32MZ2064DAG176\vector_offset_init.o
 .bss           0x00000000        0x0 f:/software_installations/mplab_xc32/bin/bin/../../lib/gcc/pic32mx/4.8.3/../../../../pic32mx/lib/./proc/32MZ2064DAG176\vector_offset_init.o
 .reginfo       0x00000000       0x18 f:/software_installations/mplab_xc32/bin/bin/../../lib/gcc/pic32mx/4.8.3/../../../../pic32mx/lib/./proc/32MZ2064DAG176\vector_offset_init.o
 .data          0x00000000        0x0 f:/software_installations/mplab_xc32/bin/bin/../../lib/gcc/pic32mx/4.8.3\libgcc.a(floatunsisf.o)
 .bss           0x00000000        0x0 f:/software_installations/mplab_xc32/bin/bin/../../lib/gcc/pic32mx/4.8.3\libgcc.a(floatunsisf.o)
 .reginfo       0x00000000       0x18 f:/software_installations/mplab_xc32/bin/bin/../../lib/gcc/pic32mx/4.8.3\libgcc.a(floatunsisf.o)
 .data          0x00000000        0x0 f:/software_installations/mplab_xc32/bin/bin/../../lib/gcc/pic32mx/4.8.3/../../../../pic32mx/lib\libpic32.a(memcpy.o)
 .bss           0x00000000        0x0 f:/software_installations/mplab_xc32/bin/bin/../../lib/gcc/pic32mx/4.8.3/../../../../pic32mx/lib\libpic32.a(memcpy.o)
 .reginfo       0x00000000       0x18 f:/software_installations/mplab_xc32/bin/bin/../../lib/gcc/pic32mx/4.8.3/../../../../pic32mx/lib\libpic32.a(memcpy.o)
 .data          0x00000000        0x0 f:/software_installations/mplab_xc32/bin/bin/../../lib/gcc/pic32mx/4.8.3/../../../../pic32mx/lib\libpic32.a(memset.o)
 .bss           0x00000000        0x0 f:/software_installations/mplab_xc32/bin/bin/../../lib/gcc/pic32mx/4.8.3/../../../../pic32mx/lib\libpic32.a(memset.o)
 .reginfo       0x00000000       0x18 f:/software_installations/mplab_xc32/bin/bin/../../lib/gcc/pic32mx/4.8.3/../../../../pic32mx/lib\libpic32.a(memset.o)
 .text          0x00000000      0x120 f:/software_installations/mplab_xc32/bin/bin/../../lib/gcc/pic32mx/4.8.3/../../../../pic32mx/lib\libpic32.a(strcmp.o)
 .data          0x00000000        0x0 f:/software_installations/mplab_xc32/bin/bin/../../lib/gcc/pic32mx/4.8.3/../../../../pic32mx/lib\libpic32.a(strcmp.o)
 .bss           0x00000000        0x0 f:/software_installations/mplab_xc32/bin/bin/../../lib/gcc/pic32mx/4.8.3/../../../../pic32mx/lib\libpic32.a(strcmp.o)
 .reginfo       0x00000000       0x18 f:/software_installations/mplab_xc32/bin/bin/../../lib/gcc/pic32mx/4.8.3/../../../../pic32mx/lib\libpic32.a(strcmp.o)
 .comment       0x00000000       0x1a f:/software_installations/mplab_xc32/bin/bin/../../lib/gcc/pic32mx/4.8.3/../../../../pic32mx/lib\libpic32.a(strcmp.o)
 .data          0x00000000        0x0 f:/software_installations/mplab_xc32/bin/bin/../../lib/gcc/pic32mx/4.8.3/../../../../pic32mx/lib\libpic32.a(strcpy.o)
 .bss           0x00000000        0x0 f:/software_installations/mplab_xc32/bin/bin/../../lib/gcc/pic32mx/4.8.3/../../../../pic32mx/lib\libpic32.a(strcpy.o)
 .reginfo       0x00000000       0x18 f:/software_installations/mplab_xc32/bin/bin/../../lib/gcc/pic32mx/4.8.3/../../../../pic32mx/lib\libpic32.a(strcpy.o)
 .data          0x00000000        0x0 f:/software_installations/mplab_xc32/bin/bin/../../lib/gcc/pic32mx/4.8.3/../../../../pic32mx/lib\libpic32.a(strlen.o)
 .bss           0x00000000        0x0 f:/software_installations/mplab_xc32/bin/bin/../../lib/gcc/pic32mx/4.8.3/../../../../pic32mx/lib\libpic32.a(strlen.o)
 .reginfo       0x00000000       0x18 f:/software_installations/mplab_xc32/bin/bin/../../lib/gcc/pic32mx/4.8.3/../../../../pic32mx/lib\libpic32.a(strlen.o)
 .text          0x00000000        0x0 f:/software_installations/mplab_xc32/bin/bin/../../lib/gcc/pic32mx/4.8.3/../../../../pic32mx/lib\libpic32.a(default-bootstrap-exception-handler.o)
 .data          0x00000000        0x0 f:/software_installations/mplab_xc32/bin/bin/../../lib/gcc/pic32mx/4.8.3/../../../../pic32mx/lib\libpic32.a(default-bootstrap-exception-handler.o)
 .bss           0x00000000        0x0 f:/software_installations/mplab_xc32/bin/bin/../../lib/gcc/pic32mx/4.8.3/../../../../pic32mx/lib\libpic32.a(default-bootstrap-exception-handler.o)
 .reginfo       0x00000000       0x18 f:/software_installations/mplab_xc32/bin/bin/../../lib/gcc/pic32mx/4.8.3/../../../../pic32mx/lib\libpic32.a(default-bootstrap-exception-handler.o)
 .text          0x00000000        0x0 f:/software_installations/mplab_xc32/bin/bin/../../lib/gcc/pic32mx/4.8.3/../../../../pic32mx/lib\libpic32.a(default-on-reset.o)
 .data          0x00000000        0x0 f:/software_installations/mplab_xc32/bin/bin/../../lib/gcc/pic32mx/4.8.3/../../../../pic32mx/lib\libpic32.a(default-on-reset.o)
 .bss           0x00000000        0x0 f:/software_installations/mplab_xc32/bin/bin/../../lib/gcc/pic32mx/4.8.3/../../../../pic32mx/lib\libpic32.a(default-on-reset.o)
 .reginfo       0x00000000       0x18 f:/software_installations/mplab_xc32/bin/bin/../../lib/gcc/pic32mx/4.8.3/../../../../pic32mx/lib\libpic32.a(default-on-reset.o)
 .text          0x00000000        0x0 f:/software_installations/mplab_xc32/bin/bin/../../lib/gcc/pic32mx/4.8.3/../../../../pic32mx/lib\libpic32.a(default-on-bootstrap.o)
 .data          0x00000000        0x0 f:/software_installations/mplab_xc32/bin/bin/../../lib/gcc/pic32mx/4.8.3/../../../../pic32mx/lib\libpic32.a(default-on-bootstrap.o)
 .bss           0x00000000        0x0 f:/software_installations/mplab_xc32/bin/bin/../../lib/gcc/pic32mx/4.8.3/../../../../pic32mx/lib\libpic32.a(default-on-bootstrap.o)
 .reginfo       0x00000000       0x18 f:/software_installations/mplab_xc32/bin/bin/../../lib/gcc/pic32mx/4.8.3/../../../../pic32mx/lib\libpic32.a(default-on-bootstrap.o)
 .data          0x00000000        0x0 f:/software_installations/mplab_xc32/bin/bin/../../lib/gcc/pic32mx/4.8.3/../../../../pic32mx/lib\libpic32.a(default-nmi-handler.o)
 .bss           0x00000000        0x0 f:/software_installations/mplab_xc32/bin/bin/../../lib/gcc/pic32mx/4.8.3/../../../../pic32mx/lib\libpic32.a(default-nmi-handler.o)
 .reginfo       0x00000000       0x18 f:/software_installations/mplab_xc32/bin/bin/../../lib/gcc/pic32mx/4.8.3/../../../../pic32mx/lib\libpic32.a(default-nmi-handler.o)
 .data          0x00000000        0x0 f:/software_installations/mplab_xc32/bin/bin/../../lib/gcc/pic32mx/4.8.3/../../../../pic32mx/lib\libpic32.a(pic32_data_init.o)
 .bss           0x00000000        0x0 f:/software_installations/mplab_xc32/bin/bin/../../lib/gcc/pic32mx/4.8.3/../../../../pic32mx/lib\libpic32.a(pic32_data_init.o)
 .reginfo       0x00000000       0x18 f:/software_installations/mplab_xc32/bin/bin/../../lib/gcc/pic32mx/4.8.3/../../../../pic32mx/lib\libpic32.a(pic32_data_init.o)
 .text          0x00000000        0x0 f:/software_installations/mplab_xc32/bin/bin/../../lib/gcc/pic32mx/4.8.3/../../../../pic32mx/lib\libpic32.a(pic32_init_cache.o)
 .data          0x00000000        0x0 f:/software_installations/mplab_xc32/bin/bin/../../lib/gcc/pic32mx/4.8.3/../../../../pic32mx/lib\libpic32.a(pic32_init_cache.o)
 .bss           0x00000000        0x0 f:/software_installations/mplab_xc32/bin/bin/../../lib/gcc/pic32mx/4.8.3/../../../../pic32mx/lib\libpic32.a(pic32_init_cache.o)
 .reginfo       0x00000000       0x18 f:/software_installations/mplab_xc32/bin/bin/../../lib/gcc/pic32mx/4.8.3/../../../../pic32mx/lib\libpic32.a(pic32_init_cache.o)
 .cache_init.pic32_size_cache
                0x00000000       0x58 f:/software_installations/mplab_xc32/bin/bin/../../lib/gcc/pic32mx/4.8.3/../../../../pic32mx/lib\libpic32.a(pic32_init_cache.o)
 .text          0x00000000        0x0 f:/software_installations/mplab_xc32/bin/bin/../../lib/gcc/pic32mx/4.8.3/../../../../pic32mx/lib\libpic32.a(pic32_init_tlb_ebi_sqi.o)
 .data          0x00000000        0x0 f:/software_installations/mplab_xc32/bin/bin/../../lib/gcc/pic32mx/4.8.3/../../../../pic32mx/lib\libpic32.a(pic32_init_tlb_ebi_sqi.o)
 .bss           0x00000000        0x0 f:/software_installations/mplab_xc32/bin/bin/../../lib/gcc/pic32mx/4.8.3/../../../../pic32mx/lib\libpic32.a(pic32_init_tlb_ebi_sqi.o)
 .reginfo       0x00000000       0x18 f:/software_installations/mplab_xc32/bin/bin/../../lib/gcc/pic32mx/4.8.3/../../../../pic32mx/lib\libpic32.a(pic32_init_tlb_ebi_sqi.o)
 .text          0x00000000        0x0 f:/software_installations/mplab_xc32/bin/bin/../../lib/gcc/pic32mx/4.8.3/../../../../pic32mx/lib\libpic32.a(general-exception.o)
 .data          0x00000000        0x0 f:/software_installations/mplab_xc32/bin/bin/../../lib/gcc/pic32mx/4.8.3/../../../../pic32mx/lib\libpic32.a(general-exception.o)
 .bss           0x00000000        0x0 f:/software_installations/mplab_xc32/bin/bin/../../lib/gcc/pic32mx/4.8.3/../../../../pic32mx/lib\libpic32.a(general-exception.o)
 .reginfo       0x00000000       0x18 f:/software_installations/mplab_xc32/bin/bin/../../lib/gcc/pic32mx/4.8.3/../../../../pic32mx/lib\libpic32.a(general-exception.o)
 .text          0x00000000        0x0 f:/software_installations/mplab_xc32/bin/bin/../../lib/gcc/pic32mx/4.8.3/../../../../pic32mx/lib\libpic32.a(cache-err-exception.o)
 .data          0x00000000        0x0 f:/software_installations/mplab_xc32/bin/bin/../../lib/gcc/pic32mx/4.8.3/../../../../pic32mx/lib\libpic32.a(cache-err-exception.o)
 .bss           0x00000000        0x0 f:/software_installations/mplab_xc32/bin/bin/../../lib/gcc/pic32mx/4.8.3/../../../../pic32mx/lib\libpic32.a(cache-err-exception.o)
 .reginfo       0x00000000       0x18 f:/software_installations/mplab_xc32/bin/bin/../../lib/gcc/pic32mx/4.8.3/../../../../pic32mx/lib\libpic32.a(cache-err-exception.o)
 .text          0x00000000        0x0 f:/software_installations/mplab_xc32/bin/bin/../../lib/gcc/pic32mx/4.8.3/../../../../pic32mx/lib\libpic32.a(simple-tlb-refill-exception.o)
 .data          0x00000000        0x0 f:/software_installations/mplab_xc32/bin/bin/../../lib/gcc/pic32mx/4.8.3/../../../../pic32mx/lib\libpic32.a(simple-tlb-refill-exception.o)
 .bss           0x00000000        0x0 f:/software_installations/mplab_xc32/bin/bin/../../lib/gcc/pic32mx/4.8.3/../../../../pic32mx/lib\libpic32.a(simple-tlb-refill-exception.o)
 .reginfo       0x00000000       0x18 f:/software_installations/mplab_xc32/bin/bin/../../lib/gcc/pic32mx/4.8.3/../../../../pic32mx/lib\libpic32.a(simple-tlb-refill-exception.o)
 .text          0x00000000        0x0 f:/software_installations/mplab_xc32/bin/bin/../../lib/gcc/pic32mx/4.8.3/../../../../pic32mx/lib\libpic32.a(defaultinterrupt.o)
 .data          0x00000000        0x0 f:/software_installations/mplab_xc32/bin/bin/../../lib/gcc/pic32mx/4.8.3/../../../../pic32mx/lib\libpic32.a(defaultinterrupt.o)
 .bss           0x00000000        0x0 f:/software_installations/mplab_xc32/bin/bin/../../lib/gcc/pic32mx/4.8.3/../../../../pic32mx/lib\libpic32.a(defaultinterrupt.o)
 .reginfo       0x00000000       0x18 f:/software_installations/mplab_xc32/bin/bin/../../lib/gcc/pic32mx/4.8.3/../../../../pic32mx/lib\libpic32.a(defaultinterrupt.o)
 .text          0x00000000        0x0 f:/software_installations/mplab_xc32/bin/bin/../../lib/gcc/pic32mx/4.8.3/../../../../pic32mx/lib\libpic32.a(default-cache-err-exception-handler.o)
 .data          0x00000000        0x0 f:/software_installations/mplab_xc32/bin/bin/../../lib/gcc/pic32mx/4.8.3/../../../../pic32mx/lib\libpic32.a(default-cache-err-exception-handler.o)
 .bss           0x00000000        0x0 f:/software_installations/mplab_xc32/bin/bin/../../lib/gcc/pic32mx/4.8.3/../../../../pic32mx/lib\libpic32.a(default-cache-err-exception-handler.o)
 .reginfo       0x00000000       0x18 f:/software_installations/mplab_xc32/bin/bin/../../lib/gcc/pic32mx/4.8.3/../../../../pic32mx/lib\libpic32.a(default-cache-err-exception-handler.o)
 .text          0x00000000        0x0 f:/software_installations/mplab_xc32/bin/bin/../../lib/gcc/pic32mx/4.8.3/../../../../pic32mx/lib\libpic32.a(default-simple-tlb-refill-exception-handler.o)
 .data          0x00000000        0x0 f:/software_installations/mplab_xc32/bin/bin/../../lib/gcc/pic32mx/4.8.3/../../../../pic32mx/lib\libpic32.a(default-simple-tlb-refill-exception-handler.o)
 .bss           0x00000000        0x0 f:/software_installations/mplab_xc32/bin/bin/../../lib/gcc/pic32mx/4.8.3/../../../../pic32mx/lib\libpic32.a(default-simple-tlb-refill-exception-handler.o)
 .reginfo       0x00000000       0x18 f:/software_installations/mplab_xc32/bin/bin/../../lib/gcc/pic32mx/4.8.3/../../../../pic32mx/lib\libpic32.a(default-simple-tlb-refill-exception-handler.o)
 .text          0x00000000        0x0 f:/software_installations/mplab_xc32/bin/bin/../../lib/gcc/pic32mx/4.8.3/../../../../pic32mx/lib\libc.a(fassert.o)
 .data          0x00000000        0x0 f:/software_installations/mplab_xc32/bin/bin/../../lib/gcc/pic32mx/4.8.3/../../../../pic32mx/lib\libc.a(fassert.o)
 .bss           0x00000000        0x0 f:/software_installations/mplab_xc32/bin/bin/../../lib/gcc/pic32mx/4.8.3/../../../../pic32mx/lib\libc.a(fassert.o)
 .reginfo       0x00000000       0x18 f:/software_installations/mplab_xc32/bin/bin/../../lib/gcc/pic32mx/4.8.3/../../../../pic32mx/lib\libc.a(fassert.o)
 .text          0x00000000        0x0 f:/software_installations/mplab_xc32/bin/bin/../../lib/gcc/pic32mx/4.8.3/../../../../pic32mx/lib\libc.a(calloc.o)
 .data          0x00000000        0x0 f:/software_installations/mplab_xc32/bin/bin/../../lib/gcc/pic32mx/4.8.3/../../../../pic32mx/lib\libc.a(calloc.o)
 .bss           0x00000000        0x0 f:/software_installations/mplab_xc32/bin/bin/../../lib/gcc/pic32mx/4.8.3/../../../../pic32mx/lib\libc.a(calloc.o)
 .reginfo       0x00000000       0x18 f:/software_installations/mplab_xc32/bin/bin/../../lib/gcc/pic32mx/4.8.3/../../../../pic32mx/lib\libc.a(calloc.o)
 .text          0x00000000        0x0 f:/software_installations/mplab_xc32/bin/bin/../../lib/gcc/pic32mx/4.8.3/../../../../pic32mx/lib\libc.a(malloc.o)
 .data          0x00000000        0x0 f:/software_installations/mplab_xc32/bin/bin/../../lib/gcc/pic32mx/4.8.3/../../../../pic32mx/lib\libc.a(malloc.o)
 .reginfo       0x00000000       0x18 f:/software_installations/mplab_xc32/bin/bin/../../lib/gcc/pic32mx/4.8.3/../../../../pic32mx/lib\libc.a(malloc.o)
 .text          0x00000000        0x0 f:/software_installations/mplab_xc32/bin/bin/../../lib/gcc/pic32mx/4.8.3/../../../../pic32mx/lib\libc.a(signal.o)
 .data          0x00000000        0x0 f:/software_installations/mplab_xc32/bin/bin/../../lib/gcc/pic32mx/4.8.3/../../../../pic32mx/lib\libc.a(signal.o)
 .reginfo       0x00000000       0x18 f:/software_installations/mplab_xc32/bin/bin/../../lib/gcc/pic32mx/4.8.3/../../../../pic32mx/lib\libc.a(signal.o)
 .text.signal   0x00000000       0x30 f:/software_installations/mplab_xc32/bin/bin/../../lib/gcc/pic32mx/4.8.3/../../../../pic32mx/lib\libc.a(signal.o)
 .text          0x00000000        0x0 f:/software_installations/mplab_xc32/bin/bin/../../lib/gcc/pic32mx/4.8.3/../../../../pic32mx/lib\libc.a(exit.o)
 .data          0x00000000        0x0 f:/software_installations/mplab_xc32/bin/bin/../../lib/gcc/pic32mx/4.8.3/../../../../pic32mx/lib\libc.a(exit.o)
 .bss           0x00000000        0x0 f:/software_installations/mplab_xc32/bin/bin/../../lib/gcc/pic32mx/4.8.3/../../../../pic32mx/lib\libc.a(exit.o)
 .reginfo       0x00000000       0x18 f:/software_installations/mplab_xc32/bin/bin/../../lib/gcc/pic32mx/4.8.3/../../../../pic32mx/lib\libc.a(exit.o)
 .text          0x00000000        0x0 f:/software_installations/mplab_xc32/bin/bin/../../lib/gcc/pic32mx/4.8.3/../../../../pic32mx/lib\libc.a(stdclean_simple.o)
 .data          0x00000000        0x0 f:/software_installations/mplab_xc32/bin/bin/../../lib/gcc/pic32mx/4.8.3/../../../../pic32mx/lib\libc.a(stdclean_simple.o)
 .bss           0x00000000        0x0 f:/software_installations/mplab_xc32/bin/bin/../../lib/gcc/pic32mx/4.8.3/../../../../pic32mx/lib\libc.a(stdclean_simple.o)
 .reginfo       0x00000000       0x18 f:/software_installations/mplab_xc32/bin/bin/../../lib/gcc/pic32mx/4.8.3/../../../../pic32mx/lib\libc.a(stdclean_simple.o)
 .text          0x00000000        0x0 f:/software_installations/mplab_xc32/bin/bin/../../lib/gcc/pic32mx/4.8.3/../../../../pic32mx/lib\libc.a(fprintf_cdnopsuxX.eo)
 .data          0x00000000        0x0 f:/software_installations/mplab_xc32/bin/bin/../../lib/gcc/pic32mx/4.8.3/../../../../pic32mx/lib\libc.a(fprintf_cdnopsuxX.eo)
 .bss           0x00000000        0x0 f:/software_installations/mplab_xc32/bin/bin/../../lib/gcc/pic32mx/4.8.3/../../../../pic32mx/lib\libc.a(fprintf_cdnopsuxX.eo)
 .reginfo       0x00000000       0x18 f:/software_installations/mplab_xc32/bin/bin/../../lib/gcc/pic32mx/4.8.3/../../../../pic32mx/lib\libc.a(fprintf_cdnopsuxX.eo)
 .text          0x00000000        0x0 f:/software_installations/mplab_xc32/bin/bin/../../lib/gcc/pic32mx/4.8.3/../../../../pic32mx/lib\libc.a(sprintf_cdnopuxX.eo)
 .data          0x00000000        0x0 f:/software_installations/mplab_xc32/bin/bin/../../lib/gcc/pic32mx/4.8.3/../../../../pic32mx/lib\libc.a(sprintf_cdnopuxX.eo)
 .bss           0x00000000        0x0 f:/software_installations/mplab_xc32/bin/bin/../../lib/gcc/pic32mx/4.8.3/../../../../pic32mx/lib\libc.a(sprintf_cdnopuxX.eo)
 .reginfo       0x00000000       0x18 f:/software_installations/mplab_xc32/bin/bin/../../lib/gcc/pic32mx/4.8.3/../../../../pic32mx/lib\libc.a(sprintf_cdnopuxX.eo)
 .text._sprintf_cdnopuxX
                0x00000000       0x68 f:/software_installations/mplab_xc32/bin/bin/../../lib/gcc/pic32mx/4.8.3/../../../../pic32mx/lib\libc.a(sprintf_cdnopuxX.eo)
 .text          0x00000000        0x0 f:/software_installations/mplab_xc32/bin/bin/../../lib/gcc/pic32mx/4.8.3/../../../../pic32mx/lib\libc.a(_iob.o)
 .reginfo       0x00000000       0x18 f:/software_installations/mplab_xc32/bin/bin/../../lib/gcc/pic32mx/4.8.3/../../../../pic32mx/lib\libc.a(_iob.o)
 .text          0x00000000        0x0 f:/software_installations/mplab_xc32/bin/bin/../../lib/gcc/pic32mx/4.8.3/../../../../pic32mx/lib\libc.a(doprnt_cdnopsuxX.eo)
 .data          0x00000000        0x0 f:/software_installations/mplab_xc32/bin/bin/../../lib/gcc/pic32mx/4.8.3/../../../../pic32mx/lib\libc.a(doprnt_cdnopsuxX.eo)
 .bss           0x00000000        0x0 f:/software_installations/mplab_xc32/bin/bin/../../lib/gcc/pic32mx/4.8.3/../../../../pic32mx/lib\libc.a(doprnt_cdnopsuxX.eo)
 .reginfo       0x00000000       0x18 f:/software_installations/mplab_xc32/bin/bin/../../lib/gcc/pic32mx/4.8.3/../../../../pic32mx/lib\libc.a(doprnt_cdnopsuxX.eo)
 .text          0x00000000        0x0 f:/software_installations/mplab_xc32/bin/bin/../../lib/gcc/pic32mx/4.8.3/../../../../pic32mx/lib\libc.a(_fputc_simple.o)
 .data          0x00000000        0x0 f:/software_installations/mplab_xc32/bin/bin/../../lib/gcc/pic32mx/4.8.3/../../../../pic32mx/lib\libc.a(_fputc_simple.o)
 .bss           0x00000000        0x0 f:/software_installations/mplab_xc32/bin/bin/../../lib/gcc/pic32mx/4.8.3/../../../../pic32mx/lib\libc.a(_fputc_simple.o)
 .reginfo       0x00000000       0x18 f:/software_installations/mplab_xc32/bin/bin/../../lib/gcc/pic32mx/4.8.3/../../../../pic32mx/lib\libc.a(_fputc_simple.o)
 .text          0x00000000        0x0 f:/software_installations/mplab_xc32/bin/bin/../../lib/gcc/pic32mx/4.8.3/../../../../pic32mx/lib\libc.a(ctype.o)
 .data          0x00000000        0x0 f:/software_installations/mplab_xc32/bin/bin/../../lib/gcc/pic32mx/4.8.3/../../../../pic32mx/lib\libc.a(ctype.o)
 .bss           0x00000000        0x0 f:/software_installations/mplab_xc32/bin/bin/../../lib/gcc/pic32mx/4.8.3/../../../../pic32mx/lib\libc.a(ctype.o)
 .reginfo       0x00000000       0x18 f:/software_installations/mplab_xc32/bin/bin/../../lib/gcc/pic32mx/4.8.3/../../../../pic32mx/lib\libc.a(ctype.o)
 .text          0x00000000        0x0 f:/software_installations/mplab_xc32/bin/bin/../../lib/gcc/pic32mx/4.8.3/../../../../pic32mx/lib\libc.a(_flsbuf_simple.o)
 .data          0x00000000        0x0 f:/software_installations/mplab_xc32/bin/bin/../../lib/gcc/pic32mx/4.8.3/../../../../pic32mx/lib\libc.a(_flsbuf_simple.o)
 .bss           0x00000000        0x0 f:/software_installations/mplab_xc32/bin/bin/../../lib/gcc/pic32mx/4.8.3/../../../../pic32mx/lib\libc.a(_flsbuf_simple.o)
 .reginfo       0x00000000       0x18 f:/software_installations/mplab_xc32/bin/bin/../../lib/gcc/pic32mx/4.8.3/../../../../pic32mx/lib\libc.a(_flsbuf_simple.o)
 .text          0x00000000        0x0 f:/software_installations/mplab_xc32/bin/bin/../../lib/gcc/pic32mx/4.8.3/../../../../pic32mx/lib\libm.a(fp32div.o)
 .data          0x00000000        0x0 f:/software_installations/mplab_xc32/bin/bin/../../lib/gcc/pic32mx/4.8.3/../../../../pic32mx/lib\libm.a(fp32div.o)
 .bss           0x00000000        0x0 f:/software_installations/mplab_xc32/bin/bin/../../lib/gcc/pic32mx/4.8.3/../../../../pic32mx/lib\libm.a(fp32div.o)
 .reginfo       0x00000000       0x18 f:/software_installations/mplab_xc32/bin/bin/../../lib/gcc/pic32mx/4.8.3/../../../../pic32mx/lib\libm.a(fp32div.o)
 .text          0x00000000        0x0 f:/software_installations/mplab_xc32/bin/bin/../../lib/gcc/pic32mx/4.8.3/../../../../pic32mx/lib\libm.a(fp32mul.o)
 .data          0x00000000        0x0 f:/software_installations/mplab_xc32/bin/bin/../../lib/gcc/pic32mx/4.8.3/../../../../pic32mx/lib\libm.a(fp32mul.o)
 .bss           0x00000000        0x0 f:/software_installations/mplab_xc32/bin/bin/../../lib/gcc/pic32mx/4.8.3/../../../../pic32mx/lib\libm.a(fp32mul.o)
 .reginfo       0x00000000       0x18 f:/software_installations/mplab_xc32/bin/bin/../../lib/gcc/pic32mx/4.8.3/../../../../pic32mx/lib\libm.a(fp32mul.o)
 .text          0x00000000        0x0 f:/software_installations/mplab_xc32/bin/bin/../../lib/gcc/pic32mx/4.8.3/../../../../pic32mx/lib\libm.a(fp32subadd.o)
 .data          0x00000000        0x0 f:/software_installations/mplab_xc32/bin/bin/../../lib/gcc/pic32mx/4.8.3/../../../../pic32mx/lib\libm.a(fp32subadd.o)
 .bss           0x00000000        0x0 f:/software_installations/mplab_xc32/bin/bin/../../lib/gcc/pic32mx/4.8.3/../../../../pic32mx/lib\libm.a(fp32subadd.o)
 .reginfo       0x00000000       0x18 f:/software_installations/mplab_xc32/bin/bin/../../lib/gcc/pic32mx/4.8.3/../../../../pic32mx/lib\libm.a(fp32subadd.o)
 .text          0x00000000        0x0 f:/software_installations/mplab_xc32/bin/bin/../../lib/gcc/pic32mx/4.8.3/../../../../pic32mx/lib\libm.a(fpatan.o)
 .data          0x00000000        0x0 f:/software_installations/mplab_xc32/bin/bin/../../lib/gcc/pic32mx/4.8.3/../../../../pic32mx/lib\libm.a(fpatan.o)
 .bss           0x00000000        0x0 f:/software_installations/mplab_xc32/bin/bin/../../lib/gcc/pic32mx/4.8.3/../../../../pic32mx/lib\libm.a(fpatan.o)
 .reginfo       0x00000000       0x18 f:/software_installations/mplab_xc32/bin/bin/../../lib/gcc/pic32mx/4.8.3/../../../../pic32mx/lib\libm.a(fpatan.o)
 .text.fpatan   0x00000000       0xa0 f:/software_installations/mplab_xc32/bin/bin/../../lib/gcc/pic32mx/4.8.3/../../../../pic32mx/lib\libm.a(fpatan.o)
 .text          0x00000000        0x0 f:/software_installations/mplab_xc32/bin/bin/../../lib/gcc/pic32mx/4.8.3/../../../../pic32mx/lib\libm.a(fpcmp.o)
 .data          0x00000000        0x0 f:/software_installations/mplab_xc32/bin/bin/../../lib/gcc/pic32mx/4.8.3/../../../../pic32mx/lib\libm.a(fpcmp.o)
 .bss           0x00000000        0x0 f:/software_installations/mplab_xc32/bin/bin/../../lib/gcc/pic32mx/4.8.3/../../../../pic32mx/lib\libm.a(fpcmp.o)
 .reginfo       0x00000000       0x18 f:/software_installations/mplab_xc32/bin/bin/../../lib/gcc/pic32mx/4.8.3/../../../../pic32mx/lib\libm.a(fpcmp.o)
 .text.fpcmp    0x00000000       0x9c f:/software_installations/mplab_xc32/bin/bin/../../lib/gcc/pic32mx/4.8.3/../../../../pic32mx/lib\libm.a(fpcmp.o)
 .text          0x00000000        0x0 f:/software_installations/mplab_xc32/bin/bin/../../lib/gcc/pic32mx/4.8.3/../../../../pic32mx/lib\libm.a(fpexatan.o)
 .data          0x00000000      0x100 f:/software_installations/mplab_xc32/bin/bin/../../lib/gcc/pic32mx/4.8.3/../../../../pic32mx/lib\libm.a(fpexatan.o)
 .bss           0x00000000        0x0 f:/software_installations/mplab_xc32/bin/bin/../../lib/gcc/pic32mx/4.8.3/../../../../pic32mx/lib\libm.a(fpexatan.o)
 .reginfo       0x00000000       0x18 f:/software_installations/mplab_xc32/bin/bin/../../lib/gcc/pic32mx/4.8.3/../../../../pic32mx/lib\libm.a(fpexatan.o)
 .text.fpexatan
                0x00000000        0x0 f:/software_installations/mplab_xc32/bin/bin/../../lib/gcc/pic32mx/4.8.3/../../../../pic32mx/lib\libm.a(fpexatan.o)
 .text.libm     0x00000000      0x350 f:/software_installations/mplab_xc32/bin/bin/../../lib/gcc/pic32mx/4.8.3/../../../../pic32mx/lib\libm.a(fpexatan.o)
 .text          0x00000000        0x0 f:/software_installations/mplab_xc32/bin/bin/../../lib/gcc/pic32mx/4.8.3/../../../../pic32mx/lib\libm.a(fpexsqrt32.o)
 .data          0x00000000        0x0 f:/software_installations/mplab_xc32/bin/bin/../../lib/gcc/pic32mx/4.8.3/../../../../pic32mx/lib\libm.a(fpexsqrt32.o)
 .bss           0x00000000        0x0 f:/software_installations/mplab_xc32/bin/bin/../../lib/gcc/pic32mx/4.8.3/../../../../pic32mx/lib\libm.a(fpexsqrt32.o)
 .reginfo       0x00000000       0x18 f:/software_installations/mplab_xc32/bin/bin/../../lib/gcc/pic32mx/4.8.3/../../../../pic32mx/lib\libm.a(fpexsqrt32.o)
 .text.libm.fpexsqrt
                0x00000000       0xfc f:/software_installations/mplab_xc32/bin/bin/../../lib/gcc/pic32mx/4.8.3/../../../../pic32mx/lib\libm.a(fpexsqrt32.o)
 .text          0x00000000        0x0 f:/software_installations/mplab_xc32/bin/bin/../../lib/gcc/pic32mx/4.8.3/../../../../pic32mx/lib\libm.a(fptoli.o)
 .data          0x00000000        0x0 f:/software_installations/mplab_xc32/bin/bin/../../lib/gcc/pic32mx/4.8.3/../../../../pic32mx/lib\libm.a(fptoli.o)
 .bss           0x00000000        0x0 f:/software_installations/mplab_xc32/bin/bin/../../lib/gcc/pic32mx/4.8.3/../../../../pic32mx/lib\libm.a(fptoli.o)
 .reginfo       0x00000000       0x18 f:/software_installations/mplab_xc32/bin/bin/../../lib/gcc/pic32mx/4.8.3/../../../../pic32mx/lib\libm.a(fptoli.o)
 .text.fptoli   0x00000000       0x80 f:/software_installations/mplab_xc32/bin/bin/../../lib/gcc/pic32mx/4.8.3/../../../../pic32mx/lib\libm.a(fptoli.o)
 .text          0x00000000        0x0 f:/software_installations/mplab_xc32/bin/bin/../../lib/gcc/pic32mx/4.8.3/../../../../pic32mx/lib\libm.a(fptoul.o)
 .data          0x00000000        0x0 f:/software_installations/mplab_xc32/bin/bin/../../lib/gcc/pic32mx/4.8.3/../../../../pic32mx/lib\libm.a(fptoul.o)
 .bss           0x00000000        0x0 f:/software_installations/mplab_xc32/bin/bin/../../lib/gcc/pic32mx/4.8.3/../../../../pic32mx/lib\libm.a(fptoul.o)
 .reginfo       0x00000000       0x18 f:/software_installations/mplab_xc32/bin/bin/../../lib/gcc/pic32mx/4.8.3/../../../../pic32mx/lib\libm.a(fptoul.o)
 .text          0x00000000        0x0 f:/software_installations/mplab_xc32/bin/bin/../../lib/gcc/pic32mx/4.8.3/../../../../pic32mx/lib\libm.a(sitofp.o)
 .data          0x00000000        0x0 f:/software_installations/mplab_xc32/bin/bin/../../lib/gcc/pic32mx/4.8.3/../../../../pic32mx/lib\libm.a(sitofp.o)
 .bss           0x00000000        0x0 f:/software_installations/mplab_xc32/bin/bin/../../lib/gcc/pic32mx/4.8.3/../../../../pic32mx/lib\libm.a(sitofp.o)
 .reginfo       0x00000000       0x18 f:/software_installations/mplab_xc32/bin/bin/../../lib/gcc/pic32mx/4.8.3/../../../../pic32mx/lib\libm.a(sitofp.o)
 .data          0x00000000        0x0 f:/software_installations/mplab_xc32/bin/bin/../../lib/gcc/pic32mx/4.8.3\libgcc.a(_udivdi3.o)
 .bss           0x00000000        0x0 f:/software_installations/mplab_xc32/bin/bin/../../lib/gcc/pic32mx/4.8.3\libgcc.a(_udivdi3.o)
 .reginfo       0x00000000       0x18 f:/software_installations/mplab_xc32/bin/bin/../../lib/gcc/pic32mx/4.8.3\libgcc.a(_udivdi3.o)
 .data          0x00000000        0x0 f:/software_installations/mplab_xc32/bin/bin/../../lib/gcc/pic32mx/4.8.3\libgcc.a(_umoddi3.o)
 .bss           0x00000000        0x0 f:/software_installations/mplab_xc32/bin/bin/../../lib/gcc/pic32mx/4.8.3\libgcc.a(_umoddi3.o)
 .reginfo       0x00000000       0x18 f:/software_installations/mplab_xc32/bin/bin/../../lib/gcc/pic32mx/4.8.3\libgcc.a(_umoddi3.o)
 .text          0x00000000        0x0 f:/software_installations/mplab_xc32/bin/bin/../../lib/gcc/pic32mx/4.8.3/../../../../pic32mx/lib\libpic32.a(sbrk.o)
 .data          0x00000000        0x0 f:/software_installations/mplab_xc32/bin/bin/../../lib/gcc/pic32mx/4.8.3/../../../../pic32mx/lib\libpic32.a(sbrk.o)
 .reginfo       0x00000000       0x18 f:/software_installations/mplab_xc32/bin/bin/../../lib/gcc/pic32mx/4.8.3/../../../../pic32mx/lib\libpic32.a(sbrk.o)
 .text.getpagesize
                0x00000000        0x8 f:/software_installations/mplab_xc32/bin/bin/../../lib/gcc/pic32mx/4.8.3/../../../../pic32mx/lib\libpic32.a(sbrk.o)
 .text          0x00000000        0x0 f:/software_installations/mplab_xc32/bin/bin/../../lib/gcc/pic32mx/4.8.3/../../../../pic32mx/lib\libpic32.a(write.o)
 .data          0x00000000        0x0 f:/software_installations/mplab_xc32/bin/bin/../../lib/gcc/pic32mx/4.8.3/../../../../pic32mx/lib\libpic32.a(write.o)
 .bss           0x00000000        0x0 f:/software_installations/mplab_xc32/bin/bin/../../lib/gcc/pic32mx/4.8.3/../../../../pic32mx/lib\libpic32.a(write.o)
 .reginfo       0x00000000       0x18 f:/software_installations/mplab_xc32/bin/bin/../../lib/gcc/pic32mx/4.8.3/../../../../pic32mx/lib\libpic32.a(write.o)
 .text          0x00000000        0x0 f:/software_installations/mplab_xc32/bin/bin/../../lib/gcc/pic32mx/4.8.3/../../../../pic32mx/lib\libpic32.a(errno.o)
 .data          0x00000000        0x0 f:/software_installations/mplab_xc32/bin/bin/../../lib/gcc/pic32mx/4.8.3/../../../../pic32mx/lib\libpic32.a(errno.o)
 .bss           0x00000000        0x0 f:/software_installations/mplab_xc32/bin/bin/../../lib/gcc/pic32mx/4.8.3/../../../../pic32mx/lib\libpic32.a(errno.o)
 .reginfo       0x00000000       0x18 f:/software_installations/mplab_xc32/bin/bin/../../lib/gcc/pic32mx/4.8.3/../../../../pic32mx/lib\libpic32.a(errno.o)
 .text          0x00000000        0x0 f:/software_installations/mplab_xc32/bin/bin/../../lib/gcc/pic32mx/4.8.3/../../../../pic32mx/lib\libpic32.a(_mon_putc.o)
 .data          0x00000000        0x0 f:/software_installations/mplab_xc32/bin/bin/../../lib/gcc/pic32mx/4.8.3/../../../../pic32mx/lib\libpic32.a(_mon_putc.o)
 .bss           0x00000000        0x0 f:/software_installations/mplab_xc32/bin/bin/../../lib/gcc/pic32mx/4.8.3/../../../../pic32mx/lib\libpic32.a(_mon_putc.o)
 .reginfo       0x00000000       0x18 f:/software_installations/mplab_xc32/bin/bin/../../lib/gcc/pic32mx/4.8.3/../../../../pic32mx/lib\libpic32.a(_mon_putc.o)
 .text          0x00000000        0x0 f:/software_installations/mplab_xc32/bin/bin/../../lib/gcc/pic32mx/4.8.3/../../../../pic32mx/lib\libpic32.a(xc32_uart.o)
 .data          0x00000000        0x0 f:/software_installations/mplab_xc32/bin/bin/../../lib/gcc/pic32mx/4.8.3/../../../../pic32mx/lib\libpic32.a(xc32_uart.o)
 .bss           0x00000000        0x0 f:/software_installations/mplab_xc32/bin/bin/../../lib/gcc/pic32mx/4.8.3/../../../../pic32mx/lib\libpic32.a(xc32_uart.o)
 .reginfo       0x00000000       0x18 f:/software_installations/mplab_xc32/bin/bin/../../lib/gcc/pic32mx/4.8.3/../../../../pic32mx/lib\libpic32.a(xc32_uart.o)

Memory Configuration

Name             Origin             Length             Attributes
kseg0_program_mem 0x9d000000         0x00200000         xr
kseg0_boot_mem   0x9fc004b0         0x00000000
kseg1_boot_mem   0xbfc00000         0x00000480
kseg1_boot_mem_4B0 0xbfc004b0         0x0000fa50
config_BFC0FF3C  0xbfc0ff3c         0x00000004
config_BFC0FF40  0xbfc0ff40         0x00000004
config_BFC0FF44  0xbfc0ff44         0x00000004
config_BFC0FF48  0xbfc0ff48         0x00000004
config_BFC0FF4C  0xbfc0ff4c         0x00000004
config_BFC0FF50  0xbfc0ff50         0x00000004
config_BFC0FF54  0xbfc0ff54         0x00000004
config_BFC0FF58  0xbfc0ff58         0x00000004
config_BFC0FF5C  0xbfc0ff5c         0x00000004
config_BFC0FF60  0xbfc0ff60         0x00000004
config_BFC0FF64  0xbfc0ff64         0x00000004
config_BFC0FF68  0xbfc0ff68         0x00000004
config_BFC0FF6C  0xbfc0ff6c         0x00000004
config_BFC0FF70  0xbfc0ff70         0x00000004
config_BFC0FF74  0xbfc0ff74         0x00000004
config_BFC0FF78  0xbfc0ff78         0x00000004
config_BFC0FF7C  0xbfc0ff7c         0x00000004
config_BFC0FFBC  0xbfc0ffbc         0x00000004
config_BFC0FFC0  0xbfc0ffc0         0x00000004
config_BFC0FFC4  0xbfc0ffc4         0x00000004
config_BFC0FFC8  0xbfc0ffc8         0x00000004
config_BFC0FFCC  0xbfc0ffcc         0x00000004
config_BFC0FFD0  0xbfc0ffd0         0x00000004
config_BFC0FFD4  0xbfc0ffd4         0x00000004
config_BFC0FFD8  0xbfc0ffd8         0x00000004
config_BFC0FFDC  0xbfc0ffdc         0x00000004
config_BFC0FFE0  0xbfc0ffe0         0x00000004
config_BFC0FFE4  0xbfc0ffe4         0x00000004
config_BFC0FFE8  0xbfc0ffe8         0x00000004
config_BFC0FFEC  0xbfc0ffec         0x00000004
config_BFC0FFF0  0xbfc0fff0         0x00000004
config_BFC0FFF4  0xbfc0fff4         0x00000004
config_BFC0FFF8  0xbfc0fff8         0x00000004
config_BFC0FFFC  0xbfc0fffc         0x00000004
lowerbootaliaslastpage 0xbfc10000         0x00004000
upperbootalias   0xbfc20000         0x0000ff00
config_BFC2FF3C  0xbfc2ff3c         0x00000004
config_BFC2FF40  0xbfc2ff40         0x00000004
config_BFC2FF44  0xbfc2ff44         0x00000004
config_BFC2FF48  0xbfc2ff48         0x00000004
config_BFC2FF4C  0xbfc2ff4c         0x00000004
config_BFC2FF50  0xbfc2ff50         0x00000004
config_BFC2FF54  0xbfc2ff54         0x00000004
config_BFC2FF58  0xbfc2ff58         0x00000004
config_BFC2FF5C  0xbfc2ff5c         0x00000004
config_BFC2FF60  0xbfc2ff60         0x00000004
config_BFC2FF64  0xbfc2ff64         0x00000004
config_BFC2FF68  0xbfc2ff68         0x00000004
config_BFC2FF6C  0xbfc2ff6c         0x00000004
config_BFC2FF70  0xbfc2ff70         0x00000004
config_BFC2FF74  0xbfc2ff74         0x00000004
config_BFC2FF78  0xbfc2ff78         0x00000004
config_BFC2FF7C  0xbfc2ff7c         0x00000004
config_BFC2FFBC  0xbfc2ffbc         0x00000004
config_BFC2FFC0  0xbfc2ffc0         0x00000004
config_BFC2FFC4  0xbfc2ffc4         0x00000004
config_BFC2FFC8  0xbfc2ffc8         0x00000004
config_BFC2FFCC  0xbfc2ffcc         0x00000004
config_BFC2FFD0  0xbfc2ffd0         0x00000004
config_BFC2FFD4  0xbfc2ffd4         0x00000004
config_BFC2FFD8  0xbfc2ffd8         0x00000004
config_BFC2FFDC  0xbfc2ffdc         0x00000004
config_BFC2FFE0  0xbfc2ffe0         0x00000004
config_BFC2FFE4  0xbfc2ffe4         0x00000004
config_BFC2FFE8  0xbfc2ffe8         0x00000004
config_BFC2FFEC  0xbfc2ffec         0x00000004
config_BFC2FFF0  0xbfc2fff0         0x00000004
config_BFC2FFF4  0xbfc2fff4         0x00000004
config_BFC2FFF8  0xbfc2fff8         0x00000004
config_BFC2FFFC  0xbfc2fffc         0x00000004
upperbootaliaslastpage 0xbfc30000         0x00004000
boot1            0xbfc40000         0x0000ff00
config_BFC4FF3C  0xbfc4ff3c         0x00000004
config_BFC4FF40  0xbfc4ff40         0x00000004
config_BFC4FF44  0xbfc4ff44         0x00000004
config_BFC4FF48  0xbfc4ff48         0x00000004
config_BFC4FF4C  0xbfc4ff4c         0x00000004
config_BFC4FF50  0xbfc4ff50         0x00000004
config_BFC4FF54  0xbfc4ff54         0x00000004
config_BFC4FF58  0xbfc4ff58         0x00000004
config_BFC4FF5C  0xbfc4ff5c         0x00000004
config_BFC4FF60  0xbfc4ff60         0x00000004
config_BFC4FF64  0xbfc4ff64         0x00000004
config_BFC4FF68  0xbfc4ff68         0x00000004
config_BFC4FF6C  0xbfc4ff6c         0x00000004
config_BFC4FF70  0xbfc4ff70         0x00000004
config_BFC4FF74  0xbfc4ff74         0x00000004
config_BFC4FF78  0xbfc4ff78         0x00000004
config_BFC4FF7C  0xbfc4ff7c         0x00000004
config_BFC4FFBC  0xbfc4ffbc         0x00000004
config_BFC4FFC0  0xbfc4ffc0         0x00000004
config_BFC4FFC4  0xbfc4ffc4         0x00000004
config_BFC4FFC8  0xbfc4ffc8         0x00000004
config_BFC4FFCC  0xbfc4ffcc         0x00000004
config_BFC4FFD0  0xbfc4ffd0         0x00000004
config_BFC4FFD4  0xbfc4ffd4         0x00000004
config_BFC4FFD8  0xbfc4ffd8         0x00000004
config_BFC4FFDC  0xbfc4ffdc         0x00000004
config_BFC4FFE0  0xbfc4ffe0         0x00000004
config_BFC4FFE4  0xbfc4ffe4         0x00000004
config_BFC4FFE8  0xbfc4ffe8         0x00000004
config_BFC4FFEC  0xbfc4ffec         0x00000004
config_BFC4FFF0  0xbfc4fff0         0x00000004
config_BFC4FFF4  0xbfc4fff4         0x00000004
config_BFC4FFF8  0xbfc4fff8         0x00000004
config_BFC4FFFC  0xbfc4fffc         0x00000004
boot1lastpage    0xbfc50000         0x00004000
config_BFC54000  0xbfc54000         0x00000004
config_BFC54004  0xbfc54004         0x00000004
config_BFC54008  0xbfc54008         0x00000004
config_BFC5400C  0xbfc5400c         0x00000004
config_BFC54010  0xbfc54010         0x00000004
config_BFC5401C  0xbfc5401c         0x00000004
config_BFC54020  0xbfc54020         0x00000004
config_BFC54024  0xbfc54024         0x00000004
config_BFC54028  0xbfc54028         0x00000004
config_BFC5402C  0xbfc5402c         0x00000004
boot2            0xbfc60000         0x0000ff00
config_BFC6FF3C  0xbfc6ff3c         0x00000004
config_BFC6FF40  0xbfc6ff40         0x00000004
config_BFC6FF44  0xbfc6ff44         0x00000004
config_BFC6FF48  0xbfc6ff48         0x00000004
config_BFC6FF4C  0xbfc6ff4c         0x00000004
config_BFC6FF50  0xbfc6ff50         0x00000004
config_BFC6FF54  0xbfc6ff54         0x00000004
config_BFC6FF58  0xbfc6ff58         0x00000004
config_BFC6FF5C  0xbfc6ff5c         0x00000004
config_BFC6FF60  0xbfc6ff60         0x00000004
config_BFC6FF64  0xbfc6ff64         0x00000004
config_BFC6FF68  0xbfc6ff68         0x00000004
config_BFC6FF6C  0xbfc6ff6c         0x00000004
config_BFC6FF70  0xbfc6ff70         0x00000004
config_BFC6FF74  0xbfc6ff74         0x00000004
config_BFC6FF78  0xbfc6ff78         0x00000004
config_BFC6FF7C  0xbfc6ff7c         0x00000004
config_BFC6FFBC  0xbfc6ffbc         0x00000004
config_BFC6FFC0  0xbfc6ffc0         0x00000004
config_BFC6FFC4  0xbfc6ffc4         0x00000004
config_BFC6FFC8  0xbfc6ffc8         0x00000004
config_BFC6FFCC  0xbfc6ffcc         0x00000004
config_BFC6FFD0  0xbfc6ffd0         0x00000004
config_BFC6FFD4  0xbfc6ffd4         0x00000004
config_BFC6FFD8  0xbfc6ffd8         0x00000004
config_BFC6FFDC  0xbfc6ffdc         0x00000004
config_BFC6FFE0  0xbfc6ffe0         0x00000004
config_BFC6FFE4  0xbfc6ffe4         0x00000004
config_BFC6FFE8  0xbfc6ffe8         0x00000004
config_BFC6FFEC  0xbfc6ffec         0x00000004
config_BFC6FFF0  0xbfc6fff0         0x00000004
config_BFC6FFF4  0xbfc6fff4         0x00000004
config_BFC6FFF8  0xbfc6fff8         0x00000004
config_BFC6FFFC  0xbfc6fffc         0x00000004
boot2lastpage    0xbfc70000         0x00004000
kseg0_data_mem   0x80000000         0x000a0000         w !x
sfrs             0xbf800000         0x00100000
configsfrs_BFC0FF30 0xbfc0ff30         0x00000044
configsfrs_BFC0FFB0 0xbfc0ffb0         0x00000044
configsfrs_BFC2FF30 0xbfc2ff30         0x00000044
configsfrs_BFC2FFB0 0xbfc2ffb0         0x00000044
configsfrs_BFC4FF30 0xbfc4ff30         0x00000044
configsfrs_BFC4FFB0 0xbfc4ffb0         0x00000044
configsfrs_BFC54000 0xbfc54000         0x00000028
configsfrs_BFC6FF30 0xbfc6ff30         0x00000044
configsfrs_BFC6FFB0 0xbfc6ffb0         0x00000044
kseg2_ebi_data_mem 0xc0000000         0x04000000
kseg2_sqi_data_mem 0xd0000000         0x04000000
kseg3_ebi_data_mem 0xe0000000         0x04000000
kseg3_sqi_data_mem 0xf0000000         0x04000000
*default*        0x00000000         0xffffffff

Linker script and memory map

LOAD f:/software_installations/mplab_xc32/bin/bin/../../lib/gcc/pic32mx/4.8.3/../../../../pic32mx/lib/./proc/32MZ2064DAG176/crt0_mips32r2.o
LOAD f:/software_installations/mplab_xc32/bin/bin/../../lib/gcc/pic32mx/4.8.3/../../../../pic32mx/lib\debug-exception-return.o
LOAD build/default/production/_ext/1360937237/app.o
LOAD build/default/production/_ext/1360937237/main.o
LOAD build/default/production/_ext/1864665665/drv_i2c_bb_a.o
LOAD build/default/production/_ext/1864665665/drv_i2c_bb.o
LOAD build/default/production/_ext/1860398633/drv_mxt336t.o
LOAD build/default/production/_ext/1528952846/jidctint.o
LOAD build/default/production/_ext/1572996423/gfxu_image_jpg_common.o
LOAD build/default/production/_ext/1572996423/gfxu_image_jpg_internal.o
LOAD build/default/production/_ext/1572996423/gfxu_image_jpg_external.o
LOAD build/default/production/_ext/1572996423/gfxu_image_png_external.o
LOAD build/default/production/_ext/1572996423/gfxu_image_png_internal.o
LOAD build/default/production/_ext/1151653695/lodepng.o
LOAD build/default/production/_ext/1572996423/gfxu_image.o
LOAD build/default/production/_ext/1572996423/gfxu_image_raw_external.o
LOAD build/default/production/_ext/1572996423/gfxu_image_raw_internal.o
LOAD build/default/production/_ext/1572996423/gfxu_image_rle_external.o
LOAD build/default/production/_ext/1572996423/gfxu_image_rle_internal.o
LOAD build/default/production/_ext/1572996423/gfxu_image_utils.o
LOAD build/default/production/_ext/1572996423/gfxu_palette.o
LOAD build/default/production/_ext/1572996423/gfxu_string.o
LOAD build/default/production/_ext/1572996423/gfxu_string_external.o
LOAD build/default/production/_ext/1572996423/gfxu_stringbuffer_external.o
LOAD build/default/production/_ext/1572996423/gfxu_string_internal.o
LOAD build/default/production/_ext/1572996423/gfxu_string_query.o
LOAD build/default/production/_ext/1572996423/gfxu_string_utils.o
LOAD build/default/production/_ext/493962524/libaria.o
LOAD build/default/production/_ext/493962524/libaria_array.o
LOAD build/default/production/_ext/493962524/libaria_context.o
LOAD build/default/production/_ext/493962524/libaria_context_paint.o
LOAD build/default/production/_ext/493962524/libaria_draw.o
LOAD build/default/production/_ext/493962524/libaria_editwidget.o
LOAD build/default/production/_ext/493962524/libaria_event.o
LOAD build/default/production/_ext/493962524/libaria_input.o
LOAD build/default/production/_ext/493962524/libaria_layer.o
LOAD build/default/production/_ext/493962524/libaria_list.o
LOAD build/default/production/_ext/493962524/libaria_rectarray.o
LOAD build/default/production/_ext/493962524/libaria_scheme.o
LOAD build/default/production/_ext/493962524/libaria_screen.o
LOAD build/default/production/_ext/493962524/libaria_string.o
LOAD build/default/production/_ext/493962524/libaria_utils.o
LOAD build/default/production/_ext/493962524/libaria_widget.o
LOAD build/default/production/_ext/493962524/libaria_widget_skin_classic.o
LOAD build/default/production/_ext/493962524/libaria_widget_skin_classic_common.o
LOAD build/default/production/_ext/493962524/libaria_widget_arc.o
LOAD build/default/production/_ext/493962524/libaria_widget_arc_skin_classic.o
LOAD build/default/production/_ext/493962524/libaria_widget_bar_graph.o
LOAD build/default/production/_ext/493962524/libaria_widget_bar_graph_skin_classic.o
LOAD build/default/production/_ext/493962524/libaria_widget_button.o
LOAD build/default/production/_ext/493962524/libaria_widget_button_skin_classic.o
LOAD build/default/production/_ext/493962524/libaria_widget_checkbox.o
LOAD build/default/production/_ext/493962524/libaria_widget_checkbox_skin_classic.o
LOAD build/default/production/_ext/493962524/libaria_widget_circle.o
LOAD build/default/production/_ext/493962524/libaria_widget_circle_skin_classic.o
LOAD build/default/production/_ext/493962524/libaria_widget_circular_gauge.o
LOAD build/default/production/_ext/493962524/libaria_widget_circular_gauge_skin_classic.o
LOAD build/default/production/_ext/493962524/libaria_widget_circular_slider.o
LOAD build/default/production/_ext/493962524/libaria_widget_circular_slider_skin_classic.o
LOAD build/default/production/_ext/493962524/libaria_widget_drawsurface.o
LOAD build/default/production/_ext/493962524/libaria_widget_drawsurface_skin_classic.o
LOAD build/default/production/_ext/493962524/libaria_widget_gradient.o
LOAD build/default/production/_ext/493962524/libaria_widget_gradient_skin_classic.o
LOAD build/default/production/_ext/493962524/libaria_widget_groupbox.o
LOAD build/default/production/_ext/493962524/libaria_widget_groupbox_skin_classic.o
LOAD build/default/production/_ext/493962524/libaria_widget_image.o
LOAD build/default/production/_ext/493962524/libaria_widget_image_skin_classic.o
LOAD build/default/production/_ext/493962524/libaria_widget_imageplus.o
LOAD build/default/production/_ext/493962524/libaria_widget_imageplus_skin_classic.o
LOAD build/default/production/_ext/493962524/libaria_widget_imagesequence.o
LOAD build/default/production/_ext/493962524/libaria_widget_imagesequence_skin_classic.o
LOAD build/default/production/_ext/493962524/libaria_widget_keypad.o
LOAD build/default/production/_ext/493962524/libaria_widget_keypad_skin_classic.o
LOAD build/default/production/_ext/493962524/libaria_widget_label.o
LOAD build/default/production/_ext/493962524/libaria_widget_label_skin_classic.o
LOAD build/default/production/_ext/493962524/libaria_widget_line.o
LOAD build/default/production/_ext/493962524/libaria_widget_line_skin_classic.o
LOAD build/default/production/_ext/493962524/libaria_widget_line_graph.o
LOAD build/default/production/_ext/493962524/libaria_widget_line_graph_skin_classic.o
LOAD build/default/production/_ext/493962524/libaria_widget_list.o
LOAD build/default/production/_ext/493962524/libaria_widget_list_skin_classic.o
LOAD build/default/production/_ext/493962524/libaria_widget_listwheel.o
LOAD build/default/production/_ext/493962524/libaria_widget_listwheel_skin_classic.o
LOAD build/default/production/_ext/493962524/libaria_widget_pie_chart.o
LOAD build/default/production/_ext/493962524/libaria_widget_pie_chart_skin_classic.o
LOAD build/default/production/_ext/493962524/libaria_widget_progressbar.o
LOAD build/default/production/_ext/493962524/libaria_widget_progressbar_skin_classic.o
LOAD build/default/production/_ext/493962524/libaria_widget_radial_menu.o
LOAD build/default/production/_ext/493962524/libaria_widget_radial_menu_skin_classic.o
LOAD build/default/production/_ext/493962524/libaria_widget_radiobutton.o
LOAD build/default/production/_ext/493962524/libaria_widget_radiobutton_skin_classic.o
LOAD build/default/production/_ext/493962524/libaria_radiobutton_group.o
LOAD build/default/production/_ext/493962524/libaria_widget_rectangle.o
LOAD build/default/production/_ext/493962524/libaria_widget_rectangle_skin_classic.o
LOAD build/default/production/_ext/493962524/libaria_widget_scrollbar.o
LOAD build/default/production/_ext/493962524/libaria_widget_scrollbar_skin_classic.o
LOAD build/default/production/_ext/493962524/libaria_widget_slider.o
LOAD build/default/production/_ext/493962524/libaria_widget_slider_skin_classic.o
LOAD build/default/production/_ext/493962524/libaria_widget_textfield.o
LOAD build/default/production/_ext/493962524/libaria_widget_textfield_skin_classic.o
LOAD build/default/production/_ext/493962524/libaria_widget_touchtest.o
LOAD build/default/production/_ext/493962524/libaria_widget_touchtest_skin_classic.o
LOAD build/default/production/_ext/493962524/libaria_widget_window.o
LOAD build/default/production/_ext/493962524/libaria_widget_window_skin_classic.o
LOAD build/default/production/_ext/1026407831/gfx.o
LOAD build/default/production/_ext/1026407831/gfx_color.o
LOAD build/default/production/_ext/1026407831/gfx_context.o
LOAD build/default/production/_ext/1026407831/gfx_default_impl.o
LOAD build/default/production/_ext/1026407831/gfx_display.o
LOAD build/default/production/_ext/1026407831/gfx_driver_interface.o
LOAD build/default/production/_ext/1026407831/gfx_get.o
LOAD build/default/production/_ext/1026407831/gfx_interface.o
LOAD build/default/production/_ext/1026407831/gfx_layer.o
LOAD build/default/production/_ext/1026407831/gfx_pixel_buffer.o
LOAD build/default/production/_ext/1026407831/gfx_processor_interface.o
LOAD build/default/production/_ext/1026407831/gfx_rect.o
LOAD build/default/production/_ext/1026407831/gfx_util.o
LOAD build/default/production/_ext/1026407831/gfx_set.o
LOAD build/default/production/_ext/1026407831/gfx_color_blend.o
LOAD build/default/production/_ext/1026407831/gfx_color_convert.o
LOAD build/default/production/_ext/1026407831/gfx_color_lerp.o
LOAD build/default/production/_ext/1026407831/gfx_color_value.o
LOAD build/default/production/_ext/1026407831/gfx_draw_arc.o
LOAD build/default/production/_ext/1026407831/gfx_draw_blit.o
LOAD build/default/production/_ext/1026407831/gfx_draw_circle.o
LOAD build/default/production/_ext/1026407831/gfx_draw_ellipse.o
LOAD build/default/production/_ext/1026407831/gfx_draw_line.o
LOAD build/default/production/_ext/1026407831/gfx_draw_pixel.o
LOAD build/default/production/_ext/1026407831/gfx_draw_rect.o
LOAD build/default/production/_ext/1026407831/gfx_draw_stretchblit.o
LOAD build/default/production/_ext/1026407831/gfx_math.o
LOAD build/default/production/_ext/360842870/sys_dma.o
LOAD build/default/production/_ext/1691207160/sys_input.o
LOAD build/default/production/_ext/1691207160/sys_input_listener.o
LOAD build/default/production/_ext/549570029/sys_int_pic32.o
LOAD build/default/production/_ext/1988394548/drv_gfx_lcc_generic.o
LOAD build/default/production/_ext/458109090/libaria_harmony.o
LOAD build/default/production/_ext/458109090/libaria_init.o
LOAD build/default/production/_ext/458109090/libaria_events.o
LOAD build/default/production/_ext/458109090/libaria_macros.o
LOAD build/default/production/_ext/2065038297/gfx_display_def.o
LOAD build/default/production/_ext/2065038297/gfx_driver_def.o
LOAD build/default/production/_ext/2065038297/gfx_processor_def.o
LOAD build/default/production/_ext/639803181/sys_clk_pic32mz.o
LOAD build/default/production/_ext/340578644/sys_devcon.o
LOAD build/default/production/_ext/340578644/sys_devcon_pic32mz.o
LOAD build/default/production/_ext/340578644/sys_devcon_cache_pic32mz.o
LOAD build/default/production/_ext/822048611/sys_ports_static.o
LOAD build/default/production/_ext/494920387/sys_memory_ddr_static.o
LOAD build/default/production/_ext/1541531744/sys_memory_static.o
LOAD build/default/production/_ext/74298950/bsp.o
LOAD build/default/production/_ext/1688732426/system_init.o
LOAD build/default/production/_ext/1688732426/system_interrupt.o
LOAD build/default/production/_ext/1688732426/system_exceptions.o
LOAD build/default/production/_ext/1688732426/system_tasks.o
LOAD build/default/production/_ext/259038627/gfx_assets.o
LOAD ..\..\..\..\..\..\..\Embedded_Tools\MPLAB_Harmony\bin\framework\peripheral\PIC32MZ2064DAG176_peripherals.a
                0x00000001                __MPLAB_BUILD = 0x1
                0x00019000                _min_heap_size = 0x19000
LOAD f:/software_installations/mplab_xc32/bin/bin/../../lib/gcc/pic32mx/4.8.3/../../../../pic32mx/lib/./proc/32MZ2064DAG176\default_isr_vectors.o
LOAD f:/software_installations/mplab_xc32/bin/bin/../../lib/gcc/pic32mx/4.8.3/../../../../pic32mx/lib\pic32_software_reset.o
                0x00000400                PROVIDE (_min_stack_size, 0x400)
LOAD f:/software_installations/mplab_xc32/bin/bin/../../lib/gcc/pic32mx/4.8.3/../../../../pic32mx/lib/./proc/32MZ2064DAG176\processor.o
START GROUP
LOAD f:/software_installations/mplab_xc32/bin/bin/../../lib/gcc/pic32mx/4.8.3/../../../../pic32mx/lib/./proc/32MZ2064DAG176\vector_offset_init.o
END GROUP
                0x00000001                PROVIDE (_vector_spacing, 0x1)
                0x9d000000                PROVIDE (_ebase_address, 0x9d000000)
                0xbfc00000                _RESET_ADDR = 0xbfc00000
                0xbfc00380                _BEV_EXCPT_ADDR = 0xbfc00380
                0xbfc00480                _DBG_EXCPT_ADDR = 0xbfc00480
                0x9d000000                _SIMPLE_TLB_REFILL_EXCPT_ADDR = (_ebase_address + 0x0)
                0x9d000100                _CACHE_ERR_EXCPT_ADDR = (_ebase_address + 0x100)
                0x9d000180                _GEN_EXCPT_ADDR = (_ebase_address + 0x180)

.config_BFC0FF3C
 *(.config_BFC0FF3C)

.config_BFC0FF40
 *(.config_BFC0FF40)

.config_BFC0FF44
 *(.config_BFC0FF44)

.config_BFC0FF48
 *(.config_BFC0FF48)

.config_BFC0FF4C
 *(.config_BFC0FF4C)

.config_BFC0FF50
 *(.config_BFC0FF50)

.config_BFC0FF54
 *(.config_BFC0FF54)

.config_BFC0FF58
 *(.config_BFC0FF58)

.config_BFC0FF5C
 *(.config_BFC0FF5C)

.config_BFC0FF60
 *(.config_BFC0FF60)

.config_BFC0FF64
 *(.config_BFC0FF64)

.config_BFC0FF68
 *(.config_BFC0FF68)

.config_BFC0FF6C
 *(.config_BFC0FF6C)

.config_BFC0FF70
 *(.config_BFC0FF70)

.config_BFC0FF74
 *(.config_BFC0FF74)

.config_BFC0FF78
 *(.config_BFC0FF78)

.config_BFC0FF7C
 *(.config_BFC0FF7C)

.config_BFC0FFBC
                0xbfc0ffbc        0x4
 *(.config_BFC0FFBC)
 .config_BFC0FFBC
                0xbfc0ffbc        0x4 build/default/production/_ext/1688732426/system_init.o

.config_BFC0FFC0
                0xbfc0ffc0        0x4
 *(.config_BFC0FFC0)
 .config_BFC0FFC0
                0xbfc0ffc0        0x4 build/default/production/_ext/1688732426/system_init.o

.config_BFC0FFC4
                0xbfc0ffc4        0x4
 *(.config_BFC0FFC4)
 .config_BFC0FFC4
                0xbfc0ffc4        0x4 build/default/production/_ext/1688732426/system_init.o

.config_BFC0FFC8
                0xbfc0ffc8        0x4
 *(.config_BFC0FFC8)
 .config_BFC0FFC8
                0xbfc0ffc8        0x4 build/default/production/_ext/1688732426/system_init.o

.config_BFC0FFCC
                0xbfc0ffcc        0x4
 *(.config_BFC0FFCC)
 .config_BFC0FFCC
                0xbfc0ffcc        0x4 build/default/production/_ext/1688732426/system_init.o

.config_BFC0FFD0
 *(.config_BFC0FFD0)

.config_BFC0FFD4
 *(.config_BFC0FFD4)

.config_BFC0FFD8
 *(.config_BFC0FFD8)

.config_BFC0FFDC
                0xbfc0ffdc        0x4
 *(.config_BFC0FFDC)
 .config_BFC0FFDC
                0xbfc0ffdc        0x4 build/default/production/_ext/1688732426/system_init.o

.config_BFC0FFE0
 *(.config_BFC0FFE0)

.config_BFC0FFE4
 *(.config_BFC0FFE4)

.config_BFC0FFE8
 *(.config_BFC0FFE8)

.config_BFC0FFEC
 *(.config_BFC0FFEC)

.config_BFC0FFF0
                0xbfc0fff0        0x4
 *(.config_BFC0FFF0)
 .config_BFC0FFF0
                0xbfc0fff0        0x4 build/default/production/_ext/1688732426/system_init.o

.config_BFC0FFF4
 *(.config_BFC0FFF4)

.config_BFC0FFF8
 *(.config_BFC0FFF8)

.config_BFC0FFFC
 *(.config_BFC0FFFC)

.config_BFC2FF3C
 *(.config_BFC2FF3C)

.config_BFC2FF40
 *(.config_BFC2FF40)

.config_BFC2FF44
 *(.config_BFC2FF44)

.config_BFC2FF48
 *(.config_BFC2FF48)

.config_BFC2FF4C
 *(.config_BFC2FF4C)

.config_BFC2FF50
 *(.config_BFC2FF50)

.config_BFC2FF54
 *(.config_BFC2FF54)

.config_BFC2FF58
 *(.config_BFC2FF58)

.config_BFC2FF5C
 *(.config_BFC2FF5C)

.config_BFC2FF60
 *(.config_BFC2FF60)

.config_BFC2FF64
 *(.config_BFC2FF64)

.config_BFC2FF68
 *(.config_BFC2FF68)

.config_BFC2FF6C
 *(.config_BFC2FF6C)

.config_BFC2FF70
 *(.config_BFC2FF70)

.config_BFC2FF74
 *(.config_BFC2FF74)

.config_BFC2FF78
 *(.config_BFC2FF78)

.config_BFC2FF7C
 *(.config_BFC2FF7C)

.config_BFC2FFBC
 *(.config_BFC2FFBC)

.config_BFC2FFC0
 *(.config_BFC2FFC0)

.config_BFC2FFC4
 *(.config_BFC2FFC4)

.config_BFC2FFC8
 *(.config_BFC2FFC8)

.config_BFC2FFCC
 *(.config_BFC2FFCC)

.config_BFC2FFD0
 *(.config_BFC2FFD0)

.config_BFC2FFD4
 *(.config_BFC2FFD4)

.config_BFC2FFD8
 *(.config_BFC2FFD8)

.config_BFC2FFDC
 *(.config_BFC2FFDC)

.config_BFC2FFE0
 *(.config_BFC2FFE0)

.config_BFC2FFE4
 *(.config_BFC2FFE4)

.config_BFC2FFE8
 *(.config_BFC2FFE8)

.config_BFC2FFEC
 *(.config_BFC2FFEC)

.config_BFC2FFF0
 *(.config_BFC2FFF0)

.config_BFC2FFF4
 *(.config_BFC2FFF4)

.config_BFC2FFF8
 *(.config_BFC2FFF8)

.config_BFC2FFFC
 *(.config_BFC2FFFC)

.config_BFC4FF3C
 *(.config_BFC4FF3C)

.config_BFC4FF40
 *(.config_BFC4FF40)

.config_BFC4FF44
 *(.config_BFC4FF44)

.config_BFC4FF48
 *(.config_BFC4FF48)

.config_BFC4FF4C
 *(.config_BFC4FF4C)

.config_BFC4FF50
 *(.config_BFC4FF50)

.config_BFC4FF54
 *(.config_BFC4FF54)

.config_BFC4FF58
 *(.config_BFC4FF58)

.config_BFC4FF5C
 *(.config_BFC4FF5C)

.config_BFC4FF60
 *(.config_BFC4FF60)

.config_BFC4FF64
 *(.config_BFC4FF64)

.config_BFC4FF68
 *(.config_BFC4FF68)

.config_BFC4FF6C
 *(.config_BFC4FF6C)

.config_BFC4FF70
 *(.config_BFC4FF70)

.config_BFC4FF74
 *(.config_BFC4FF74)

.config_BFC4FF78
 *(.config_BFC4FF78)

.config_BFC4FF7C
 *(.config_BFC4FF7C)

.config_BFC4FFBC
 *(.config_BFC4FFBC)

.config_BFC4FFC0
 *(.config_BFC4FFC0)

.config_BFC4FFC4
 *(.config_BFC4FFC4)

.config_BFC4FFC8
 *(.config_BFC4FFC8)

.config_BFC4FFCC
 *(.config_BFC4FFCC)

.config_BFC4FFD0
 *(.config_BFC4FFD0)

.config_BFC4FFD4
 *(.config_BFC4FFD4)

.config_BFC4FFD8
 *(.config_BFC4FFD8)

.config_BFC4FFDC
 *(.config_BFC4FFDC)

.config_BFC4FFE0
 *(.config_BFC4FFE0)

.config_BFC4FFE4
 *(.config_BFC4FFE4)

.config_BFC4FFE8
 *(.config_BFC4FFE8)

.config_BFC4FFEC
 *(.config_BFC4FFEC)

.config_BFC4FFF0
 *(.config_BFC4FFF0)

.config_BFC4FFF4
 *(.config_BFC4FFF4)

.config_BFC4FFF8
 *(.config_BFC4FFF8)

.config_BFC4FFFC
 *(.config_BFC4FFFC)

.config_BFC54000
 *(.config_BFC54000)

.config_BFC54004
 *(.config_BFC54004)

.config_BFC54008
 *(.config_BFC54008)

.config_BFC5400C
 *(.config_BFC5400C)

.config_BFC54010
 *(.config_BFC54010)

.config_BFC5401C
 *(.config_BFC5401C)

.config_BFC54020
 *(.config_BFC54020)

.config_BFC54024
 *(.config_BFC54024)

.config_BFC54028
 *(.config_BFC54028)

.config_BFC5402C
 *(.config_BFC5402C)

.config_BFC6FF3C
 *(.config_BFC6FF3C)

.config_BFC6FF40
 *(.config_BFC6FF40)

.config_BFC6FF44
 *(.config_BFC6FF44)

.config_BFC6FF48
 *(.config_BFC6FF48)

.config_BFC6FF4C
 *(.config_BFC6FF4C)

.config_BFC6FF50
 *(.config_BFC6FF50)

.config_BFC6FF54
 *(.config_BFC6FF54)

.config_BFC6FF58
 *(.config_BFC6FF58)

.config_BFC6FF5C
 *(.config_BFC6FF5C)

.config_BFC6FF60
 *(.config_BFC6FF60)

.config_BFC6FF64
 *(.config_BFC6FF64)

.config_BFC6FF68
 *(.config_BFC6FF68)

.config_BFC6FF6C
 *(.config_BFC6FF6C)

.config_BFC6FF70
 *(.config_BFC6FF70)

.config_BFC6FF74
 *(.config_BFC6FF74)

.config_BFC6FF78
 *(.config_BFC6FF78)

.config_BFC6FF7C
 *(.config_BFC6FF7C)

.config_BFC6FFBC
 *(.config_BFC6FFBC)

.config_BFC6FFC0
 *(.config_BFC6FFC0)

.config_BFC6FFC4
 *(.config_BFC6FFC4)

.config_BFC6FFC8
 *(.config_BFC6FFC8)

.config_BFC6FFCC
 *(.config_BFC6FFCC)

.config_BFC6FFD0
 *(.config_BFC6FFD0)

.config_BFC6FFD4
 *(.config_BFC6FFD4)

.config_BFC6FFD8
 *(.config_BFC6FFD8)

.config_BFC6FFDC
 *(.config_BFC6FFDC)

.config_BFC6FFE0
 *(.config_BFC6FFE0)

.config_BFC6FFE4
 *(.config_BFC6FFE4)

.config_BFC6FFE8
 *(.config_BFC6FFE8)

.config_BFC6FFEC
 *(.config_BFC6FFEC)

.config_BFC6FFF0
 *(.config_BFC6FFF0)

.config_BFC6FFF4
 *(.config_BFC6FFF4)

.config_BFC6FFF8
 *(.config_BFC6FFF8)

.config_BFC6FFFC
 *(.config_BFC6FFFC)

.reset          0xbfc00000      0x1b0
 *(.reset)
 .reset         0xbfc00000       0x18 f:/software_installations/mplab_xc32/bin/bin/../../lib/gcc/pic32mx/4.8.3/../../../../pic32mx/lib/./proc/32MZ2064DAG176/crt0_mips32r2.o
                0xbfc00000                _reset
 *(.reset.startup)
 .reset.startup
                0xbfc00018      0x198 f:/software_installations/mplab_xc32/bin/bin/../../lib/gcc/pic32mx/4.8.3/../../../../pic32mx/lib/./proc/32MZ2064DAG176/crt0_mips32r2.o
                0xbfc00018                _startup

.bev_excpt      0xbfc00380       0x10
 *(.bev_handler)
 .bev_handler   0xbfc00380       0x10 f:/software_installations/mplab_xc32/bin/bin/../../lib/gcc/pic32mx/4.8.3/../../../../pic32mx/lib/./proc/32MZ2064DAG176/crt0_mips32r2.o

.cache_init     0xbfc004b0      0x19c
 *(.cache_init)
 *(.cache_init.*)
 .cache_init.cache
                0xbfc004b0       0xc0 f:/software_installations/mplab_xc32/bin/bin/../../lib/gcc/pic32mx/4.8.3/../../../../pic32mx/lib\libpic32.a(pic32_init_cache.o)
 .cache_init.pic32_init_cache
                0xbfc00570       0xdc f:/software_installations/mplab_xc32/bin/bin/../../lib/gcc/pic32mx/4.8.3/../../../../pic32mx/lib\libpic32.a(pic32_init_cache.o)
                0xbfc00570                __pic32_init_cache

.simple_tlb_refill_excpt
                0x9d000000       0x10
 *(.simple_tlb_refill_vector)
 .simple_tlb_refill_vector
                0x9d000000       0x10 f:/software_installations/mplab_xc32/bin/bin/../../lib/gcc/pic32mx/4.8.3/../../../../pic32mx/lib/./proc/32MZ2064DAG176/crt0_mips32r2.o

.cache_err_excpt
                0x9d000100       0x10
 *(.cache_err_vector)
 .cache_err_vector
                0x9d000100       0x10 f:/software_installations/mplab_xc32/bin/bin/../../lib/gcc/pic32mx/4.8.3/../../../../pic32mx/lib/./proc/32MZ2064DAG176/crt0_mips32r2.o

.app_excpt      0x9d000180       0x10
 *(.gen_handler)
 .gen_handler   0x9d000180       0x10 f:/software_installations/mplab_xc32/bin/bin/../../lib/gcc/pic32mx/4.8.3/../../../../pic32mx/lib/./proc/32MZ2064DAG176/crt0_mips32r2.o

.vectors        0x9d000200       0x78
                0x9d000200                . = ALIGN (0x4)
                0x00000230                __vector_offset_0 = DEFINED (__vector_dispatch_0)?(. - _ebase_address):__vector_offset_default
 *(.vector_0)
                0x9d000200                . = ALIGN (0x4)
                0x00000230                __vector_offset_1 = DEFINED (__vector_dispatch_1)?(. - _ebase_address):__vector_offset_default
 *(.vector_1)
                0x9d000200                . = ALIGN (0x4)
                0x00000230                __vector_offset_2 = DEFINED (__vector_dispatch_2)?(. - _ebase_address):__vector_offset_default
 *(.vector_2)
                0x9d000200                . = ALIGN (0x4)
                0x00000230                __vector_offset_3 = DEFINED (__vector_dispatch_3)?(. - _ebase_address):__vector_offset_default
 *(.vector_3)
                0x9d000200                . = ALIGN (0x4)
                0x00000230                __vector_offset_4 = DEFINED (__vector_dispatch_4)?(. - _ebase_address):__vector_offset_default
 *(.vector_4)
                0x9d000200                . = ALIGN (0x4)
                0x00000230                __vector_offset_5 = DEFINED (__vector_dispatch_5)?(. - _ebase_address):__vector_offset_default
 *(.vector_5)
                0x9d000200                . = ALIGN (0x4)
                0x00000230                __vector_offset_6 = DEFINED (__vector_dispatch_6)?(. - _ebase_address):__vector_offset_default
 *(.vector_6)
                0x9d000200                . = ALIGN (0x4)
                0x00000230                __vector_offset_7 = DEFINED (__vector_dispatch_7)?(. - _ebase_address):__vector_offset_default
 *(.vector_7)
                0x9d000200                . = ALIGN (0x4)
                0x00000230                __vector_offset_8 = DEFINED (__vector_dispatch_8)?(. - _ebase_address):__vector_offset_default
 *(.vector_8)
                0x9d000200                . = ALIGN (0x4)
                0x00000230                __vector_offset_9 = DEFINED (__vector_dispatch_9)?(. - _ebase_address):__vector_offset_default
 *(.vector_9)
                0x9d000200                . = ALIGN (0x4)
                0x00000230                __vector_offset_10 = DEFINED (__vector_dispatch_10)?(. - _ebase_address):__vector_offset_default
 *(.vector_10)
                0x9d000200                . = ALIGN (0x4)
                0x00000230                __vector_offset_11 = DEFINED (__vector_dispatch_11)?(. - _ebase_address):__vector_offset_default
 *(.vector_11)
                0x9d000200                . = ALIGN (0x4)
                0x00000230                __vector_offset_12 = DEFINED (__vector_dispatch_12)?(. - _ebase_address):__vector_offset_default
 *(.vector_12)
                0x9d000200                . = ALIGN (0x4)
                0x00000230                __vector_offset_13 = DEFINED (__vector_dispatch_13)?(. - _ebase_address):__vector_offset_default
 *(.vector_13)
                0x9d000200                . = ALIGN (0x4)
                0x00000230                __vector_offset_14 = DEFINED (__vector_dispatch_14)?(. - _ebase_address):__vector_offset_default
 *(.vector_14)
                0x9d000200                . = ALIGN (0x4)
                0x00000230                __vector_offset_15 = DEFINED (__vector_dispatch_15)?(. - _ebase_address):__vector_offset_default
 *(.vector_15)
                0x9d000200                . = ALIGN (0x4)
                0x00000230                __vector_offset_16 = DEFINED (__vector_dispatch_16)?(. - _ebase_address):__vector_offset_default
 *(.vector_16)
                0x9d000200                . = ALIGN (0x4)
                0x00000230                __vector_offset_17 = DEFINED (__vector_dispatch_17)?(. - _ebase_address):__vector_offset_default
 *(.vector_17)
                0x9d000200                . = ALIGN (0x4)
                0x00000230                __vector_offset_18 = DEFINED (__vector_dispatch_18)?(. - _ebase_address):__vector_offset_default
 *(.vector_18)
                0x9d000200                . = ALIGN (0x4)
                0x00000230                __vector_offset_19 = DEFINED (__vector_dispatch_19)?(. - _ebase_address):__vector_offset_default
 *(.vector_19)
                0x9d000200                . = ALIGN (0x4)
                0x00000230                __vector_offset_20 = DEFINED (__vector_dispatch_20)?(. - _ebase_address):__vector_offset_default
 *(.vector_20)
                0x9d000200                . = ALIGN (0x4)
                0x00000230                __vector_offset_21 = DEFINED (__vector_dispatch_21)?(. - _ebase_address):__vector_offset_default
 *(.vector_21)
                0x9d000200                . = ALIGN (0x4)
                0x00000230                __vector_offset_22 = DEFINED (__vector_dispatch_22)?(. - _ebase_address):__vector_offset_default
 *(.vector_22)
                0x9d000200                . = ALIGN (0x4)
                0x00000200                __vector_offset_23 = DEFINED (__vector_dispatch_23)?(. - _ebase_address):__vector_offset_default
 *(.vector_23)
 .vector_23     0x9d000200        0x8 build/default/production/_ext/1688732426/system_interrupt.o
                0x9d000200                __vector_dispatch_23
                0x9d000208                . = ALIGN (0x4)
                0x00000230                __vector_offset_24 = DEFINED (__vector_dispatch_24)?(. - _ebase_address):__vector_offset_default
 *(.vector_24)
                0x9d000208                . = ALIGN (0x4)
                0x00000230                __vector_offset_25 = DEFINED (__vector_dispatch_25)?(. - _ebase_address):__vector_offset_default
 *(.vector_25)
                0x9d000208                . = ALIGN (0x4)
                0x00000230                __vector_offset_26 = DEFINED (__vector_dispatch_26)?(. - _ebase_address):__vector_offset_default
 *(.vector_26)
                0x9d000208                . = ALIGN (0x4)
                0x00000230                __vector_offset_27 = DEFINED (__vector_dispatch_27)?(. - _ebase_address):__vector_offset_default
 *(.vector_27)
                0x9d000208                . = ALIGN (0x4)
                0x00000230                __vector_offset_28 = DEFINED (__vector_dispatch_28)?(. - _ebase_address):__vector_offset_default
 *(.vector_28)
                0x9d000208                . = ALIGN (0x4)
                0x00000230                __vector_offset_29 = DEFINED (__vector_dispatch_29)?(. - _ebase_address):__vector_offset_default
 *(.vector_29)
                0x9d000208                . = ALIGN (0x4)
                0x00000230                __vector_offset_30 = DEFINED (__vector_dispatch_30)?(. - _ebase_address):__vector_offset_default
 *(.vector_30)
                0x9d000208                . = ALIGN (0x4)
                0x00000230                __vector_offset_31 = DEFINED (__vector_dispatch_31)?(. - _ebase_address):__vector_offset_default
 *(.vector_31)
                0x9d000208                . = ALIGN (0x4)
                0x00000230                __vector_offset_32 = DEFINED (__vector_dispatch_32)?(. - _ebase_address):__vector_offset_default
 *(.vector_32)
                0x9d000208                . = ALIGN (0x4)
                0x00000230                __vector_offset_33 = DEFINED (__vector_dispatch_33)?(. - _ebase_address):__vector_offset_default
 *(.vector_33)
                0x9d000208                . = ALIGN (0x4)
                0x00000230                __vector_offset_34 = DEFINED (__vector_dispatch_34)?(. - _ebase_address):__vector_offset_default
 *(.vector_34)
                0x9d000208                . = ALIGN (0x4)
                0x00000230                __vector_offset_35 = DEFINED (__vector_dispatch_35)?(. - _ebase_address):__vector_offset_default
 *(.vector_35)
                0x9d000208                . = ALIGN (0x4)
                0x00000230                __vector_offset_36 = DEFINED (__vector_dispatch_36)?(. - _ebase_address):__vector_offset_default
 *(.vector_36)
                0x9d000208                . = ALIGN (0x4)
                0x00000230                __vector_offset_37 = DEFINED (__vector_dispatch_37)?(. - _ebase_address):__vector_offset_default
 *(.vector_37)
                0x9d000208                . = ALIGN (0x4)
                0x00000230                __vector_offset_38 = DEFINED (__vector_dispatch_38)?(. - _ebase_address):__vector_offset_default
 *(.vector_38)
                0x9d000208                . = ALIGN (0x4)
                0x00000230                __vector_offset_39 = DEFINED (__vector_dispatch_39)?(. - _ebase_address):__vector_offset_default
 *(.vector_39)
                0x9d000208                . = ALIGN (0x4)
                0x00000208                __vector_offset_40 = DEFINED (__vector_dispatch_40)?(. - _ebase_address):__vector_offset_default
 *(.vector_40)
 .vector_40     0x9d000208        0x8 build/default/production/_ext/1688732426/system_interrupt.o
                0x9d000208                __vector_dispatch_40
                0x9d000210                . = ALIGN (0x4)
                0x00000230                __vector_offset_41 = DEFINED (__vector_dispatch_41)?(. - _ebase_address):__vector_offset_default
 *(.vector_41)
                0x9d000210                . = ALIGN (0x4)
                0x00000230                __vector_offset_42 = DEFINED (__vector_dispatch_42)?(. - _ebase_address):__vector_offset_default
 *(.vector_42)
                0x9d000210                . = ALIGN (0x4)
                0x00000230                __vector_offset_43 = DEFINED (__vector_dispatch_43)?(. - _ebase_address):__vector_offset_default
 *(.vector_43)
                0x9d000210                . = ALIGN (0x4)
                0x00000230                __vector_offset_44 = DEFINED (__vector_dispatch_44)?(. - _ebase_address):__vector_offset_default
 *(.vector_44)
                0x9d000210                . = ALIGN (0x4)
                0x00000230                __vector_offset_45 = DEFINED (__vector_dispatch_45)?(. - _ebase_address):__vector_offset_default
 *(.vector_45)
                0x9d000210                . = ALIGN (0x4)
                0x00000230                __vector_offset_46 = DEFINED (__vector_dispatch_46)?(. - _ebase_address):__vector_offset_default
 *(.vector_46)
                0x9d000210                . = ALIGN (0x4)
                0x00000230                __vector_offset_47 = DEFINED (__vector_dispatch_47)?(. - _ebase_address):__vector_offset_default
 *(.vector_47)
                0x9d000210                . = ALIGN (0x4)
                0x00000230                __vector_offset_48 = DEFINED (__vector_dispatch_48)?(. - _ebase_address):__vector_offset_default
 *(.vector_48)
                0x9d000210                . = ALIGN (0x4)
                0x00000230                __vector_offset_49 = DEFINED (__vector_dispatch_49)?(. - _ebase_address):__vector_offset_default
 *(.vector_49)
                0x9d000210                . = ALIGN (0x4)
                0x00000230                __vector_offset_50 = DEFINED (__vector_dispatch_50)?(. - _ebase_address):__vector_offset_default
 *(.vector_50)
                0x9d000210                . = ALIGN (0x4)
                0x00000230                __vector_offset_51 = DEFINED (__vector_dispatch_51)?(. - _ebase_address):__vector_offset_default
 *(.vector_51)
                0x9d000210                . = ALIGN (0x4)
                0x00000230                __vector_offset_52 = DEFINED (__vector_dispatch_52)?(. - _ebase_address):__vector_offset_default
 *(.vector_52)
                0x9d000210                . = ALIGN (0x4)
                0x00000230                __vector_offset_53 = DEFINED (__vector_dispatch_53)?(. - _ebase_address):__vector_offset_default
 *(.vector_53)
                0x9d000210                . = ALIGN (0x4)
                0x00000230                __vector_offset_54 = DEFINED (__vector_dispatch_54)?(. - _ebase_address):__vector_offset_default
 *(.vector_54)
                0x9d000210                . = ALIGN (0x4)
                0x00000230                __vector_offset_55 = DEFINED (__vector_dispatch_55)?(. - _ebase_address):__vector_offset_default
 *(.vector_55)
                0x9d000210                . = ALIGN (0x4)
                0x00000230                __vector_offset_56 = DEFINED (__vector_dispatch_56)?(. - _ebase_address):__vector_offset_default
 *(.vector_56)
                0x9d000210                . = ALIGN (0x4)
                0x00000230                __vector_offset_57 = DEFINED (__vector_dispatch_57)?(. - _ebase_address):__vector_offset_default
 *(.vector_57)
                0x9d000210                . = ALIGN (0x4)
                0x00000230                __vector_offset_58 = DEFINED (__vector_dispatch_58)?(. - _ebase_address):__vector_offset_default
 *(.vector_58)
                0x9d000210                . = ALIGN (0x4)
                0x00000230                __vector_offset_59 = DEFINED (__vector_dispatch_59)?(. - _ebase_address):__vector_offset_default
 *(.vector_59)
                0x9d000210                . = ALIGN (0x4)
                0x00000230                __vector_offset_60 = DEFINED (__vector_dispatch_60)?(. - _ebase_address):__vector_offset_default
 *(.vector_60)
                0x9d000210                . = ALIGN (0x4)
                0x00000230                __vector_offset_61 = DEFINED (__vector_dispatch_61)?(. - _ebase_address):__vector_offset_default
 *(.vector_61)
                0x9d000210                . = ALIGN (0x4)
                0x00000230                __vector_offset_62 = DEFINED (__vector_dispatch_62)?(. - _ebase_address):__vector_offset_default
 *(.vector_62)
                0x9d000210                . = ALIGN (0x4)
                0x00000230                __vector_offset_63 = DEFINED (__vector_dispatch_63)?(. - _ebase_address):__vector_offset_default
 *(.vector_63)
                0x9d000210                . = ALIGN (0x4)
                0x00000230                __vector_offset_64 = DEFINED (__vector_dispatch_64)?(. - _ebase_address):__vector_offset_default
 *(.vector_64)
                0x9d000210                . = ALIGN (0x4)
                0x00000230                __vector_offset_65 = DEFINED (__vector_dispatch_65)?(. - _ebase_address):__vector_offset_default
 *(.vector_65)
                0x9d000210                . = ALIGN (0x4)
                0x00000230                __vector_offset_66 = DEFINED (__vector_dispatch_66)?(. - _ebase_address):__vector_offset_default
 *(.vector_66)
                0x9d000210                . = ALIGN (0x4)
                0x00000230                __vector_offset_67 = DEFINED (__vector_dispatch_67)?(. - _ebase_address):__vector_offset_default
 *(.vector_67)
                0x9d000210                . = ALIGN (0x4)
                0x00000230                __vector_offset_68 = DEFINED (__vector_dispatch_68)?(. - _ebase_address):__vector_offset_default
 *(.vector_68)
                0x9d000210                . = ALIGN (0x4)
                0x00000230                __vector_offset_69 = DEFINED (__vector_dispatch_69)?(. - _ebase_address):__vector_offset_default
 *(.vector_69)
                0x9d000210                . = ALIGN (0x4)
                0x00000230                __vector_offset_70 = DEFINED (__vector_dispatch_70)?(. - _ebase_address):__vector_offset_default
 *(.vector_70)
                0x9d000210                . = ALIGN (0x4)
                0x00000230                __vector_offset_71 = DEFINED (__vector_dispatch_71)?(. - _ebase_address):__vector_offset_default
 *(.vector_71)
                0x9d000210                . = ALIGN (0x4)
                0x00000230                __vector_offset_72 = DEFINED (__vector_dispatch_72)?(. - _ebase_address):__vector_offset_default
 *(.vector_72)
                0x9d000210                . = ALIGN (0x4)
                0x00000230                __vector_offset_73 = DEFINED (__vector_dispatch_73)?(. - _ebase_address):__vector_offset_default
 *(.vector_73)
                0x9d000210                . = ALIGN (0x4)
                0x00000230                __vector_offset_74 = DEFINED (__vector_dispatch_74)?(. - _ebase_address):__vector_offset_default
 *(.vector_74)
                0x9d000210                . = ALIGN (0x4)
                0x00000230                __vector_offset_75 = DEFINED (__vector_dispatch_75)?(. - _ebase_address):__vector_offset_default
 *(.vector_75)
                0x9d000210                . = ALIGN (0x4)
                0x00000230                __vector_offset_76 = DEFINED (__vector_dispatch_76)?(. - _ebase_address):__vector_offset_default
 *(.vector_76)
                0x9d000210                . = ALIGN (0x4)
                0x00000230                __vector_offset_77 = DEFINED (__vector_dispatch_77)?(. - _ebase_address):__vector_offset_default
 *(.vector_77)
                0x9d000210                . = ALIGN (0x4)
                0x00000230                __vector_offset_78 = DEFINED (__vector_dispatch_78)?(. - _ebase_address):__vector_offset_default
 *(.vector_78)
                0x9d000210                . = ALIGN (0x4)
                0x00000230                __vector_offset_79 = DEFINED (__vector_dispatch_79)?(. - _ebase_address):__vector_offset_default
 *(.vector_79)
                0x9d000210                . = ALIGN (0x4)
                0x00000230                __vector_offset_80 = DEFINED (__vector_dispatch_80)?(. - _ebase_address):__vector_offset_default
 *(.vector_80)
                0x9d000210                . = ALIGN (0x4)
                0x00000230                __vector_offset_81 = DEFINED (__vector_dispatch_81)?(. - _ebase_address):__vector_offset_default
 *(.vector_81)
                0x9d000210                . = ALIGN (0x4)
                0x00000230                __vector_offset_82 = DEFINED (__vector_dispatch_82)?(. - _ebase_address):__vector_offset_default
 *(.vector_82)
                0x9d000210                . = ALIGN (0x4)
                0x00000230                __vector_offset_83 = DEFINED (__vector_dispatch_83)?(. - _ebase_address):__vector_offset_default
 *(.vector_83)
                0x9d000210                . = ALIGN (0x4)
                0x00000230                __vector_offset_84 = DEFINED (__vector_dispatch_84)?(. - _ebase_address):__vector_offset_default
 *(.vector_84)
                0x9d000210                . = ALIGN (0x4)
                0x00000230                __vector_offset_85 = DEFINED (__vector_dispatch_85)?(. - _ebase_address):__vector_offset_default
 *(.vector_85)
                0x9d000210                . = ALIGN (0x4)
                0x00000230                __vector_offset_86 = DEFINED (__vector_dispatch_86)?(. - _ebase_address):__vector_offset_default
 *(.vector_86)
                0x9d000210                . = ALIGN (0x4)
                0x00000230                __vector_offset_87 = DEFINED (__vector_dispatch_87)?(. - _ebase_address):__vector_offset_default
 *(.vector_87)
                0x9d000210                . = ALIGN (0x4)
                0x00000230                __vector_offset_88 = DEFINED (__vector_dispatch_88)?(. - _ebase_address):__vector_offset_default
 *(.vector_88)
                0x9d000210                . = ALIGN (0x4)
                0x00000230                __vector_offset_89 = DEFINED (__vector_dispatch_89)?(. - _ebase_address):__vector_offset_default
 *(.vector_89)
                0x9d000210                . = ALIGN (0x4)
                0x00000230                __vector_offset_90 = DEFINED (__vector_dispatch_90)?(. - _ebase_address):__vector_offset_default
 *(.vector_90)
                0x9d000210                . = ALIGN (0x4)
                0x00000230                __vector_offset_91 = DEFINED (__vector_dispatch_91)?(. - _ebase_address):__vector_offset_default
 *(.vector_91)
                0x9d000210                . = ALIGN (0x4)
                0x00000230                __vector_offset_92 = DEFINED (__vector_dispatch_92)?(. - _ebase_address):__vector_offset_default
 *(.vector_92)
                0x9d000210                . = ALIGN (0x4)
                0x00000230                __vector_offset_93 = DEFINED (__vector_dispatch_93)?(. - _ebase_address):__vector_offset_default
 *(.vector_93)
                0x9d000210                . = ALIGN (0x4)
                0x00000230                __vector_offset_94 = DEFINED (__vector_dispatch_94)?(. - _ebase_address):__vector_offset_default
 *(.vector_94)
                0x9d000210                . = ALIGN (0x4)
                0x00000230                __vector_offset_95 = DEFINED (__vector_dispatch_95)?(. - _ebase_address):__vector_offset_default
 *(.vector_95)
                0x9d000210                . = ALIGN (0x4)
                0x00000230                __vector_offset_96 = DEFINED (__vector_dispatch_96)?(. - _ebase_address):__vector_offset_default
 *(.vector_96)
                0x9d000210                . = ALIGN (0x4)
                0x00000230                __vector_offset_97 = DEFINED (__vector_dispatch_97)?(. - _ebase_address):__vector_offset_default
 *(.vector_97)
                0x9d000210                . = ALIGN (0x4)
                0x00000230                __vector_offset_98 = DEFINED (__vector_dispatch_98)?(. - _ebase_address):__vector_offset_default
 *(.vector_98)
                0x9d000210                . = ALIGN (0x4)
                0x00000230                __vector_offset_99 = DEFINED (__vector_dispatch_99)?(. - _ebase_address):__vector_offset_default
 *(.vector_99)
                0x9d000210                . = ALIGN (0x4)
                0x00000230                __vector_offset_100 = DEFINED (__vector_dispatch_100)?(. - _ebase_address):__vector_offset_default
 *(.vector_100)
                0x9d000210                . = ALIGN (0x4)
                0x00000230                __vector_offset_101 = DEFINED (__vector_dispatch_101)?(. - _ebase_address):__vector_offset_default
 *(.vector_101)
                0x9d000210                . = ALIGN (0x4)
                0x00000230                __vector_offset_102 = DEFINED (__vector_dispatch_102)?(. - _ebase_address):__vector_offset_default
 *(.vector_102)
                0x9d000210                . = ALIGN (0x4)
                0x00000230                __vector_offset_103 = DEFINED (__vector_dispatch_103)?(. - _ebase_address):__vector_offset_default
 *(.vector_103)
                0x9d000210                . = ALIGN (0x4)
                0x00000230                __vector_offset_104 = DEFINED (__vector_dispatch_104)?(. - _ebase_address):__vector_offset_default
 *(.vector_104)
                0x9d000210                . = ALIGN (0x4)
                0x00000230                __vector_offset_105 = DEFINED (__vector_dispatch_105)?(. - _ebase_address):__vector_offset_default
 *(.vector_105)
                0x9d000210                . = ALIGN (0x4)
                0x00000230                __vector_offset_106 = DEFINED (__vector_dispatch_106)?(. - _ebase_address):__vector_offset_default
 *(.vector_106)
                0x9d000210                . = ALIGN (0x4)
                0x00000230                __vector_offset_107 = DEFINED (__vector_dispatch_107)?(. - _ebase_address):__vector_offset_default
 *(.vector_107)
                0x9d000210                . = ALIGN (0x4)
                0x00000230                __vector_offset_108 = DEFINED (__vector_dispatch_108)?(. - _ebase_address):__vector_offset_default
 *(.vector_108)
                0x9d000210                . = ALIGN (0x4)
                0x00000230                __vector_offset_109 = DEFINED (__vector_dispatch_109)?(. - _ebase_address):__vector_offset_default
 *(.vector_109)
                0x9d000210                . = ALIGN (0x4)
                0x00000230                __vector_offset_110 = DEFINED (__vector_dispatch_110)?(. - _ebase_address):__vector_offset_default
 *(.vector_110)
                0x9d000210                . = ALIGN (0x4)
                0x00000230                __vector_offset_111 = DEFINED (__vector_dispatch_111)?(. - _ebase_address):__vector_offset_default
 *(.vector_111)
                0x9d000210                . = ALIGN (0x4)
                0x00000230                __vector_offset_112 = DEFINED (__vector_dispatch_112)?(. - _ebase_address):__vector_offset_default
 *(.vector_112)
                0x9d000210                . = ALIGN (0x4)
                0x00000230                __vector_offset_113 = DEFINED (__vector_dispatch_113)?(. - _ebase_address):__vector_offset_default
 *(.vector_113)
                0x9d000210                . = ALIGN (0x4)
                0x00000230                __vector_offset_114 = DEFINED (__vector_dispatch_114)?(. - _ebase_address):__vector_offset_default
 *(.vector_114)
                0x9d000210                . = ALIGN (0x4)
                0x00000230                __vector_offset_115 = DEFINED (__vector_dispatch_115)?(. - _ebase_address):__vector_offset_default
 *(.vector_115)
                0x9d000210                . = ALIGN (0x4)
                0x00000230                __vector_offset_116 = DEFINED (__vector_dispatch_116)?(. - _ebase_address):__vector_offset_default
 *(.vector_116)
                0x9d000210                . = ALIGN (0x4)
                0x00000230                __vector_offset_117 = DEFINED (__vector_dispatch_117)?(. - _ebase_address):__vector_offset_default
 *(.vector_117)
                0x9d000210                . = ALIGN (0x4)
                0x00000230                __vector_offset_118 = DEFINED (__vector_dispatch_118)?(. - _ebase_address):__vector_offset_default
 *(.vector_118)
                0x9d000210                . = ALIGN (0x4)
                0x00000210                __vector_offset_119 = DEFINED (__vector_dispatch_119)?(. - _ebase_address):__vector_offset_default
 *(.vector_119)
 .vector_119    0x9d000210        0x8 build/default/production/_ext/1688732426/system_interrupt.o
                0x9d000210                __vector_dispatch_119
                0x9d000218                . = ALIGN (0x4)
                0x00000230                __vector_offset_120 = DEFINED (__vector_dispatch_120)?(. - _ebase_address):__vector_offset_default
 *(.vector_120)
                0x9d000218                . = ALIGN (0x4)
                0x00000230                __vector_offset_121 = DEFINED (__vector_dispatch_121)?(. - _ebase_address):__vector_offset_default
 *(.vector_121)
                0x9d000218                . = ALIGN (0x4)
                0x00000230                __vector_offset_122 = DEFINED (__vector_dispatch_122)?(. - _ebase_address):__vector_offset_default
 *(.vector_122)
                0x9d000218                . = ALIGN (0x4)
                0x00000218                __vector_offset_123 = DEFINED (__vector_dispatch_123)?(. - _ebase_address):__vector_offset_default
 *(.vector_123)
 .vector_123    0x9d000218        0x8 build/default/production/_ext/1688732426/system_interrupt.o
                0x9d000218                __vector_dispatch_123
                0x9d000220                . = ALIGN (0x4)
                0x00000230                __vector_offset_124 = DEFINED (__vector_dispatch_124)?(. - _ebase_address):__vector_offset_default
 *(.vector_124)
                0x9d000220                . = ALIGN (0x4)
                0x00000230                __vector_offset_125 = DEFINED (__vector_dispatch_125)?(. - _ebase_address):__vector_offset_default
 *(.vector_125)
                0x9d000220                . = ALIGN (0x4)
                0x00000230                __vector_offset_126 = DEFINED (__vector_dispatch_126)?(. - _ebase_address):__vector_offset_default
 *(.vector_126)
                0x9d000220                . = ALIGN (0x4)
                0x00000230                __vector_offset_127 = DEFINED (__vector_dispatch_127)?(. - _ebase_address):__vector_offset_default
 *(.vector_127)
                0x9d000220                . = ALIGN (0x4)
                0x00000230                __vector_offset_128 = DEFINED (__vector_dispatch_128)?(. - _ebase_address):__vector_offset_default
 *(.vector_128)
                0x9d000220                . = ALIGN (0x4)
                0x00000230                __vector_offset_129 = DEFINED (__vector_dispatch_129)?(. - _ebase_address):__vector_offset_default
 *(.vector_129)
                0x9d000220                . = ALIGN (0x4)
                0x00000230                __vector_offset_130 = DEFINED (__vector_dispatch_130)?(. - _ebase_address):__vector_offset_default
 *(.vector_130)
                0x9d000220                . = ALIGN (0x4)
                0x00000230                __vector_offset_131 = DEFINED (__vector_dispatch_131)?(. - _ebase_address):__vector_offset_default
 *(.vector_131)
                0x9d000220                . = ALIGN (0x4)
                0x00000230                __vector_offset_132 = DEFINED (__vector_dispatch_132)?(. - _ebase_address):__vector_offset_default
 *(.vector_132)
                0x9d000220                . = ALIGN (0x4)
                0x00000230                __vector_offset_133 = DEFINED (__vector_dispatch_133)?(. - _ebase_address):__vector_offset_default
 *(.vector_133)
                0x9d000220                . = ALIGN (0x4)
                0x00000220                __vector_offset_134 = DEFINED (__vector_dispatch_134)?(. - _ebase_address):__vector_offset_default
 *(.vector_134)
 .vector_134    0x9d000220        0x8 build/default/production/_ext/1688732426/system_interrupt.o
                0x9d000220                __vector_dispatch_134
                0x9d000228                . = ALIGN (0x4)
                0x00000228                __vector_offset_135 = DEFINED (__vector_dispatch_135)?(. - _ebase_address):__vector_offset_default
 *(.vector_135)
 .vector_135    0x9d000228        0x8 build/default/production/_ext/1988394548/drv_gfx_lcc_generic.o
                0x9d000228                __vector_dispatch_135
                0x9d000230                . = ALIGN (0x4)
                0x00000230                __vector_offset_136 = DEFINED (__vector_dispatch_136)?(. - _ebase_address):__vector_offset_default
 *(.vector_136)
                0x9d000230                . = ALIGN (0x4)
                0x00000230                __vector_offset_137 = DEFINED (__vector_dispatch_137)?(. - _ebase_address):__vector_offset_default
 *(.vector_137)
                0x9d000230                . = ALIGN (0x4)
                0x00000230                __vector_offset_138 = DEFINED (__vector_dispatch_138)?(. - _ebase_address):__vector_offset_default
 *(.vector_138)
                0x9d000230                . = ALIGN (0x4)
                0x00000230                __vector_offset_139 = DEFINED (__vector_dispatch_139)?(. - _ebase_address):__vector_offset_default
 *(.vector_139)
                0x9d000230                . = ALIGN (0x4)
                0x00000230                __vector_offset_140 = DEFINED (__vector_dispatch_140)?(. - _ebase_address):__vector_offset_default
 *(.vector_140)
                0x9d000230                . = ALIGN (0x4)
                0x00000230                __vector_offset_141 = DEFINED (__vector_dispatch_141)?(. - _ebase_address):__vector_offset_default
 *(.vector_141)
                0x9d000230                . = ALIGN (0x4)
                0x00000230                __vector_offset_142 = DEFINED (__vector_dispatch_142)?(. - _ebase_address):__vector_offset_default
 *(.vector_142)
                0x9d000230                . = ALIGN (0x4)
                0x00000230                __vector_offset_143 = DEFINED (__vector_dispatch_143)?(. - _ebase_address):__vector_offset_default
 *(.vector_143)
                0x9d000230                . = ALIGN (0x4)
                0x00000230                __vector_offset_144 = DEFINED (__vector_dispatch_144)?(. - _ebase_address):__vector_offset_default
 *(.vector_144)
                0x9d000230                . = ALIGN (0x4)
                0x00000230                __vector_offset_145 = DEFINED (__vector_dispatch_145)?(. - _ebase_address):__vector_offset_default
 *(.vector_145)
                0x9d000230                . = ALIGN (0x4)
                0x00000230                __vector_offset_146 = DEFINED (__vector_dispatch_146)?(. - _ebase_address):__vector_offset_default
 *(.vector_146)
                0x9d000230                . = ALIGN (0x4)
                0x00000230                __vector_offset_147 = DEFINED (__vector_dispatch_147)?(. - _ebase_address):__vector_offset_default
 *(.vector_147)
                0x9d000230                . = ALIGN (0x4)
                0x00000230                __vector_offset_148 = DEFINED (__vector_dispatch_148)?(. - _ebase_address):__vector_offset_default
 *(.vector_148)
                0x9d000230                . = ALIGN (0x4)
                0x00000230                __vector_offset_149 = DEFINED (__vector_dispatch_149)?(. - _ebase_address):__vector_offset_default
 *(.vector_149)
                0x9d000230                . = ALIGN (0x4)
                0x00000230                __vector_offset_150 = DEFINED (__vector_dispatch_150)?(. - _ebase_address):__vector_offset_default
 *(.vector_150)
                0x9d000230                . = ALIGN (0x4)
                0x00000230                __vector_offset_151 = DEFINED (__vector_dispatch_151)?(. - _ebase_address):__vector_offset_default
 *(.vector_151)
                0x9d000230                . = ALIGN (0x4)
                0x00000230                __vector_offset_152 = DEFINED (__vector_dispatch_152)?(. - _ebase_address):__vector_offset_default
 *(.vector_152)
                0x9d000230                . = ALIGN (0x4)
                0x00000230                __vector_offset_153 = DEFINED (__vector_dispatch_153)?(. - _ebase_address):__vector_offset_default
 *(.vector_153)
                0x9d000230                . = ALIGN (0x4)
                0x00000230                __vector_offset_154 = DEFINED (__vector_dispatch_154)?(. - _ebase_address):__vector_offset_default
 *(.vector_154)
                0x9d000230                . = ALIGN (0x4)
                0x00000230                __vector_offset_155 = DEFINED (__vector_dispatch_155)?(. - _ebase_address):__vector_offset_default
 *(.vector_155)
                0x9d000230                . = ALIGN (0x4)
                0x00000230                __vector_offset_156 = DEFINED (__vector_dispatch_156)?(. - _ebase_address):__vector_offset_default
 *(.vector_156)
                0x9d000230                . = ALIGN (0x4)
                0x00000230                __vector_offset_157 = DEFINED (__vector_dispatch_157)?(. - _ebase_address):__vector_offset_default
 *(.vector_157)
                0x9d000230                . = ALIGN (0x4)
                0x00000230                __vector_offset_158 = DEFINED (__vector_dispatch_158)?(. - _ebase_address):__vector_offset_default
 *(.vector_158)
                0x9d000230                . = ALIGN (0x4)
                0x00000230                __vector_offset_159 = DEFINED (__vector_dispatch_159)?(. - _ebase_address):__vector_offset_default
 *(.vector_159)
                0x9d000230                . = ALIGN (0x4)
                0x00000230                __vector_offset_160 = DEFINED (__vector_dispatch_160)?(. - _ebase_address):__vector_offset_default
 *(.vector_160)
                0x9d000230                . = ALIGN (0x4)
                0x00000230                __vector_offset_161 = DEFINED (__vector_dispatch_161)?(. - _ebase_address):__vector_offset_default
 *(.vector_161)
                0x9d000230                . = ALIGN (0x4)
                0x00000230                __vector_offset_162 = DEFINED (__vector_dispatch_162)?(. - _ebase_address):__vector_offset_default
 *(.vector_162)
                0x9d000230                . = ALIGN (0x4)
                0x00000230                __vector_offset_163 = DEFINED (__vector_dispatch_163)?(. - _ebase_address):__vector_offset_default
 *(.vector_163)
                0x9d000230                . = ALIGN (0x4)
                0x00000230                __vector_offset_164 = DEFINED (__vector_dispatch_164)?(. - _ebase_address):__vector_offset_default
 *(.vector_164)
                0x9d000230                . = ALIGN (0x4)
                0x00000230                __vector_offset_165 = DEFINED (__vector_dispatch_165)?(. - _ebase_address):__vector_offset_default
 *(.vector_165)
                0x9d000230                . = ALIGN (0x4)
                0x00000230                __vector_offset_166 = DEFINED (__vector_dispatch_166)?(. - _ebase_address):__vector_offset_default
 *(.vector_166)
                0x9d000230                . = ALIGN (0x4)
                0x00000230                __vector_offset_167 = DEFINED (__vector_dispatch_167)?(. - _ebase_address):__vector_offset_default
 *(.vector_167)
                0x9d000230                . = ALIGN (0x4)
                0x00000230                __vector_offset_168 = DEFINED (__vector_dispatch_168)?(. - _ebase_address):__vector_offset_default
 *(.vector_168)
                0x9d000230                . = ALIGN (0x4)
                0x00000230                __vector_offset_169 = DEFINED (__vector_dispatch_169)?(. - _ebase_address):__vector_offset_default
 *(.vector_169)
                0x9d000230                . = ALIGN (0x4)
                0x00000230                __vector_offset_170 = DEFINED (__vector_dispatch_170)?(. - _ebase_address):__vector_offset_default
 *(.vector_170)
                0x9d000230                . = ALIGN (0x4)
                0x00000230                __vector_offset_171 = DEFINED (__vector_dispatch_171)?(. - _ebase_address):__vector_offset_default
 *(.vector_171)
                0x9d000230                . = ALIGN (0x4)
                0x00000230                __vector_offset_172 = DEFINED (__vector_dispatch_172)?(. - _ebase_address):__vector_offset_default
 *(.vector_172)
                0x9d000230                . = ALIGN (0x4)
                0x00000230                __vector_offset_173 = DEFINED (__vector_dispatch_173)?(. - _ebase_address):__vector_offset_default
 *(.vector_173)
                0x9d000230                . = ALIGN (0x4)
                0x00000230                __vector_offset_174 = DEFINED (__vector_dispatch_174)?(. - _ebase_address):__vector_offset_default
 *(.vector_174)
                0x9d000230                . = ALIGN (0x4)
                0x00000230                __vector_offset_175 = DEFINED (__vector_dispatch_175)?(. - _ebase_address):__vector_offset_default
 *(.vector_175)
                0x9d000230                . = ALIGN (0x4)
                0x00000230                __vector_offset_176 = DEFINED (__vector_dispatch_176)?(. - _ebase_address):__vector_offset_default
 *(.vector_176)
                0x9d000230                . = ALIGN (0x4)
                0x00000230                __vector_offset_177 = DEFINED (__vector_dispatch_177)?(. - _ebase_address):__vector_offset_default
 *(.vector_177)
                0x9d000230                . = ALIGN (0x4)
                0x00000230                __vector_offset_178 = DEFINED (__vector_dispatch_178)?(. - _ebase_address):__vector_offset_default
 *(.vector_178)
                0x9d000230                . = ALIGN (0x4)
                0x00000230                __vector_offset_179 = DEFINED (__vector_dispatch_179)?(. - _ebase_address):__vector_offset_default
 *(.vector_179)
                0x9d000230                . = ALIGN (0x4)
                0x00000230                __vector_offset_180 = DEFINED (__vector_dispatch_180)?(. - _ebase_address):__vector_offset_default
 *(.vector_180)
                0x9d000230                . = ALIGN (0x4)
                0x00000230                __vector_offset_181 = DEFINED (__vector_dispatch_181)?(. - _ebase_address):__vector_offset_default
 *(.vector_181)
                0x9d000230                . = ALIGN (0x4)
                0x00000230                __vector_offset_182 = DEFINED (__vector_dispatch_182)?(. - _ebase_address):__vector_offset_default
 *(.vector_182)
                0x9d000230                . = ALIGN (0x4)
                0x00000230                __vector_offset_183 = DEFINED (__vector_dispatch_183)?(. - _ebase_address):__vector_offset_default
 *(.vector_183)
                0x9d000230                . = ALIGN (0x4)
                0x00000230                __vector_offset_184 = DEFINED (__vector_dispatch_184)?(. - _ebase_address):__vector_offset_default
 *(.vector_184)
                0x9d000230                . = ALIGN (0x4)
                0x00000230                __vector_offset_185 = DEFINED (__vector_dispatch_185)?(. - _ebase_address):__vector_offset_default
 *(.vector_185)
                0x9d000230                . = ALIGN (0x4)
                0x00000230                __vector_offset_186 = DEFINED (__vector_dispatch_186)?(. - _ebase_address):__vector_offset_default
 *(.vector_186)
                0x9d000230                . = ALIGN (0x4)
                0x00000230                __vector_offset_187 = DEFINED (__vector_dispatch_187)?(. - _ebase_address):__vector_offset_default
 *(.vector_187)
                0x9d000230                . = ALIGN (0x4)
                0x00000230                __vector_offset_188 = DEFINED (__vector_dispatch_188)?(. - _ebase_address):__vector_offset_default
 *(.vector_188)
                0x9d000230                . = ALIGN (0x4)
                0x00000230                __vector_offset_189 = DEFINED (__vector_dispatch_189)?(. - _ebase_address):__vector_offset_default
 *(.vector_189)
                0x9d000230                . = ALIGN (0x4)
                0x00000230                __vector_offset_190 = DEFINED (__vector_dispatch_190)?(. - _ebase_address):__vector_offset_default
 *(.vector_190)
                0x9d000230                . = ALIGN (0x4)
                0x00000230                __vector_offset_191 = DEFINED (__vector_dispatch_191)?(. - _ebase_address):__vector_offset_default
 *(.vector_191)
                0x9d000230                . = ALIGN (0x4)
                0x00000230                __vector_offset_192 = DEFINED (__vector_dispatch_192)?(. - _ebase_address):__vector_offset_default
 *(.vector_192)
                0x9d000230                . = ALIGN (0x4)
                0x00000230                __vector_offset_193 = DEFINED (__vector_dispatch_193)?(. - _ebase_address):__vector_offset_default
 *(.vector_193)
                0x9d000230                . = ALIGN (0x4)
                0x00000230                __vector_offset_194 = DEFINED (__vector_dispatch_194)?(. - _ebase_address):__vector_offset_default
 *(.vector_194)
                0x9d000230                . = ALIGN (0x4)
                0x00000230                __vector_offset_195 = DEFINED (__vector_dispatch_195)?(. - _ebase_address):__vector_offset_default
 *(.vector_195)
                0x9d000230                . = ALIGN (0x4)
                0x00000230                __vector_offset_196 = DEFINED (__vector_dispatch_196)?(. - _ebase_address):__vector_offset_default
 *(.vector_196)
                0x9d000230                . = ALIGN (0x4)
                0x00000230                __vector_offset_197 = DEFINED (__vector_dispatch_197)?(. - _ebase_address):__vector_offset_default
 *(.vector_197)
                0x9d000230                . = ALIGN (0x4)
                0x00000230                __vector_offset_198 = DEFINED (__vector_dispatch_198)?(. - _ebase_address):__vector_offset_default
 *(.vector_198)
                0x9d000230                . = ALIGN (0x4)
                0x00000230                __vector_offset_199 = DEFINED (__vector_dispatch_199)?(. - _ebase_address):__vector_offset_default
 *(.vector_199)
                0x9d000230                . = ALIGN (0x4)
                0x00000230                __vector_offset_200 = DEFINED (__vector_dispatch_200)?(. - _ebase_address):__vector_offset_default
 *(.vector_200)
                0x9d000230                . = ALIGN (0x4)
                0x00000230                __vector_offset_201 = DEFINED (__vector_dispatch_201)?(. - _ebase_address):__vector_offset_default
 *(.vector_201)
                0x9d000230                . = ALIGN (0x4)
                0x00000230                __vector_offset_202 = DEFINED (__vector_dispatch_202)?(. - _ebase_address):__vector_offset_default
 *(.vector_202)
                0x9d000230                . = ALIGN (0x4)
                0x00000230                __vector_offset_203 = DEFINED (__vector_dispatch_203)?(. - _ebase_address):__vector_offset_default
 *(.vector_203)
                0x9d000230                . = ALIGN (0x4)
                0x00000230                __vector_offset_204 = DEFINED (__vector_dispatch_204)?(. - _ebase_address):__vector_offset_default
 *(.vector_204)
                0x9d000230                . = ALIGN (0x4)
                0x00000230                __vector_offset_205 = DEFINED (__vector_dispatch_205)?(. - _ebase_address):__vector_offset_default
 *(.vector_205)
                0x9d000230                . = ALIGN (0x4)
                0x00000230                __vector_offset_206 = DEFINED (__vector_dispatch_206)?(. - _ebase_address):__vector_offset_default
 *(.vector_206)
                0x9d000230                . = ALIGN (0x4)
                0x00000230                __vector_offset_207 = DEFINED (__vector_dispatch_207)?(. - _ebase_address):__vector_offset_default
 *(.vector_207)
                0x9d000230                . = ALIGN (0x4)
                0x00000230                __vector_offset_208 = DEFINED (__vector_dispatch_208)?(. - _ebase_address):__vector_offset_default
 *(.vector_208)
                0x9d000230                . = ALIGN (0x4)
                0x00000230                __vector_offset_209 = DEFINED (__vector_dispatch_209)?(. - _ebase_address):__vector_offset_default
 *(.vector_209)
                0x9d000230                . = ALIGN (0x4)
                0x00000230                __vector_offset_210 = DEFINED (__vector_dispatch_210)?(. - _ebase_address):__vector_offset_default
 *(.vector_210)
                0x9d000230                . = ALIGN (0x4)
                0x00000230                __vector_offset_211 = DEFINED (__vector_dispatch_211)?(. - _ebase_address):__vector_offset_default
 *(.vector_211)
                0x9d000230                . = ALIGN (0x4)
                0x00000230                __vector_offset_212 = DEFINED (__vector_dispatch_212)?(. - _ebase_address):__vector_offset_default
 *(.vector_212)
                0x9d000230                . = ALIGN (0x4)
                0x00000230                __vector_offset_213 = DEFINED (__vector_dispatch_213)?(. - _ebase_address):__vector_offset_default
 *(.vector_213)
                0x9d000230                . = ALIGN (0x4)
                0x00000230                __vector_offset_214 = DEFINED (__vector_dispatch_214)?(. - _ebase_address):__vector_offset_default
 *(.vector_214)
                0x9d000230                . = ALIGN (0x4)
                0x00000230                __vector_offset_215 = DEFINED (__vector_dispatch_215)?(. - _ebase_address):__vector_offset_default
 *(.vector_215)
                0x9d000230                . = ALIGN (0x4)
                0x00000230                __vector_offset_216 = DEFINED (__vector_dispatch_216)?(. - _ebase_address):__vector_offset_default
 *(.vector_216)
                0x9d000230                . = ALIGN (0x4)
                0x00000230                __vector_offset_217 = DEFINED (__vector_dispatch_217)?(. - _ebase_address):__vector_offset_default
 *(.vector_217)
                0x9d000230                . = ALIGN (0x4)
                0x00000230                __vector_offset_218 = DEFINED (__vector_dispatch_218)?(. - _ebase_address):__vector_offset_default
 *(.vector_218)
                0x9d000230                . = ALIGN (0x4)
                0x00000230                __vector_offset_219 = DEFINED (__vector_dispatch_219)?(. - _ebase_address):__vector_offset_default
 *(.vector_219)
                0x9d000230                . = ALIGN (0x4)
                0x00000230                __vector_offset_220 = DEFINED (__vector_dispatch_220)?(. - _ebase_address):__vector_offset_default
 *(.vector_220)
                0x9d000230                . = ALIGN (0x4)
                0x00000230                __vector_offset_221 = DEFINED (__vector_dispatch_221)?(. - _ebase_address):__vector_offset_default
 *(.vector_221)
                0x9d000230                . = ALIGN (0x4)
                0x00000230                __vector_offset_222 = DEFINED (__vector_dispatch_222)?(. - _ebase_address):__vector_offset_default
 *(.vector_222)
                0x9d000230                . = ALIGN (0x4)
                0x00000230                __vector_offset_223 = DEFINED (__vector_dispatch_223)?(. - _ebase_address):__vector_offset_default
 *(.vector_223)
                0x9d000230                . = ALIGN (0x4)
                0x00000230                __vector_offset_224 = DEFINED (__vector_dispatch_224)?(. - _ebase_address):__vector_offset_default
 *(.vector_224)
                0x9d000230                . = ALIGN (0x4)
                0x00000230                __vector_offset_225 = DEFINED (__vector_dispatch_225)?(. - _ebase_address):__vector_offset_default
 *(.vector_225)
                0x9d000230                . = ALIGN (0x4)
                0x00000230                __vector_offset_226 = DEFINED (__vector_dispatch_226)?(. - _ebase_address):__vector_offset_default
 *(.vector_226)
                0x9d000230                . = ALIGN (0x4)
                0x00000230                __vector_offset_227 = DEFINED (__vector_dispatch_227)?(. - _ebase_address):__vector_offset_default
 *(.vector_227)
                0x9d000230                . = ALIGN (0x4)
                0x00000230                __vector_offset_228 = DEFINED (__vector_dispatch_228)?(. - _ebase_address):__vector_offset_default
 *(.vector_228)
                0x9d000230                . = ALIGN (0x4)
                0x00000230                __vector_offset_229 = DEFINED (__vector_dispatch_229)?(. - _ebase_address):__vector_offset_default
 *(.vector_229)
                0x9d000230                . = ALIGN (0x4)
                0x00000230                __vector_offset_230 = DEFINED (__vector_dispatch_230)?(. - _ebase_address):__vector_offset_default
 *(.vector_230)
                0x9d000230                . = ALIGN (0x4)
                0x00000230                __vector_offset_231 = DEFINED (__vector_dispatch_231)?(. - _ebase_address):__vector_offset_default
 *(.vector_231)
                0x9d000230                . = ALIGN (0x4)
                0x00000230                __vector_offset_232 = DEFINED (__vector_dispatch_232)?(. - _ebase_address):__vector_offset_default
 *(.vector_232)
                0x9d000230                . = ALIGN (0x4)
                0x00000230                __vector_offset_233 = DEFINED (__vector_dispatch_233)?(. - _ebase_address):__vector_offset_default
 *(.vector_233)
                0x9d000230                . = ALIGN (0x4)
                0x00000230                __vector_offset_234 = DEFINED (__vector_dispatch_234)?(. - _ebase_address):__vector_offset_default
 *(.vector_234)
                0x9d000230                . = ALIGN (0x4)
                0x00000230                __vector_offset_235 = DEFINED (__vector_dispatch_235)?(. - _ebase_address):__vector_offset_default
 *(.vector_235)
                0x9d000230                . = ALIGN (0x4)
                0x00000230                __vector_offset_236 = DEFINED (__vector_dispatch_236)?(. - _ebase_address):__vector_offset_default
 *(.vector_236)
                0x9d000230                . = ALIGN (0x4)
                0x00000230                __vector_offset_237 = DEFINED (__vector_dispatch_237)?(. - _ebase_address):__vector_offset_default
 *(.vector_237)
                0x9d000230                . = ALIGN (0x4)
                0x00000230                __vector_offset_238 = DEFINED (__vector_dispatch_238)?(. - _ebase_address):__vector_offset_default
 *(.vector_238)
                0x9d000230                . = ALIGN (0x4)
                0x00000230                __vector_offset_239 = DEFINED (__vector_dispatch_239)?(. - _ebase_address):__vector_offset_default
 *(.vector_239)
                0x9d000230                . = ALIGN (0x4)
                0x00000230                __vector_offset_240 = DEFINED (__vector_dispatch_240)?(. - _ebase_address):__vector_offset_default
 *(.vector_240)
                0x9d000230                . = ALIGN (0x4)
                0x00000230                __vector_offset_241 = DEFINED (__vector_dispatch_241)?(. - _ebase_address):__vector_offset_default
 *(.vector_241)
                0x9d000230                . = ALIGN (0x4)
                0x00000230                __vector_offset_242 = DEFINED (__vector_dispatch_242)?(. - _ebase_address):__vector_offset_default
 *(.vector_242)
                0x9d000230                . = ALIGN (0x4)
                0x00000230                __vector_offset_243 = DEFINED (__vector_dispatch_243)?(. - _ebase_address):__vector_offset_default
 *(.vector_243)
                0x9d000230                . = ALIGN (0x4)
                0x00000230                __vector_offset_244 = DEFINED (__vector_dispatch_244)?(. - _ebase_address):__vector_offset_default
 *(.vector_244)
                0x9d000230                . = ALIGN (0x4)
                0x00000230                __vector_offset_245 = DEFINED (__vector_dispatch_245)?(. - _ebase_address):__vector_offset_default
 *(.vector_245)
                0x9d000230                . = ALIGN (0x4)
                0x00000230                __vector_offset_246 = DEFINED (__vector_dispatch_246)?(. - _ebase_address):__vector_offset_default
 *(.vector_246)
                0x9d000230                . = ALIGN (0x4)
                0x00000230                __vector_offset_247 = DEFINED (__vector_dispatch_247)?(. - _ebase_address):__vector_offset_default
 *(.vector_247)
                0x9d000230                . = ALIGN (0x4)
                0x00000230                __vector_offset_248 = DEFINED (__vector_dispatch_248)?(. - _ebase_address):__vector_offset_default
 *(.vector_248)
                0x9d000230                . = ALIGN (0x4)
                0x00000230                __vector_offset_249 = DEFINED (__vector_dispatch_249)?(. - _ebase_address):__vector_offset_default
 *(.vector_249)
                0x9d000230                . = ALIGN (0x4)
                0x00000230                __vector_offset_250 = DEFINED (__vector_dispatch_250)?(. - _ebase_address):__vector_offset_default
 *(.vector_250)
                0x9d000230                . = ALIGN (0x4)
                0x00000230                __vector_offset_251 = DEFINED (__vector_dispatch_251)?(. - _ebase_address):__vector_offset_default
 *(.vector_251)
                0x9d000230                . = ALIGN (0x4)
                0x00000230                __vector_offset_252 = DEFINED (__vector_dispatch_252)?(. - _ebase_address):__vector_offset_default
 *(.vector_252)
                0x9d000230                . = ALIGN (0x4)
                0x00000230                __vector_offset_253 = DEFINED (__vector_dispatch_253)?(. - _ebase_address):__vector_offset_default
 *(.vector_253)
                0x9d000230                . = ALIGN (0x4)
                0x00000230                __vector_offset_254 = DEFINED (__vector_dispatch_254)?(. - _ebase_address):__vector_offset_default
 *(.vector_254)
                0x9d000230                . = ALIGN (0x4)
                0x00000230                __vector_offset_255 = DEFINED (__vector_dispatch_255)?(. - _ebase_address):__vector_offset_default
 *(.vector_255)
                0x9d000230                . = ALIGN (0x4)
                0x00000230                __vector_offset_default = (. - _ebase_address)
 *(.vector_default)
 .vector_default
                0x9d000230       0x48 f:/software_installations/mplab_xc32/bin/bin/../../lib/gcc/pic32mx/4.8.3/../../../../pic32mx/lib\libpic32.a(defaultinterrupt.o)
                0x9d000230                _DefaultInterrupt

.startup
 *(.startup)

.text           0x9d000278        0x0
 *(.stub .gnu.linkonce.t.*)
 *(.text.*personality*)
 *(.mips16.fn.*)
 *(.mips16.call.*)
 *(.gnu.warning)
                0x9d000278                . = ALIGN (0x4)

.init           0x9d000278        0x0
 *crti.o(.init)
 *crtbegin.o(.init)
 *(EXCLUDE_FILE(*crtn.o *crtend?.o *crtend.o) .init)
 *crtend.o(.init)
 *crtn.o(.init)
                0x9d000278                . = ALIGN (0x4)

.fini           0x9d000278        0x0
 *(.fini)
                0x9d000278                . = ALIGN (0x4)

.preinit_array  0x9d000278        0x0
                0x9d000278                PROVIDE (__preinit_array_start, .)
 *(.preinit_array)
                0x9d000278                PROVIDE (__preinit_array_end, .)
                0x9d000278                . = ALIGN (0x4)

.init_array     0x9d000278        0x0
                0x9d000278                PROVIDE (__init_array_start, .)
 *(SORT(.init_array.*))
 *(.init_array)
                0x9d000278                PROVIDE (__init_array_end, .)
                0x9d000278                . = ALIGN (0x4)

.fini_array     0x9d000278        0x0
                0x9d000278                PROVIDE (__fini_array_start, .)
 *(SORT(.fini_array.*))
 *(.fini_array)
                0x9d000278                PROVIDE (__fini_array_end, .)
                0x9d000278                . = ALIGN (0x4)

.ctors          0x9d000278        0x0
 *crtbegin.o(.ctors)
 *crtbegin?.o(.ctors)
 *(EXCLUDE_FILE(*crtend?.o *crtend.o) .ctors)
 *(SORT(.ctors.*))
 *(.ctors)
                0x9d000278                . = ALIGN (0x4)

.dtors          0x9d000278        0x0
 *crtbegin.o(.dtors)
 *crtbegin?.o(.dtors)
 *(EXCLUDE_FILE(*crtend?.o *crtend.o) .dtors)
 *(SORT(.dtors.*))
 *(.dtors)
                0x9d000278                . = ALIGN (0x4)

.rodata         0x9d000278        0x0
 *(.gnu.linkonce.r.*)
 *(.rodata1)
                0x9d000278                . = ALIGN (0x4)

.sdata2         0x9fc004b0        0x0
 *(.sdata2 .sdata2.* .gnu.linkonce.s2.*)
                0x9fc004b0                . = ALIGN (0x4)

.sbss2          0x9fc004b0        0x0
 *(.sbss2 .sbss2.* .gnu.linkonce.sb2.*)
                0x9fc004b0                . = ALIGN (0x4)

.eh_frame_hdr
 *(.eh_frame_hdr)
                0x9fc004b0                . = ALIGN (0x4)

.eh_frame
 *(.eh_frame)
                0x9fc004b0                . = ALIGN (0x4)

.gcc_except_table
 *(.gcc_except_table .gcc_except_table.*)
                0x9fc004b0                . = ALIGN (0x4)

.dbg_data       0x80000000        0x0
                0x80000000                . = (. + DEFINED (_DEBUGGER)?0x200:0x0)
                0x80000000                . = (. + DEFINED (_DEBUGGER)?0x80:0x0)

.jcr            0x80000000        0x0
 *(.jcr)
                0x80000000                . = ALIGN (0x4)

.eh_frame
 *(.eh_frame)
                0x80000000                . = ALIGN (0x4)

.gcc_except_table
 *(.gcc_except_table .gcc_except_table.*)
                0x80000000                . = ALIGN (0x4)

.persist        0x80000000        0x0
                0x80000000                _persist_begin = .
 *(.persist .persist.*)
 *(.pbss .pbss.*)
                0x80000000                . = ALIGN (0x4)
                0x80000000                _persist_end = .

.data           0x80000000        0x0
 *(.gnu.linkonce.d.*)
 *(.data1)
                0x80000000                . = ALIGN (0x4)
                0x80000000                . = .
                0x80007ff0                _gp = (ALIGN (0x10) + 0x7ff0)

.got            0x80000000        0x0
 *(.got.plt)
 *(.got)
                0x80000000                . = ALIGN (0x4)

.sdata          0x80000000      0x284
                0x80000000                _sdata_begin = .
 *(.sdata .sdata.* .gnu.linkonce.s.*)
 .sdata         0x80000000        0x8 build/default/production/_ext/1860398633/drv_mxt336t.o
                0x80000004                messageDataSize
 .sdata         0x80000008        0x4 build/default/production/_ext/1151653695/lodepng.o
                0x80000008                LODEPNG_VERSION_STRING
 .sdata         0x8000000c       0x10 build/default/production/_ext/1572996423/gfxu_string_utils.o
                0x8000000c                drawGlyphRow
                0x80000014                getGlyphRowDataSize
 .sdata         0x8000001c        0xc build/default/production/_ext/1988394548/drv_gfx_lcc_generic.o
                0x80000020                DRIVER_NAME
 .sdata         0x80000028      0x234 build/default/production/_ext/259038627/gfx_assets.o
                0x80000028                fontIndexTable_data
                0x80000030                fontList
                0x80000038                stringIndexTable_data
                0x80000040                NotoSans_Regular_index_table
                0x80000104                NotoSans_Regular_lookup_79
                0x8000010c                NotoSans_Regular_lookup_74_75
                0x80000114                NotoSans_Regular_lookup_72
                0x8000011c                NotoSans_Regular_lookup_6E_6F
                0x80000124                NotoSans_Regular_lookup_69
                0x8000012c                NotoSans_Regular_lookup_61
                0x80000130                NotoSans_Regular_lookup_52
                0x80000134                NotoSans_Regular_lookup_4D
                0x80000138                NotoSans_Regular_lookup_47
                0x8000013c                NotoSans_Regular_lookup_2E
                0x80000140                NotoSans_Regular_lookup_20
                0x80000144                NotoSans_Bold_index_table
                0x80000208                NotoSans_Bold_lookup_79
                0x80000210                NotoSans_Bold_lookup_72_73
                0x80000218                NotoSans_Bold_lookup_68_69
                0x80000220                NotoSans_Bold_lookup_65
                0x80000228                NotoSans_Bold_lookup_63
                0x80000230                NotoSans_Bold_lookup_61
                0x80000238                NotoSans_Bold_lookup_50
                0x80000240                NotoSans_Bold_lookup_4C_4D
                0x80000248                NotoSans_Bold_lookup_47_48
                0x80000250                NotoSans_Bold_lookup_41_43
                0x80000258                NotoSans_Bold_lookup_20
 .sdata         0x8000025c       0x24 f:/software_installations/mplab_xc32/bin/bin/../../lib/gcc/pic32mx/4.8.3/../../../../pic32mx/lib\libpic32.a(pic32_init_cache.o)
                0x8000025c                __pic32_icache_size
                0x80000260                __pic32_icache_linesize
                0x80000264                __pic32_icache_ways
                0x80000268                __pic32_dcache_size
                0x8000026c                __pic32_dcache_linesize
                0x80000270                __pic32_dcache_ways
                0x80000274                __pic32_scache_size
                0x80000278                __pic32_scache_linesize
                0x8000027c                __pic32_scache_ways
 .sdata         0x80000280        0x4 f:/software_installations/mplab_xc32/bin/bin/../../lib/gcc/pic32mx/4.8.3/../../../../pic32mx/lib\libpic32.a(xc32_uart.o)
                0x80000280                __XC_UART
                0x80000284                . = ALIGN (0x4)
                0x80000284                _sdata_end = .

.lit8
 *(.lit8)

.lit4
 *(.lit4)
                0x80000284                . = ALIGN (0x4)
                0x80000284                _data_end = .
                0x80000284                _bss_begin = .

.sbss           0x80000284      0x130
                0x80000284                _sbss_begin = .
 *(.dynsbss)
 *(.sbss .sbss.* .gnu.linkonce.sb.*)
 .sbss          0x80000284        0x4 build/default/production/_ext/1864665665/drv_i2c_bb_a.o
 .sbss          0x80000288       0x30 build/default/production/_ext/1572996423/gfxu_image_jpg_common.o
 .sbss          0x800002b8        0xc build/default/production/_ext/1572996423/gfxu_image_jpg_internal.o
 .sbss          0x800002c4        0xc build/default/production/_ext/1572996423/gfxu_image_jpg_external.o
 .sbss          0x800002d0        0x4 build/default/production/_ext/493962524/libaria.o
                0x800002d0                _initialized
 .sbss          0x800002d4        0x4 build/default/production/_ext/493962524/libaria_context.o
                0x800002d4                _activeContext
 .sbss          0x800002d8        0x1 build/default/production/_ext/493962524/libaria_widget_image_skin_classic.o
                0x800002d8                startCounting
 *fill*         0x800002d9        0x3 
 .sbss          0x800002dc        0x4 build/default/production/_ext/1026407831/gfx_context.o
                0x800002dc                _contextActive
 .sbss          0x800002e0        0x8 build/default/production/_ext/1026407831/gfx_driver_interface.o
                0x800002e0                GFX_DriverInterfaces
 .sbss          0x800002e8        0x8 build/default/production/_ext/1026407831/gfx_draw_ellipse.o
 .sbss          0x800002f0       0x28 build/default/production/_ext/1988394548/drv_gfx_lcc_generic.o
                0x800002f4                swapPending
                0x800002f8                vsyncEnd
                0x800002fc                vsyncPulseUp
                0x80000300                vsyncPulseDown
                0x80000304                vsyncPeriod
                0x80000308                hSyncs
                0x8000030c                pixels
                0x80000310                offset
                0x80000314                line
 .sbss          0x80000318        0x4 build/default/production/_ext/458109090/libaria_harmony.o
 .sbss          0x8000031c        0xc build/default/production/_ext/1688732426/system_exceptions.o
 *(.scommon)
 .scommon       0x80000328        0x4 build/default/production/_ext/1360937237/app.o
                0x80000328                appData
 .scommon       0x8000032c        0x8 build/default/production/_ext/1864665665/drv_i2c_bb_a.o
                0x8000032c                gDrvI2CCommonDataObj
                0x80000330                starttime
 .scommon       0x80000334       0x30 build/default/production/_ext/1860398633/drv_mxt336t.o
                0x80000334                infoBlockData
                0x80000338                touchScreenProcessor
                0x8000033c                touchEndID
                0x80000340                messageProcessor
                0x80000344                objectTable
                0x80000348                reportIDMapSize
                0x8000034c                infoBlockSize
                0x80000350                touchBaseID
                0x80000354                operationStatus
                0x80000358                reportIDMapList
                0x8000035c                objectCount
                0x80000360                commandProcessor
 .scommon       0x80000364        0x8 build/default/production/_ext/1691207160/sys_input.o
                0x80000364                listenerFlags
                0x80000368                eventCount
 .scommon       0x8000036c       0x30 build/default/production/_ext/1988394548/drv_gfx_lcc_generic.o
                0x8000036c                DISP_VER_RESOLUTION
                0x80000370                VER_BLANK
                0x80000374                state
                0x80000378                HBackPorch
                0x8000037c                cntxt
                0x80000380                DISP_VER_BACK_PORCH
                0x80000384                DISP_HOR_FRONT_PORCH
                0x80000388                DISP_HOR_PULSE_WIDTH
                0x8000038c                DISP_VER_PULSE_WIDTH
                0x80000390                DISP_HOR_RESOLUTION
                0x80000394                DISP_HOR_BACK_PORCH
                0x80000398                DISP_VER_FRONT_PORCH
 .scommon       0x8000039c        0x4 build/default/production/_ext/458109090/libaria_harmony.o
                0x8000039c                libariaObj
 .scommon       0x800003a0        0xc build/default/production/_ext/458109090/libaria_init.o
                0x800003a0                SloganButton
                0x800003a4                TitleLabel
                0x800003a8                LogoWidget
 .scommon       0x800003ac        0x8 build/default/production/_ext/340578644/sys_devcon.o
                0x800003ac                sysDevconObj
                0x800003b4                _sbss_end = .
                0x800003b4                . = ALIGN (0x4)

.bss            0x800003b4      0x3a8
 *(.dynbss)
 *(COMMON)
 COMMON         0x800003b4       0x8c build/default/production/_ext/1860398633/drv_mxt336t.o
                0x800003b4                infoBlock
                0x800003c0                sMXT336TDriverInstances
 COMMON         0x80000440       0x80 build/default/production/_ext/360842870/sys_dma.o
                0x80000440                gSysDMAChannelObj
 COMMON         0x800004c0      0x260 build/default/production/_ext/1691207160/sys_input.o
                0x800004c0                generalEvents
                0x800006c0                listeners
 COMMON         0x80000720       0x30 build/default/production/_ext/458109090/libaria_harmony.o
                0x80000720                inputListener
 COMMON         0x80000750        0xc build/default/production/_ext/1688732426/system_init.o
                0x80000750                sysObj
                0x8000075c                . = ALIGN ((. != 0x0)?0x4:0x1)
                0x8000075c                . = ALIGN (0x4)
                0x8000075c                _end = .
                0x8000075c                _bss_end = .
                0x000a0000                _bmxdudba_address = 0xa0000
                0x000a0000                _bmxdupba_address = 0xa0000

/DISCARD/
 *(.pdr)
 *(.rel.dyn)
 *(.note.GNU-stack)
 *(.note.GNU-stack)
 *(.gnu_debuglink)
 *(.gnu.lto_*)
 *(.discard)

.gptab.sdata
 *(.gptab.data)
 *(.gptab.sdata)

.gptab.sbss
 *(.gptab.bss)
 *(.gptab.sbss)

.mdebug.abi32   0x00000000        0x0
 *(.mdebug.abi32)
 .mdebug.abi32  0x00000000        0x0 build/default/production/_ext/1360937237/app.o
 .mdebug.abi32  0x00000000        0x0 build/default/production/_ext/1360937237/main.o
 .mdebug.abi32  0x00000000        0x0 build/default/production/_ext/1864665665/drv_i2c_bb_a.o
 .mdebug.abi32  0x00000000        0x0 build/default/production/_ext/1864665665/drv_i2c_bb.o
 .mdebug.abi32  0x00000000        0x0 build/default/production/_ext/1860398633/drv_mxt336t.o
 .mdebug.abi32  0x00000000        0x0 build/default/production/_ext/1528952846/jidctint.o
 .mdebug.abi32  0x00000000        0x0 build/default/production/_ext/1572996423/gfxu_image_jpg_common.o
 .mdebug.abi32  0x00000000        0x0 build/default/production/_ext/1572996423/gfxu_image_jpg_internal.o
 .mdebug.abi32  0x00000000        0x0 build/default/production/_ext/1572996423/gfxu_image_jpg_external.o
 .mdebug.abi32  0x00000000        0x0 build/default/production/_ext/1572996423/gfxu_image_png_external.o
 .mdebug.abi32  0x00000000        0x0 build/default/production/_ext/1572996423/gfxu_image_png_internal.o
 .mdebug.abi32  0x00000000        0x0 build/default/production/_ext/1151653695/lodepng.o
 .mdebug.abi32  0x00000000        0x0 build/default/production/_ext/1572996423/gfxu_image.o
 .mdebug.abi32  0x00000000        0x0 build/default/production/_ext/1572996423/gfxu_image_raw_external.o
 .mdebug.abi32  0x00000000        0x0 build/default/production/_ext/1572996423/gfxu_image_raw_internal.o
 .mdebug.abi32  0x00000000        0x0 build/default/production/_ext/1572996423/gfxu_image_rle_external.o
 .mdebug.abi32  0x00000000        0x0 build/default/production/_ext/1572996423/gfxu_image_rle_internal.o
 .mdebug.abi32  0x00000000        0x0 build/default/production/_ext/1572996423/gfxu_image_utils.o
 .mdebug.abi32  0x00000000        0x0 build/default/production/_ext/1572996423/gfxu_palette.o
 .mdebug.abi32  0x00000000        0x0 build/default/production/_ext/1572996423/gfxu_string.o
 .mdebug.abi32  0x00000000        0x0 build/default/production/_ext/1572996423/gfxu_string_external.o
 .mdebug.abi32  0x00000000        0x0 build/default/production/_ext/1572996423/gfxu_stringbuffer_external.o
 .mdebug.abi32  0x00000000        0x0 build/default/production/_ext/1572996423/gfxu_string_internal.o
 .mdebug.abi32  0x00000000        0x0 build/default/production/_ext/1572996423/gfxu_string_query.o
 .mdebug.abi32  0x00000000        0x0 build/default/production/_ext/1572996423/gfxu_string_utils.o
 .mdebug.abi32  0x00000000        0x0 build/default/production/_ext/493962524/libaria.o
 .mdebug.abi32  0x00000000        0x0 build/default/production/_ext/493962524/libaria_array.o
 .mdebug.abi32  0x00000000        0x0 build/default/production/_ext/493962524/libaria_context.o
 .mdebug.abi32  0x00000000        0x0 build/default/production/_ext/493962524/libaria_context_paint.o
 .mdebug.abi32  0x00000000        0x0 build/default/production/_ext/493962524/libaria_draw.o
 .mdebug.abi32  0x00000000        0x0 build/default/production/_ext/493962524/libaria_editwidget.o
 .mdebug.abi32  0x00000000        0x0 build/default/production/_ext/493962524/libaria_event.o
 .mdebug.abi32  0x00000000        0x0 build/default/production/_ext/493962524/libaria_input.o
 .mdebug.abi32  0x00000000        0x0 build/default/production/_ext/493962524/libaria_layer.o
 .mdebug.abi32  0x00000000        0x0 build/default/production/_ext/493962524/libaria_list.o
 .mdebug.abi32  0x00000000        0x0 build/default/production/_ext/493962524/libaria_rectarray.o
 .mdebug.abi32  0x00000000        0x0 build/default/production/_ext/493962524/libaria_scheme.o
 .mdebug.abi32  0x00000000        0x0 build/default/production/_ext/493962524/libaria_screen.o
 .mdebug.abi32  0x00000000        0x0 build/default/production/_ext/493962524/libaria_string.o
 .mdebug.abi32  0x00000000        0x0 build/default/production/_ext/493962524/libaria_utils.o
 .mdebug.abi32  0x00000000        0x0 build/default/production/_ext/493962524/libaria_widget.o
 .mdebug.abi32  0x00000000        0x0 build/default/production/_ext/493962524/libaria_widget_skin_classic.o
 .mdebug.abi32  0x00000000        0x0 build/default/production/_ext/493962524/libaria_widget_skin_classic_common.o
 .mdebug.abi32  0x00000000        0x0 build/default/production/_ext/493962524/libaria_widget_arc.o
 .mdebug.abi32  0x00000000        0x0 build/default/production/_ext/493962524/libaria_widget_arc_skin_classic.o
 .mdebug.abi32  0x00000000        0x0 build/default/production/_ext/493962524/libaria_widget_bar_graph.o
 .mdebug.abi32  0x00000000        0x0 build/default/production/_ext/493962524/libaria_widget_bar_graph_skin_classic.o
 .mdebug.abi32  0x00000000        0x0 build/default/production/_ext/493962524/libaria_widget_button.o
 .mdebug.abi32  0x00000000        0x0 build/default/production/_ext/493962524/libaria_widget_button_skin_classic.o
 .mdebug.abi32  0x00000000        0x0 build/default/production/_ext/493962524/libaria_widget_checkbox.o
 .mdebug.abi32  0x00000000        0x0 build/default/production/_ext/493962524/libaria_widget_checkbox_skin_classic.o
 .mdebug.abi32  0x00000000        0x0 build/default/production/_ext/493962524/libaria_widget_circle.o
 .mdebug.abi32  0x00000000        0x0 build/default/production/_ext/493962524/libaria_widget_circle_skin_classic.o
 .mdebug.abi32  0x00000000        0x0 build/default/production/_ext/493962524/libaria_widget_circular_gauge.o
 .mdebug.abi32  0x00000000        0x0 build/default/production/_ext/493962524/libaria_widget_circular_gauge_skin_classic.o
 .mdebug.abi32  0x00000000        0x0 build/default/production/_ext/493962524/libaria_widget_circular_slider.o
 .mdebug.abi32  0x00000000        0x0 build/default/production/_ext/493962524/libaria_widget_circular_slider_skin_classic.o
 .mdebug.abi32  0x00000000        0x0 build/default/production/_ext/493962524/libaria_widget_drawsurface.o
 .mdebug.abi32  0x00000000        0x0 build/default/production/_ext/493962524/libaria_widget_drawsurface_skin_classic.o
 .mdebug.abi32  0x00000000        0x0 build/default/production/_ext/493962524/libaria_widget_gradient.o
 .mdebug.abi32  0x00000000        0x0 build/default/production/_ext/493962524/libaria_widget_gradient_skin_classic.o
 .mdebug.abi32  0x00000000        0x0 build/default/production/_ext/493962524/libaria_widget_groupbox.o
 .mdebug.abi32  0x00000000        0x0 build/default/production/_ext/493962524/libaria_widget_groupbox_skin_classic.o
 .mdebug.abi32  0x00000000        0x0 build/default/production/_ext/493962524/libaria_widget_image.o
 .mdebug.abi32  0x00000000        0x0 build/default/production/_ext/493962524/libaria_widget_image_skin_classic.o
 .mdebug.abi32  0x00000000        0x0 build/default/production/_ext/493962524/libaria_widget_imageplus.o
 .mdebug.abi32  0x00000000        0x0 build/default/production/_ext/493962524/libaria_widget_imageplus_skin_classic.o
 .mdebug.abi32  0x00000000        0x0 build/default/production/_ext/493962524/libaria_widget_imagesequence.o
 .mdebug.abi32  0x00000000        0x0 build/default/production/_ext/493962524/libaria_widget_imagesequence_skin_classic.o
 .mdebug.abi32  0x00000000        0x0 build/default/production/_ext/493962524/libaria_widget_keypad.o
 .mdebug.abi32  0x00000000        0x0 build/default/production/_ext/493962524/libaria_widget_keypad_skin_classic.o
 .mdebug.abi32  0x00000000        0x0 build/default/production/_ext/493962524/libaria_widget_label.o
 .mdebug.abi32  0x00000000        0x0 build/default/production/_ext/493962524/libaria_widget_label_skin_classic.o
 .mdebug.abi32  0x00000000        0x0 build/default/production/_ext/493962524/libaria_widget_line.o
 .mdebug.abi32  0x00000000        0x0 build/default/production/_ext/493962524/libaria_widget_line_skin_classic.o
 .mdebug.abi32  0x00000000        0x0 build/default/production/_ext/493962524/libaria_widget_line_graph.o
 .mdebug.abi32  0x00000000        0x0 build/default/production/_ext/493962524/libaria_widget_line_graph_skin_classic.o
 .mdebug.abi32  0x00000000        0x0 build/default/production/_ext/493962524/libaria_widget_list.o
 .mdebug.abi32  0x00000000        0x0 build/default/production/_ext/493962524/libaria_widget_list_skin_classic.o
 .mdebug.abi32  0x00000000        0x0 build/default/production/_ext/493962524/libaria_widget_listwheel.o
 .mdebug.abi32  0x00000000        0x0 build/default/production/_ext/493962524/libaria_widget_listwheel_skin_classic.o
 .mdebug.abi32  0x00000000        0x0 build/default/production/_ext/493962524/libaria_widget_pie_chart.o
 .mdebug.abi32  0x00000000        0x0 build/default/production/_ext/493962524/libaria_widget_pie_chart_skin_classic.o
 .mdebug.abi32  0x00000000        0x0 build/default/production/_ext/493962524/libaria_widget_progressbar.o
 .mdebug.abi32  0x00000000        0x0 build/default/production/_ext/493962524/libaria_widget_progressbar_skin_classic.o
 .mdebug.abi32  0x00000000        0x0 build/default/production/_ext/493962524/libaria_widget_radial_menu.o
 .mdebug.abi32  0x00000000        0x0 build/default/production/_ext/493962524/libaria_widget_radial_menu_skin_classic.o
 .mdebug.abi32  0x00000000        0x0 build/default/production/_ext/493962524/libaria_widget_radiobutton.o
 .mdebug.abi32  0x00000000        0x0 build/default/production/_ext/493962524/libaria_widget_radiobutton_skin_classic.o
 .mdebug.abi32  0x00000000        0x0 build/default/production/_ext/493962524/libaria_radiobutton_group.o
 .mdebug.abi32  0x00000000        0x0 build/default/production/_ext/493962524/libaria_widget_rectangle.o
 .mdebug.abi32  0x00000000        0x0 build/default/production/_ext/493962524/libaria_widget_rectangle_skin_classic.o
 .mdebug.abi32  0x00000000        0x0 build/default/production/_ext/493962524/libaria_widget_scrollbar.o
 .mdebug.abi32  0x00000000        0x0 build/default/production/_ext/493962524/libaria_widget_scrollbar_skin_classic.o
 .mdebug.abi32  0x00000000        0x0 build/default/production/_ext/493962524/libaria_widget_slider.o
 .mdebug.abi32  0x00000000        0x0 build/default/production/_ext/493962524/libaria_widget_slider_skin_classic.o
 .mdebug.abi32  0x00000000        0x0 build/default/production/_ext/493962524/libaria_widget_textfield.o
 .mdebug.abi32  0x00000000        0x0 build/default/production/_ext/493962524/libaria_widget_textfield_skin_classic.o
 .mdebug.abi32  0x00000000        0x0 build/default/production/_ext/493962524/libaria_widget_touchtest.o
 .mdebug.abi32  0x00000000        0x0 build/default/production/_ext/493962524/libaria_widget_touchtest_skin_classic.o
 .mdebug.abi32  0x00000000        0x0 build/default/production/_ext/493962524/libaria_widget_window.o
 .mdebug.abi32  0x00000000        0x0 build/default/production/_ext/493962524/libaria_widget_window_skin_classic.o
 .mdebug.abi32  0x00000000        0x0 build/default/production/_ext/1026407831/gfx.o
 .mdebug.abi32  0x00000000        0x0 build/default/production/_ext/1026407831/gfx_color.o
 .mdebug.abi32  0x00000000        0x0 build/default/production/_ext/1026407831/gfx_context.o
 .mdebug.abi32  0x00000000        0x0 build/default/production/_ext/1026407831/gfx_default_impl.o
 .mdebug.abi32  0x00000000        0x0 build/default/production/_ext/1026407831/gfx_display.o
 .mdebug.abi32  0x00000000        0x0 build/default/production/_ext/1026407831/gfx_driver_interface.o
 .mdebug.abi32  0x00000000        0x0 build/default/production/_ext/1026407831/gfx_get.o
 .mdebug.abi32  0x00000000        0x0 build/default/production/_ext/1026407831/gfx_interface.o
 .mdebug.abi32  0x00000000        0x0 build/default/production/_ext/1026407831/gfx_layer.o
 .mdebug.abi32  0x00000000        0x0 build/default/production/_ext/1026407831/gfx_pixel_buffer.o
 .mdebug.abi32  0x00000000        0x0 build/default/production/_ext/1026407831/gfx_processor_interface.o
 .mdebug.abi32  0x00000000        0x0 build/default/production/_ext/1026407831/gfx_rect.o
 .mdebug.abi32  0x00000000        0x0 build/default/production/_ext/1026407831/gfx_util.o
 .mdebug.abi32  0x00000000        0x0 build/default/production/_ext/1026407831/gfx_set.o
 .mdebug.abi32  0x00000000        0x0 build/default/production/_ext/1026407831/gfx_color_blend.o
 .mdebug.abi32  0x00000000        0x0 build/default/production/_ext/1026407831/gfx_color_convert.o
 .mdebug.abi32  0x00000000        0x0 build/default/production/_ext/1026407831/gfx_color_lerp.o
 .mdebug.abi32  0x00000000        0x0 build/default/production/_ext/1026407831/gfx_color_value.o
 .mdebug.abi32  0x00000000        0x0 build/default/production/_ext/1026407831/gfx_draw_arc.o
 .mdebug.abi32  0x00000000        0x0 build/default/production/_ext/1026407831/gfx_draw_blit.o
 .mdebug.abi32  0x00000000        0x0 build/default/production/_ext/1026407831/gfx_draw_circle.o
 .mdebug.abi32  0x00000000        0x0 build/default/production/_ext/1026407831/gfx_draw_ellipse.o
 .mdebug.abi32  0x00000000        0x0 build/default/production/_ext/1026407831/gfx_draw_line.o
 .mdebug.abi32  0x00000000        0x0 build/default/production/_ext/1026407831/gfx_draw_pixel.o
 .mdebug.abi32  0x00000000        0x0 build/default/production/_ext/1026407831/gfx_draw_rect.o
 .mdebug.abi32  0x00000000        0x0 build/default/production/_ext/1026407831/gfx_draw_stretchblit.o
 .mdebug.abi32  0x00000000        0x0 build/default/production/_ext/1026407831/gfx_math.o
 .mdebug.abi32  0x00000000        0x0 build/default/production/_ext/360842870/sys_dma.o
 .mdebug.abi32  0x00000000        0x0 build/default/production/_ext/1691207160/sys_input.o
 .mdebug.abi32  0x00000000        0x0 build/default/production/_ext/1691207160/sys_input_listener.o
 .mdebug.abi32  0x00000000        0x0 build/default/production/_ext/549570029/sys_int_pic32.o
 .mdebug.abi32  0x00000000        0x0 build/default/production/_ext/1988394548/drv_gfx_lcc_generic.o
 .mdebug.abi32  0x00000000        0x0 build/default/production/_ext/458109090/libaria_harmony.o
 .mdebug.abi32  0x00000000        0x0 build/default/production/_ext/458109090/libaria_init.o
 .mdebug.abi32  0x00000000        0x0 build/default/production/_ext/458109090/libaria_events.o
 .mdebug.abi32  0x00000000        0x0 build/default/production/_ext/458109090/libaria_macros.o
 .mdebug.abi32  0x00000000        0x0 build/default/production/_ext/2065038297/gfx_display_def.o
 .mdebug.abi32  0x00000000        0x0 build/default/production/_ext/2065038297/gfx_driver_def.o
 .mdebug.abi32  0x00000000        0x0 build/default/production/_ext/2065038297/gfx_processor_def.o
 .mdebug.abi32  0x00000000        0x0 build/default/production/_ext/639803181/sys_clk_pic32mz.o
 .mdebug.abi32  0x00000000        0x0 build/default/production/_ext/340578644/sys_devcon.o
 .mdebug.abi32  0x00000000        0x0 build/default/production/_ext/340578644/sys_devcon_pic32mz.o
 .mdebug.abi32  0x00000000        0x0 build/default/production/_ext/822048611/sys_ports_static.o
 .mdebug.abi32  0x00000000        0x0 build/default/production/_ext/494920387/sys_memory_ddr_static.o
 .mdebug.abi32  0x00000000        0x0 build/default/production/_ext/1541531744/sys_memory_static.o
 .mdebug.abi32  0x00000000        0x0 build/default/production/_ext/74298950/bsp.o
 .mdebug.abi32  0x00000000        0x0 build/default/production/_ext/1688732426/system_init.o
 .mdebug.abi32  0x00000000        0x0 build/default/production/_ext/1688732426/system_interrupt.o
 .mdebug.abi32  0x00000000        0x0 build/default/production/_ext/1688732426/system_exceptions.o
 .mdebug.abi32  0x00000000        0x0 build/default/production/_ext/1688732426/system_tasks.o
 .mdebug.abi32  0x00000000        0x0 build/default/production/_ext/259038627/gfx_assets.o
 .mdebug.abi32  0x00000000        0x0 f:/software_installations/mplab_xc32/bin/bin/../../lib/gcc/pic32mx/4.8.3\libgcc.a(floatunsisf.o)
 .mdebug.abi32  0x00000000        0x0 f:/software_installations/mplab_xc32/bin/bin/../../lib/gcc/pic32mx/4.8.3/../../../../pic32mx/lib\libpic32.a(default-bootstrap-exception-handler.o)
 .mdebug.abi32  0x00000000        0x0 f:/software_installations/mplab_xc32/bin/bin/../../lib/gcc/pic32mx/4.8.3/../../../../pic32mx/lib\libpic32.a(default-on-reset.o)
 .mdebug.abi32  0x00000000        0x0 f:/software_installations/mplab_xc32/bin/bin/../../lib/gcc/pic32mx/4.8.3/../../../../pic32mx/lib\libpic32.a(default-on-bootstrap.o)
 .mdebug.abi32  0x00000000        0x0 f:/software_installations/mplab_xc32/bin/bin/../../lib/gcc/pic32mx/4.8.3/../../../../pic32mx/lib\libpic32.a(defaultinterrupt.o)
 .mdebug.abi32  0x00000000        0x0 f:/software_installations/mplab_xc32/bin/bin/../../lib/gcc/pic32mx/4.8.3/../../../../pic32mx/lib\libpic32.a(default-cache-err-exception-handler.o)
 .mdebug.abi32  0x00000000        0x0 f:/software_installations/mplab_xc32/bin/bin/../../lib/gcc/pic32mx/4.8.3/../../../../pic32mx/lib\libpic32.a(default-simple-tlb-refill-exception-handler.o)
 .mdebug.abi32  0x00000000        0x0 f:/software_installations/mplab_xc32/bin/bin/../../lib/gcc/pic32mx/4.8.3/../../../../pic32mx/lib\libc.a(fassert.o)
 .mdebug.abi32  0x00000000        0x0 f:/software_installations/mplab_xc32/bin/bin/../../lib/gcc/pic32mx/4.8.3/../../../../pic32mx/lib\libc.a(calloc.o)
 .mdebug.abi32  0x00000000        0x0 f:/software_installations/mplab_xc32/bin/bin/../../lib/gcc/pic32mx/4.8.3/../../../../pic32mx/lib\libc.a(malloc.o)
 .mdebug.abi32  0x00000000        0x0 f:/software_installations/mplab_xc32/bin/bin/../../lib/gcc/pic32mx/4.8.3/../../../../pic32mx/lib\libc.a(signal.o)
 .mdebug.abi32  0x00000000        0x0 f:/software_installations/mplab_xc32/bin/bin/../../lib/gcc/pic32mx/4.8.3/../../../../pic32mx/lib\libc.a(exit.o)
 .mdebug.abi32  0x00000000        0x0 f:/software_installations/mplab_xc32/bin/bin/../../lib/gcc/pic32mx/4.8.3/../../../../pic32mx/lib\libc.a(stdclean_simple.o)
 .mdebug.abi32  0x00000000        0x0 f:/software_installations/mplab_xc32/bin/bin/../../lib/gcc/pic32mx/4.8.3/../../../../pic32mx/lib\libc.a(fprintf_cdnopsuxX.eo)
 .mdebug.abi32  0x00000000        0x0 f:/software_installations/mplab_xc32/bin/bin/../../lib/gcc/pic32mx/4.8.3/../../../../pic32mx/lib\libc.a(sprintf_cdnopuxX.eo)
 .mdebug.abi32  0x00000000        0x0 f:/software_installations/mplab_xc32/bin/bin/../../lib/gcc/pic32mx/4.8.3/../../../../pic32mx/lib\libc.a(_iob.o)
 .mdebug.abi32  0x00000000        0x0 f:/software_installations/mplab_xc32/bin/bin/../../lib/gcc/pic32mx/4.8.3/../../../../pic32mx/lib\libc.a(doprnt_cdnopsuxX.eo)
 .mdebug.abi32  0x00000000        0x0 f:/software_installations/mplab_xc32/bin/bin/../../lib/gcc/pic32mx/4.8.3/../../../../pic32mx/lib\libc.a(_fputc_simple.o)
 .mdebug.abi32  0x00000000        0x0 f:/software_installations/mplab_xc32/bin/bin/../../lib/gcc/pic32mx/4.8.3/../../../../pic32mx/lib\libc.a(ctype.o)
 .mdebug.abi32  0x00000000        0x0 f:/software_installations/mplab_xc32/bin/bin/../../lib/gcc/pic32mx/4.8.3/../../../../pic32mx/lib\libc.a(_flsbuf_simple.o)
 .mdebug.abi32  0x00000000        0x0 f:/software_installations/mplab_xc32/bin/bin/../../lib/gcc/pic32mx/4.8.3\libgcc.a(_udivdi3.o)
 .mdebug.abi32  0x00000000        0x0 f:/software_installations/mplab_xc32/bin/bin/../../lib/gcc/pic32mx/4.8.3\libgcc.a(_umoddi3.o)
 .mdebug.abi32  0x00000000        0x0 f:/software_installations/mplab_xc32/bin/bin/../../lib/gcc/pic32mx/4.8.3/../../../../pic32mx/lib\libpic32.a(sbrk.o)
 .mdebug.abi32  0x00000000        0x0 f:/software_installations/mplab_xc32/bin/bin/../../lib/gcc/pic32mx/4.8.3/../../../../pic32mx/lib\libpic32.a(write.o)
 .mdebug.abi32  0x00000000        0x0 f:/software_installations/mplab_xc32/bin/bin/../../lib/gcc/pic32mx/4.8.3/../../../../pic32mx/lib\libpic32.a(errno.o)
 .mdebug.abi32  0x00000000        0x0 f:/software_installations/mplab_xc32/bin/bin/../../lib/gcc/pic32mx/4.8.3/../../../../pic32mx/lib\libpic32.a(_mon_putc.o)
 .mdebug.abi32  0x00000000        0x0 f:/software_installations/mplab_xc32/bin/bin/../../lib/gcc/pic32mx/4.8.3/../../../../pic32mx/lib\libpic32.a(xc32_uart.o)

.mdebug.abiN32
 *(.mdebug.abiN32)

.mdebug.abi64
 *(.mdebug.abi64)

.mdebug.abiO64
 *(.mdebug.abiO64)

.mdebug.eabi32
 *(.mdebug.eabi32)

.mdebug.eabi64
 *(.mdebug.eabi64)

.gcc_compiled_long32
 *(.gcc_compiled_long32)

.gcc_compiled_long64
 *(.gcc_compiled_long64)

.stab
 *(.stab)

.stabstr
 *(.stabstr)

.stab.excl
 *(.stab.excl)

.stab.exclstr
 *(.stab.exclstr)

.stab.index
 *(.stab.index)

.stab.indexstr
 *(.stab.indexstr)

.comment        0x00000000      0x11f
 *(.comment)
 .comment       0x00000000       0x3c build/default/production/_ext/1360937237/app.o
                                 0x3d (size before relaxing)
 .comment       0x00000000       0x3d build/default/production/_ext/1360937237/main.o
 .comment       0x00000000       0x3d build/default/production/_ext/1864665665/drv_i2c_bb_a.o
 .comment       0x00000000       0x3d build/default/production/_ext/1864665665/drv_i2c_bb.o
 .comment       0x00000000       0x3d build/default/production/_ext/1860398633/drv_mxt336t.o
 .comment       0x00000000       0x3d build/default/production/_ext/1528952846/jidctint.o
 .comment       0x00000000       0x3d build/default/production/_ext/1572996423/gfxu_image_jpg_common.o
 .comment       0x00000000       0x3d build/default/production/_ext/1572996423/gfxu_image_jpg_internal.o
 .comment       0x00000000       0x3d build/default/production/_ext/1572996423/gfxu_image_jpg_external.o
 .comment       0x00000000       0x3d build/default/production/_ext/1572996423/gfxu_image_png_external.o
 .comment       0x00000000       0x3d build/default/production/_ext/1572996423/gfxu_image_png_internal.o
 .comment       0x00000000       0x3d build/default/production/_ext/1151653695/lodepng.o
 .comment       0x00000000       0x3d build/default/production/_ext/1572996423/gfxu_image.o
 .comment       0x00000000       0x3d build/default/production/_ext/1572996423/gfxu_image_raw_external.o
 .comment       0x00000000       0x3d build/default/production/_ext/1572996423/gfxu_image_raw_internal.o
 .comment       0x00000000       0x3d build/default/production/_ext/1572996423/gfxu_image_rle_external.o
 .comment       0x00000000       0x3d build/default/production/_ext/1572996423/gfxu_image_rle_internal.o
 .comment       0x00000000       0x3d build/default/production/_ext/1572996423/gfxu_image_utils.o
 .comment       0x00000000       0x3d build/default/production/_ext/1572996423/gfxu_palette.o
 .comment       0x00000000       0x3d build/default/production/_ext/1572996423/gfxu_string.o
 .comment       0x00000000       0x3d build/default/production/_ext/1572996423/gfxu_string_external.o
 .comment       0x00000000       0x3d build/default/production/_ext/1572996423/gfxu_stringbuffer_external.o
 .comment       0x00000000       0x3d build/default/production/_ext/1572996423/gfxu_string_internal.o
 .comment       0x00000000       0x3d build/default/production/_ext/1572996423/gfxu_string_query.o
 .comment       0x00000000       0x3d build/default/production/_ext/1572996423/gfxu_string_utils.o
 .comment       0x00000000       0x3d build/default/production/_ext/493962524/libaria.o
 .comment       0x00000000       0x3d build/default/production/_ext/493962524/libaria_array.o
 .comment       0x00000000       0x3d build/default/production/_ext/493962524/libaria_context.o
 .comment       0x00000000       0x3d build/default/production/_ext/493962524/libaria_context_paint.o
 .comment       0x00000000       0x3d build/default/production/_ext/493962524/libaria_draw.o
 .comment       0x00000000       0x3d build/default/production/_ext/493962524/libaria_editwidget.o
 .comment       0x00000000       0x3d build/default/production/_ext/493962524/libaria_event.o
 .comment       0x00000000       0x3d build/default/production/_ext/493962524/libaria_input.o
 .comment       0x00000000       0x3d build/default/production/_ext/493962524/libaria_layer.o
 .comment       0x00000000       0x3d build/default/production/_ext/493962524/libaria_list.o
 .comment       0x00000000       0x3d build/default/production/_ext/493962524/libaria_rectarray.o
 .comment       0x00000000       0x3d build/default/production/_ext/493962524/libaria_scheme.o
 .comment       0x00000000       0x3d build/default/production/_ext/493962524/libaria_screen.o
 .comment       0x00000000       0x3d build/default/production/_ext/493962524/libaria_string.o
 .comment       0x00000000       0x3d build/default/production/_ext/493962524/libaria_utils.o
 .comment       0x00000000       0x3d build/default/production/_ext/493962524/libaria_widget.o
 .comment       0x00000000       0x3d build/default/production/_ext/493962524/libaria_widget_skin_classic.o
 .comment       0x00000000       0x3d build/default/production/_ext/493962524/libaria_widget_skin_classic_common.o
 .comment       0x00000000       0x3d build/default/production/_ext/493962524/libaria_widget_arc.o
 .comment       0x00000000       0x3d build/default/production/_ext/493962524/libaria_widget_arc_skin_classic.o
 .comment       0x00000000       0x3d build/default/production/_ext/493962524/libaria_widget_bar_graph.o
 .comment       0x00000000       0x3d build/default/production/_ext/493962524/libaria_widget_bar_graph_skin_classic.o
 .comment       0x00000000       0x3d build/default/production/_ext/493962524/libaria_widget_button.o
 .comment       0x00000000       0x3d build/default/production/_ext/493962524/libaria_widget_button_skin_classic.o
 .comment       0x00000000       0x3d build/default/production/_ext/493962524/libaria_widget_checkbox.o
 .comment       0x00000000       0x3d build/default/production/_ext/493962524/libaria_widget_checkbox_skin_classic.o
 .comment       0x00000000       0x3d build/default/production/_ext/493962524/libaria_widget_circle.o
 .comment       0x00000000       0x3d build/default/production/_ext/493962524/libaria_widget_circle_skin_classic.o
 .comment       0x00000000       0x3d build/default/production/_ext/493962524/libaria_widget_circular_gauge.o
 .comment       0x00000000       0x3d build/default/production/_ext/493962524/libaria_widget_circular_gauge_skin_classic.o
 .comment       0x00000000       0x3d build/default/production/_ext/493962524/libaria_widget_circular_slider.o
 .comment       0x00000000       0x3d build/default/production/_ext/493962524/libaria_widget_circular_slider_skin_classic.o
 .comment       0x00000000       0x3d build/default/production/_ext/493962524/libaria_widget_drawsurface.o
 .comment       0x00000000       0x3d build/default/production/_ext/493962524/libaria_widget_drawsurface_skin_classic.o
 .comment       0x00000000       0x3d build/default/production/_ext/493962524/libaria_widget_gradient.o
 .comment       0x00000000       0x3d build/default/production/_ext/493962524/libaria_widget_gradient_skin_classic.o
 .comment       0x00000000       0x3d build/default/production/_ext/493962524/libaria_widget_groupbox.o
 .comment       0x00000000       0x3d build/default/production/_ext/493962524/libaria_widget_groupbox_skin_classic.o
 .comment       0x00000000       0x3d build/default/production/_ext/493962524/libaria_widget_image.o
 .comment       0x00000000       0x3d build/default/production/_ext/493962524/libaria_widget_image_skin_classic.o
 .comment       0x00000000       0x3d build/default/production/_ext/493962524/libaria_widget_imageplus.o
 .comment       0x00000000       0x3d build/default/production/_ext/493962524/libaria_widget_imageplus_skin_classic.o
 .comment       0x00000000       0x3d build/default/production/_ext/493962524/libaria_widget_imagesequence.o
 .comment       0x00000000       0x3d build/default/production/_ext/493962524/libaria_widget_imagesequence_skin_classic.o
 .comment       0x00000000       0x3d build/default/production/_ext/493962524/libaria_widget_keypad.o
 .comment       0x00000000       0x3d build/default/production/_ext/493962524/libaria_widget_keypad_skin_classic.o
 .comment       0x00000000       0x3d build/default/production/_ext/493962524/libaria_widget_label.o
 .comment       0x00000000       0x3d build/default/production/_ext/493962524/libaria_widget_label_skin_classic.o
 .comment       0x00000000       0x3d build/default/production/_ext/493962524/libaria_widget_line.o
 .comment       0x00000000       0x3d build/default/production/_ext/493962524/libaria_widget_line_skin_classic.o
 .comment       0x00000000       0x3d build/default/production/_ext/493962524/libaria_widget_line_graph.o
 .comment       0x00000000       0x3d build/default/production/_ext/493962524/libaria_widget_line_graph_skin_classic.o
 .comment       0x00000000       0x3d build/default/production/_ext/493962524/libaria_widget_list.o
 .comment       0x00000000       0x3d build/default/production/_ext/493962524/libaria_widget_list_skin_classic.o
 .comment       0x00000000       0x3d build/default/production/_ext/493962524/libaria_widget_listwheel.o
 .comment       0x00000000       0x3d build/default/production/_ext/493962524/libaria_widget_listwheel_skin_classic.o
 .comment       0x00000000       0x3d build/default/production/_ext/493962524/libaria_widget_pie_chart.o
 .comment       0x00000000       0x3d build/default/production/_ext/493962524/libaria_widget_pie_chart_skin_classic.o
 .comment       0x00000000       0x3d build/default/production/_ext/493962524/libaria_widget_progressbar.o
 .comment       0x00000000       0x3d build/default/production/_ext/493962524/libaria_widget_progressbar_skin_classic.o
 .comment       0x00000000       0x3d build/default/production/_ext/493962524/libaria_widget_radial_menu.o
 .comment       0x00000000       0x3d build/default/production/_ext/493962524/libaria_widget_radial_menu_skin_classic.o
 .comment       0x00000000       0x3d build/default/production/_ext/493962524/libaria_widget_radiobutton.o
 .comment       0x00000000       0x3d build/default/production/_ext/493962524/libaria_widget_radiobutton_skin_classic.o
 .comment       0x00000000       0x3d build/default/production/_ext/493962524/libaria_radiobutton_group.o
 .comment       0x00000000       0x3d build/default/production/_ext/493962524/libaria_widget_rectangle.o
 .comment       0x00000000       0x3d build/default/production/_ext/493962524/libaria_widget_rectangle_skin_classic.o
 .comment       0x00000000       0x3d build/default/production/_ext/493962524/libaria_widget_scrollbar.o
 .comment       0x00000000       0x3d build/default/production/_ext/493962524/libaria_widget_scrollbar_skin_classic.o
 .comment       0x00000000       0x3d build/default/production/_ext/493962524/libaria_widget_slider.o
 .comment       0x00000000       0x3d build/default/production/_ext/493962524/libaria_widget_slider_skin_classic.o
 .comment       0x00000000       0x3d build/default/production/_ext/493962524/libaria_widget_textfield.o
 .comment       0x00000000       0x3d build/default/production/_ext/493962524/libaria_widget_textfield_skin_classic.o
 .comment       0x00000000       0x3d build/default/production/_ext/493962524/libaria_widget_touchtest.o
 .comment       0x00000000       0x3d build/default/production/_ext/493962524/libaria_widget_touchtest_skin_classic.o
 .comment       0x00000000       0x3d build/default/production/_ext/493962524/libaria_widget_window.o
 .comment       0x00000000       0x3d build/default/production/_ext/493962524/libaria_widget_window_skin_classic.o
 .comment       0x00000000       0x3d build/default/production/_ext/1026407831/gfx.o
 .comment       0x00000000       0x3d build/default/production/_ext/1026407831/gfx_color.o
 .comment       0x00000000       0x3d build/default/production/_ext/1026407831/gfx_context.o
 .comment       0x00000000       0x3d build/default/production/_ext/1026407831/gfx_default_impl.o
 .comment       0x00000000       0x3d build/default/production/_ext/1026407831/gfx_display.o
 .comment       0x00000000       0x3d build/default/production/_ext/1026407831/gfx_driver_interface.o
 .comment       0x00000000       0x3d build/default/production/_ext/1026407831/gfx_get.o
 .comment       0x00000000       0x3d build/default/production/_ext/1026407831/gfx_interface.o
 .comment       0x00000000       0x3d build/default/production/_ext/1026407831/gfx_layer.o
 .comment       0x00000000       0x3d build/default/production/_ext/1026407831/gfx_pixel_buffer.o
 .comment       0x00000000       0x3d build/default/production/_ext/1026407831/gfx_processor_interface.o
 .comment       0x00000000       0x3d build/default/production/_ext/1026407831/gfx_rect.o
 .comment       0x00000000       0x3d build/default/production/_ext/1026407831/gfx_util.o
 .comment       0x00000000       0x3d build/default/production/_ext/1026407831/gfx_set.o
 .comment       0x00000000       0x3d build/default/production/_ext/1026407831/gfx_color_blend.o
 .comment       0x00000000       0x3d build/default/production/_ext/1026407831/gfx_color_convert.o
 .comment       0x00000000       0x3d build/default/production/_ext/1026407831/gfx_color_lerp.o
 .comment       0x00000000       0x3d build/default/production/_ext/1026407831/gfx_color_value.o
 .comment       0x00000000       0x3d build/default/production/_ext/1026407831/gfx_draw_arc.o
 .comment       0x00000000       0x3d build/default/production/_ext/1026407831/gfx_draw_blit.o
 .comment       0x00000000       0x3d build/default/production/_ext/1026407831/gfx_draw_circle.o
 .comment       0x00000000       0x3d build/default/production/_ext/1026407831/gfx_draw_ellipse.o
 .comment       0x00000000       0x3d build/default/production/_ext/1026407831/gfx_draw_line.o
 .comment       0x00000000       0x3d build/default/production/_ext/1026407831/gfx_draw_pixel.o
 .comment       0x00000000       0x3d build/default/production/_ext/1026407831/gfx_draw_rect.o
 .comment       0x00000000       0x3d build/default/production/_ext/1026407831/gfx_draw_stretchblit.o
 .comment       0x00000000       0x3d build/default/production/_ext/1026407831/gfx_math.o
 .comment       0x00000000       0x3d build/default/production/_ext/360842870/sys_dma.o
 .comment       0x00000000       0x3d build/default/production/_ext/1691207160/sys_input.o
 .comment       0x00000000       0x3d build/default/production/_ext/1691207160/sys_input_listener.o
 .comment       0x00000000       0x3d build/default/production/_ext/549570029/sys_int_pic32.o
 .comment       0x00000000       0x3d build/default/production/_ext/1988394548/drv_gfx_lcc_generic.o
 .comment       0x00000000       0x3d build/default/production/_ext/458109090/libaria_harmony.o
 .comment       0x00000000       0x3d build/default/production/_ext/458109090/libaria_init.o
 .comment       0x00000000       0x3d build/default/production/_ext/458109090/libaria_events.o
 .comment       0x00000000       0x3d build/default/production/_ext/458109090/libaria_macros.o
 .comment       0x00000000       0x3d build/default/production/_ext/2065038297/gfx_display_def.o
 .comment       0x00000000       0x3d build/default/production/_ext/2065038297/gfx_driver_def.o
 .comment       0x00000000       0x3d build/default/production/_ext/2065038297/gfx_processor_def.o
 .comment       0x00000000       0x3d build/default/production/_ext/639803181/sys_clk_pic32mz.o
 .comment       0x00000000       0x3d build/default/production/_ext/340578644/sys_devcon.o
 .comment       0x00000000       0x3d build/default/production/_ext/340578644/sys_devcon_pic32mz.o
 .comment       0x00000000       0x3d build/default/production/_ext/822048611/sys_ports_static.o
 .comment       0x00000000       0x3d build/default/production/_ext/494920387/sys_memory_ddr_static.o
 .comment       0x00000000       0x3d build/default/production/_ext/1541531744/sys_memory_static.o
 .comment       0x00000000       0x3d build/default/production/_ext/74298950/bsp.o
 .comment       0x00000000       0x3d build/default/production/_ext/1688732426/system_init.o
 .comment       0x00000000       0x3d build/default/production/_ext/1688732426/system_interrupt.o
 .comment       0x00000000       0x3d build/default/production/_ext/1688732426/system_exceptions.o
 .comment       0x00000000       0x3d build/default/production/_ext/1688732426/system_tasks.o
 .comment       0x00000000       0x3d build/default/production/_ext/259038627/gfx_assets.o
 .comment       0x00000000       0x3d f:/software_installations/mplab_xc32/bin/bin/../../lib/gcc/pic32mx/4.8.3\libgcc.a(floatunsisf.o)
 .comment       0x0000003c       0x18 f:/software_installations/mplab_xc32/bin/bin/../../lib/gcc/pic32mx/4.8.3/../../../../pic32mx/lib\libpic32.a(memset.o)
                                 0x19 (size before relaxing)
 .comment       0x00000054       0x19 f:/software_installations/mplab_xc32/bin/bin/../../lib/gcc/pic32mx/4.8.3/../../../../pic32mx/lib\libpic32.a(strcpy.o)
                                 0x1a (size before relaxing)
 .comment       0x0000006d       0x19 f:/software_installations/mplab_xc32/bin/bin/../../lib/gcc/pic32mx/4.8.3/../../../../pic32mx/lib\libpic32.a(strlen.o)
                                 0x1a (size before relaxing)
 .comment       0x00000000       0x3d f:/software_installations/mplab_xc32/bin/bin/../../lib/gcc/pic32mx/4.8.3/../../../../pic32mx/lib\libpic32.a(default-bootstrap-exception-handler.o)
 .comment       0x00000000       0x3d f:/software_installations/mplab_xc32/bin/bin/../../lib/gcc/pic32mx/4.8.3/../../../../pic32mx/lib\libpic32.a(default-on-reset.o)
 .comment       0x00000000       0x3d f:/software_installations/mplab_xc32/bin/bin/../../lib/gcc/pic32mx/4.8.3/../../../../pic32mx/lib\libpic32.a(default-on-bootstrap.o)
 .comment       0x00000000       0x3d f:/software_installations/mplab_xc32/bin/bin/../../lib/gcc/pic32mx/4.8.3/../../../../pic32mx/lib\libpic32.a(defaultinterrupt.o)
 .comment       0x00000000       0x3d f:/software_installations/mplab_xc32/bin/bin/../../lib/gcc/pic32mx/4.8.3/../../../../pic32mx/lib\libpic32.a(default-cache-err-exception-handler.o)
 .comment       0x00000000       0x3d f:/software_installations/mplab_xc32/bin/bin/../../lib/gcc/pic32mx/4.8.3/../../../../pic32mx/lib\libpic32.a(default-simple-tlb-refill-exception-handler.o)
 .comment       0x00000000       0x3d f:/software_installations/mplab_xc32/bin/bin/../../lib/gcc/pic32mx/4.8.3/../../../../pic32mx/lib\libc.a(fassert.o)
 .comment       0x00000000       0x3d f:/software_installations/mplab_xc32/bin/bin/../../lib/gcc/pic32mx/4.8.3/../../../../pic32mx/lib\libc.a(calloc.o)
 .comment       0x00000000       0x3d f:/software_installations/mplab_xc32/bin/bin/../../lib/gcc/pic32mx/4.8.3/../../../../pic32mx/lib\libc.a(malloc.o)
 .comment       0x00000000       0x3d f:/software_installations/mplab_xc32/bin/bin/../../lib/gcc/pic32mx/4.8.3/../../../../pic32mx/lib\libc.a(signal.o)
 .comment       0x00000000       0x3d f:/software_installations/mplab_xc32/bin/bin/../../lib/gcc/pic32mx/4.8.3/../../../../pic32mx/lib\libc.a(exit.o)
 .comment       0x00000000       0x3d f:/software_installations/mplab_xc32/bin/bin/../../lib/gcc/pic32mx/4.8.3/../../../../pic32mx/lib\libc.a(stdclean_simple.o)
 .comment       0x00000000       0x3d f:/software_installations/mplab_xc32/bin/bin/../../lib/gcc/pic32mx/4.8.3/../../../../pic32mx/lib\libc.a(fprintf_cdnopsuxX.eo)
 .comment       0x00000000       0x3d f:/software_installations/mplab_xc32/bin/bin/../../lib/gcc/pic32mx/4.8.3/../../../../pic32mx/lib\libc.a(sprintf_cdnopuxX.eo)
 .comment       0x00000000       0x3d f:/software_installations/mplab_xc32/bin/bin/../../lib/gcc/pic32mx/4.8.3/../../../../pic32mx/lib\libc.a(_iob.o)
 .comment       0x00000000       0x3d f:/software_installations/mplab_xc32/bin/bin/../../lib/gcc/pic32mx/4.8.3/../../../../pic32mx/lib\libc.a(doprnt_cdnopsuxX.eo)
 .comment       0x00000000       0x3d f:/software_installations/mplab_xc32/bin/bin/../../lib/gcc/pic32mx/4.8.3/../../../../pic32mx/lib\libc.a(_fputc_simple.o)
 .comment       0x00000086       0x4e f:/software_installations/mplab_xc32/bin/bin/../../lib/gcc/pic32mx/4.8.3/../../../../pic32mx/lib\libc.a(ctype.o)
                                 0x8b (size before relaxing)
 .comment       0x00000000       0x3d f:/software_installations/mplab_xc32/bin/bin/../../lib/gcc/pic32mx/4.8.3/../../../../pic32mx/lib\libc.a(_flsbuf_simple.o)
 .comment       0x00000000       0x3d f:/software_installations/mplab_xc32/bin/bin/../../lib/gcc/pic32mx/4.8.3\libgcc.a(_udivdi3.o)
 .comment       0x00000000       0x3d f:/software_installations/mplab_xc32/bin/bin/../../lib/gcc/pic32mx/4.8.3\libgcc.a(_umoddi3.o)
 .comment       0x000000d4       0x4b f:/software_installations/mplab_xc32/bin/bin/../../lib/gcc/pic32mx/4.8.3/../../../../pic32mx/lib\libpic32.a(sbrk.o)
                                 0x88 (size before relaxing)
 .comment       0x00000000       0x3d f:/software_installations/mplab_xc32/bin/bin/../../lib/gcc/pic32mx/4.8.3/../../../../pic32mx/lib\libpic32.a(write.o)
 .comment       0x00000000       0x3d f:/software_installations/mplab_xc32/bin/bin/../../lib/gcc/pic32mx/4.8.3/../../../../pic32mx/lib\libpic32.a(errno.o)
 .comment       0x00000000       0x3d f:/software_installations/mplab_xc32/bin/bin/../../lib/gcc/pic32mx/4.8.3/../../../../pic32mx/lib\libpic32.a(_mon_putc.o)
 .comment       0x00000000       0x3d f:/software_installations/mplab_xc32/bin/bin/../../lib/gcc/pic32mx/4.8.3/../../../../pic32mx/lib\libpic32.a(xc32_uart.o)

.debug
 *.elf(.debug)
 *(.debug)

.line
 *.elf(.line)
 *(.line)

.debug_srcinfo
 *.elf(.debug_srcinfo)
 *(.debug_srcinfo)

.debug_sfnames
 *.elf(.debug_sfnames)
 *(.debug_sfnames)

.debug_aranges  0x00000000     0x5498
 *.elf(.debug_aranges)
 *(.debug_aranges)
 .debug_aranges
                0x00000000       0x28 build/default/production/_ext/1360937237/app.o
 .debug_aranges
                0x00000028       0x20 build/default/production/_ext/1360937237/main.o
 .debug_aranges
                0x00000048       0xf8 build/default/production/_ext/1864665665/drv_i2c_bb_a.o
 .debug_aranges
                0x00000140       0x60 build/default/production/_ext/1864665665/drv_i2c_bb.o
 .debug_aranges
                0x000001a0       0x68 build/default/production/_ext/1860398633/drv_mxt336t.o
 .debug_aranges
                0x00000208       0x20 build/default/production/_ext/1528952846/jidctint.o
 .debug_aranges
                0x00000228       0x80 build/default/production/_ext/1572996423/gfxu_image_jpg_common.o
 .debug_aranges
                0x000002a8       0x28 build/default/production/_ext/1572996423/gfxu_image_jpg_internal.o
 .debug_aranges
                0x000002d0       0x28 build/default/production/_ext/1572996423/gfxu_image_jpg_external.o
 .debug_aranges
                0x000002f8       0x20 build/default/production/_ext/1572996423/gfxu_image_png_external.o
 .debug_aranges
                0x00000318       0x38 build/default/production/_ext/1572996423/gfxu_image_png_internal.o
 .debug_aranges
                0x00000350      0x3f0 build/default/production/_ext/1151653695/lodepng.o
 .debug_aranges
                0x00000740       0x28 build/default/production/_ext/1572996423/gfxu_image.o
 .debug_aranges
                0x00000768       0x38 build/default/production/_ext/1572996423/gfxu_image_raw_external.o
 .debug_aranges
                0x000007a0       0x20 build/default/production/_ext/1572996423/gfxu_image_raw_internal.o
 .debug_aranges
                0x000007c0       0x48 build/default/production/_ext/1572996423/gfxu_image_rle_external.o
 .debug_aranges
                0x00000808       0x20 build/default/production/_ext/1572996423/gfxu_image_rle_internal.o
 .debug_aranges
                0x00000828       0x88 build/default/production/_ext/1572996423/gfxu_image_utils.o
 .debug_aranges
                0x000008b0       0x20 build/default/production/_ext/1572996423/gfxu_palette.o
 .debug_aranges
                0x000008d0       0x48 build/default/production/_ext/1572996423/gfxu_string.o
 .debug_aranges
                0x00000918       0x38 build/default/production/_ext/1572996423/gfxu_string_external.o
 .debug_aranges
                0x00000950       0x38 build/default/production/_ext/1572996423/gfxu_stringbuffer_external.o
 .debug_aranges
                0x00000988       0x38 build/default/production/_ext/1572996423/gfxu_string_internal.o
 .debug_aranges
                0x000009c0       0x80 build/default/production/_ext/1572996423/gfxu_string_query.o
 .debug_aranges
                0x00000a40       0xc0 build/default/production/_ext/1572996423/gfxu_string_utils.o
 .debug_aranges
                0x00000b00       0x30 build/default/production/_ext/493962524/libaria.o
 .debug_aranges
                0x00000b30       0xa0 build/default/production/_ext/493962524/libaria_array.o
 .debug_aranges
                0x00000bd0      0x118 build/default/production/_ext/493962524/libaria_context.o
 .debug_aranges
                0x00000ce8       0x38 build/default/production/_ext/493962524/libaria_context_paint.o
 .debug_aranges
                0x00000d20       0x38 build/default/production/_ext/493962524/libaria_draw.o
 .debug_aranges
                0x00000d58       0x98 build/default/production/_ext/493962524/libaria_editwidget.o
 .debug_aranges
                0x00000df0       0x40 build/default/production/_ext/493962524/libaria_event.o
 .debug_aranges
                0x00000e30       0x68 build/default/production/_ext/493962524/libaria_input.o
 .debug_aranges
                0x00000e98      0x120 build/default/production/_ext/493962524/libaria_layer.o
 .debug_aranges
                0x00000fb8       0x80 build/default/production/_ext/493962524/libaria_list.o
 .debug_aranges
                0x00001038       0xa0 build/default/production/_ext/493962524/libaria_rectarray.o
 .debug_aranges
                0x000010d8       0x20 build/default/production/_ext/493962524/libaria_scheme.o
 .debug_aranges
                0x000010f8       0xa0 build/default/production/_ext/493962524/libaria_screen.o
 .debug_aranges
                0x00001198      0x148 build/default/production/_ext/493962524/libaria_string.o
 .debug_aranges
                0x000012e0      0x118 build/default/production/_ext/493962524/libaria_utils.o
 .debug_aranges
                0x000013f8      0x250 build/default/production/_ext/493962524/libaria_widget.o
 .debug_aranges
                0x00001648       0x30 build/default/production/_ext/493962524/libaria_widget_skin_classic.o
 .debug_aranges
                0x00001678       0xd8 build/default/production/_ext/493962524/libaria_widget_skin_classic_common.o
 .debug_aranges
                0x00001750       0x80 build/default/production/_ext/493962524/libaria_widget_arc.o
 .debug_aranges
                0x000017d0       0x48 build/default/production/_ext/493962524/libaria_widget_arc_skin_classic.o
 .debug_aranges
                0x00001818      0x188 build/default/production/_ext/493962524/libaria_widget_bar_graph.o
 .debug_aranges
                0x000019a0       0x60 build/default/production/_ext/493962524/libaria_widget_bar_graph_skin_classic.o
 .debug_aranges
                0x00001a00      0x118 build/default/production/_ext/493962524/libaria_widget_button.o
 .debug_aranges
                0x00001b18       0x70 build/default/production/_ext/493962524/libaria_widget_button_skin_classic.o
 .debug_aranges
                0x00001b88      0x108 build/default/production/_ext/493962524/libaria_widget_checkbox.o
 .debug_aranges
                0x00001c90       0x68 build/default/production/_ext/493962524/libaria_widget_checkbox_skin_classic.o
 .debug_aranges
                0x00001cf8       0x50 build/default/production/_ext/493962524/libaria_widget_circle.o
 .debug_aranges
                0x00001d48       0x40 build/default/production/_ext/493962524/libaria_widget_circle_skin_classic.o
 .debug_aranges
                0x00001d88      0x180 build/default/production/_ext/493962524/libaria_widget_circular_gauge.o
 .debug_aranges
                0x00001f08       0x50 build/default/production/_ext/493962524/libaria_widget_circular_gauge_skin_classic.o
 .debug_aranges
                0x00001f58      0x140 build/default/production/_ext/493962524/libaria_widget_circular_slider.o
 .debug_aranges
                0x00002098       0x40 build/default/production/_ext/493962524/libaria_widget_circular_slider_skin_classic.o
 .debug_aranges
                0x000020d8       0x40 build/default/production/_ext/493962524/libaria_widget_drawsurface.o
 .debug_aranges
                0x00002118       0x40 build/default/production/_ext/493962524/libaria_widget_drawsurface_skin_classic.o
 .debug_aranges
                0x00002158       0x40 build/default/production/_ext/493962524/libaria_widget_gradient.o
 .debug_aranges
                0x00002198       0x38 build/default/production/_ext/493962524/libaria_widget_gradient_skin_classic.o
 .debug_aranges
                0x000021d0       0x58 build/default/production/_ext/493962524/libaria_widget_groupbox.o
 .debug_aranges
                0x00002228       0x60 build/default/production/_ext/493962524/libaria_widget_groupbox_skin_classic.o
 .debug_aranges
                0x00002288       0x78 build/default/production/_ext/493962524/libaria_widget_image.o
 .debug_aranges
                0x00002300       0x50 build/default/production/_ext/493962524/libaria_widget_image_skin_classic.o
 .debug_aranges
                0x00002350       0xe8 build/default/production/_ext/493962524/libaria_widget_imageplus.o
 .debug_aranges
                0x00002438       0x48 build/default/production/_ext/493962524/libaria_widget_imageplus_skin_classic.o
 .debug_aranges
                0x00002480       0xe0 build/default/production/_ext/493962524/libaria_widget_imagesequence.o
 .debug_aranges
                0x00002560       0x50 build/default/production/_ext/493962524/libaria_widget_imagesequence_skin_classic.o
 .debug_aranges
                0x000025b0      0x108 build/default/production/_ext/493962524/libaria_widget_keypad.o
 .debug_aranges
                0x000026b8       0x40 build/default/production/_ext/493962524/libaria_widget_keypad_skin_classic.o
 .debug_aranges
                0x000026f8       0x70 build/default/production/_ext/493962524/libaria_widget_label.o
 .debug_aranges
                0x00002768       0x50 build/default/production/_ext/493962524/libaria_widget_label_skin_classic.o
 .debug_aranges
                0x000027b8       0x50 build/default/production/_ext/493962524/libaria_widget_line.o
 .debug_aranges
                0x00002808       0x40 build/default/production/_ext/493962524/libaria_widget_line_skin_classic.o
 .debug_aranges
                0x00002848      0x1d8 build/default/production/_ext/493962524/libaria_widget_line_graph.o
 .debug_aranges
                0x00002a20       0x68 build/default/production/_ext/493962524/libaria_widget_line_graph_skin_classic.o
 .debug_aranges
                0x00002a88      0x170 build/default/production/_ext/493962524/libaria_widget_list.o
 .debug_aranges
                0x00002bf8       0x90 build/default/production/_ext/493962524/libaria_widget_list_skin_classic.o
 .debug_aranges
                0x00002c88      0x1c8 build/default/production/_ext/493962524/libaria_widget_listwheel.o
 .debug_aranges
                0x00002e50       0x90 build/default/production/_ext/493962524/libaria_widget_listwheel_skin_classic.o
 .debug_aranges
                0x00002ee0       0xf0 build/default/production/_ext/493962524/libaria_widget_pie_chart.o
 .debug_aranges
                0x00002fd0       0x40 build/default/production/_ext/493962524/libaria_widget_pie_chart_skin_classic.o
 .debug_aranges
                0x00003010       0x60 build/default/production/_ext/493962524/libaria_widget_progressbar.o
 .debug_aranges
                0x00003070       0x48 build/default/production/_ext/493962524/libaria_widget_progressbar_skin_classic.o
 .debug_aranges
                0x000030b8      0x148 build/default/production/_ext/493962524/libaria_widget_radial_menu.o
 .debug_aranges
                0x00003200       0x48 build/default/production/_ext/493962524/libaria_widget_radial_menu_skin_classic.o
 .debug_aranges
                0x00003248      0x118 build/default/production/_ext/493962524/libaria_widget_radiobutton.o
 .debug_aranges
                0x00003360       0x68 build/default/production/_ext/493962524/libaria_widget_radiobutton_skin_classic.o
 .debug_aranges
                0x000033c8       0x40 build/default/production/_ext/493962524/libaria_radiobutton_group.o
 .debug_aranges
                0x00003408       0x38 build/default/production/_ext/493962524/libaria_widget_rectangle.o
 .debug_aranges
                0x00003440       0x48 build/default/production/_ext/493962524/libaria_widget_rectangle_skin_classic.o
 .debug_aranges
                0x00003488      0x100 build/default/production/_ext/493962524/libaria_widget_scrollbar.o
 .debug_aranges
                0x00003588       0x70 build/default/production/_ext/493962524/libaria_widget_scrollbar_skin_classic.o
 .debug_aranges
                0x000035f8       0xe0 build/default/production/_ext/493962524/libaria_widget_slider.o
 .debug_aranges
                0x000036d8       0x58 build/default/production/_ext/493962524/libaria_widget_slider_skin_classic.o
 .debug_aranges
                0x00003730      0x110 build/default/production/_ext/493962524/libaria_widget_textfield.o
 .debug_aranges
                0x00003840       0x60 build/default/production/_ext/493962524/libaria_widget_textfield_skin_classic.o
 .debug_aranges
                0x000038a0       0x70 build/default/production/_ext/493962524/libaria_widget_touchtest.o
 .debug_aranges
                0x00003910       0x48 build/default/production/_ext/493962524/libaria_widget_touchtest_skin_classic.o
 .debug_aranges
                0x00003958       0x78 build/default/production/_ext/493962524/libaria_widget_window.o
 .debug_aranges
                0x000039d0       0x78 build/default/production/_ext/493962524/libaria_widget_window_skin_classic.o
 .debug_aranges
                0x00003a48       0x80 build/default/production/_ext/1026407831/gfx.o
 .debug_aranges
                0x00003ac8       0x40 build/default/production/_ext/1026407831/gfx_color.o
 .debug_aranges
                0x00003b08       0x30 build/default/production/_ext/1026407831/gfx_context.o
 .debug_aranges
                0x00003b38      0x368 build/default/production/_ext/1026407831/gfx_default_impl.o
 .debug_aranges
                0x00003ea0       0x20 build/default/production/_ext/1026407831/gfx_display.o
 .debug_aranges
                0x00003ec0       0x30 build/default/production/_ext/1026407831/gfx_driver_interface.o
 .debug_aranges
                0x00003ef0      0x190 build/default/production/_ext/1026407831/gfx_get.o
 .debug_aranges
                0x00004080       0x18 build/default/production/_ext/1026407831/gfx_interface.o
 .debug_aranges
                0x00004098       0x70 build/default/production/_ext/1026407831/gfx_layer.o
 .debug_aranges
                0x00004108      0x100 build/default/production/_ext/1026407831/gfx_pixel_buffer.o
 .debug_aranges
                0x00004208       0x18 build/default/production/_ext/1026407831/gfx_processor_interface.o
 .debug_aranges
                0x00004220       0x70 build/default/production/_ext/1026407831/gfx_rect.o
 .debug_aranges
                0x00004290       0xa8 build/default/production/_ext/1026407831/gfx_util.o
 .debug_aranges
                0x00004338      0x168 build/default/production/_ext/1026407831/gfx_set.o
 .debug_aranges
                0x000044a0       0x20 build/default/production/_ext/1026407831/gfx_color_blend.o
 .debug_aranges
                0x000044c0      0x208 build/default/production/_ext/1026407831/gfx_color_convert.o
 .debug_aranges
                0x000046c8       0x60 build/default/production/_ext/1026407831/gfx_color_lerp.o
 .debug_aranges
                0x00004728       0x20 build/default/production/_ext/1026407831/gfx_color_value.o
 .debug_aranges
                0x00004748       0x48 build/default/production/_ext/1026407831/gfx_draw_arc.o
 .debug_aranges
                0x00004790       0x40 build/default/production/_ext/1026407831/gfx_draw_blit.o
 .debug_aranges
                0x000047d0       0x28 build/default/production/_ext/1026407831/gfx_draw_circle.o
 .debug_aranges
                0x000047f8       0x28 build/default/production/_ext/1026407831/gfx_draw_ellipse.o
 .debug_aranges
                0x00004820       0x60 build/default/production/_ext/1026407831/gfx_draw_line.o
 .debug_aranges
                0x00004880       0x38 build/default/production/_ext/1026407831/gfx_draw_pixel.o
 .debug_aranges
                0x000048b8       0x68 build/default/production/_ext/1026407831/gfx_draw_rect.o
 .debug_aranges
                0x00004920       0x30 build/default/production/_ext/1026407831/gfx_draw_stretchblit.o
 .debug_aranges
                0x00004950       0xb8 build/default/production/_ext/1026407831/gfx_math.o
 .debug_aranges
                0x00004a08       0xd0 build/default/production/_ext/360842870/sys_dma.o
 .debug_aranges
                0x00004ad8       0x98 build/default/production/_ext/1691207160/sys_input.o
 .debug_aranges
                0x00004b70       0x70 build/default/production/_ext/1691207160/sys_input_listener.o
 .debug_aranges
                0x00004be0       0x48 build/default/production/_ext/549570029/sys_int_pic32.o
 .debug_aranges
                0x00004c28       0x70 build/default/production/_ext/1988394548/drv_gfx_lcc_generic.o
 .debug_aranges
                0x00004c98       0x40 build/default/production/_ext/458109090/libaria_harmony.o
 .debug_aranges
                0x00004cd8       0x28 build/default/production/_ext/458109090/libaria_init.o
 .debug_aranges
                0x00004d00       0x18 build/default/production/_ext/458109090/libaria_events.o
 .debug_aranges
                0x00004d18       0x18 build/default/production/_ext/458109090/libaria_macros.o
 .debug_aranges
                0x00004d30       0x18 build/default/production/_ext/2065038297/gfx_display_def.o
 .debug_aranges
                0x00004d48       0x20 build/default/production/_ext/2065038297/gfx_driver_def.o
 .debug_aranges
                0x00004d68       0x20 build/default/production/_ext/2065038297/gfx_processor_def.o
 .debug_aranges
                0x00004d88       0x50 build/default/production/_ext/639803181/sys_clk_pic32mz.o
 .debug_aranges
                0x00004dd8       0x78 build/default/production/_ext/340578644/sys_devcon.o
 .debug_aranges
                0x00004e50       0xc8 build/default/production/_ext/340578644/sys_devcon_pic32mz.o
 .debug_aranges
                0x00004f18      0x148 build/default/production/_ext/822048611/sys_ports_static.o
 .debug_aranges
                0x00005060       0x20 build/default/production/_ext/494920387/sys_memory_ddr_static.o
 .debug_aranges
                0x00005080       0x20 build/default/production/_ext/1541531744/sys_memory_static.o
 .debug_aranges
                0x000050a0       0x20 build/default/production/_ext/74298950/bsp.o
 .debug_aranges
                0x000050c0       0x20 build/default/production/_ext/1688732426/system_init.o
 .debug_aranges
                0x000050e0       0x40 build/default/production/_ext/1688732426/system_interrupt.o
 .debug_aranges
                0x00005120       0x20 build/default/production/_ext/1688732426/system_exceptions.o
 .debug_aranges
                0x00005140       0x20 build/default/production/_ext/1688732426/system_tasks.o
 .debug_aranges
                0x00005160       0x18 build/default/production/_ext/259038627/gfx_assets.o
 .debug_aranges
                0x00005178       0x20 f:/software_installations/mplab_xc32/bin/bin/../../lib/gcc/pic32mx/4.8.3\libgcc.a(floatunsisf.o)
 .debug_aranges
                0x00005198       0x20 f:/software_installations/mplab_xc32/bin/bin/../../lib/gcc/pic32mx/4.8.3/../../../../pic32mx/lib\libpic32.a(default-bootstrap-exception-handler.o)
 .debug_aranges
                0x000051b8       0x20 f:/software_installations/mplab_xc32/bin/bin/../../lib/gcc/pic32mx/4.8.3/../../../../pic32mx/lib\libpic32.a(default-on-reset.o)
 .debug_aranges
                0x000051d8       0x20 f:/software_installations/mplab_xc32/bin/bin/../../lib/gcc/pic32mx/4.8.3/../../../../pic32mx/lib\libpic32.a(default-on-bootstrap.o)
 .debug_aranges
                0x000051f8       0x20 f:/software_installations/mplab_xc32/bin/bin/../../lib/gcc/pic32mx/4.8.3/../../../../pic32mx/lib\libpic32.a(defaultinterrupt.o)
 .debug_aranges
                0x00005218       0x20 f:/software_installations/mplab_xc32/bin/bin/../../lib/gcc/pic32mx/4.8.3/../../../../pic32mx/lib\libpic32.a(default-cache-err-exception-handler.o)
 .debug_aranges
                0x00005238       0x20 f:/software_installations/mplab_xc32/bin/bin/../../lib/gcc/pic32mx/4.8.3/../../../../pic32mx/lib\libpic32.a(default-simple-tlb-refill-exception-handler.o)
 .debug_aranges
                0x00005258       0x20 f:/software_installations/mplab_xc32/bin/bin/../../lib/gcc/pic32mx/4.8.3/../../../../pic32mx/lib\libc.a(fassert.o)
 .debug_aranges
                0x00005278       0x20 f:/software_installations/mplab_xc32/bin/bin/../../lib/gcc/pic32mx/4.8.3/../../../../pic32mx/lib\libc.a(calloc.o)
 .debug_aranges
                0x00005298       0x30 f:/software_installations/mplab_xc32/bin/bin/../../lib/gcc/pic32mx/4.8.3/../../../../pic32mx/lib\libc.a(malloc.o)
 .debug_aranges
                0x000052c8       0x30 f:/software_installations/mplab_xc32/bin/bin/../../lib/gcc/pic32mx/4.8.3/../../../../pic32mx/lib\libc.a(signal.o)
 .debug_aranges
                0x000052f8       0x20 f:/software_installations/mplab_xc32/bin/bin/../../lib/gcc/pic32mx/4.8.3/../../../../pic32mx/lib\libc.a(exit.o)
 .debug_aranges
                0x00005318       0x20 f:/software_installations/mplab_xc32/bin/bin/../../lib/gcc/pic32mx/4.8.3/../../../../pic32mx/lib\libc.a(stdclean_simple.o)
 .debug_aranges
                0x00005338       0x20 f:/software_installations/mplab_xc32/bin/bin/../../lib/gcc/pic32mx/4.8.3/../../../../pic32mx/lib\libc.a(fprintf_cdnopsuxX.eo)
 .debug_aranges
                0x00005358       0x20 f:/software_installations/mplab_xc32/bin/bin/../../lib/gcc/pic32mx/4.8.3/../../../../pic32mx/lib\libc.a(sprintf_cdnopuxX.eo)
 .debug_aranges
                0x00005378       0x20 f:/software_installations/mplab_xc32/bin/bin/../../lib/gcc/pic32mx/4.8.3/../../../../pic32mx/lib\libc.a(doprnt_cdnopsuxX.eo)
 .debug_aranges
                0x00005398       0x20 f:/software_installations/mplab_xc32/bin/bin/../../lib/gcc/pic32mx/4.8.3/../../../../pic32mx/lib\libc.a(_fputc_simple.o)
 .debug_aranges
                0x000053b8       0x20 f:/software_installations/mplab_xc32/bin/bin/../../lib/gcc/pic32mx/4.8.3/../../../../pic32mx/lib\libc.a(_flsbuf_simple.o)
 .debug_aranges
                0x000053d8       0x20 f:/software_installations/mplab_xc32/bin/bin/../../lib/gcc/pic32mx/4.8.3\libgcc.a(_udivdi3.o)
 .debug_aranges
                0x000053f8       0x20 f:/software_installations/mplab_xc32/bin/bin/../../lib/gcc/pic32mx/4.8.3\libgcc.a(_umoddi3.o)
 .debug_aranges
                0x00005418       0x40 f:/software_installations/mplab_xc32/bin/bin/../../lib/gcc/pic32mx/4.8.3/../../../../pic32mx/lib\libpic32.a(sbrk.o)
 .debug_aranges
                0x00005458       0x20 f:/software_installations/mplab_xc32/bin/bin/../../lib/gcc/pic32mx/4.8.3/../../../../pic32mx/lib\libpic32.a(write.o)
 .debug_aranges
                0x00005478       0x20 f:/software_installations/mplab_xc32/bin/bin/../../lib/gcc/pic32mx/4.8.3/../../../../pic32mx/lib\libpic32.a(_mon_putc.o)

.debug_pubnames
 *.elf(.debug_pubnames)
 *(.debug_pubnames)

.debug_info     0x00000000   0x20a406
 *.elf(.debug_info .gnu.linkonce.wi.*)
 *(.debug_info .gnu.linkonce.wi.*)
 .debug_info    0x00000000     0x1629 build/default/production/_ext/1360937237/app.o
 .debug_info    0x00001629      0x1b5 build/default/production/_ext/1360937237/main.o
 .debug_info    0x000017de     0x9e2b build/default/production/_ext/1864665665/drv_i2c_bb_a.o
 .debug_info    0x0000b609     0x5fa3 build/default/production/_ext/1864665665/drv_i2c_bb.o
 .debug_info    0x000115ac     0x5eba build/default/production/_ext/1860398633/drv_mxt336t.o
 .debug_info    0x00017466      0x577 build/default/production/_ext/1528952846/jidctint.o
 .debug_info    0x000179dd     0x28f7 build/default/production/_ext/1572996423/gfxu_image_jpg_common.o
 .debug_info    0x0001a2d4     0x1fec build/default/production/_ext/1572996423/gfxu_image_jpg_internal.o
 .debug_info    0x0001c2c0     0x1ba8 build/default/production/_ext/1572996423/gfxu_image_jpg_external.o
 .debug_info    0x0001de68     0x4299 build/default/production/_ext/1572996423/gfxu_image_png_external.o
 .debug_info    0x00022101     0x3f63 build/default/production/_ext/1572996423/gfxu_image_png_internal.o
 .debug_info    0x00026064     0xcd7e build/default/production/_ext/1151653695/lodepng.o
 .debug_info    0x00032de2     0x1ecd build/default/production/_ext/1572996423/gfxu_image.o
 .debug_info    0x00034caf     0x1e54 build/default/production/_ext/1572996423/gfxu_image_raw_external.o
 .debug_info    0x00036b03     0x1623 build/default/production/_ext/1572996423/gfxu_image_raw_internal.o
 .debug_info    0x00038126     0x2061 build/default/production/_ext/1572996423/gfxu_image_rle_external.o
 .debug_info    0x0003a187     0x4159 build/default/production/_ext/1572996423/gfxu_image_rle_internal.o
 .debug_info    0x0003e2e0     0x17d3 build/default/production/_ext/1572996423/gfxu_image_utils.o
 .debug_info    0x0003fab3      0xe7f build/default/production/_ext/1572996423/gfxu_palette.o
 .debug_info    0x00040932     0x1d05 build/default/production/_ext/1572996423/gfxu_string.o
 .debug_info    0x00042637     0x18c8 build/default/production/_ext/1572996423/gfxu_string_external.o
 .debug_info    0x00043eff     0x15a8 build/default/production/_ext/1572996423/gfxu_stringbuffer_external.o
 .debug_info    0x000454a7     0x1265 build/default/production/_ext/1572996423/gfxu_string_internal.o
 .debug_info    0x0004670c     0x1b5f build/default/production/_ext/1572996423/gfxu_string_query.o
 .debug_info    0x0004826b     0x25d5 build/default/production/_ext/1572996423/gfxu_string_utils.o
 .debug_info    0x0004a840     0x31c1 build/default/production/_ext/493962524/libaria.o
 .debug_info    0x0004da01     0x302b build/default/production/_ext/493962524/libaria_array.o
 .debug_info    0x00050a2c     0x4d3b build/default/production/_ext/493962524/libaria_context.o
 .debug_info    0x00055767     0x41d0 build/default/production/_ext/493962524/libaria_context_paint.o
 .debug_info    0x00059937     0x1294 build/default/production/_ext/493962524/libaria_draw.o
 .debug_info    0x0005abcb     0x225a build/default/production/_ext/493962524/libaria_editwidget.o
 .debug_info    0x0005ce25     0x2dcb build/default/production/_ext/493962524/libaria_event.o
 .debug_info    0x0005fbf0     0x3e37 build/default/production/_ext/493962524/libaria_input.o
 .debug_info    0x00063a27     0x4c39 build/default/production/_ext/493962524/libaria_layer.o
 .debug_info    0x00068660     0x309a build/default/production/_ext/493962524/libaria_list.o
 .debug_info    0x0006b6fa     0x320a build/default/production/_ext/493962524/libaria_rectarray.o
 .debug_info    0x0006e904      0xdaa build/default/production/_ext/493962524/libaria_scheme.o
 .debug_info    0x0006f6ae     0x3e95 build/default/production/_ext/493962524/libaria_screen.o
 .debug_info    0x00073543     0x47b2 build/default/production/_ext/493962524/libaria_string.o
 .debug_info    0x00077cf5     0x4763 build/default/production/_ext/493962524/libaria_utils.o
 .debug_info    0x0007c458     0x512f build/default/production/_ext/493962524/libaria_widget.o
 .debug_info    0x00081587     0x2c8a build/default/production/_ext/493962524/libaria_widget_skin_classic.o
 .debug_info    0x00084211     0x4283 build/default/production/_ext/493962524/libaria_widget_skin_classic_common.o
 .debug_info    0x00088494     0x2fd6 build/default/production/_ext/493962524/libaria_widget_arc.o
 .debug_info    0x0008b46a     0x3ac9 build/default/production/_ext/493962524/libaria_widget_arc_skin_classic.o
 .debug_info    0x0008ef33     0x46a3 build/default/production/_ext/493962524/libaria_widget_bar_graph.o
 .debug_info    0x000935d6     0x4fb2 build/default/production/_ext/493962524/libaria_widget_bar_graph_skin_classic.o
 .debug_info    0x00098588     0x480d build/default/production/_ext/493962524/libaria_widget_button.o
 .debug_info    0x0009cd95     0x4999 build/default/production/_ext/493962524/libaria_widget_button_skin_classic.o
 .debug_info    0x000a172e     0x4438 build/default/production/_ext/493962524/libaria_widget_checkbox.o
 .debug_info    0x000a5b66     0x45dc build/default/production/_ext/493962524/libaria_widget_checkbox_skin_classic.o
 .debug_info    0x000aa142     0x2df3 build/default/production/_ext/493962524/libaria_widget_circle.o
 .debug_info    0x000acf35     0x38a2 build/default/production/_ext/493962524/libaria_widget_circle_skin_classic.o
 .debug_info    0x000b07d7     0x456b build/default/production/_ext/493962524/libaria_widget_circular_gauge.o
 .debug_info    0x000b4d42     0x49d6 build/default/production/_ext/493962524/libaria_widget_circular_gauge_skin_classic.o
 .debug_info    0x000b9718     0x417f build/default/production/_ext/493962524/libaria_widget_circular_slider.o
 .debug_info    0x000bd897     0x41f9 build/default/production/_ext/493962524/libaria_widget_circular_slider_skin_classic.o
 .debug_info    0x000c1a90     0x2d90 build/default/production/_ext/493962524/libaria_widget_drawsurface.o
 .debug_info    0x000c4820     0x2e5c build/default/production/_ext/493962524/libaria_widget_drawsurface_skin_classic.o
 .debug_info    0x000c767c     0x2de3 build/default/production/_ext/493962524/libaria_widget_gradient.o
 .debug_info    0x000ca45f     0x390d build/default/production/_ext/493962524/libaria_widget_gradient_skin_classic.o
 .debug_info    0x000cdd6c     0x354d build/default/production/_ext/493962524/libaria_widget_groupbox.o
 .debug_info    0x000d12b9     0x40ef build/default/production/_ext/493962524/libaria_widget_groupbox_skin_classic.o
 .debug_info    0x000d53a8     0x387c build/default/production/_ext/493962524/libaria_widget_image.o
 .debug_info    0x000d8c24     0x3a93 build/default/production/_ext/493962524/libaria_widget_image_skin_classic.o
 .debug_info    0x000dc6b7     0x3ed2 build/default/production/_ext/493962524/libaria_widget_imageplus.o
 .debug_info    0x000e0589     0x39ed build/default/production/_ext/493962524/libaria_widget_imageplus_skin_classic.o
 .debug_info    0x000e3f76     0x39e6 build/default/production/_ext/493962524/libaria_widget_imagesequence.o
 .debug_info    0x000e795c     0x3afe build/default/production/_ext/493962524/libaria_widget_imagesequence_skin_classic.o
 .debug_info    0x000eb45a     0x4bf4 build/default/production/_ext/493962524/libaria_widget_keypad.o
 .debug_info    0x000f004e     0x308e build/default/production/_ext/493962524/libaria_widget_keypad_skin_classic.o
 .debug_info    0x000f30dc     0x365b build/default/production/_ext/493962524/libaria_widget_label.o
 .debug_info    0x000f6737     0x3fa2 build/default/production/_ext/493962524/libaria_widget_label_skin_classic.o
 .debug_info    0x000fa6d9     0x2e04 build/default/production/_ext/493962524/libaria_widget_line.o
 .debug_info    0x000fd4dd     0x393b build/default/production/_ext/493962524/libaria_widget_line_skin_classic.o
 .debug_info    0x00100e18     0x4d85 build/default/production/_ext/493962524/libaria_widget_line_graph.o
 .debug_info    0x00105b9d     0x56ad build/default/production/_ext/493962524/libaria_widget_line_graph_skin_classic.o
 .debug_info    0x0010b24a     0x5847 build/default/production/_ext/493962524/libaria_widget_list.o
 .debug_info    0x00110a91     0x4de2 build/default/production/_ext/493962524/libaria_widget_list_skin_classic.o
 .debug_info    0x00115873     0x53cb build/default/production/_ext/493962524/libaria_widget_listwheel.o
 .debug_info    0x0011ac3e     0x5dcd build/default/production/_ext/493962524/libaria_widget_listwheel_skin_classic.o
 .debug_info    0x00120a0b     0x3bc2 build/default/production/_ext/493962524/libaria_widget_pie_chart.o
 .debug_info    0x001245cd     0x3f68 build/default/production/_ext/493962524/libaria_widget_pie_chart_skin_classic.o
 .debug_info    0x00128535     0x358d build/default/production/_ext/493962524/libaria_widget_progressbar.o
 .debug_info    0x0012bac2     0x3af9 build/default/production/_ext/493962524/libaria_widget_progressbar_skin_classic.o
 .debug_info    0x0012f5bb     0x5d26 build/default/production/_ext/493962524/libaria_widget_radial_menu.o
 .debug_info    0x001352e1     0x43ee build/default/production/_ext/493962524/libaria_widget_radial_menu_skin_classic.o
 .debug_info    0x001396cf     0x486e build/default/production/_ext/493962524/libaria_widget_radiobutton.o
 .debug_info    0x0013df3d     0x4f32 build/default/production/_ext/493962524/libaria_widget_radiobutton_skin_classic.o
 .debug_info    0x00142e6f     0x3534 build/default/production/_ext/493962524/libaria_radiobutton_group.o
 .debug_info    0x001463a3     0x2d32 build/default/production/_ext/493962524/libaria_widget_rectangle.o
 .debug_info    0x001490d5     0x3b10 build/default/production/_ext/493962524/libaria_widget_rectangle_skin_classic.o
 .debug_info    0x0014cbe5     0x431f build/default/production/_ext/493962524/libaria_widget_scrollbar.o
 .debug_info    0x00150f04     0x451c build/default/production/_ext/493962524/libaria_widget_scrollbar_skin_classic.o
 .debug_info    0x00155420     0x3ef3 build/default/production/_ext/493962524/libaria_widget_slider.o
 .debug_info    0x00159313     0x37fe build/default/production/_ext/493962524/libaria_widget_slider_skin_classic.o
 .debug_info    0x0015cb11     0x438b build/default/production/_ext/493962524/libaria_widget_textfield.o
 .debug_info    0x00160e9c     0x4029 build/default/production/_ext/493962524/libaria_widget_textfield_skin_classic.o
 .debug_info    0x00164ec5     0x3760 build/default/production/_ext/493962524/libaria_widget_touchtest.o
 .debug_info    0x00168625     0x3bdf build/default/production/_ext/493962524/libaria_widget_touchtest_skin_classic.o
 .debug_info    0x0016c204     0x392d build/default/production/_ext/493962524/libaria_widget_window.o
 .debug_info    0x0016fb31     0x4425 build/default/production/_ext/493962524/libaria_widget_window_skin_classic.o
 .debug_info    0x00173f56     0x3f6b build/default/production/_ext/1026407831/gfx.o
 .debug_info    0x00177ec1      0x853 build/default/production/_ext/1026407831/gfx_color.o
 .debug_info    0x00178714     0x32d9 build/default/production/_ext/1026407831/gfx_context.o
 .debug_info    0x0017b9ed     0x5972 build/default/production/_ext/1026407831/gfx_default_impl.o
 .debug_info    0x0018135f      0xa5f build/default/production/_ext/1026407831/gfx_display.o
 .debug_info    0x00181dbe     0x3477 build/default/production/_ext/1026407831/gfx_driver_interface.o
 .debug_info    0x00185235     0x4ab9 build/default/production/_ext/1026407831/gfx_get.o
 .debug_info    0x00189cee      0x8a3 build/default/production/_ext/1026407831/gfx_interface.o
 .debug_info    0x0018a591     0x3670 build/default/production/_ext/1026407831/gfx_layer.o
 .debug_info    0x0018dc01     0x1d00 build/default/production/_ext/1026407831/gfx_pixel_buffer.o
 .debug_info    0x0018f901      0x767 build/default/production/_ext/1026407831/gfx_processor_interface.o
 .debug_info    0x00190068      0x903 build/default/production/_ext/1026407831/gfx_rect.o
 .debug_info    0x0019096b     0x1001 build/default/production/_ext/1026407831/gfx_util.o
 .debug_info    0x0019196c     0x4741 build/default/production/_ext/1026407831/gfx_set.o
 .debug_info    0x001960ad      0x966 build/default/production/_ext/1026407831/gfx_color_blend.o
 .debug_info    0x00196a13     0x4836 build/default/production/_ext/1026407831/gfx_color_convert.o
 .debug_info    0x0019b249     0x1200 build/default/production/_ext/1026407831/gfx_color_lerp.o
 .debug_info    0x0019c449      0x939 build/default/production/_ext/1026407831/gfx_color_value.o
 .debug_info    0x0019cd82     0x44ab build/default/production/_ext/1026407831/gfx_draw_arc.o
 .debug_info    0x001a122d     0x39bf build/default/production/_ext/1026407831/gfx_draw_blit.o
 .debug_info    0x001a4bec     0x34f2 build/default/production/_ext/1026407831/gfx_draw_circle.o
 .debug_info    0x001a80de     0x3647 build/default/production/_ext/1026407831/gfx_draw_ellipse.o
 .debug_info    0x001ab725     0x3ca5 build/default/production/_ext/1026407831/gfx_draw_line.o
 .debug_info    0x001af3ca     0x3572 build/default/production/_ext/1026407831/gfx_draw_pixel.o
 .debug_info    0x001b293c     0x3a25 build/default/production/_ext/1026407831/gfx_draw_rect.o
 .debug_info    0x001b6361     0x3b74 build/default/production/_ext/1026407831/gfx_draw_stretchblit.o
 .debug_info    0x001b9ed5      0xc3b build/default/production/_ext/1026407831/gfx_math.o
 .debug_info    0x001bab10     0x8b5b build/default/production/_ext/360842870/sys_dma.o
 .debug_info    0x001c366b     0x1ad9 build/default/production/_ext/1691207160/sys_input.o
 .debug_info    0x001c5144     0x155f build/default/production/_ext/1691207160/sys_input_listener.o
 .debug_info    0x001c66a3     0x2295 build/default/production/_ext/549570029/sys_int_pic32.o
 .debug_info    0x001c8938     0xac66 build/default/production/_ext/1988394548/drv_gfx_lcc_generic.o
 .debug_info    0x001d359e     0x51a9 build/default/production/_ext/458109090/libaria_harmony.o
 .debug_info    0x001d8747     0x48d6 build/default/production/_ext/458109090/libaria_init.o
 .debug_info    0x001dd01d     0x14b6 build/default/production/_ext/458109090/libaria_events.o
 .debug_info    0x001de4d3     0x14b6 build/default/production/_ext/458109090/libaria_macros.o
 .debug_info    0x001df989      0x9ee build/default/production/_ext/2065038297/gfx_display_def.o
 .debug_info    0x001e0377     0x3340 build/default/production/_ext/2065038297/gfx_driver_def.o
 .debug_info    0x001e36b7      0x796 build/default/production/_ext/2065038297/gfx_processor_def.o
 .debug_info    0x001e3e4d     0x36dc build/default/production/_ext/639803181/sys_clk_pic32mz.o
 .debug_info    0x001e7529     0x1a5d build/default/production/_ext/340578644/sys_devcon.o
 .debug_info    0x001e8f86     0x1490 build/default/production/_ext/340578644/sys_devcon_pic32mz.o
 .debug_info    0x001ea416     0x9fbc build/default/production/_ext/822048611/sys_ports_static.o
 .debug_info    0x001f43d2     0x67b3 build/default/production/_ext/494920387/sys_memory_ddr_static.o
 .debug_info    0x001fab85      0x135 build/default/production/_ext/1541531744/sys_memory_static.o
 .debug_info    0x001facba      0x3b2 build/default/production/_ext/74298950/bsp.o
 .debug_info    0x001fb06c     0x6021 build/default/production/_ext/1688732426/system_init.o
 .debug_info    0x0020108d     0x302a build/default/production/_ext/1688732426/system_interrupt.o
 .debug_info    0x002040b7     0x1609 build/default/production/_ext/1688732426/system_exceptions.o
 .debug_info    0x002056c0     0x16c9 build/default/production/_ext/1688732426/system_tasks.o
 .debug_info    0x00206d89     0x1551 build/default/production/_ext/259038627/gfx_assets.o
 .debug_info    0x002082da      0x12c f:/software_installations/mplab_xc32/bin/bin/../../lib/gcc/pic32mx/4.8.3\libgcc.a(floatunsisf.o)
 .debug_info    0x00208406       0xf2 f:/software_installations/mplab_xc32/bin/bin/../../lib/gcc/pic32mx/4.8.3/../../../../pic32mx/lib\libpic32.a(default-bootstrap-exception-handler.o)
 .debug_info    0x002084f8       0xcb f:/software_installations/mplab_xc32/bin/bin/../../lib/gcc/pic32mx/4.8.3/../../../../pic32mx/lib\libpic32.a(default-on-reset.o)
 .debug_info    0x002085c3       0xd3 f:/software_installations/mplab_xc32/bin/bin/../../lib/gcc/pic32mx/4.8.3/../../../../pic32mx/lib\libpic32.a(default-on-bootstrap.o)
 .debug_info    0x00208696       0xe5 f:/software_installations/mplab_xc32/bin/bin/../../lib/gcc/pic32mx/4.8.3/../../../../pic32mx/lib\libpic32.a(defaultinterrupt.o)
 .debug_info    0x0020877b       0xf2 f:/software_installations/mplab_xc32/bin/bin/../../lib/gcc/pic32mx/4.8.3/../../../../pic32mx/lib\libpic32.a(default-cache-err-exception-handler.o)
 .debug_info    0x0020886d      0x102 f:/software_installations/mplab_xc32/bin/bin/../../lib/gcc/pic32mx/4.8.3/../../../../pic32mx/lib\libpic32.a(default-simple-tlb-refill-exception-handler.o)
 .debug_info    0x0020896f       0xc6 f:/software_installations/mplab_xc32/bin/bin/../../lib/gcc/pic32mx/4.8.3/../../../../pic32mx/lib\libc.a(fassert.o)
 .debug_info    0x00208a35       0xc3 f:/software_installations/mplab_xc32/bin/bin/../../lib/gcc/pic32mx/4.8.3/../../../../pic32mx/lib\libc.a(calloc.o)
 .debug_info    0x00208af8       0xf4 f:/software_installations/mplab_xc32/bin/bin/../../lib/gcc/pic32mx/4.8.3/../../../../pic32mx/lib\libc.a(malloc.o)
 .debug_info    0x00208bec       0xed f:/software_installations/mplab_xc32/bin/bin/../../lib/gcc/pic32mx/4.8.3/../../../../pic32mx/lib\libc.a(signal.o)
 .debug_info    0x00208cd9       0xbf f:/software_installations/mplab_xc32/bin/bin/../../lib/gcc/pic32mx/4.8.3/../../../../pic32mx/lib\libc.a(exit.o)
 .debug_info    0x00208d98       0xc7 f:/software_installations/mplab_xc32/bin/bin/../../lib/gcc/pic32mx/4.8.3/../../../../pic32mx/lib\libc.a(stdclean_simple.o)
 .debug_info    0x00208e5f       0xd0 f:/software_installations/mplab_xc32/bin/bin/../../lib/gcc/pic32mx/4.8.3/../../../../pic32mx/lib\libc.a(fprintf_cdnopsuxX.eo)
 .debug_info    0x00208f2f       0xcf f:/software_installations/mplab_xc32/bin/bin/../../lib/gcc/pic32mx/4.8.3/../../../../pic32mx/lib\libc.a(sprintf_cdnopuxX.eo)
 .debug_info    0x00208ffe       0xd1 f:/software_installations/mplab_xc32/bin/bin/../../lib/gcc/pic32mx/4.8.3/../../../../pic32mx/lib\libc.a(doprnt_cdnopsuxX.eo)
 .debug_info    0x002090cf       0xc1 f:/software_installations/mplab_xc32/bin/bin/../../lib/gcc/pic32mx/4.8.3/../../../../pic32mx/lib\libc.a(_fputc_simple.o)
 .debug_info    0x00209190       0xc4 f:/software_installations/mplab_xc32/bin/bin/../../lib/gcc/pic32mx/4.8.3/../../../../pic32mx/lib\libc.a(_flsbuf_simple.o)
 .debug_info    0x00209254      0x762 f:/software_installations/mplab_xc32/bin/bin/../../lib/gcc/pic32mx/4.8.3\libgcc.a(_udivdi3.o)
 .debug_info    0x002099b6      0x79f f:/software_installations/mplab_xc32/bin/bin/../../lib/gcc/pic32mx/4.8.3\libgcc.a(_umoddi3.o)
 .debug_info    0x0020a155      0x12f f:/software_installations/mplab_xc32/bin/bin/../../lib/gcc/pic32mx/4.8.3/../../../../pic32mx/lib\libpic32.a(sbrk.o)
 .debug_info    0x0020a284       0xbd f:/software_installations/mplab_xc32/bin/bin/../../lib/gcc/pic32mx/4.8.3/../../../../pic32mx/lib\libpic32.a(write.o)
 .debug_info    0x0020a341       0xc5 f:/software_installations/mplab_xc32/bin/bin/../../lib/gcc/pic32mx/4.8.3/../../../../pic32mx/lib\libpic32.a(_mon_putc.o)

.debug_abbrev   0x00000000    0x1b48f
 *.elf(.debug_abbrev)
 *(.debug_abbrev)
 .debug_abbrev  0x00000000      0x1c6 build/default/production/_ext/1360937237/app.o
 .debug_abbrev  0x000001c6       0x93 build/default/production/_ext/1360937237/main.o
 .debug_abbrev  0x00000259      0x4b3 build/default/production/_ext/1864665665/drv_i2c_bb_a.o
 .debug_abbrev  0x0000070c      0x3c3 build/default/production/_ext/1864665665/drv_i2c_bb.o
 .debug_abbrev  0x00000acf      0x4aa build/default/production/_ext/1860398633/drv_mxt336t.o
 .debug_abbrev  0x00000f79       0xb1 build/default/production/_ext/1528952846/jidctint.o
 .debug_abbrev  0x0000102a      0x3f8 build/default/production/_ext/1572996423/gfxu_image_jpg_common.o
 .debug_abbrev  0x00001422      0x254 build/default/production/_ext/1572996423/gfxu_image_jpg_internal.o
 .debug_abbrev  0x00001676      0x234 build/default/production/_ext/1572996423/gfxu_image_jpg_external.o
 .debug_abbrev  0x000018aa      0x27b build/default/production/_ext/1572996423/gfxu_image_png_external.o
 .debug_abbrev  0x00001b25      0x2c2 build/default/production/_ext/1572996423/gfxu_image_png_internal.o
 .debug_abbrev  0x00001de7      0x520 build/default/production/_ext/1151653695/lodepng.o
 .debug_abbrev  0x00002307      0x233 build/default/production/_ext/1572996423/gfxu_image.o
 .debug_abbrev  0x0000253a      0x2cb build/default/production/_ext/1572996423/gfxu_image_raw_external.o
 .debug_abbrev  0x00002805      0x245 build/default/production/_ext/1572996423/gfxu_image_raw_internal.o
 .debug_abbrev  0x00002a4a      0x323 build/default/production/_ext/1572996423/gfxu_image_rle_external.o
 .debug_abbrev  0x00002d6d      0x2cb build/default/production/_ext/1572996423/gfxu_image_rle_internal.o
 .debug_abbrev  0x00003038      0x212 build/default/production/_ext/1572996423/gfxu_image_utils.o
 .debug_abbrev  0x0000324a      0x139 build/default/production/_ext/1572996423/gfxu_palette.o
 .debug_abbrev  0x00003383      0x215 build/default/production/_ext/1572996423/gfxu_string.o
 .debug_abbrev  0x00003598      0x2eb build/default/production/_ext/1572996423/gfxu_string_external.o
 .debug_abbrev  0x00003883      0x2d3 build/default/production/_ext/1572996423/gfxu_stringbuffer_external.o
 .debug_abbrev  0x00003b56      0x1bc build/default/production/_ext/1572996423/gfxu_string_internal.o
 .debug_abbrev  0x00003d12      0x2cc build/default/production/_ext/1572996423/gfxu_string_query.o
 .debug_abbrev  0x00003fde      0x32a build/default/production/_ext/1572996423/gfxu_string_utils.o
 .debug_abbrev  0x00004308      0x282 build/default/production/_ext/493962524/libaria.o
 .debug_abbrev  0x0000458a      0x2a4 build/default/production/_ext/493962524/libaria_array.o
 .debug_abbrev  0x0000482e      0x4ae build/default/production/_ext/493962524/libaria_context.o
 .debug_abbrev  0x00004cdc      0x3b8 build/default/production/_ext/493962524/libaria_context_paint.o
 .debug_abbrev  0x00005094      0x1ad build/default/production/_ext/493962524/libaria_draw.o
 .debug_abbrev  0x00005241      0x2c6 build/default/production/_ext/493962524/libaria_editwidget.o
 .debug_abbrev  0x00005507      0x2dc build/default/production/_ext/493962524/libaria_event.o
 .debug_abbrev  0x000057e3      0x305 build/default/production/_ext/493962524/libaria_input.o
 .debug_abbrev  0x00005ae8      0x3f7 build/default/production/_ext/493962524/libaria_layer.o
 .debug_abbrev  0x00005edf      0x2d1 build/default/production/_ext/493962524/libaria_list.o
 .debug_abbrev  0x000061b0      0x2db build/default/production/_ext/493962524/libaria_rectarray.o
 .debug_abbrev  0x0000648b      0x184 build/default/production/_ext/493962524/libaria_scheme.o
 .debug_abbrev  0x0000660f      0x336 build/default/production/_ext/493962524/libaria_screen.o
 .debug_abbrev  0x00006945      0x41a build/default/production/_ext/493962524/libaria_string.o
 .debug_abbrev  0x00006d5f      0x3f6 build/default/production/_ext/493962524/libaria_utils.o
 .debug_abbrev  0x00007155      0x4a2 build/default/production/_ext/493962524/libaria_widget.o
 .debug_abbrev  0x000075f7      0x254 build/default/production/_ext/493962524/libaria_widget_skin_classic.o
 .debug_abbrev  0x0000784b      0x2bf build/default/production/_ext/493962524/libaria_widget_skin_classic_common.o
 .debug_abbrev  0x00007b0a      0x292 build/default/production/_ext/493962524/libaria_widget_arc.o
 .debug_abbrev  0x00007d9c      0x2d7 build/default/production/_ext/493962524/libaria_widget_arc_skin_classic.o
 .debug_abbrev  0x00008073      0x361 build/default/production/_ext/493962524/libaria_widget_bar_graph.o
 .debug_abbrev  0x000083d4      0x43b build/default/production/_ext/493962524/libaria_widget_bar_graph_skin_classic.o
 .debug_abbrev  0x0000880f      0x40d build/default/production/_ext/493962524/libaria_widget_button.o
 .debug_abbrev  0x00008c1c      0x367 build/default/production/_ext/493962524/libaria_widget_button_skin_classic.o
 .debug_abbrev  0x00008f83      0x3f8 build/default/production/_ext/493962524/libaria_widget_checkbox.o
 .debug_abbrev  0x0000937b      0x385 build/default/production/_ext/493962524/libaria_widget_checkbox_skin_classic.o
 .debug_abbrev  0x00009700      0x283 build/default/production/_ext/493962524/libaria_widget_circle.o
 .debug_abbrev  0x00009983      0x2b2 build/default/production/_ext/493962524/libaria_widget_circle_skin_classic.o
 .debug_abbrev  0x00009c35      0x350 build/default/production/_ext/493962524/libaria_widget_circular_gauge.o
 .debug_abbrev  0x00009f85      0x38c build/default/production/_ext/493962524/libaria_widget_circular_gauge_skin_classic.o
 .debug_abbrev  0x0000a311      0x40f build/default/production/_ext/493962524/libaria_widget_circular_slider.o
 .debug_abbrev  0x0000a720      0x329 build/default/production/_ext/493962524/libaria_widget_circular_slider_skin_classic.o
 .debug_abbrev  0x0000aa49      0x283 build/default/production/_ext/493962524/libaria_widget_drawsurface.o
 .debug_abbrev  0x0000accc      0x299 build/default/production/_ext/493962524/libaria_widget_drawsurface_skin_classic.o
 .debug_abbrev  0x0000af65      0x283 build/default/production/_ext/493962524/libaria_widget_gradient.o
 .debug_abbrev  0x0000b1e8      0x2b2 build/default/production/_ext/493962524/libaria_widget_gradient_skin_classic.o
 .debug_abbrev  0x0000b49a      0x34d build/default/production/_ext/493962524/libaria_widget_groupbox.o
 .debug_abbrev  0x0000b7e7      0x33e build/default/production/_ext/493962524/libaria_widget_groupbox_skin_classic.o
 .debug_abbrev  0x0000bb25      0x317 build/default/production/_ext/493962524/libaria_widget_image.o
 .debug_abbrev  0x0000be3c      0x2e6 build/default/production/_ext/493962524/libaria_widget_image_skin_classic.o
 .debug_abbrev  0x0000c122      0x358 build/default/production/_ext/493962524/libaria_widget_imageplus.o
 .debug_abbrev  0x0000c47a      0x2c1 build/default/production/_ext/493962524/libaria_widget_imageplus_skin_classic.o
 .debug_abbrev  0x0000c73b      0x2fa build/default/production/_ext/493962524/libaria_widget_imagesequence.o
 .debug_abbrev  0x0000ca35      0x2db build/default/production/_ext/493962524/libaria_widget_imagesequence_skin_classic.o
 .debug_abbrev  0x0000cd10      0x38a build/default/production/_ext/493962524/libaria_widget_keypad.o
 .debug_abbrev  0x0000d09a      0x27d build/default/production/_ext/493962524/libaria_widget_keypad_skin_classic.o
 .debug_abbrev  0x0000d317      0x32c build/default/production/_ext/493962524/libaria_widget_label.o
 .debug_abbrev  0x0000d643      0x34d build/default/production/_ext/493962524/libaria_widget_label_skin_classic.o
 .debug_abbrev  0x0000d990      0x2a1 build/default/production/_ext/493962524/libaria_widget_line.o
 .debug_abbrev  0x0000dc31      0x2b2 build/default/production/_ext/493962524/libaria_widget_line_skin_classic.o
 .debug_abbrev  0x0000dee3      0x361 build/default/production/_ext/493962524/libaria_widget_line_graph.o
 .debug_abbrev  0x0000e244      0x421 build/default/production/_ext/493962524/libaria_widget_line_graph_skin_classic.o
 .debug_abbrev  0x0000e665      0x4a9 build/default/production/_ext/493962524/libaria_widget_list.o
 .debug_abbrev  0x0000eb0e      0x3bc build/default/production/_ext/493962524/libaria_widget_list_skin_classic.o
 .debug_abbrev  0x0000eeca      0x4df build/default/production/_ext/493962524/libaria_widget_listwheel.o
 .debug_abbrev  0x0000f3a9      0x459 build/default/production/_ext/493962524/libaria_widget_listwheel_skin_classic.o
 .debug_abbrev  0x0000f802      0x445 build/default/production/_ext/493962524/libaria_widget_pie_chart.o
 .debug_abbrev  0x0000fc47      0x345 build/default/production/_ext/493962524/libaria_widget_pie_chart_skin_classic.o
 .debug_abbrev  0x0000ff8c      0x30b build/default/production/_ext/493962524/libaria_widget_progressbar.o
 .debug_abbrev  0x00010297      0x2b2 build/default/production/_ext/493962524/libaria_widget_progressbar_skin_classic.o
 .debug_abbrev  0x00010549      0x48c build/default/production/_ext/493962524/libaria_widget_radial_menu.o
 .debug_abbrev  0x000109d5      0x361 build/default/production/_ext/493962524/libaria_widget_radial_menu_skin_classic.o
 .debug_abbrev  0x00010d36      0x41d build/default/production/_ext/493962524/libaria_widget_radiobutton.o
 .debug_abbrev  0x00011153      0x3f0 build/default/production/_ext/493962524/libaria_widget_radiobutton_skin_classic.o
 .debug_abbrev  0x00011543      0x2b4 build/default/production/_ext/493962524/libaria_radiobutton_group.o
 .debug_abbrev  0x000117f7      0x2d3 build/default/production/_ext/493962524/libaria_widget_rectangle.o
 .debug_abbrev  0x00011aca      0x2c5 build/default/production/_ext/493962524/libaria_widget_rectangle_skin_classic.o
 .debug_abbrev  0x00011d8f      0x38f build/default/production/_ext/493962524/libaria_widget_scrollbar.o
 .debug_abbrev  0x0001211e      0x351 build/default/production/_ext/493962524/libaria_widget_scrollbar_skin_classic.o
 .debug_abbrev  0x0001246f      0x38d build/default/production/_ext/493962524/libaria_widget_slider.o
 .debug_abbrev  0x000127fc      0x2ce build/default/production/_ext/493962524/libaria_widget_slider_skin_classic.o
 .debug_abbrev  0x00012aca      0x45e build/default/production/_ext/493962524/libaria_widget_textfield.o
 .debug_abbrev  0x00012f28      0x2df build/default/production/_ext/493962524/libaria_widget_textfield_skin_classic.o
 .debug_abbrev  0x00013207      0x2f2 build/default/production/_ext/493962524/libaria_widget_touchtest.o
 .debug_abbrev  0x000134f9      0x2f4 build/default/production/_ext/493962524/libaria_widget_touchtest_skin_classic.o
 .debug_abbrev  0x000137ed      0x32c build/default/production/_ext/493962524/libaria_widget_window.o
 .debug_abbrev  0x00013b19      0x37c build/default/production/_ext/493962524/libaria_widget_window_skin_classic.o
 .debug_abbrev  0x00013e95      0x367 build/default/production/_ext/1026407831/gfx.o
 .debug_abbrev  0x000141fc       0xd9 build/default/production/_ext/1026407831/gfx_color.o
 .debug_abbrev  0x000142d5      0x1c2 build/default/production/_ext/1026407831/gfx_context.o
 .debug_abbrev  0x00014497      0x3d0 build/default/production/_ext/1026407831/gfx_default_impl.o
 .debug_abbrev  0x00014867      0x125 build/default/production/_ext/1026407831/gfx_display.o
 .debug_abbrev  0x0001498c      0x1b0 build/default/production/_ext/1026407831/gfx_driver_interface.o
 .debug_abbrev  0x00014b3c      0x293 build/default/production/_ext/1026407831/gfx_get.o
 .debug_abbrev  0x00014dcf       0x9f build/default/production/_ext/1026407831/gfx_interface.o
 .debug_abbrev  0x00014e6e      0x2a0 build/default/production/_ext/1026407831/gfx_layer.o
 .debug_abbrev  0x0001510e      0x2dd build/default/production/_ext/1026407831/gfx_pixel_buffer.o
 .debug_abbrev  0x000153eb       0xd8 build/default/production/_ext/1026407831/gfx_processor_interface.o
 .debug_abbrev  0x000154c3      0x16f build/default/production/_ext/1026407831/gfx_rect.o
 .debug_abbrev  0x00015632      0x204 build/default/production/_ext/1026407831/gfx_util.o
 .debug_abbrev  0x00015836      0x24b build/default/production/_ext/1026407831/gfx_set.o
 .debug_abbrev  0x00015a81      0x16a build/default/production/_ext/1026407831/gfx_color_blend.o
 .debug_abbrev  0x00015beb      0x2b3 build/default/production/_ext/1026407831/gfx_color_convert.o
 .debug_abbrev  0x00015e9e      0x1e5 build/default/production/_ext/1026407831/gfx_color_lerp.o
 .debug_abbrev  0x00016083      0x111 build/default/production/_ext/1026407831/gfx_color_value.o
 .debug_abbrev  0x00016194      0x34c build/default/production/_ext/1026407831/gfx_draw_arc.o
 .debug_abbrev  0x000164e0      0x2b3 build/default/production/_ext/1026407831/gfx_draw_blit.o
 .debug_abbrev  0x00016793      0x292 build/default/production/_ext/1026407831/gfx_draw_circle.o
 .debug_abbrev  0x00016a25      0x2a8 build/default/production/_ext/1026407831/gfx_draw_ellipse.o
 .debug_abbrev  0x00016ccd      0x344 build/default/production/_ext/1026407831/gfx_draw_line.o
 .debug_abbrev  0x00017011      0x284 build/default/production/_ext/1026407831/gfx_draw_pixel.o
 .debug_abbrev  0x00017295      0x2c4 build/default/production/_ext/1026407831/gfx_draw_rect.o
 .debug_abbrev  0x00017559      0x2ca build/default/production/_ext/1026407831/gfx_draw_stretchblit.o
 .debug_abbrev  0x00017823      0x1eb build/default/production/_ext/1026407831/gfx_math.o
 .debug_abbrev  0x00017a0e      0x409 build/default/production/_ext/360842870/sys_dma.o
 .debug_abbrev  0x00017e17      0x1df build/default/production/_ext/1691207160/sys_input.o
 .debug_abbrev  0x00017ff6       0xc5 build/default/production/_ext/1691207160/sys_input_listener.o
 .debug_abbrev  0x000180bb      0x223 build/default/production/_ext/549570029/sys_int_pic32.o
 .debug_abbrev  0x000182de      0x53f build/default/production/_ext/1988394548/drv_gfx_lcc_generic.o
 .debug_abbrev  0x0001881d      0x30c build/default/production/_ext/458109090/libaria_harmony.o
 .debug_abbrev  0x00018b29      0x303 build/default/production/_ext/458109090/libaria_init.o
 .debug_abbrev  0x00018e2c      0x169 build/default/production/_ext/458109090/libaria_events.o
 .debug_abbrev  0x00018f95      0x169 build/default/production/_ext/458109090/libaria_macros.o
 .debug_abbrev  0x000190fe       0xda build/default/production/_ext/2065038297/gfx_display_def.o
 .debug_abbrev  0x000191d8      0x197 build/default/production/_ext/2065038297/gfx_driver_def.o
 .debug_abbrev  0x0001936f       0xf8 build/default/production/_ext/2065038297/gfx_processor_def.o
 .debug_abbrev  0x00019467      0x372 build/default/production/_ext/639803181/sys_clk_pic32mz.o
 .debug_abbrev  0x000197d9      0x2c2 build/default/production/_ext/340578644/sys_devcon.o
 .debug_abbrev  0x00019a9b      0x290 build/default/production/_ext/340578644/sys_devcon_pic32mz.o
 .debug_abbrev  0x00019d2b      0x2f8 build/default/production/_ext/822048611/sys_ports_static.o
 .debug_abbrev  0x0001a023      0x258 build/default/production/_ext/494920387/sys_memory_ddr_static.o
 .debug_abbrev  0x0001a27b       0x4c build/default/production/_ext/1541531744/sys_memory_static.o
 .debug_abbrev  0x0001a2c7       0x5e build/default/production/_ext/74298950/bsp.o
 .debug_abbrev  0x0001a325      0x39d build/default/production/_ext/1688732426/system_init.o
 .debug_abbrev  0x0001a6c2      0x287 build/default/production/_ext/1688732426/system_interrupt.o
 .debug_abbrev  0x0001a949      0x1ac build/default/production/_ext/1688732426/system_exceptions.o
 .debug_abbrev  0x0001aaf5      0x1f5 build/default/production/_ext/1688732426/system_tasks.o
 .debug_abbrev  0x0001acea      0x143 build/default/production/_ext/259038627/gfx_assets.o
 .debug_abbrev  0x0001ae2d       0x62 f:/software_installations/mplab_xc32/bin/bin/../../lib/gcc/pic32mx/4.8.3\libgcc.a(floatunsisf.o)
 .debug_abbrev  0x0001ae8f       0x28 f:/software_installations/mplab_xc32/bin/bin/../../lib/gcc/pic32mx/4.8.3/../../../../pic32mx/lib\libpic32.a(default-bootstrap-exception-handler.o)
 .debug_abbrev  0x0001aeb7       0x28 f:/software_installations/mplab_xc32/bin/bin/../../lib/gcc/pic32mx/4.8.3/../../../../pic32mx/lib\libpic32.a(default-on-reset.o)
 .debug_abbrev  0x0001aedf       0x28 f:/software_installations/mplab_xc32/bin/bin/../../lib/gcc/pic32mx/4.8.3/../../../../pic32mx/lib\libpic32.a(default-on-bootstrap.o)
 .debug_abbrev  0x0001af07       0x28 f:/software_installations/mplab_xc32/bin/bin/../../lib/gcc/pic32mx/4.8.3/../../../../pic32mx/lib\libpic32.a(defaultinterrupt.o)
 .debug_abbrev  0x0001af2f       0x28 f:/software_installations/mplab_xc32/bin/bin/../../lib/gcc/pic32mx/4.8.3/../../../../pic32mx/lib\libpic32.a(default-cache-err-exception-handler.o)
 .debug_abbrev  0x0001af57       0x28 f:/software_installations/mplab_xc32/bin/bin/../../lib/gcc/pic32mx/4.8.3/../../../../pic32mx/lib\libpic32.a(default-simple-tlb-refill-exception-handler.o)
 .debug_abbrev  0x0001af7f       0x28 f:/software_installations/mplab_xc32/bin/bin/../../lib/gcc/pic32mx/4.8.3/../../../../pic32mx/lib\libc.a(fassert.o)
 .debug_abbrev  0x0001afa7       0x28 f:/software_installations/mplab_xc32/bin/bin/../../lib/gcc/pic32mx/4.8.3/../../../../pic32mx/lib\libc.a(calloc.o)
 .debug_abbrev  0x0001afcf       0x47 f:/software_installations/mplab_xc32/bin/bin/../../lib/gcc/pic32mx/4.8.3/../../../../pic32mx/lib\libc.a(malloc.o)
 .debug_abbrev  0x0001b016       0x3e f:/software_installations/mplab_xc32/bin/bin/../../lib/gcc/pic32mx/4.8.3/../../../../pic32mx/lib\libc.a(signal.o)
 .debug_abbrev  0x0001b054       0x28 f:/software_installations/mplab_xc32/bin/bin/../../lib/gcc/pic32mx/4.8.3/../../../../pic32mx/lib\libc.a(exit.o)
 .debug_abbrev  0x0001b07c       0x28 f:/software_installations/mplab_xc32/bin/bin/../../lib/gcc/pic32mx/4.8.3/../../../../pic32mx/lib\libc.a(stdclean_simple.o)
 .debug_abbrev  0x0001b0a4       0x28 f:/software_installations/mplab_xc32/bin/bin/../../lib/gcc/pic32mx/4.8.3/../../../../pic32mx/lib\libc.a(fprintf_cdnopsuxX.eo)
 .debug_abbrev  0x0001b0cc       0x28 f:/software_installations/mplab_xc32/bin/bin/../../lib/gcc/pic32mx/4.8.3/../../../../pic32mx/lib\libc.a(sprintf_cdnopuxX.eo)
 .debug_abbrev  0x0001b0f4       0x28 f:/software_installations/mplab_xc32/bin/bin/../../lib/gcc/pic32mx/4.8.3/../../../../pic32mx/lib\libc.a(doprnt_cdnopsuxX.eo)
 .debug_abbrev  0x0001b11c       0x28 f:/software_installations/mplab_xc32/bin/bin/../../lib/gcc/pic32mx/4.8.3/../../../../pic32mx/lib\libc.a(_fputc_simple.o)
 .debug_abbrev  0x0001b144       0x28 f:/software_installations/mplab_xc32/bin/bin/../../lib/gcc/pic32mx/4.8.3/../../../../pic32mx/lib\libc.a(_flsbuf_simple.o)
 .debug_abbrev  0x0001b16c      0x138 f:/software_installations/mplab_xc32/bin/bin/../../lib/gcc/pic32mx/4.8.3\libgcc.a(_udivdi3.o)
 .debug_abbrev  0x0001b2a4      0x147 f:/software_installations/mplab_xc32/bin/bin/../../lib/gcc/pic32mx/4.8.3\libgcc.a(_umoddi3.o)
 .debug_abbrev  0x0001b3eb       0x54 f:/software_installations/mplab_xc32/bin/bin/../../lib/gcc/pic32mx/4.8.3/../../../../pic32mx/lib\libpic32.a(sbrk.o)
 .debug_abbrev  0x0001b43f       0x28 f:/software_installations/mplab_xc32/bin/bin/../../lib/gcc/pic32mx/4.8.3/../../../../pic32mx/lib\libpic32.a(write.o)
 .debug_abbrev  0x0001b467       0x28 f:/software_installations/mplab_xc32/bin/bin/../../lib/gcc/pic32mx/4.8.3/../../../../pic32mx/lib\libpic32.a(_mon_putc.o)

.debug_line     0x00000000    0x32224
 *.elf(.debug_line)
 *(.debug_line)
 .debug_line    0x00000000      0x1db build/default/production/_ext/1360937237/app.o
 .debug_line    0x000001db       0xc6 build/default/production/_ext/1360937237/main.o
 .debug_line    0x000002a1     0x14fe build/default/production/_ext/1864665665/drv_i2c_bb_a.o
 .debug_line    0x0000179f      0xa7b build/default/production/_ext/1864665665/drv_i2c_bb.o
 .debug_line    0x0000221a      0x6c4 build/default/production/_ext/1860398633/drv_mxt336t.o
 .debug_line    0x000028de      0x1cc build/default/production/_ext/1528952846/jidctint.o
 .debug_line    0x00002aaa      0x5b3 build/default/production/_ext/1572996423/gfxu_image_jpg_common.o
 .debug_line    0x0000305d      0x2fa build/default/production/_ext/1572996423/gfxu_image_jpg_internal.o
 .debug_line    0x00003357      0x2b4 build/default/production/_ext/1572996423/gfxu_image_jpg_external.o
 .debug_line    0x0000360b      0x360 build/default/production/_ext/1572996423/gfxu_image_png_external.o
 .debug_line    0x0000396b      0x38a build/default/production/_ext/1572996423/gfxu_image_png_internal.o
 .debug_line    0x00003cf5     0x1d0a build/default/production/_ext/1151653695/lodepng.o
 .debug_line    0x000059ff      0x304 build/default/production/_ext/1572996423/gfxu_image.o
 .debug_line    0x00005d03      0x370 build/default/production/_ext/1572996423/gfxu_image_raw_external.o
 .debug_line    0x00006073      0x287 build/default/production/_ext/1572996423/gfxu_image_raw_internal.o
 .debug_line    0x000062fa      0x3b8 build/default/production/_ext/1572996423/gfxu_image_rle_external.o
 .debug_line    0x000066b2      0x348 build/default/production/_ext/1572996423/gfxu_image_rle_internal.o
 .debug_line    0x000069fa      0x34d build/default/production/_ext/1572996423/gfxu_image_utils.o
 .debug_line    0x00006d47      0x20f build/default/production/_ext/1572996423/gfxu_palette.o
 .debug_line    0x00006f56      0x312 build/default/production/_ext/1572996423/gfxu_string.o
 .debug_line    0x00007268      0x2f7 build/default/production/_ext/1572996423/gfxu_string_external.o
 .debug_line    0x0000755f      0x302 build/default/production/_ext/1572996423/gfxu_stringbuffer_external.o
 .debug_line    0x00007861      0x26a build/default/production/_ext/1572996423/gfxu_string_internal.o
 .debug_line    0x00007acb      0x3ff build/default/production/_ext/1572996423/gfxu_string_query.o
 .debug_line    0x00007eca      0x522 build/default/production/_ext/1572996423/gfxu_string_utils.o
 .debug_line    0x000083ec      0x3de build/default/production/_ext/493962524/libaria.o
 .debug_line    0x000087ca      0x513 build/default/production/_ext/493962524/libaria_array.o
 .debug_line    0x00008cdd      0x78b build/default/production/_ext/493962524/libaria_context.o
 .debug_line    0x00009468      0x50e build/default/production/_ext/493962524/libaria_context_paint.o
 .debug_line    0x00009976      0x25d build/default/production/_ext/493962524/libaria_draw.o
 .debug_line    0x00009bd3      0x3fe build/default/production/_ext/493962524/libaria_editwidget.o
 .debug_line    0x00009fd1      0x3e2 build/default/production/_ext/493962524/libaria_event.o
 .debug_line    0x0000a3b3      0x561 build/default/production/_ext/493962524/libaria_input.o
 .debug_line    0x0000a914      0x785 build/default/production/_ext/493962524/libaria_layer.o
 .debug_line    0x0000b099      0x50d build/default/production/_ext/493962524/libaria_list.o
 .debug_line    0x0000b5a6      0x566 build/default/production/_ext/493962524/libaria_rectarray.o
 .debug_line    0x0000bb0c      0x1e7 build/default/production/_ext/493962524/libaria_scheme.o
 .debug_line    0x0000bcf3      0x58d build/default/production/_ext/493962524/libaria_screen.o
 .debug_line    0x0000c280      0x83e build/default/production/_ext/493962524/libaria_string.o
 .debug_line    0x0000cabe      0x75a build/default/production/_ext/493962524/libaria_utils.o
 .debug_line    0x0000d218      0xa83 build/default/production/_ext/493962524/libaria_widget.o
 .debug_line    0x0000dc9b      0x3e2 build/default/production/_ext/493962524/libaria_widget_skin_classic.o
 .debug_line    0x0000e07d      0x645 build/default/production/_ext/493962524/libaria_widget_skin_classic_common.o
 .debug_line    0x0000e6c2      0x4bb build/default/production/_ext/493962524/libaria_widget_arc.o
 .debug_line    0x0000eb7d      0x510 build/default/production/_ext/493962524/libaria_widget_arc_skin_classic.o
 .debug_line    0x0000f08d      0x867 build/default/production/_ext/493962524/libaria_widget_bar_graph.o
 .debug_line    0x0000f8f4      0x786 build/default/production/_ext/493962524/libaria_widget_bar_graph_skin_classic.o
 .debug_line    0x0001007a      0x748 build/default/production/_ext/493962524/libaria_widget_button.o
 .debug_line    0x000107c2      0x64b build/default/production/_ext/493962524/libaria_widget_button_skin_classic.o
 .debug_line    0x00010e0d      0x6aa build/default/production/_ext/493962524/libaria_widget_checkbox.o
 .debug_line    0x000114b7      0x5e3 build/default/production/_ext/493962524/libaria_widget_checkbox_skin_classic.o
 .debug_line    0x00011a9a      0x430 build/default/production/_ext/493962524/libaria_widget_circle.o
 .debug_line    0x00011eca      0x4d3 build/default/production/_ext/493962524/libaria_widget_circle_skin_classic.o
 .debug_line    0x0001239d      0x857 build/default/production/_ext/493962524/libaria_widget_circular_gauge.o
 .debug_line    0x00012bf4      0x690 build/default/production/_ext/493962524/libaria_widget_circular_gauge_skin_classic.o
 .debug_line    0x00013284      0x828 build/default/production/_ext/493962524/libaria_widget_circular_slider.o
 .debug_line    0x00013aac      0x550 build/default/production/_ext/493962524/libaria_widget_circular_slider_skin_classic.o
 .debug_line    0x00013ffc      0x409 build/default/production/_ext/493962524/libaria_widget_drawsurface.o
 .debug_line    0x00014405      0x460 build/default/production/_ext/493962524/libaria_widget_drawsurface_skin_classic.o
 .debug_line    0x00014865      0x404 build/default/production/_ext/493962524/libaria_widget_gradient.o
 .debug_line    0x00014c69      0x4c9 build/default/production/_ext/493962524/libaria_widget_gradient_skin_classic.o
 .debug_line    0x00015132      0x48f build/default/production/_ext/493962524/libaria_widget_groupbox.o
 .debug_line    0x000155c1      0x57f build/default/production/_ext/493962524/libaria_widget_groupbox_skin_classic.o
 .debug_line    0x00015b40      0x4f9 build/default/production/_ext/493962524/libaria_widget_image.o
 .debug_line    0x00016039      0x4fc build/default/production/_ext/493962524/libaria_widget_image_skin_classic.o
 .debug_line    0x00016535      0x68d build/default/production/_ext/493962524/libaria_widget_imageplus.o
 .debug_line    0x00016bc2      0x53d build/default/production/_ext/493962524/libaria_widget_imageplus_skin_classic.o
 .debug_line    0x000170ff      0x62d build/default/production/_ext/493962524/libaria_widget_imagesequence.o
 .debug_line    0x0001772c      0x504 build/default/production/_ext/493962524/libaria_widget_imagesequence_skin_classic.o
 .debug_line    0x00017c30      0x6ea build/default/production/_ext/493962524/libaria_widget_keypad.o
 .debug_line    0x0001831a      0x43d build/default/production/_ext/493962524/libaria_widget_keypad_skin_classic.o
 .debug_line    0x00018757      0x4c9 build/default/production/_ext/493962524/libaria_widget_label.o
 .debug_line    0x00018c20      0x57d build/default/production/_ext/493962524/libaria_widget_label_skin_classic.o
 .debug_line    0x0001919d      0x42b build/default/production/_ext/493962524/libaria_widget_line.o
 .debug_line    0x000195c8      0x4d7 build/default/production/_ext/493962524/libaria_widget_line_skin_classic.o
 .debug_line    0x00019a9f      0x97d build/default/production/_ext/493962524/libaria_widget_line_graph.o
 .debug_line    0x0001a41c      0x8cd build/default/production/_ext/493962524/libaria_widget_line_graph_skin_classic.o
 .debug_line    0x0001ace9      0x8fb build/default/production/_ext/493962524/libaria_widget_list.o
 .debug_line    0x0001b5e4      0x6c0 build/default/production/_ext/493962524/libaria_widget_list_skin_classic.o
 .debug_line    0x0001bca4      0x9b6 build/default/production/_ext/493962524/libaria_widget_listwheel.o
 .debug_line    0x0001c65a      0x7e0 build/default/production/_ext/493962524/libaria_widget_listwheel_skin_classic.o
 .debug_line    0x0001ce3a      0x6c7 build/default/production/_ext/493962524/libaria_widget_pie_chart.o
 .debug_line    0x0001d501      0x598 build/default/production/_ext/493962524/libaria_widget_pie_chart_skin_classic.o
 .debug_line    0x0001da99      0x4a9 build/default/production/_ext/493962524/libaria_widget_progressbar.o
 .debug_line    0x0001df42      0x519 build/default/production/_ext/493962524/libaria_widget_progressbar_skin_classic.o
 .debug_line    0x0001e45b      0x99d build/default/production/_ext/493962524/libaria_widget_radial_menu.o
 .debug_line    0x0001edf8      0x581 build/default/production/_ext/493962524/libaria_widget_radial_menu_skin_classic.o
 .debug_line    0x0001f379      0x723 build/default/production/_ext/493962524/libaria_widget_radiobutton.o
 .debug_line    0x0001fa9c      0x66f build/default/production/_ext/493962524/libaria_widget_radiobutton_skin_classic.o
 .debug_line    0x0002010b      0x466 build/default/production/_ext/493962524/libaria_radiobutton_group.o
 .debug_line    0x00020571      0x3f8 build/default/production/_ext/493962524/libaria_widget_rectangle.o
 .debug_line    0x00020969      0x523 build/default/production/_ext/493962524/libaria_widget_rectangle_skin_classic.o
 .debug_line    0x00020e8c      0x6cf build/default/production/_ext/493962524/libaria_widget_scrollbar.o
 .debug_line    0x0002155b      0x5f9 build/default/production/_ext/493962524/libaria_widget_scrollbar_skin_classic.o
 .debug_line    0x00021b54      0x64d build/default/production/_ext/493962524/libaria_widget_slider.o
 .debug_line    0x000221a1      0x4f2 build/default/production/_ext/493962524/libaria_widget_slider_skin_classic.o
 .debug_line    0x00022693      0x6b7 build/default/production/_ext/493962524/libaria_widget_textfield.o
 .debug_line    0x00022d4a      0x557 build/default/production/_ext/493962524/libaria_widget_textfield_skin_classic.o
 .debug_line    0x000232a1      0x4e7 build/default/production/_ext/493962524/libaria_widget_touchtest.o
 .debug_line    0x00023788      0x51d build/default/production/_ext/493962524/libaria_widget_touchtest_skin_classic.o
 .debug_line    0x00023ca5      0x4fc build/default/production/_ext/493962524/libaria_widget_window.o
 .debug_line    0x000241a1      0x5d3 build/default/production/_ext/493962524/libaria_widget_window_skin_classic.o
 .debug_line    0x00024774      0x466 build/default/production/_ext/1026407831/gfx.o
 .debug_line    0x00024bda      0x1af build/default/production/_ext/1026407831/gfx_color.o
 .debug_line    0x00024d89      0x232 build/default/production/_ext/1026407831/gfx_context.o
 .debug_line    0x00024fbb      0xba0 build/default/production/_ext/1026407831/gfx_default_impl.o
 .debug_line    0x00025b5b      0x175 build/default/production/_ext/1026407831/gfx_display.o
 .debug_line    0x00025cd0      0x25c build/default/production/_ext/1026407831/gfx_driver_interface.o
 .debug_line    0x00025f2c      0x5fe build/default/production/_ext/1026407831/gfx_get.o
 .debug_line    0x0002652a      0x19b build/default/production/_ext/1026407831/gfx_interface.o
 .debug_line    0x000266c5      0x36a build/default/production/_ext/1026407831/gfx_layer.o
 .debug_line    0x00026a2f      0x4db build/default/production/_ext/1026407831/gfx_pixel_buffer.o
 .debug_line    0x00026f0a      0x11b build/default/production/_ext/1026407831/gfx_processor_interface.o
 .debug_line    0x00027025      0x2a2 build/default/production/_ext/1026407831/gfx_rect.o
 .debug_line    0x000272c7      0x2f9 build/default/production/_ext/1026407831/gfx_util.o
 .debug_line    0x000275c0      0x579 build/default/production/_ext/1026407831/gfx_set.o
 .debug_line    0x00027b39      0x1c4 build/default/production/_ext/1026407831/gfx_color_blend.o
 .debug_line    0x00027cfd      0x6e8 build/default/production/_ext/1026407831/gfx_color_convert.o
 .debug_line    0x000283e5      0x27d build/default/production/_ext/1026407831/gfx_color_lerp.o
 .debug_line    0x00028662      0x16c build/default/production/_ext/1026407831/gfx_color_value.o
 .debug_line    0x000287ce      0x484 build/default/production/_ext/1026407831/gfx_draw_arc.o
 .debug_line    0x00028c52      0x31b build/default/production/_ext/1026407831/gfx_draw_blit.o
 .debug_line    0x00028f6d      0x273 build/default/production/_ext/1026407831/gfx_draw_circle.o
 .debug_line    0x000291e0      0x290 build/default/production/_ext/1026407831/gfx_draw_ellipse.o
 .debug_line    0x00029470      0x372 build/default/production/_ext/1026407831/gfx_draw_line.o
 .debug_line    0x000297e2      0x297 build/default/production/_ext/1026407831/gfx_draw_pixel.o
 .debug_line    0x00029a79      0x379 build/default/production/_ext/1026407831/gfx_draw_rect.o
 .debug_line    0x00029df2      0x32a build/default/production/_ext/1026407831/gfx_draw_stretchblit.o
 .debug_line    0x0002a11c      0x363 build/default/production/_ext/1026407831/gfx_math.o
 .debug_line    0x0002a47f      0xcea build/default/production/_ext/360842870/sys_dma.o
 .debug_line    0x0002b169      0x308 build/default/production/_ext/1691207160/sys_input.o
 .debug_line    0x0002b471      0x20c build/default/production/_ext/1691207160/sys_input_listener.o
 .debug_line    0x0002b67d      0x2db build/default/production/_ext/549570029/sys_int_pic32.o
 .debug_line    0x0002b958      0x990 build/default/production/_ext/1988394548/drv_gfx_lcc_generic.o
 .debug_line    0x0002c2e8      0x5bd build/default/production/_ext/458109090/libaria_harmony.o
 .debug_line    0x0002c8a5      0x523 build/default/production/_ext/458109090/libaria_init.o
 .debug_line    0x0002cdc8      0x11b build/default/production/_ext/458109090/libaria_events.o
 .debug_line    0x0002cee3      0x11b build/default/production/_ext/458109090/libaria_macros.o
 .debug_line    0x0002cffe      0x1a0 build/default/production/_ext/2065038297/gfx_display_def.o
 .debug_line    0x0002d19e      0x269 build/default/production/_ext/2065038297/gfx_driver_def.o
 .debug_line    0x0002d407      0x1ad build/default/production/_ext/2065038297/gfx_processor_def.o
 .debug_line    0x0002d5b4      0x75f build/default/production/_ext/639803181/sys_clk_pic32mz.o
 .debug_line    0x0002dd13      0x66c build/default/production/_ext/340578644/sys_devcon.o
 .debug_line    0x0002e37f      0x597 build/default/production/_ext/340578644/sys_devcon_pic32mz.o
 .debug_line    0x0002e916      0xb69 build/default/production/_ext/822048611/sys_ports_static.o
 .debug_line    0x0002f47f      0x75c build/default/production/_ext/494920387/sys_memory_ddr_static.o
 .debug_line    0x0002fbdb      0x14f build/default/production/_ext/1541531744/sys_memory_static.o
 .debug_line    0x0002fd2a      0x130 build/default/production/_ext/74298950/bsp.o
 .debug_line    0x0002fe5a      0x9cd build/default/production/_ext/1688732426/system_init.o
 .debug_line    0x00030827      0x4bd build/default/production/_ext/1688732426/system_interrupt.o
 .debug_line    0x00030ce4      0x1e4 build/default/production/_ext/1688732426/system_exceptions.o
 .debug_line    0x00030ec8      0x3ed build/default/production/_ext/1688732426/system_tasks.o
 .debug_line    0x000312b5      0x21f build/default/production/_ext/259038627/gfx_assets.o
 .debug_line    0x000314d4       0x97 f:/software_installations/mplab_xc32/bin/bin/../../lib/gcc/pic32mx/4.8.3\libgcc.a(floatunsisf.o)
 .debug_line    0x0003156b       0xa4 f:/software_installations/mplab_xc32/bin/bin/../../lib/gcc/pic32mx/4.8.3/../../../../pic32mx/lib\libpic32.a(default-bootstrap-exception-handler.o)
 .debug_line    0x0003160f       0x91 f:/software_installations/mplab_xc32/bin/bin/../../lib/gcc/pic32mx/4.8.3/../../../../pic32mx/lib\libpic32.a(default-on-reset.o)
 .debug_line    0x000316a0       0x95 f:/software_installations/mplab_xc32/bin/bin/../../lib/gcc/pic32mx/4.8.3/../../../../pic32mx/lib\libpic32.a(default-on-bootstrap.o)
 .debug_line    0x00031735       0xa3 f:/software_installations/mplab_xc32/bin/bin/../../lib/gcc/pic32mx/4.8.3/../../../../pic32mx/lib\libpic32.a(defaultinterrupt.o)
 .debug_line    0x000317d8       0xa4 f:/software_installations/mplab_xc32/bin/bin/../../lib/gcc/pic32mx/4.8.3/../../../../pic32mx/lib\libpic32.a(default-cache-err-exception-handler.o)
 .debug_line    0x0003187c       0xac f:/software_installations/mplab_xc32/bin/bin/../../lib/gcc/pic32mx/4.8.3/../../../../pic32mx/lib\libpic32.a(default-simple-tlb-refill-exception-handler.o)
 .debug_line    0x00031928       0x7e f:/software_installations/mplab_xc32/bin/bin/../../lib/gcc/pic32mx/4.8.3/../../../../pic32mx/lib\libc.a(fassert.o)
 .debug_line    0x000319a6       0x7d f:/software_installations/mplab_xc32/bin/bin/../../lib/gcc/pic32mx/4.8.3/../../../../pic32mx/lib\libc.a(calloc.o)
 .debug_line    0x00031a23       0x7d f:/software_installations/mplab_xc32/bin/bin/../../lib/gcc/pic32mx/4.8.3/../../../../pic32mx/lib\libc.a(malloc.o)
 .debug_line    0x00031aa0       0x7d f:/software_installations/mplab_xc32/bin/bin/../../lib/gcc/pic32mx/4.8.3/../../../../pic32mx/lib\libc.a(signal.o)
 .debug_line    0x00031b1d       0x7b f:/software_installations/mplab_xc32/bin/bin/../../lib/gcc/pic32mx/4.8.3/../../../../pic32mx/lib\libc.a(exit.o)
 .debug_line    0x00031b98       0x7f f:/software_installations/mplab_xc32/bin/bin/../../lib/gcc/pic32mx/4.8.3/../../../../pic32mx/lib\libc.a(stdclean_simple.o)
 .debug_line    0x00031c17       0x7e f:/software_installations/mplab_xc32/bin/bin/../../lib/gcc/pic32mx/4.8.3/../../../../pic32mx/lib\libc.a(fprintf_cdnopsuxX.eo)
 .debug_line    0x00031c95       0x7e f:/software_installations/mplab_xc32/bin/bin/../../lib/gcc/pic32mx/4.8.3/../../../../pic32mx/lib\libc.a(sprintf_cdnopuxX.eo)
 .debug_line    0x00031d13        0x0 f:/software_installations/mplab_xc32/bin/bin/../../lib/gcc/pic32mx/4.8.3/../../../../pic32mx/lib\libc.a(_iob.o)
 .debug_line    0x00031d13       0x7d f:/software_installations/mplab_xc32/bin/bin/../../lib/gcc/pic32mx/4.8.3/../../../../pic32mx/lib\libc.a(doprnt_cdnopsuxX.eo)
 .debug_line    0x00031d90       0x7c f:/software_installations/mplab_xc32/bin/bin/../../lib/gcc/pic32mx/4.8.3/../../../../pic32mx/lib\libc.a(_fputc_simple.o)
 .debug_line    0x00031e0c        0x0 f:/software_installations/mplab_xc32/bin/bin/../../lib/gcc/pic32mx/4.8.3/../../../../pic32mx/lib\libc.a(ctype.o)
 .debug_line    0x00031e0c       0x7d f:/software_installations/mplab_xc32/bin/bin/../../lib/gcc/pic32mx/4.8.3/../../../../pic32mx/lib\libc.a(_flsbuf_simple.o)
 .debug_line    0x00031e89       0xfa f:/software_installations/mplab_xc32/bin/bin/../../lib/gcc/pic32mx/4.8.3\libgcc.a(_udivdi3.o)
 .debug_line    0x00031f83      0x10c f:/software_installations/mplab_xc32/bin/bin/../../lib/gcc/pic32mx/4.8.3\libgcc.a(_umoddi3.o)
 .debug_line    0x0003208f       0x85 f:/software_installations/mplab_xc32/bin/bin/../../lib/gcc/pic32mx/4.8.3/../../../../pic32mx/lib\libpic32.a(sbrk.o)
 .debug_line    0x00032114       0x86 f:/software_installations/mplab_xc32/bin/bin/../../lib/gcc/pic32mx/4.8.3/../../../../pic32mx/lib\libpic32.a(write.o)
 .debug_line    0x0003219a        0x0 f:/software_installations/mplab_xc32/bin/bin/../../lib/gcc/pic32mx/4.8.3/../../../../pic32mx/lib\libpic32.a(errno.o)
 .debug_line    0x0003219a       0x8a f:/software_installations/mplab_xc32/bin/bin/../../lib/gcc/pic32mx/4.8.3/../../../../pic32mx/lib\libpic32.a(_mon_putc.o)
 .debug_line    0x00032224        0x0 f:/software_installations/mplab_xc32/bin/bin/../../lib/gcc/pic32mx/4.8.3/../../../../pic32mx/lib\libpic32.a(xc32_uart.o)

.debug_frame    0x00000000     0xdb88
 *.elf(.debug_frame)
 *(.debug_frame)
 .debug_frame   0x00000000       0x30 build/default/production/_ext/1360937237/app.o
 .debug_frame   0x00000030       0x28 build/default/production/_ext/1360937237/main.o
 .debug_frame   0x00000058      0x2a0 build/default/production/_ext/1864665665/drv_i2c_bb_a.o
 .debug_frame   0x000002f8      0x130 build/default/production/_ext/1864665665/drv_i2c_bb.o
 .debug_frame   0x00000428       0xf8 build/default/production/_ext/1860398633/drv_mxt336t.o
 .debug_frame   0x00000520       0x2c build/default/production/_ext/1528952846/jidctint.o
 .debug_frame   0x0000054c      0x174 build/default/production/_ext/1572996423/gfxu_image_jpg_common.o
 .debug_frame   0x000006c0       0x48 build/default/production/_ext/1572996423/gfxu_image_jpg_internal.o
 .debug_frame   0x00000708       0x50 build/default/production/_ext/1572996423/gfxu_image_jpg_external.o
 .debug_frame   0x00000758       0x38 build/default/production/_ext/1572996423/gfxu_image_png_external.o
 .debug_frame   0x00000790       0x7c build/default/production/_ext/1572996423/gfxu_image_png_internal.o
 .debug_frame   0x0000080c      0xd0c build/default/production/_ext/1151653695/lodepng.o
 .debug_frame   0x00001518       0x48 build/default/production/_ext/1572996423/gfxu_image.o
 .debug_frame   0x00001560       0x78 build/default/production/_ext/1572996423/gfxu_image_raw_external.o
 .debug_frame   0x000015d8       0x30 build/default/production/_ext/1572996423/gfxu_image_raw_internal.o
 .debug_frame   0x00001608       0xac build/default/production/_ext/1572996423/gfxu_image_rle_external.o
 .debug_frame   0x000016b4       0x3c build/default/production/_ext/1572996423/gfxu_image_rle_internal.o
 .debug_frame   0x000016f0      0x11c build/default/production/_ext/1572996423/gfxu_image_utils.o
 .debug_frame   0x0000180c       0x20 build/default/production/_ext/1572996423/gfxu_palette.o
 .debug_frame   0x0000182c       0xd0 build/default/production/_ext/1572996423/gfxu_string.o
 .debug_frame   0x000018fc       0x74 build/default/production/_ext/1572996423/gfxu_string_external.o
 .debug_frame   0x00001970       0x74 build/default/production/_ext/1572996423/gfxu_stringbuffer_external.o
 .debug_frame   0x000019e4       0x98 build/default/production/_ext/1572996423/gfxu_string_internal.o
 .debug_frame   0x00001a7c      0x1f4 build/default/production/_ext/1572996423/gfxu_string_query.o
 .debug_frame   0x00001c70      0x230 build/default/production/_ext/1572996423/gfxu_string_utils.o
 .debug_frame   0x00001ea0       0x58 build/default/production/_ext/493962524/libaria.o
 .debug_frame   0x00001ef8      0x198 build/default/production/_ext/493962524/libaria_array.o
 .debug_frame   0x00002090      0x2e4 build/default/production/_ext/493962524/libaria_context.o
 .debug_frame   0x00002374       0x88 build/default/production/_ext/493962524/libaria_context_paint.o
 .debug_frame   0x000023fc       0x8c build/default/production/_ext/493962524/libaria_draw.o
 .debug_frame   0x00002488      0x15c build/default/production/_ext/493962524/libaria_editwidget.o
 .debug_frame   0x000025e4       0x94 build/default/production/_ext/493962524/libaria_event.o
 .debug_frame   0x00002678      0x124 build/default/production/_ext/493962524/libaria_input.o
 .debug_frame   0x0000279c      0x2f4 build/default/production/_ext/493962524/libaria_layer.o
 .debug_frame   0x00002a90      0x150 build/default/production/_ext/493962524/libaria_list.o
 .debug_frame   0x00002be0      0x1d8 build/default/production/_ext/493962524/libaria_rectarray.o
 .debug_frame   0x00002db8       0x34 build/default/production/_ext/493962524/libaria_scheme.o
 .debug_frame   0x00002dec      0x174 build/default/production/_ext/493962524/libaria_screen.o
 .debug_frame   0x00002f60      0x408 build/default/production/_ext/493962524/libaria_string.o
 .debug_frame   0x00003368      0x2b8 build/default/production/_ext/493962524/libaria_utils.o
 .debug_frame   0x00003620      0x648 build/default/production/_ext/493962524/libaria_widget.o
 .debug_frame   0x00003c68       0x58 build/default/production/_ext/493962524/libaria_widget_skin_classic.o
 .debug_frame   0x00003cc0      0x2d0 build/default/production/_ext/493962524/libaria_widget_skin_classic_common.o
 .debug_frame   0x00003f90      0x148 build/default/production/_ext/493962524/libaria_widget_arc.o
 .debug_frame   0x000040d8       0xac build/default/production/_ext/493962524/libaria_widget_arc_skin_classic.o
 .debug_frame   0x00004184      0x4e8 build/default/production/_ext/493962524/libaria_widget_bar_graph.o
 .debug_frame   0x0000466c      0x120 build/default/production/_ext/493962524/libaria_widget_bar_graph_skin_classic.o
 .debug_frame   0x0000478c      0x2d8 build/default/production/_ext/493962524/libaria_widget_button.o
 .debug_frame   0x00004a64      0x158 build/default/production/_ext/493962524/libaria_widget_button_skin_classic.o
 .debug_frame   0x00004bbc      0x2a8 build/default/production/_ext/493962524/libaria_widget_checkbox.o
 .debug_frame   0x00004e64      0x12c build/default/production/_ext/493962524/libaria_widget_checkbox_skin_classic.o
 .debug_frame   0x00004f90       0xb4 build/default/production/_ext/493962524/libaria_widget_circle.o
 .debug_frame   0x00005044       0x8c build/default/production/_ext/493962524/libaria_widget_circle_skin_classic.o
 .debug_frame   0x000050d0      0x4a4 build/default/production/_ext/493962524/libaria_widget_circular_gauge.o
 .debug_frame   0x00005574       0xdc build/default/production/_ext/493962524/libaria_widget_circular_gauge_skin_classic.o
 .debug_frame   0x00005650      0x34c build/default/production/_ext/493962524/libaria_widget_circular_slider.o
 .debug_frame   0x0000599c       0x90 build/default/production/_ext/493962524/libaria_widget_circular_slider_skin_classic.o
 .debug_frame   0x00005a2c       0x88 build/default/production/_ext/493962524/libaria_widget_drawsurface.o
 .debug_frame   0x00005ab4       0x88 build/default/production/_ext/493962524/libaria_widget_drawsurface_skin_classic.o
 .debug_frame   0x00005b3c       0x8c build/default/production/_ext/493962524/libaria_widget_gradient.o
 .debug_frame   0x00005bc8       0x78 build/default/production/_ext/493962524/libaria_widget_gradient_skin_classic.o
 .debug_frame   0x00005c40       0xe0 build/default/production/_ext/493962524/libaria_widget_groupbox.o
 .debug_frame   0x00005d20      0x108 build/default/production/_ext/493962524/libaria_widget_groupbox_skin_classic.o
 .debug_frame   0x00005e28      0x114 build/default/production/_ext/493962524/libaria_widget_image.o
 .debug_frame   0x00005f3c       0xcc build/default/production/_ext/493962524/libaria_widget_image_skin_classic.o
 .debug_frame   0x00006008      0x244 build/default/production/_ext/493962524/libaria_widget_imageplus.o
 .debug_frame   0x0000624c       0xac build/default/production/_ext/493962524/libaria_widget_imageplus_skin_classic.o
 .debug_frame   0x000062f8      0x220 build/default/production/_ext/493962524/libaria_widget_imagesequence.o
 .debug_frame   0x00006518       0xcc build/default/production/_ext/493962524/libaria_widget_imagesequence_skin_classic.o
 .debug_frame   0x000065e4      0x380 build/default/production/_ext/493962524/libaria_widget_keypad.o
 .debug_frame   0x00006964       0x88 build/default/production/_ext/493962524/libaria_widget_keypad_skin_classic.o
 .debug_frame   0x000069ec      0x11c build/default/production/_ext/493962524/libaria_widget_label.o
 .debug_frame   0x00006b08       0xd8 build/default/production/_ext/493962524/libaria_widget_label_skin_classic.o
 .debug_frame   0x00006be0       0xa8 build/default/production/_ext/493962524/libaria_widget_line.o
 .debug_frame   0x00006c88       0x8c build/default/production/_ext/493962524/libaria_widget_line_skin_classic.o
 .debug_frame   0x00006d14      0x61c build/default/production/_ext/493962524/libaria_widget_line_graph.o
 .debug_frame   0x00007330      0x140 build/default/production/_ext/493962524/libaria_widget_line_graph_skin_classic.o
 .debug_frame   0x00007470      0x440 build/default/production/_ext/493962524/libaria_widget_list.o
 .debug_frame   0x000078b0      0x1ac build/default/production/_ext/493962524/libaria_widget_list_skin_classic.o
 .debug_frame   0x00007a5c      0x4f8 build/default/production/_ext/493962524/libaria_widget_listwheel.o
 .debug_frame   0x00007f54      0x1cc build/default/production/_ext/493962524/libaria_widget_listwheel_skin_classic.o
 .debug_frame   0x00008120      0x2e8 build/default/production/_ext/493962524/libaria_widget_pie_chart.o
 .debug_frame   0x00008408       0x9c build/default/production/_ext/493962524/libaria_widget_pie_chart_skin_classic.o
 .debug_frame   0x000084a4       0xd8 build/default/production/_ext/493962524/libaria_widget_progressbar.o
 .debug_frame   0x0000857c       0xb4 build/default/production/_ext/493962524/libaria_widget_progressbar_skin_classic.o
 .debug_frame   0x00008630      0x3f0 build/default/production/_ext/493962524/libaria_widget_radial_menu.o
 .debug_frame   0x00008a20       0xb0 build/default/production/_ext/493962524/libaria_widget_radial_menu_skin_classic.o
 .debug_frame   0x00008ad0      0x2e0 build/default/production/_ext/493962524/libaria_widget_radiobutton.o
 .debug_frame   0x00008db0      0x130 build/default/production/_ext/493962524/libaria_widget_radiobutton_skin_classic.o
 .debug_frame   0x00008ee0       0x98 build/default/production/_ext/493962524/libaria_radiobutton_group.o
 .debug_frame   0x00008f78       0x6c build/default/production/_ext/493962524/libaria_widget_rectangle.o
 .debug_frame   0x00008fe4       0xac build/default/production/_ext/493962524/libaria_widget_rectangle_skin_classic.o
 .debug_frame   0x00009090      0x2b8 build/default/production/_ext/493962524/libaria_widget_scrollbar.o
 .debug_frame   0x00009348      0x138 build/default/production/_ext/493962524/libaria_widget_scrollbar_skin_classic.o
 .debug_frame   0x00009480      0x254 build/default/production/_ext/493962524/libaria_widget_slider.o
 .debug_frame   0x000096d4       0xe0 build/default/production/_ext/493962524/libaria_widget_slider_skin_classic.o
 .debug_frame   0x000097b4      0x2f4 build/default/production/_ext/493962524/libaria_widget_textfield.o
 .debug_frame   0x00009aa8      0x104 build/default/production/_ext/493962524/libaria_widget_textfield_skin_classic.o
 .debug_frame   0x00009bac      0x114 build/default/production/_ext/493962524/libaria_widget_touchtest.o
 .debug_frame   0x00009cc0       0xb8 build/default/production/_ext/493962524/libaria_widget_touchtest_skin_classic.o
 .debug_frame   0x00009d78      0x140 build/default/production/_ext/493962524/libaria_widget_window.o
 .debug_frame   0x00009eb8      0x160 build/default/production/_ext/493962524/libaria_widget_window_skin_classic.o
 .debug_frame   0x0000a018      0x198 build/default/production/_ext/1026407831/gfx.o
 .debug_frame   0x0000a1b0       0x60 build/default/production/_ext/1026407831/gfx_color.o
 .debug_frame   0x0000a210       0x40 build/default/production/_ext/1026407831/gfx_context.o
 .debug_frame   0x0000a250      0xa4c build/default/production/_ext/1026407831/gfx_default_impl.o
 .debug_frame   0x0000ac9c       0x20 build/default/production/_ext/1026407831/gfx_display.o
 .debug_frame   0x0000acbc       0x48 build/default/production/_ext/1026407831/gfx_driver_interface.o
 .debug_frame   0x0000ad04      0x46c build/default/production/_ext/1026407831/gfx_get.o
 .debug_frame   0x0000b170       0xd4 build/default/production/_ext/1026407831/gfx_layer.o
 .debug_frame   0x0000b244      0x2d8 build/default/production/_ext/1026407831/gfx_pixel_buffer.o
 .debug_frame   0x0000b51c       0xe8 build/default/production/_ext/1026407831/gfx_rect.o
 .debug_frame   0x0000b604      0x140 build/default/production/_ext/1026407831/gfx_util.o
 .debug_frame   0x0000b744      0x3f8 build/default/production/_ext/1026407831/gfx_set.o
 .debug_frame   0x0000bb3c       0x2c build/default/production/_ext/1026407831/gfx_color_blend.o
 .debug_frame   0x0000bb68      0x464 build/default/production/_ext/1026407831/gfx_color_convert.o
 .debug_frame   0x0000bfcc      0x138 build/default/production/_ext/1026407831/gfx_color_lerp.o
 .debug_frame   0x0000c104       0x2c build/default/production/_ext/1026407831/gfx_color_value.o
 .debug_frame   0x0000c130       0xb8 build/default/production/_ext/1026407831/gfx_draw_arc.o
 .debug_frame   0x0000c1e8       0xbc build/default/production/_ext/1026407831/gfx_draw_blit.o
 .debug_frame   0x0000c2a4       0x54 build/default/production/_ext/1026407831/gfx_draw_circle.o
 .debug_frame   0x0000c2f8       0x58 build/default/production/_ext/1026407831/gfx_draw_ellipse.o
 .debug_frame   0x0000c350      0x108 build/default/production/_ext/1026407831/gfx_draw_line.o
 .debug_frame   0x0000c458       0x88 build/default/production/_ext/1026407831/gfx_draw_pixel.o
 .debug_frame   0x0000c4e0       0xf8 build/default/production/_ext/1026407831/gfx_draw_rect.o
 .debug_frame   0x0000c5d8       0x8c build/default/production/_ext/1026407831/gfx_draw_stretchblit.o
 .debug_frame   0x0000c664      0x1bc build/default/production/_ext/1026407831/gfx_math.o
 .debug_frame   0x0000c820      0x19c build/default/production/_ext/360842870/sys_dma.o
 .debug_frame   0x0000c9bc      0x12c build/default/production/_ext/1691207160/sys_input.o
 .debug_frame   0x0000cae8       0xc0 build/default/production/_ext/1691207160/sys_input_listener.o
 .debug_frame   0x0000cba8       0x90 build/default/production/_ext/549570029/sys_int_pic32.o
 .debug_frame   0x0000cc38      0x14c build/default/production/_ext/1988394548/drv_gfx_lcc_generic.o
 .debug_frame   0x0000cd84       0x88 build/default/production/_ext/458109090/libaria_harmony.o
 .debug_frame   0x0000ce0c       0x44 build/default/production/_ext/458109090/libaria_init.o
 .debug_frame   0x0000ce50       0x20 build/default/production/_ext/2065038297/gfx_driver_def.o
 .debug_frame   0x0000ce70       0x20 build/default/production/_ext/2065038297/gfx_processor_def.o
 .debug_frame   0x0000ce90       0xa0 build/default/production/_ext/639803181/sys_clk_pic32mz.o
 .debug_frame   0x0000cf30       0xe8 build/default/production/_ext/340578644/sys_devcon.o
 .debug_frame   0x0000d018      0x220 build/default/production/_ext/340578644/sys_devcon_pic32mz.o
 .debug_frame   0x0000d238      0x278 build/default/production/_ext/822048611/sys_ports_static.o
 .debug_frame   0x0000d4b0       0x20 build/default/production/_ext/494920387/sys_memory_ddr_static.o
 .debug_frame   0x0000d4d0       0x28 build/default/production/_ext/1541531744/sys_memory_static.o
 .debug_frame   0x0000d4f8       0x20 build/default/production/_ext/74298950/bsp.o
 .debug_frame   0x0000d518       0x2c build/default/production/_ext/1688732426/system_init.o
 .debug_frame   0x0000d544      0x198 build/default/production/_ext/1688732426/system_interrupt.o
 .debug_frame   0x0000d6dc       0x28 build/default/production/_ext/1688732426/system_exceptions.o
 .debug_frame   0x0000d704       0x28 build/default/production/_ext/1688732426/system_tasks.o
 .debug_frame   0x0000d72c       0x28 f:/software_installations/mplab_xc32/bin/bin/../../lib/gcc/pic32mx/4.8.3\libgcc.a(floatunsisf.o)
 .debug_frame   0x0000d754       0x2c f:/software_installations/mplab_xc32/bin/bin/../../lib/gcc/pic32mx/4.8.3/../../../../pic32mx/lib\libpic32.a(default-bootstrap-exception-handler.o)
 .debug_frame   0x0000d780       0x20 f:/software_installations/mplab_xc32/bin/bin/../../lib/gcc/pic32mx/4.8.3/../../../../pic32mx/lib\libpic32.a(default-on-reset.o)
 .debug_frame   0x0000d7a0       0x20 f:/software_installations/mplab_xc32/bin/bin/../../lib/gcc/pic32mx/4.8.3/../../../../pic32mx/lib\libpic32.a(default-on-bootstrap.o)
 .debug_frame   0x0000d7c0       0x20 f:/software_installations/mplab_xc32/bin/bin/../../lib/gcc/pic32mx/4.8.3/../../../../pic32mx/lib\libpic32.a(defaultinterrupt.o)
 .debug_frame   0x0000d7e0       0x2c f:/software_installations/mplab_xc32/bin/bin/../../lib/gcc/pic32mx/4.8.3/../../../../pic32mx/lib\libpic32.a(default-cache-err-exception-handler.o)
 .debug_frame   0x0000d80c       0x2c f:/software_installations/mplab_xc32/bin/bin/../../lib/gcc/pic32mx/4.8.3/../../../../pic32mx/lib\libpic32.a(default-simple-tlb-refill-exception-handler.o)
 .debug_frame   0x0000d838       0x28 f:/software_installations/mplab_xc32/bin/bin/../../lib/gcc/pic32mx/4.8.3/../../../../pic32mx/lib\libc.a(fassert.o)
 .debug_frame   0x0000d860       0x28 f:/software_installations/mplab_xc32/bin/bin/../../lib/gcc/pic32mx/4.8.3/../../../../pic32mx/lib\libc.a(calloc.o)
 .debug_frame   0x0000d888       0x68 f:/software_installations/mplab_xc32/bin/bin/../../lib/gcc/pic32mx/4.8.3/../../../../pic32mx/lib\libc.a(malloc.o)
 .debug_frame   0x0000d8f0       0x50 f:/software_installations/mplab_xc32/bin/bin/../../lib/gcc/pic32mx/4.8.3/../../../../pic32mx/lib\libc.a(signal.o)
 .debug_frame   0x0000d940       0x28 f:/software_installations/mplab_xc32/bin/bin/../../lib/gcc/pic32mx/4.8.3/../../../../pic32mx/lib\libc.a(exit.o)
 .debug_frame   0x0000d968       0x20 f:/software_installations/mplab_xc32/bin/bin/../../lib/gcc/pic32mx/4.8.3/../../../../pic32mx/lib\libc.a(stdclean_simple.o)
 .debug_frame   0x0000d988       0x28 f:/software_installations/mplab_xc32/bin/bin/../../lib/gcc/pic32mx/4.8.3/../../../../pic32mx/lib\libc.a(fprintf_cdnopsuxX.eo)
 .debug_frame   0x0000d9b0       0x28 f:/software_installations/mplab_xc32/bin/bin/../../lib/gcc/pic32mx/4.8.3/../../../../pic32mx/lib\libc.a(sprintf_cdnopuxX.eo)
 .debug_frame   0x0000d9d8       0x38 f:/software_installations/mplab_xc32/bin/bin/../../lib/gcc/pic32mx/4.8.3/../../../../pic32mx/lib\libc.a(doprnt_cdnopsuxX.eo)
 .debug_frame   0x0000da10       0x2c f:/software_installations/mplab_xc32/bin/bin/../../lib/gcc/pic32mx/4.8.3/../../../../pic32mx/lib\libc.a(_fputc_simple.o)
 .debug_frame   0x0000da3c       0x28 f:/software_installations/mplab_xc32/bin/bin/../../lib/gcc/pic32mx/4.8.3/../../../../pic32mx/lib\libc.a(_flsbuf_simple.o)
 .debug_frame   0x0000da64       0x20 f:/software_installations/mplab_xc32/bin/bin/../../lib/gcc/pic32mx/4.8.3\libgcc.a(_udivdi3.o)
 .debug_frame   0x0000da84       0x20 f:/software_installations/mplab_xc32/bin/bin/../../lib/gcc/pic32mx/4.8.3\libgcc.a(_umoddi3.o)
 .debug_frame   0x0000daa4       0x84 f:/software_installations/mplab_xc32/bin/bin/../../lib/gcc/pic32mx/4.8.3/../../../../pic32mx/lib\libpic32.a(sbrk.o)
 .debug_frame   0x0000db28       0x38 f:/software_installations/mplab_xc32/bin/bin/../../lib/gcc/pic32mx/4.8.3/../../../../pic32mx/lib\libpic32.a(write.o)
 .debug_frame   0x0000db60       0x28 f:/software_installations/mplab_xc32/bin/bin/../../lib/gcc/pic32mx/4.8.3/../../../../pic32mx/lib\libpic32.a(_mon_putc.o)

.debug_str      0x00000000     0x416d
 *.elf(.debug_str)
 *(.debug_str)
 .debug_str     0x00000000        0x0 build/default/production/_ext/1360937237/app.o
 .debug_str     0x00000000        0x0 build/default/production/_ext/1360937237/main.o
 .debug_str     0x00000000      0x171 build/default/production/_ext/1864665665/drv_i2c_bb_a.o
 .debug_str     0x00000171      0x139 build/default/production/_ext/1864665665/drv_i2c_bb.o
 .debug_str     0x000002aa       0x4d build/default/production/_ext/1860398633/drv_mxt336t.o
 .debug_str     0x000002f7        0x0 build/default/production/_ext/1528952846/jidctint.o
 .debug_str     0x000002f7       0x32 build/default/production/_ext/1572996423/gfxu_image_jpg_common.o
 .debug_str     0x00000329        0xf build/default/production/_ext/1572996423/gfxu_image_jpg_internal.o
 .debug_str     0x00000338        0xf build/default/production/_ext/1572996423/gfxu_image_jpg_external.o
 .debug_str     0x00000347       0x7c build/default/production/_ext/1572996423/gfxu_image_png_external.o
 .debug_str     0x000003c3       0x7c build/default/production/_ext/1572996423/gfxu_image_png_internal.o
 .debug_str     0x0000043f      0x482 build/default/production/_ext/1151653695/lodepng.o
 .debug_str     0x000008c1        0xd build/default/production/_ext/1572996423/gfxu_image.o
 .debug_str     0x000008ce       0x1b build/default/production/_ext/1572996423/gfxu_image_raw_external.o
 .debug_str     0x000008e9       0x3e build/default/production/_ext/1572996423/gfxu_image_raw_internal.o
 .debug_str     0x00000927       0x1b build/default/production/_ext/1572996423/gfxu_image_rle_external.o
 .debug_str     0x00000942       0xb8 build/default/production/_ext/1572996423/gfxu_image_rle_internal.o
 .debug_str     0x000009fa        0x6 build/default/production/_ext/1572996423/gfxu_image_utils.o
 .debug_str     0x00000a00        0x0 build/default/production/_ext/1572996423/gfxu_palette.o
 .debug_str     0x00000a00       0x4a build/default/production/_ext/1572996423/gfxu_string.o
 .debug_str     0x00000a4a       0x38 build/default/production/_ext/1572996423/gfxu_string_external.o
 .debug_str     0x00000a82       0x31 build/default/production/_ext/1572996423/gfxu_stringbuffer_external.o
 .debug_str     0x00000ab3       0x4c build/default/production/_ext/1572996423/gfxu_string_internal.o
 .debug_str     0x00000aff       0x52 build/default/production/_ext/1572996423/gfxu_string_query.o
 .debug_str     0x00000b51       0xc0 build/default/production/_ext/1572996423/gfxu_string_utils.o
 .debug_str     0x00000c11       0x4d build/default/production/_ext/493962524/libaria.o
 .debug_str     0x00000c5e       0x39 build/default/production/_ext/493962524/libaria_array.o
 .debug_str     0x00000c97       0x9e build/default/production/_ext/493962524/libaria_context.o
 .debug_str     0x00000d35       0x82 build/default/production/_ext/493962524/libaria_context_paint.o
 .debug_str     0x00000db7       0x3e build/default/production/_ext/493962524/libaria_draw.o
 .debug_str     0x00000df5       0x43 build/default/production/_ext/493962524/libaria_editwidget.o
 .debug_str     0x00000e38       0x41 build/default/production/_ext/493962524/libaria_event.o
 .debug_str     0x00000e79       0x61 build/default/production/_ext/493962524/libaria_input.o
 .debug_str     0x00000eda       0x69 build/default/production/_ext/493962524/libaria_layer.o
 .debug_str     0x00000f43       0x44 build/default/production/_ext/493962524/libaria_list.o
 .debug_str     0x00000f87       0x42 build/default/production/_ext/493962524/libaria_rectarray.o
 .debug_str     0x00000fc9        0x0 build/default/production/_ext/493962524/libaria_scheme.o
 .debug_str     0x00000fc9       0x58 build/default/production/_ext/493962524/libaria_screen.o
 .debug_str     0x00001021       0x78 build/default/production/_ext/493962524/libaria_string.o
 .debug_str     0x00001099       0xf0 build/default/production/_ext/493962524/libaria_utils.o
 .debug_str     0x00001189       0x81 build/default/production/_ext/493962524/libaria_widget.o
 .debug_str     0x0000120a       0x39 build/default/production/_ext/493962524/libaria_widget_skin_classic.o
 .debug_str     0x00001243       0x9c build/default/production/_ext/493962524/libaria_widget_skin_classic_common.o
 .debug_str     0x000012df       0x4c build/default/production/_ext/493962524/libaria_widget_arc.o
 .debug_str     0x0000132b       0x54 build/default/production/_ext/493962524/libaria_widget_arc_skin_classic.o
 .debug_str     0x0000137f       0xa4 build/default/production/_ext/493962524/libaria_widget_bar_graph.o
 .debug_str     0x00001423      0x104 build/default/production/_ext/493962524/libaria_widget_bar_graph_skin_classic.o
 .debug_str     0x00001527       0x9e build/default/production/_ext/493962524/libaria_widget_button.o
 .debug_str     0x000015c5       0xa6 build/default/production/_ext/493962524/libaria_widget_button_skin_classic.o
 .debug_str     0x0000166b       0x90 build/default/production/_ext/493962524/libaria_widget_checkbox.o
 .debug_str     0x000016fb       0xab build/default/production/_ext/493962524/libaria_widget_checkbox_skin_classic.o
 .debug_str     0x000017a6       0x42 build/default/production/_ext/493962524/libaria_widget_circle.o
 .debug_str     0x000017e8       0x54 build/default/production/_ext/493962524/libaria_widget_circle_skin_classic.o
 .debug_str     0x0000183c       0xbb build/default/production/_ext/493962524/libaria_widget_circular_gauge.o
 .debug_str     0x000018f7       0xf3 build/default/production/_ext/493962524/libaria_widget_circular_gauge_skin_classic.o
 .debug_str     0x000019ea       0x94 build/default/production/_ext/493962524/libaria_widget_circular_slider.o
 .debug_str     0x00001a7e       0x6d build/default/production/_ext/493962524/libaria_widget_circular_slider_skin_classic.o
 .debug_str     0x00001aeb       0x42 build/default/production/_ext/493962524/libaria_widget_drawsurface.o
 .debug_str     0x00001b2d       0x42 build/default/production/_ext/493962524/libaria_widget_drawsurface_skin_classic.o
 .debug_str     0x00001b6f       0x42 build/default/production/_ext/493962524/libaria_widget_gradient.o
 .debug_str     0x00001bb1       0x54 build/default/production/_ext/493962524/libaria_widget_gradient_skin_classic.o
 .debug_str     0x00001c05       0x54 build/default/production/_ext/493962524/libaria_widget_groupbox.o
 .debug_str     0x00001c59       0x82 build/default/production/_ext/493962524/libaria_widget_groupbox_skin_classic.o
 .debug_str     0x00001cdb       0x65 build/default/production/_ext/493962524/libaria_widget_image.o
 .debug_str     0x00001d40       0x83 build/default/production/_ext/493962524/libaria_widget_image_skin_classic.o
 .debug_str     0x00001dc3       0x80 build/default/production/_ext/493962524/libaria_widget_imageplus.o
 .debug_str     0x00001e43       0x5e build/default/production/_ext/493962524/libaria_widget_imageplus_skin_classic.o
 .debug_str     0x00001ea1       0x53 build/default/production/_ext/493962524/libaria_widget_imagesequence.o
 .debug_str     0x00001ef4       0x83 build/default/production/_ext/493962524/libaria_widget_imagesequence_skin_classic.o
 .debug_str     0x00001f77       0x7b build/default/production/_ext/493962524/libaria_widget_keypad.o
 .debug_str     0x00001ff2       0x4a build/default/production/_ext/493962524/libaria_widget_keypad_skin_classic.o
 .debug_str     0x0000203c       0x54 build/default/production/_ext/493962524/libaria_widget_label.o
 .debug_str     0x00002090       0x79 build/default/production/_ext/493962524/libaria_widget_label_skin_classic.o
 .debug_str     0x00002109       0x47 build/default/production/_ext/493962524/libaria_widget_line.o
 .debug_str     0x00002150       0x54 build/default/production/_ext/493962524/libaria_widget_line_skin_classic.o
 .debug_str     0x000021a4       0xa4 build/default/production/_ext/493962524/libaria_widget_line_graph.o
 .debug_str     0x00002248      0x11d build/default/production/_ext/493962524/libaria_widget_line_graph_skin_classic.o
 .debug_str     0x00002365       0xaa build/default/production/_ext/493962524/libaria_widget_list.o
 .debug_str     0x0000240f       0xb6 build/default/production/_ext/493962524/libaria_widget_list_skin_classic.o
 .debug_str     0x000024c5       0xa7 build/default/production/_ext/493962524/libaria_widget_listwheel.o
 .debug_str     0x0000256c       0xf0 build/default/production/_ext/493962524/libaria_widget_listwheel_skin_classic.o
 .debug_str     0x0000265c       0x94 build/default/production/_ext/493962524/libaria_widget_pie_chart.o
 .debug_str     0x000026f0       0x8f build/default/production/_ext/493962524/libaria_widget_pie_chart_skin_classic.o
 .debug_str     0x0000277f       0x54 build/default/production/_ext/493962524/libaria_widget_progressbar.o
 .debug_str     0x000027d3       0x54 build/default/production/_ext/493962524/libaria_widget_progressbar_skin_classic.o
 .debug_str     0x00002827       0x95 build/default/production/_ext/493962524/libaria_widget_radial_menu.o
 .debug_str     0x000028bc       0x66 build/default/production/_ext/493962524/libaria_widget_radial_menu_skin_classic.o
 .debug_str     0x00002922       0xca build/default/production/_ext/493962524/libaria_widget_radiobutton.o
 .debug_str     0x000029ec       0xb7 build/default/production/_ext/493962524/libaria_widget_radiobutton_skin_classic.o
 .debug_str     0x00002aa3       0x77 build/default/production/_ext/493962524/libaria_radiobutton_group.o
 .debug_str     0x00002b1a       0x47 build/default/production/_ext/493962524/libaria_widget_rectangle.o
 .debug_str     0x00002b61       0x54 build/default/production/_ext/493962524/libaria_widget_rectangle_skin_classic.o
 .debug_str     0x00002bb5       0x5e build/default/production/_ext/493962524/libaria_widget_scrollbar.o
 .debug_str     0x00002c13       0x7f build/default/production/_ext/493962524/libaria_widget_scrollbar_skin_classic.o
 .debug_str     0x00002c92       0x59 build/default/production/_ext/493962524/libaria_widget_slider.o
 .debug_str     0x00002ceb       0x6a build/default/production/_ext/493962524/libaria_widget_slider_skin_classic.o
 .debug_str     0x00002d55       0x84 build/default/production/_ext/493962524/libaria_widget_textfield.o
 .debug_str     0x00002dd9       0x86 build/default/production/_ext/493962524/libaria_widget_textfield_skin_classic.o
 .debug_str     0x00002e5f       0x59 build/default/production/_ext/493962524/libaria_widget_touchtest.o
 .debug_str     0x00002eb8       0x76 build/default/production/_ext/493962524/libaria_widget_touchtest_skin_classic.o
 .debug_str     0x00002f2e       0x65 build/default/production/_ext/493962524/libaria_widget_window.o
 .debug_str     0x00002f93       0xac build/default/production/_ext/493962524/libaria_widget_window_skin_classic.o
 .debug_str     0x0000303f       0x77 build/default/production/_ext/1026407831/gfx.o
 .debug_str     0x000030b6        0x0 build/default/production/_ext/1026407831/gfx_color.o
 .debug_str     0x000030b6       0x5a build/default/production/_ext/1026407831/gfx_context.o
 .debug_str     0x00003110       0xf0 build/default/production/_ext/1026407831/gfx_default_impl.o
 .debug_str     0x00003200       0x23 build/default/production/_ext/1026407831/gfx_display.o
 .debug_str     0x00003223       0x68 build/default/production/_ext/1026407831/gfx_driver_interface.o
 .debug_str     0x0000328b       0xa2 build/default/production/_ext/1026407831/gfx_get.o
 .debug_str     0x0000332d        0x0 build/default/production/_ext/1026407831/gfx_interface.o
 .debug_str     0x0000332d       0x7c build/default/production/_ext/1026407831/gfx_layer.o
 .debug_str     0x000033a9       0x54 build/default/production/_ext/1026407831/gfx_pixel_buffer.o
 .debug_str     0x000033fd        0x0 build/default/production/_ext/1026407831/gfx_processor_interface.o
 .debug_str     0x000033fd        0xe build/default/production/_ext/1026407831/gfx_rect.o
 .debug_str     0x0000340b       0x23 build/default/production/_ext/1026407831/gfx_util.o
 .debug_str     0x0000342e       0x95 build/default/production/_ext/1026407831/gfx_set.o
 .debug_str     0x000034c3        0x0 build/default/production/_ext/1026407831/gfx_color_blend.o
 .debug_str     0x000034c3       0x73 build/default/production/_ext/1026407831/gfx_color_convert.o
 .debug_str     0x00003536       0x19 build/default/production/_ext/1026407831/gfx_color_lerp.o
 .debug_str     0x0000354f        0x0 build/default/production/_ext/1026407831/gfx_color_value.o
 .debug_str     0x0000354f       0x8e build/default/production/_ext/1026407831/gfx_draw_arc.o
 .debug_str     0x000035dd       0xa4 build/default/production/_ext/1026407831/gfx_draw_blit.o
 .debug_str     0x00003681       0x60 build/default/production/_ext/1026407831/gfx_draw_circle.o
 .debug_str     0x000036e1       0x7e build/default/production/_ext/1026407831/gfx_draw_ellipse.o
 .debug_str     0x0000375f       0x73 build/default/production/_ext/1026407831/gfx_draw_line.o
 .debug_str     0x000037d2       0x68 build/default/production/_ext/1026407831/gfx_draw_pixel.o
 .debug_str     0x0000383a       0x7f build/default/production/_ext/1026407831/gfx_draw_rect.o
 .debug_str     0x000038b9       0xb2 build/default/production/_ext/1026407831/gfx_draw_stretchblit.o
 .debug_str     0x0000396b        0x8 build/default/production/_ext/1026407831/gfx_math.o
 .debug_str     0x00003973      0x131 build/default/production/_ext/360842870/sys_dma.o
 .debug_str     0x00003aa4        0x6 build/default/production/_ext/1691207160/sys_input.o
 .debug_str     0x00003aaa        0x0 build/default/production/_ext/1691207160/sys_input_listener.o
 .debug_str     0x00003aaa       0x1d build/default/production/_ext/549570029/sys_int_pic32.o
 .debug_str     0x00003ac7      0x2e6 build/default/production/_ext/1988394548/drv_gfx_lcc_generic.o
 .debug_str     0x00003dad       0x4d build/default/production/_ext/458109090/libaria_harmony.o
 .debug_str     0x00003dfa       0x71 build/default/production/_ext/458109090/libaria_init.o
 .debug_str     0x00003e6b        0x0 build/default/production/_ext/458109090/libaria_events.o
 .debug_str     0x00003e6b        0x0 build/default/production/_ext/458109090/libaria_macros.o
 .debug_str     0x00003e6b       0x23 build/default/production/_ext/2065038297/gfx_display_def.o
 .debug_str     0x00003e8e       0x68 build/default/production/_ext/2065038297/gfx_driver_def.o
 .debug_str     0x00003ef6        0x0 build/default/production/_ext/2065038297/gfx_processor_def.o
 .debug_str     0x00003ef6       0x75 build/default/production/_ext/639803181/sys_clk_pic32mz.o
 .debug_str     0x00003f6b       0x16 build/default/production/_ext/340578644/sys_devcon.o
 .debug_str     0x00003f81       0x1a build/default/production/_ext/340578644/sys_devcon_pic32mz.o
 .debug_str     0x00003f9b       0xcd build/default/production/_ext/822048611/sys_ports_static.o
 .debug_str     0x00004068       0x8f build/default/production/_ext/494920387/sys_memory_ddr_static.o
 .debug_str     0x000040f7        0x0 build/default/production/_ext/1541531744/sys_memory_static.o
 .debug_str     0x000040f7        0x0 build/default/production/_ext/74298950/bsp.o
 .debug_str     0x000040f7       0x4c build/default/production/_ext/1688732426/system_init.o
 .debug_str     0x00004143        0x0 build/default/production/_ext/1688732426/system_interrupt.o
 .debug_str     0x00004143        0x0 build/default/production/_ext/1688732426/system_exceptions.o
 .debug_str     0x00004143        0x0 build/default/production/_ext/1688732426/system_tasks.o
 .debug_str     0x00004143       0x2a build/default/production/_ext/259038627/gfx_assets.o
 .debug_str     0x0000416d        0x0 f:/software_installations/mplab_xc32/bin/bin/../../lib/gcc/pic32mx/4.8.3\libgcc.a(floatunsisf.o)
 .debug_str     0x0000416d        0x0 f:/software_installations/mplab_xc32/bin/bin/../../lib/gcc/pic32mx/4.8.3/../../../../pic32mx/lib\libpic32.a(default-bootstrap-exception-handler.o)
 .debug_str     0x0000416d        0x0 f:/software_installations/mplab_xc32/bin/bin/../../lib/gcc/pic32mx/4.8.3/../../../../pic32mx/lib\libpic32.a(default-on-reset.o)
 .debug_str     0x0000416d        0x0 f:/software_installations/mplab_xc32/bin/bin/../../lib/gcc/pic32mx/4.8.3/../../../../pic32mx/lib\libpic32.a(default-on-bootstrap.o)
 .debug_str     0x0000416d        0x0 f:/software_installations/mplab_xc32/bin/bin/../../lib/gcc/pic32mx/4.8.3/../../../../pic32mx/lib\libpic32.a(defaultinterrupt.o)
 .debug_str     0x0000416d        0x0 f:/software_installations/mplab_xc32/bin/bin/../../lib/gcc/pic32mx/4.8.3/../../../../pic32mx/lib\libpic32.a(default-cache-err-exception-handler.o)
 .debug_str     0x0000416d        0x0 f:/software_installations/mplab_xc32/bin/bin/../../lib/gcc/pic32mx/4.8.3/../../../../pic32mx/lib\libpic32.a(default-simple-tlb-refill-exception-handler.o)
 .debug_str     0x0000416d        0x0 f:/software_installations/mplab_xc32/bin/bin/../../lib/gcc/pic32mx/4.8.3/../../../../pic32mx/lib\libc.a(fassert.o)
 .debug_str     0x0000416d        0x0 f:/software_installations/mplab_xc32/bin/bin/../../lib/gcc/pic32mx/4.8.3/../../../../pic32mx/lib\libc.a(calloc.o)
 .debug_str     0x0000416d        0x0 f:/software_installations/mplab_xc32/bin/bin/../../lib/gcc/pic32mx/4.8.3/../../../../pic32mx/lib\libc.a(malloc.o)
 .debug_str     0x0000416d        0x0 f:/software_installations/mplab_xc32/bin/bin/../../lib/gcc/pic32mx/4.8.3/../../../../pic32mx/lib\libc.a(signal.o)
 .debug_str     0x0000416d        0x0 f:/software_installations/mplab_xc32/bin/bin/../../lib/gcc/pic32mx/4.8.3/../../../../pic32mx/lib\libc.a(exit.o)
 .debug_str     0x0000416d        0x0 f:/software_installations/mplab_xc32/bin/bin/../../lib/gcc/pic32mx/4.8.3/../../../../pic32mx/lib\libc.a(stdclean_simple.o)
 .debug_str     0x0000416d        0x0 f:/software_installations/mplab_xc32/bin/bin/../../lib/gcc/pic32mx/4.8.3/../../../../pic32mx/lib\libc.a(fprintf_cdnopsuxX.eo)
 .debug_str     0x0000416d        0x0 f:/software_installations/mplab_xc32/bin/bin/../../lib/gcc/pic32mx/4.8.3/../../../../pic32mx/lib\libc.a(sprintf_cdnopuxX.eo)
 .debug_str     0x0000416d        0x0 f:/software_installations/mplab_xc32/bin/bin/../../lib/gcc/pic32mx/4.8.3/../../../../pic32mx/lib\libc.a(_iob.o)
 .debug_str     0x0000416d        0x0 f:/software_installations/mplab_xc32/bin/bin/../../lib/gcc/pic32mx/4.8.3/../../../../pic32mx/lib\libc.a(doprnt_cdnopsuxX.eo)
 .debug_str     0x0000416d        0x0 f:/software_installations/mplab_xc32/bin/bin/../../lib/gcc/pic32mx/4.8.3/../../../../pic32mx/lib\libc.a(_fputc_simple.o)
 .debug_str     0x0000416d        0x0 f:/software_installations/mplab_xc32/bin/bin/../../lib/gcc/pic32mx/4.8.3/../../../../pic32mx/lib\libc.a(ctype.o)
 .debug_str     0x0000416d        0x0 f:/software_installations/mplab_xc32/bin/bin/../../lib/gcc/pic32mx/4.8.3/../../../../pic32mx/lib\libc.a(_flsbuf_simple.o)
 .debug_str     0x0000416d        0x0 f:/software_installations/mplab_xc32/bin/bin/../../lib/gcc/pic32mx/4.8.3\libgcc.a(_udivdi3.o)
 .debug_str     0x0000416d        0x0 f:/software_installations/mplab_xc32/bin/bin/../../lib/gcc/pic32mx/4.8.3\libgcc.a(_umoddi3.o)
 .debug_str     0x0000416d        0x0 f:/software_installations/mplab_xc32/bin/bin/../../lib/gcc/pic32mx/4.8.3/../../../../pic32mx/lib\libpic32.a(sbrk.o)
 .debug_str     0x0000416d        0x0 f:/software_installations/mplab_xc32/bin/bin/../../lib/gcc/pic32mx/4.8.3/../../../../pic32mx/lib\libpic32.a(write.o)
 .debug_str     0x0000416d        0x0 f:/software_installations/mplab_xc32/bin/bin/../../lib/gcc/pic32mx/4.8.3/../../../../pic32mx/lib\libpic32.a(errno.o)
 .debug_str     0x0000416d        0x0 f:/software_installations/mplab_xc32/bin/bin/../../lib/gcc/pic32mx/4.8.3/../../../../pic32mx/lib\libpic32.a(_mon_putc.o)
 .debug_str     0x0000416d        0x0 f:/software_installations/mplab_xc32/bin/bin/../../lib/gcc/pic32mx/4.8.3/../../../../pic32mx/lib\libpic32.a(xc32_uart.o)

.debug_loc      0x00000000    0x4cecd
 *.elf(.debug_loc)
 *(.debug_loc)
 .debug_loc     0x00000000       0x14 build/default/production/_ext/1360937237/app.o
 .debug_loc     0x00000014     0x30a0 build/default/production/_ext/1864665665/drv_i2c_bb_a.o
 .debug_loc     0x000030b4     0x1a93 build/default/production/_ext/1864665665/drv_i2c_bb.o
 .debug_loc     0x00004b47      0xae7 build/default/production/_ext/1860398633/drv_mxt336t.o
 .debug_loc     0x0000562e     0x146c build/default/production/_ext/1528952846/jidctint.o
 .debug_loc     0x00006a9a      0xa09 build/default/production/_ext/1572996423/gfxu_image_jpg_common.o
 .debug_loc     0x000074a3      0x230 build/default/production/_ext/1572996423/gfxu_image_jpg_internal.o
 .debug_loc     0x000076d3      0x2a0 build/default/production/_ext/1572996423/gfxu_image_jpg_external.o
 .debug_loc     0x00007973      0x24c build/default/production/_ext/1572996423/gfxu_image_png_external.o
 .debug_loc     0x00007bbf      0x2bd build/default/production/_ext/1572996423/gfxu_image_png_internal.o
 .debug_loc     0x00007e7c     0xf53a build/default/production/_ext/1151653695/lodepng.o
 .debug_loc     0x000173b6      0x2a2 build/default/production/_ext/1572996423/gfxu_image.o
 .debug_loc     0x00017658      0x4bb build/default/production/_ext/1572996423/gfxu_image_raw_external.o
 .debug_loc     0x00017b13      0x297 build/default/production/_ext/1572996423/gfxu_image_raw_internal.o
 .debug_loc     0x00017daa      0x5b8 build/default/production/_ext/1572996423/gfxu_image_rle_external.o
 .debug_loc     0x00018362      0x694 build/default/production/_ext/1572996423/gfxu_image_rle_internal.o
 .debug_loc     0x000189f6      0x260 build/default/production/_ext/1572996423/gfxu_image_utils.o
 .debug_loc     0x00018c56      0xcfd build/default/production/_ext/1572996423/gfxu_string.o
 .debug_loc     0x00019953      0x37c build/default/production/_ext/1572996423/gfxu_string_external.o
 .debug_loc     0x00019ccf      0x3d8 build/default/production/_ext/1572996423/gfxu_stringbuffer_external.o
 .debug_loc     0x0001a0a7      0x63f build/default/production/_ext/1572996423/gfxu_string_internal.o
 .debug_loc     0x0001a6e6     0x1192 build/default/production/_ext/1572996423/gfxu_string_query.o
 .debug_loc     0x0001b878     0x1b15 build/default/production/_ext/1572996423/gfxu_string_utils.o
 .debug_loc     0x0001d38d       0x34 build/default/production/_ext/493962524/libaria.o
 .debug_loc     0x0001d3c1      0x4ee build/default/production/_ext/493962524/libaria_array.o
 .debug_loc     0x0001d8af      0x8cf build/default/production/_ext/493962524/libaria_context.o
 .debug_loc     0x0001e17e      0x249 build/default/production/_ext/493962524/libaria_context_paint.o
 .debug_loc     0x0001e3c7      0x288 build/default/production/_ext/493962524/libaria_draw.o
 .debug_loc     0x0001e64f       0xd2 build/default/production/_ext/493962524/libaria_editwidget.o
 .debug_loc     0x0001e721      0x128 build/default/production/_ext/493962524/libaria_event.o
 .debug_loc     0x0001e849      0x6c5 build/default/production/_ext/493962524/libaria_input.o
 .debug_loc     0x0001ef0e      0x80f build/default/production/_ext/493962524/libaria_layer.o
 .debug_loc     0x0001f71d      0x69e build/default/production/_ext/493962524/libaria_list.o
 .debug_loc     0x0001fdbb      0x56b build/default/production/_ext/493962524/libaria_rectarray.o
 .debug_loc     0x00020326       0x58 build/default/production/_ext/493962524/libaria_scheme.o
 .debug_loc     0x0002037e      0x2dd build/default/production/_ext/493962524/libaria_screen.o
 .debug_loc     0x0002065b     0x139b build/default/production/_ext/493962524/libaria_string.o
 .debug_loc     0x000219f6     0x12f5 build/default/production/_ext/493962524/libaria_utils.o
 .debug_loc     0x00022ceb     0x130d build/default/production/_ext/493962524/libaria_widget.o
 .debug_loc     0x00023ff8       0xbb build/default/production/_ext/493962524/libaria_widget_skin_classic.o
 .debug_loc     0x000240b3      0xc8a build/default/production/_ext/493962524/libaria_widget_skin_classic_common.o
 .debug_loc     0x00024d3d      0x247 build/default/production/_ext/493962524/libaria_widget_arc.o
 .debug_loc     0x00024f84      0x195 build/default/production/_ext/493962524/libaria_widget_arc_skin_classic.o
 .debug_loc     0x00025119     0x123a build/default/production/_ext/493962524/libaria_widget_bar_graph.o
 .debug_loc     0x00026353     0x101a build/default/production/_ext/493962524/libaria_widget_bar_graph_skin_classic.o
 .debug_loc     0x0002736d      0x812 build/default/production/_ext/493962524/libaria_widget_button.o
 .debug_loc     0x00027b7f      0x570 build/default/production/_ext/493962524/libaria_widget_button_skin_classic.o
 .debug_loc     0x000280ef      0x62c build/default/production/_ext/493962524/libaria_widget_checkbox.o
 .debug_loc     0x0002871b      0x353 build/default/production/_ext/493962524/libaria_widget_checkbox_skin_classic.o
 .debug_loc     0x00028a6e      0x199 build/default/production/_ext/493962524/libaria_widget_circle.o
 .debug_loc     0x00028c07      0x110 build/default/production/_ext/493962524/libaria_widget_circle_skin_classic.o
 .debug_loc     0x00028d17      0xf0a build/default/production/_ext/493962524/libaria_widget_circular_gauge.o
 .debug_loc     0x00029c21      0x536 build/default/production/_ext/493962524/libaria_widget_circular_gauge_skin_classic.o
 .debug_loc     0x0002a157      0xcda build/default/production/_ext/493962524/libaria_widget_circular_slider.o
 .debug_loc     0x0002ae31      0x1fa build/default/production/_ext/493962524/libaria_widget_circular_slider_skin_classic.o
 .debug_loc     0x0002b02b       0xeb build/default/production/_ext/493962524/libaria_widget_drawsurface.o
 .debug_loc     0x0002b116       0xe4 build/default/production/_ext/493962524/libaria_widget_drawsurface_skin_classic.o
 .debug_loc     0x0002b1fa       0xeb build/default/production/_ext/493962524/libaria_widget_gradient.o
 .debug_loc     0x0002b2e5      0x125 build/default/production/_ext/493962524/libaria_widget_gradient_skin_classic.o
 .debug_loc     0x0002b40a      0x201 build/default/production/_ext/493962524/libaria_widget_groupbox.o
 .debug_loc     0x0002b60b      0x4b0 build/default/production/_ext/493962524/libaria_widget_groupbox_skin_classic.o
 .debug_loc     0x0002babb      0x224 build/default/production/_ext/493962524/libaria_widget_image.o
 .debug_loc     0x0002bcdf      0x1c0 build/default/production/_ext/493962524/libaria_widget_image_skin_classic.o
 .debug_loc     0x0002be9f      0x508 build/default/production/_ext/493962524/libaria_widget_imageplus.o
 .debug_loc     0x0002c3a7      0x27b build/default/production/_ext/493962524/libaria_widget_imageplus_skin_classic.o
 .debug_loc     0x0002c622      0x57b build/default/production/_ext/493962524/libaria_widget_imagesequence.o
 .debug_loc     0x0002cb9d      0x1c0 build/default/production/_ext/493962524/libaria_widget_imagesequence_skin_classic.o
 .debug_loc     0x0002cd5d     0x124e build/default/production/_ext/493962524/libaria_widget_keypad.o
 .debug_loc     0x0002dfab      0x10b build/default/production/_ext/493962524/libaria_widget_keypad_skin_classic.o
 .debug_loc     0x0002e0b6      0x298 build/default/production/_ext/493962524/libaria_widget_label.o
 .debug_loc     0x0002e34e      0x36a build/default/production/_ext/493962524/libaria_widget_label_skin_classic.o
 .debug_loc     0x0002e6b8      0x1d3 build/default/production/_ext/493962524/libaria_widget_line.o
 .debug_loc     0x0002e88b      0x110 build/default/production/_ext/493962524/libaria_widget_line_skin_classic.o
 .debug_loc     0x0002e99b     0x182b build/default/production/_ext/493962524/libaria_widget_line_graph.o
 .debug_loc     0x000301c6     0x1885 build/default/production/_ext/493962524/libaria_widget_line_graph_skin_classic.o
 .debug_loc     0x00031a4b     0x129a build/default/production/_ext/493962524/libaria_widget_list.o
 .debug_loc     0x00032ce5      0x5f3 build/default/production/_ext/493962524/libaria_widget_list_skin_classic.o
 .debug_loc     0x000332d8     0x1168 build/default/production/_ext/493962524/libaria_widget_listwheel.o
 .debug_loc     0x00034440      0xd48 build/default/production/_ext/493962524/libaria_widget_listwheel_skin_classic.o
 .debug_loc     0x00035188      0xda5 build/default/production/_ext/493962524/libaria_widget_pie_chart.o
 .debug_loc     0x00035f2d      0x27c build/default/production/_ext/493962524/libaria_widget_pie_chart_skin_classic.o
 .debug_loc     0x000361a9      0x1c8 build/default/production/_ext/493962524/libaria_widget_progressbar.o
 .debug_loc     0x00036371      0x5ed build/default/production/_ext/493962524/libaria_widget_progressbar_skin_classic.o
 .debug_loc     0x0003695e     0x1656 build/default/production/_ext/493962524/libaria_widget_radial_menu.o
 .debug_loc     0x00037fb4      0x297 build/default/production/_ext/493962524/libaria_widget_radial_menu_skin_classic.o
 .debug_loc     0x0003824b      0x6aa build/default/production/_ext/493962524/libaria_widget_radiobutton.o
 .debug_loc     0x000388f5      0x444 build/default/production/_ext/493962524/libaria_widget_radiobutton_skin_classic.o
 .debug_loc     0x00038d39      0x20d build/default/production/_ext/493962524/libaria_radiobutton_group.o
 .debug_loc     0x00038f46       0xe2 build/default/production/_ext/493962524/libaria_widget_rectangle.o
 .debug_loc     0x00039028      0x192 build/default/production/_ext/493962524/libaria_widget_rectangle_skin_classic.o
 .debug_loc     0x000391ba      0x712 build/default/production/_ext/493962524/libaria_widget_scrollbar.o
 .debug_loc     0x000398cc      0x530 build/default/production/_ext/493962524/libaria_widget_scrollbar_skin_classic.o
 .debug_loc     0x00039dfc      0x6c7 build/default/production/_ext/493962524/libaria_widget_slider.o
 .debug_loc     0x0003a4c3      0x43d build/default/production/_ext/493962524/libaria_widget_slider_skin_classic.o
 .debug_loc     0x0003a900      0x5ce build/default/production/_ext/493962524/libaria_widget_textfield.o
 .debug_loc     0x0003aece      0x2b2 build/default/production/_ext/493962524/libaria_widget_textfield_skin_classic.o
 .debug_loc     0x0003b180      0x264 build/default/production/_ext/493962524/libaria_widget_touchtest.o
 .debug_loc     0x0003b3e4      0x2c4 build/default/production/_ext/493962524/libaria_widget_touchtest_skin_classic.o
 .debug_loc     0x0003b6a8      0x2ba build/default/production/_ext/493962524/libaria_widget_window.o
 .debug_loc     0x0003b962      0x3c2 build/default/production/_ext/493962524/libaria_widget_window_skin_classic.o
 .debug_loc     0x0003bd24      0x7ca build/default/production/_ext/1026407831/gfx.o
 .debug_loc     0x0003c4ee       0xa5 build/default/production/_ext/1026407831/gfx_color.o
 .debug_loc     0x0003c593     0x1631 build/default/production/_ext/1026407831/gfx_default_impl.o
 .debug_loc     0x0003dbc4     0x1023 build/default/production/_ext/1026407831/gfx_get.o
 .debug_loc     0x0003ebe7      0xb0c build/default/production/_ext/1026407831/gfx_layer.o
 .debug_loc     0x0003f6f3     0x103f build/default/production/_ext/1026407831/gfx_pixel_buffer.o
 .debug_loc     0x00040732      0x76b build/default/production/_ext/1026407831/gfx_rect.o
 .debug_loc     0x00040e9d      0x8e1 build/default/production/_ext/1026407831/gfx_util.o
 .debug_loc     0x0004177e     0x10aa build/default/production/_ext/1026407831/gfx_set.o
 .debug_loc     0x00042828      0x805 build/default/production/_ext/1026407831/gfx_color_blend.o
 .debug_loc     0x0004302d     0x1706 build/default/production/_ext/1026407831/gfx_color_convert.o
 .debug_loc     0x00044733      0xf44 build/default/production/_ext/1026407831/gfx_color_lerp.o
 .debug_loc     0x00045677       0x4d build/default/production/_ext/1026407831/gfx_color_value.o
 .debug_loc     0x000456c4      0xb73 build/default/production/_ext/1026407831/gfx_draw_arc.o
 .debug_loc     0x00046237      0x571 build/default/production/_ext/1026407831/gfx_draw_blit.o
 .debug_loc     0x000467a8      0x23a build/default/production/_ext/1026407831/gfx_draw_circle.o
 .debug_loc     0x000469e2      0x3d3 build/default/production/_ext/1026407831/gfx_draw_ellipse.o
 .debug_loc     0x00046db5      0x85c build/default/production/_ext/1026407831/gfx_draw_line.o
 .debug_loc     0x00047611      0x217 build/default/production/_ext/1026407831/gfx_draw_pixel.o
 .debug_loc     0x00047828      0x381 build/default/production/_ext/1026407831/gfx_draw_rect.o
 .debug_loc     0x00047ba9      0x800 build/default/production/_ext/1026407831/gfx_draw_stretchblit.o
 .debug_loc     0x000483a9      0x89e build/default/production/_ext/1026407831/gfx_math.o
 .debug_loc     0x00048c47     0x1668 build/default/production/_ext/360842870/sys_dma.o
 .debug_loc     0x0004a2af      0x124 build/default/production/_ext/1691207160/sys_input.o
 .debug_loc     0x0004a3d3       0x7c build/default/production/_ext/549570029/sys_int_pic32.o
 .debug_loc     0x0004a44f      0x5a3 build/default/production/_ext/1988394548/drv_gfx_lcc_generic.o
 .debug_loc     0x0004a9f2       0x84 build/default/production/_ext/458109090/libaria_harmony.o
 .debug_loc     0x0004aa76       0x5d build/default/production/_ext/458109090/libaria_init.o
 .debug_loc     0x0004aad3       0x97 build/default/production/_ext/639803181/sys_clk_pic32mz.o
 .debug_loc     0x0004ab6a       0xf0 build/default/production/_ext/340578644/sys_devcon.o
 .debug_loc     0x0004ac5a      0x3fd build/default/production/_ext/340578644/sys_devcon_pic32mz.o
 .debug_loc     0x0004b057      0x7de build/default/production/_ext/822048611/sys_ports_static.o
 .debug_loc     0x0004b835       0x20 build/default/production/_ext/494920387/sys_memory_ddr_static.o
 .debug_loc     0x0004b855       0x21 build/default/production/_ext/1688732426/system_init.o
 .debug_loc     0x0004b876       0x74 f:/software_installations/mplab_xc32/bin/bin/../../lib/gcc/pic32mx/4.8.3\libgcc.a(floatunsisf.o)
 .debug_loc     0x0004b8ea       0x2c f:/software_installations/mplab_xc32/bin/bin/../../lib/gcc/pic32mx/4.8.3/../../../../pic32mx/lib\libpic32.a(default-bootstrap-exception-handler.o)
 .debug_loc     0x0004b916       0x2c f:/software_installations/mplab_xc32/bin/bin/../../lib/gcc/pic32mx/4.8.3/../../../../pic32mx/lib\libpic32.a(default-cache-err-exception-handler.o)
 .debug_loc     0x0004b942       0x2c f:/software_installations/mplab_xc32/bin/bin/../../lib/gcc/pic32mx/4.8.3/../../../../pic32mx/lib\libpic32.a(default-simple-tlb-refill-exception-handler.o)
 .debug_loc     0x0004b96e      0xa6a f:/software_installations/mplab_xc32/bin/bin/../../lib/gcc/pic32mx/4.8.3\libgcc.a(_udivdi3.o)
 .debug_loc     0x0004c3d8      0xa3d f:/software_installations/mplab_xc32/bin/bin/../../lib/gcc/pic32mx/4.8.3\libgcc.a(_umoddi3.o)
 .debug_loc     0x0004ce15       0x60 f:/software_installations/mplab_xc32/bin/bin/../../lib/gcc/pic32mx/4.8.3/../../../../pic32mx/lib\libpic32.a(sbrk.o)
 .debug_loc     0x0004ce75       0x38 f:/software_installations/mplab_xc32/bin/bin/../../lib/gcc/pic32mx/4.8.3/../../../../pic32mx/lib\libpic32.a(write.o)
 .debug_loc     0x0004cead       0x20 f:/software_installations/mplab_xc32/bin/bin/../../lib/gcc/pic32mx/4.8.3/../../../../pic32mx/lib\libpic32.a(_mon_putc.o)

.debug_macinfo
 *.elf(.debug_macinfo)
 *(.debug_macinfo)

.debug_weaknames
 *.elf(.debug_weaknames)
 *(.debug_weaknames)

.debug_funcnames
 *.elf(.debug_funcnames)
 *(.debug_funcnames)

.debug_typenames
 *.elf(.debug_typenames)
 *(.debug_typenames)

.debug_varnames
 *.elf(.debug_varnames)
 *(.debug_varnames)

.debug_pubtypes
 *.elf(.debug_pubtypes)
 *(.debug_pubtypes)

.debug_ranges   0x00000000     0x6d98
 *.elf(.debug_ranges)
 *(.debug_ranges)
 .debug_ranges  0x00000000       0x18 build/default/production/_ext/1360937237/app.o
 .debug_ranges  0x00000018       0x10 build/default/production/_ext/1360937237/main.o
 .debug_ranges  0x00000028      0x150 build/default/production/_ext/1864665665/drv_i2c_bb_a.o
 .debug_ranges  0x00000178       0x68 build/default/production/_ext/1864665665/drv_i2c_bb.o
 .debug_ranges  0x000001e0      0x120 build/default/production/_ext/1860398633/drv_mxt336t.o
 .debug_ranges  0x00000300       0x10 build/default/production/_ext/1528952846/jidctint.o
 .debug_ranges  0x00000310       0xd8 build/default/production/_ext/1572996423/gfxu_image_jpg_common.o
 .debug_ranges  0x000003e8       0x18 build/default/production/_ext/1572996423/gfxu_image_jpg_internal.o
 .debug_ranges  0x00000400       0x18 build/default/production/_ext/1572996423/gfxu_image_jpg_external.o
 .debug_ranges  0x00000418       0x10 build/default/production/_ext/1572996423/gfxu_image_png_external.o
 .debug_ranges  0x00000428       0x28 build/default/production/_ext/1572996423/gfxu_image_png_internal.o
 .debug_ranges  0x00000450     0x1ae0 build/default/production/_ext/1151653695/lodepng.o
 .debug_ranges  0x00001f30       0x18 build/default/production/_ext/1572996423/gfxu_image.o
 .debug_ranges  0x00001f48       0x90 build/default/production/_ext/1572996423/gfxu_image_raw_external.o
 .debug_ranges  0x00001fd8       0x48 build/default/production/_ext/1572996423/gfxu_image_raw_internal.o
 .debug_ranges  0x00002020       0xb0 build/default/production/_ext/1572996423/gfxu_image_rle_external.o
 .debug_ranges  0x000020d0       0x28 build/default/production/_ext/1572996423/gfxu_image_rle_internal.o
 .debug_ranges  0x000020f8       0x78 build/default/production/_ext/1572996423/gfxu_image_utils.o
 .debug_ranges  0x00002170       0x10 build/default/production/_ext/1572996423/gfxu_palette.o
 .debug_ranges  0x00002180       0x38 build/default/production/_ext/1572996423/gfxu_string.o
 .debug_ranges  0x000021b8       0x90 build/default/production/_ext/1572996423/gfxu_string_external.o
 .debug_ranges  0x00002248       0x70 build/default/production/_ext/1572996423/gfxu_stringbuffer_external.o
 .debug_ranges  0x000022b8       0x28 build/default/production/_ext/1572996423/gfxu_string_internal.o
 .debug_ranges  0x000022e0       0x70 build/default/production/_ext/1572996423/gfxu_string_query.o
 .debug_ranges  0x00002350       0xb0 build/default/production/_ext/1572996423/gfxu_string_utils.o
 .debug_ranges  0x00002400       0x20 build/default/production/_ext/493962524/libaria.o
 .debug_ranges  0x00002420       0x90 build/default/production/_ext/493962524/libaria_array.o
 .debug_ranges  0x000024b0      0x108 build/default/production/_ext/493962524/libaria_context.o
 .debug_ranges  0x000025b8       0x28 build/default/production/_ext/493962524/libaria_context_paint.o
 .debug_ranges  0x000025e0       0x28 build/default/production/_ext/493962524/libaria_draw.o
 .debug_ranges  0x00002608       0x88 build/default/production/_ext/493962524/libaria_editwidget.o
 .debug_ranges  0x00002690       0x48 build/default/production/_ext/493962524/libaria_event.o
 .debug_ranges  0x000026d8       0x58 build/default/production/_ext/493962524/libaria_input.o
 .debug_ranges  0x00002730      0x128 build/default/production/_ext/493962524/libaria_layer.o
 .debug_ranges  0x00002858       0x70 build/default/production/_ext/493962524/libaria_list.o
 .debug_ranges  0x000028c8       0x90 build/default/production/_ext/493962524/libaria_rectarray.o
 .debug_ranges  0x00002958       0x10 build/default/production/_ext/493962524/libaria_scheme.o
 .debug_ranges  0x00002968       0x90 build/default/production/_ext/493962524/libaria_screen.o
 .debug_ranges  0x000029f8      0x150 build/default/production/_ext/493962524/libaria_string.o
 .debug_ranges  0x00002b48      0x108 build/default/production/_ext/493962524/libaria_utils.o
 .debug_ranges  0x00002c50      0x240 build/default/production/_ext/493962524/libaria_widget.o
 .debug_ranges  0x00002e90       0x20 build/default/production/_ext/493962524/libaria_widget_skin_classic.o
 .debug_ranges  0x00002eb0       0xc8 build/default/production/_ext/493962524/libaria_widget_skin_classic_common.o
 .debug_ranges  0x00002f78       0x70 build/default/production/_ext/493962524/libaria_widget_arc.o
 .debug_ranges  0x00002fe8       0x38 build/default/production/_ext/493962524/libaria_widget_arc_skin_classic.o
 .debug_ranges  0x00003020      0x178 build/default/production/_ext/493962524/libaria_widget_bar_graph.o
 .debug_ranges  0x00003198      0x198 build/default/production/_ext/493962524/libaria_widget_bar_graph_skin_classic.o
 .debug_ranges  0x00003330      0x108 build/default/production/_ext/493962524/libaria_widget_button.o
 .debug_ranges  0x00003438       0x60 build/default/production/_ext/493962524/libaria_widget_button_skin_classic.o
 .debug_ranges  0x00003498       0xf8 build/default/production/_ext/493962524/libaria_widget_checkbox.o
 .debug_ranges  0x00003590       0x58 build/default/production/_ext/493962524/libaria_widget_checkbox_skin_classic.o
 .debug_ranges  0x000035e8       0x40 build/default/production/_ext/493962524/libaria_widget_circle.o
 .debug_ranges  0x00003628       0x30 build/default/production/_ext/493962524/libaria_widget_circle_skin_classic.o
 .debug_ranges  0x00003658      0x170 build/default/production/_ext/493962524/libaria_widget_circular_gauge.o
 .debug_ranges  0x000037c8       0x58 build/default/production/_ext/493962524/libaria_widget_circular_gauge_skin_classic.o
 .debug_ranges  0x00003820      0x130 build/default/production/_ext/493962524/libaria_widget_circular_slider.o
 .debug_ranges  0x00003950       0x30 build/default/production/_ext/493962524/libaria_widget_circular_slider_skin_classic.o
 .debug_ranges  0x00003980       0x30 build/default/production/_ext/493962524/libaria_widget_drawsurface.o
 .debug_ranges  0x000039b0       0x30 build/default/production/_ext/493962524/libaria_widget_drawsurface_skin_classic.o
 .debug_ranges  0x000039e0       0x30 build/default/production/_ext/493962524/libaria_widget_gradient.o
 .debug_ranges  0x00003a10       0x28 build/default/production/_ext/493962524/libaria_widget_gradient_skin_classic.o
 .debug_ranges  0x00003a38       0x48 build/default/production/_ext/493962524/libaria_widget_groupbox.o
 .debug_ranges  0x00003a80       0x50 build/default/production/_ext/493962524/libaria_widget_groupbox_skin_classic.o
 .debug_ranges  0x00003ad0       0x68 build/default/production/_ext/493962524/libaria_widget_image.o
 .debug_ranges  0x00003b38       0x40 build/default/production/_ext/493962524/libaria_widget_image_skin_classic.o
 .debug_ranges  0x00003b78       0xd8 build/default/production/_ext/493962524/libaria_widget_imageplus.o
 .debug_ranges  0x00003c50       0x38 build/default/production/_ext/493962524/libaria_widget_imageplus_skin_classic.o
 .debug_ranges  0x00003c88       0xd0 build/default/production/_ext/493962524/libaria_widget_imagesequence.o
 .debug_ranges  0x00003d58       0x40 build/default/production/_ext/493962524/libaria_widget_imagesequence_skin_classic.o
 .debug_ranges  0x00003d98       0xf8 build/default/production/_ext/493962524/libaria_widget_keypad.o
 .debug_ranges  0x00003e90       0x30 build/default/production/_ext/493962524/libaria_widget_keypad_skin_classic.o
 .debug_ranges  0x00003ec0       0x60 build/default/production/_ext/493962524/libaria_widget_label.o
 .debug_ranges  0x00003f20       0x40 build/default/production/_ext/493962524/libaria_widget_label_skin_classic.o
 .debug_ranges  0x00003f60       0x40 build/default/production/_ext/493962524/libaria_widget_line.o
 .debug_ranges  0x00003fa0       0x30 build/default/production/_ext/493962524/libaria_widget_line_skin_classic.o
 .debug_ranges  0x00003fd0      0x1c8 build/default/production/_ext/493962524/libaria_widget_line_graph.o
 .debug_ranges  0x00004198      0x320 build/default/production/_ext/493962524/libaria_widget_line_graph_skin_classic.o
 .debug_ranges  0x000044b8      0x178 build/default/production/_ext/493962524/libaria_widget_list.o
 .debug_ranges  0x00004630       0x80 build/default/production/_ext/493962524/libaria_widget_list_skin_classic.o
 .debug_ranges  0x000046b0      0x208 build/default/production/_ext/493962524/libaria_widget_listwheel.o
 .debug_ranges  0x000048b8       0xe0 build/default/production/_ext/493962524/libaria_widget_listwheel_skin_classic.o
 .debug_ranges  0x00004998      0x170 build/default/production/_ext/493962524/libaria_widget_pie_chart.o
 .debug_ranges  0x00004b08       0x48 build/default/production/_ext/493962524/libaria_widget_pie_chart_skin_classic.o
 .debug_ranges  0x00004b50       0x50 build/default/production/_ext/493962524/libaria_widget_progressbar.o
 .debug_ranges  0x00004ba0       0x38 build/default/production/_ext/493962524/libaria_widget_progressbar_skin_classic.o
 .debug_ranges  0x00004bd8      0x1a8 build/default/production/_ext/493962524/libaria_widget_radial_menu.o
 .debug_ranges  0x00004d80       0x58 build/default/production/_ext/493962524/libaria_widget_radial_menu_skin_classic.o
 .debug_ranges  0x00004dd8      0x108 build/default/production/_ext/493962524/libaria_widget_radiobutton.o
 .debug_ranges  0x00004ee0       0x70 build/default/production/_ext/493962524/libaria_widget_radiobutton_skin_classic.o
 .debug_ranges  0x00004f50       0x30 build/default/production/_ext/493962524/libaria_radiobutton_group.o
 .debug_ranges  0x00004f80       0x28 build/default/production/_ext/493962524/libaria_widget_rectangle.o
 .debug_ranges  0x00004fa8       0x38 build/default/production/_ext/493962524/libaria_widget_rectangle_skin_classic.o
 .debug_ranges  0x00004fe0       0xf0 build/default/production/_ext/493962524/libaria_widget_scrollbar.o
 .debug_ranges  0x000050d0       0x60 build/default/production/_ext/493962524/libaria_widget_scrollbar_skin_classic.o
 .debug_ranges  0x00005130       0xd0 build/default/production/_ext/493962524/libaria_widget_slider.o
 .debug_ranges  0x00005200       0x48 build/default/production/_ext/493962524/libaria_widget_slider_skin_classic.o
 .debug_ranges  0x00005248      0x100 build/default/production/_ext/493962524/libaria_widget_textfield.o
 .debug_ranges  0x00005348       0x50 build/default/production/_ext/493962524/libaria_widget_textfield_skin_classic.o
 .debug_ranges  0x00005398       0x60 build/default/production/_ext/493962524/libaria_widget_touchtest.o
 .debug_ranges  0x000053f8       0x38 build/default/production/_ext/493962524/libaria_widget_touchtest_skin_classic.o
 .debug_ranges  0x00005430       0x68 build/default/production/_ext/493962524/libaria_widget_window.o
 .debug_ranges  0x00005498       0x68 build/default/production/_ext/493962524/libaria_widget_window_skin_classic.o
 .debug_ranges  0x00005500       0x70 build/default/production/_ext/1026407831/gfx.o
 .debug_ranges  0x00005570       0x30 build/default/production/_ext/1026407831/gfx_color.o
 .debug_ranges  0x000055a0       0x20 build/default/production/_ext/1026407831/gfx_context.o
 .debug_ranges  0x000055c0      0x358 build/default/production/_ext/1026407831/gfx_default_impl.o
 .debug_ranges  0x00005918       0x10 build/default/production/_ext/1026407831/gfx_display.o
 .debug_ranges  0x00005928       0x20 build/default/production/_ext/1026407831/gfx_driver_interface.o
 .debug_ranges  0x00005948      0x180 build/default/production/_ext/1026407831/gfx_get.o
 .debug_ranges  0x00005ac8       0x60 build/default/production/_ext/1026407831/gfx_layer.o
 .debug_ranges  0x00005b28       0xf0 build/default/production/_ext/1026407831/gfx_pixel_buffer.o
 .debug_ranges  0x00005c18       0x60 build/default/production/_ext/1026407831/gfx_rect.o
 .debug_ranges  0x00005c78       0x98 build/default/production/_ext/1026407831/gfx_util.o
 .debug_ranges  0x00005d10      0x158 build/default/production/_ext/1026407831/gfx_set.o
 .debug_ranges  0x00005e68       0x80 build/default/production/_ext/1026407831/gfx_color_blend.o
 .debug_ranges  0x00005ee8      0x1f8 build/default/production/_ext/1026407831/gfx_color_convert.o
 .debug_ranges  0x000060e0       0x50 build/default/production/_ext/1026407831/gfx_color_lerp.o
 .debug_ranges  0x00006130       0x10 build/default/production/_ext/1026407831/gfx_color_value.o
 .debug_ranges  0x00006140       0x38 build/default/production/_ext/1026407831/gfx_draw_arc.o
 .debug_ranges  0x00006178       0x30 build/default/production/_ext/1026407831/gfx_draw_blit.o
 .debug_ranges  0x000061a8       0x18 build/default/production/_ext/1026407831/gfx_draw_circle.o
 .debug_ranges  0x000061c0       0x18 build/default/production/_ext/1026407831/gfx_draw_ellipse.o
 .debug_ranges  0x000061d8       0x70 build/default/production/_ext/1026407831/gfx_draw_line.o
 .debug_ranges  0x00006248       0x28 build/default/production/_ext/1026407831/gfx_draw_pixel.o
 .debug_ranges  0x00006270       0x58 build/default/production/_ext/1026407831/gfx_draw_rect.o
 .debug_ranges  0x000062c8       0x20 build/default/production/_ext/1026407831/gfx_draw_stretchblit.o
 .debug_ranges  0x000062e8       0xa8 build/default/production/_ext/1026407831/gfx_math.o
 .debug_ranges  0x00006390      0x180 build/default/production/_ext/360842870/sys_dma.o
 .debug_ranges  0x00006510       0x88 build/default/production/_ext/1691207160/sys_input.o
 .debug_ranges  0x00006598       0x60 build/default/production/_ext/1691207160/sys_input_listener.o
 .debug_ranges  0x000065f8       0x50 build/default/production/_ext/549570029/sys_int_pic32.o
 .debug_ranges  0x00006648       0xb0 build/default/production/_ext/1988394548/drv_gfx_lcc_generic.o
 .debug_ranges  0x000066f8       0x30 build/default/production/_ext/458109090/libaria_harmony.o
 .debug_ranges  0x00006728       0x18 build/default/production/_ext/458109090/libaria_init.o
 .debug_ranges  0x00006740       0x10 build/default/production/_ext/2065038297/gfx_driver_def.o
 .debug_ranges  0x00006750       0x10 build/default/production/_ext/2065038297/gfx_processor_def.o
 .debug_ranges  0x00006760       0x40 build/default/production/_ext/639803181/sys_clk_pic32mz.o
 .debug_ranges  0x000067a0       0x68 build/default/production/_ext/340578644/sys_devcon.o
 .debug_ranges  0x00006808       0xd8 build/default/production/_ext/340578644/sys_devcon_pic32mz.o
 .debug_ranges  0x000068e0      0x138 build/default/production/_ext/822048611/sys_ports_static.o
 .debug_ranges  0x00006a18       0x10 build/default/production/_ext/494920387/sys_memory_ddr_static.o
 .debug_ranges  0x00006a28       0x10 build/default/production/_ext/1541531744/sys_memory_static.o
 .debug_ranges  0x00006a38       0x10 build/default/production/_ext/74298950/bsp.o
 .debug_ranges  0x00006a48       0x10 build/default/production/_ext/1688732426/system_init.o
 .debug_ranges  0x00006a58       0x30 build/default/production/_ext/1688732426/system_interrupt.o
 .debug_ranges  0x00006a88       0x10 build/default/production/_ext/1688732426/system_exceptions.o
 .debug_ranges  0x00006a98       0x10 build/default/production/_ext/1688732426/system_tasks.o
 .debug_ranges  0x00006aa8       0x10 f:/software_installations/mplab_xc32/bin/bin/../../lib/gcc/pic32mx/4.8.3/../../../../pic32mx/lib\libpic32.a(default-bootstrap-exception-handler.o)
 .debug_ranges  0x00006ab8       0x10 f:/software_installations/mplab_xc32/bin/bin/../../lib/gcc/pic32mx/4.8.3/../../../../pic32mx/lib\libpic32.a(default-on-reset.o)
 .debug_ranges  0x00006ac8       0x10 f:/software_installations/mplab_xc32/bin/bin/../../lib/gcc/pic32mx/4.8.3/../../../../pic32mx/lib\libpic32.a(default-on-bootstrap.o)
 .debug_ranges  0x00006ad8       0x10 f:/software_installations/mplab_xc32/bin/bin/../../lib/gcc/pic32mx/4.8.3/../../../../pic32mx/lib\libpic32.a(defaultinterrupt.o)
 .debug_ranges  0x00006ae8       0x10 f:/software_installations/mplab_xc32/bin/bin/../../lib/gcc/pic32mx/4.8.3/../../../../pic32mx/lib\libpic32.a(default-cache-err-exception-handler.o)
 .debug_ranges  0x00006af8       0x10 f:/software_installations/mplab_xc32/bin/bin/../../lib/gcc/pic32mx/4.8.3/../../../../pic32mx/lib\libpic32.a(default-simple-tlb-refill-exception-handler.o)
 .debug_ranges  0x00006b08       0x10 f:/software_installations/mplab_xc32/bin/bin/../../lib/gcc/pic32mx/4.8.3/../../../../pic32mx/lib\libc.a(fassert.o)
 .debug_ranges  0x00006b18       0x10 f:/software_installations/mplab_xc32/bin/bin/../../lib/gcc/pic32mx/4.8.3/../../../../pic32mx/lib\libc.a(calloc.o)
 .debug_ranges  0x00006b28       0x20 f:/software_installations/mplab_xc32/bin/bin/../../lib/gcc/pic32mx/4.8.3/../../../../pic32mx/lib\libc.a(malloc.o)
 .debug_ranges  0x00006b48       0x20 f:/software_installations/mplab_xc32/bin/bin/../../lib/gcc/pic32mx/4.8.3/../../../../pic32mx/lib\libc.a(signal.o)
 .debug_ranges  0x00006b68       0x10 f:/software_installations/mplab_xc32/bin/bin/../../lib/gcc/pic32mx/4.8.3/../../../../pic32mx/lib\libc.a(exit.o)
 .debug_ranges  0x00006b78       0x10 f:/software_installations/mplab_xc32/bin/bin/../../lib/gcc/pic32mx/4.8.3/../../../../pic32mx/lib\libc.a(stdclean_simple.o)
 .debug_ranges  0x00006b88       0x10 f:/software_installations/mplab_xc32/bin/bin/../../lib/gcc/pic32mx/4.8.3/../../../../pic32mx/lib\libc.a(fprintf_cdnopsuxX.eo)
 .debug_ranges  0x00006b98       0x10 f:/software_installations/mplab_xc32/bin/bin/../../lib/gcc/pic32mx/4.8.3/../../../../pic32mx/lib\libc.a(sprintf_cdnopuxX.eo)
 .debug_ranges  0x00006ba8       0x10 f:/software_installations/mplab_xc32/bin/bin/../../lib/gcc/pic32mx/4.8.3/../../../../pic32mx/lib\libc.a(doprnt_cdnopsuxX.eo)
 .debug_ranges  0x00006bb8       0x10 f:/software_installations/mplab_xc32/bin/bin/../../lib/gcc/pic32mx/4.8.3/../../../../pic32mx/lib\libc.a(_fputc_simple.o)
 .debug_ranges  0x00006bc8       0x10 f:/software_installations/mplab_xc32/bin/bin/../../lib/gcc/pic32mx/4.8.3/../../../../pic32mx/lib\libc.a(_flsbuf_simple.o)
 .debug_ranges  0x00006bd8       0x98 f:/software_installations/mplab_xc32/bin/bin/../../lib/gcc/pic32mx/4.8.3\libgcc.a(_udivdi3.o)
 .debug_ranges  0x00006c70       0xd8 f:/software_installations/mplab_xc32/bin/bin/../../lib/gcc/pic32mx/4.8.3\libgcc.a(_umoddi3.o)
 .debug_ranges  0x00006d48       0x30 f:/software_installations/mplab_xc32/bin/bin/../../lib/gcc/pic32mx/4.8.3/../../../../pic32mx/lib\libpic32.a(sbrk.o)
 .debug_ranges  0x00006d78       0x10 f:/software_installations/mplab_xc32/bin/bin/../../lib/gcc/pic32mx/4.8.3/../../../../pic32mx/lib\libpic32.a(write.o)
 .debug_ranges  0x00006d88       0x10 f:/software_installations/mplab_xc32/bin/bin/../../lib/gcc/pic32mx/4.8.3/../../../../pic32mx/lib\libpic32.a(_mon_putc.o)

.gnu.attributes
                0x00000000       0x10
 *(.gnu.attributes)
 .gnu.attributes
                0x00000000       0x10 build/default/production/_ext/1360937237/app.o
 .gnu.attributes
                0x00000010       0x10 build/default/production/_ext/1360937237/main.o
 .gnu.attributes
                0x00000020       0x10 build/default/production/_ext/1864665665/drv_i2c_bb_a.o
 .gnu.attributes
                0x00000030       0x10 build/default/production/_ext/1864665665/drv_i2c_bb.o
 .gnu.attributes
                0x00000040       0x10 build/default/production/_ext/1860398633/drv_mxt336t.o
 .gnu.attributes
                0x00000050       0x10 build/default/production/_ext/1528952846/jidctint.o
 .gnu.attributes
                0x00000060       0x10 build/default/production/_ext/1572996423/gfxu_image_jpg_common.o
 .gnu.attributes
                0x00000070       0x10 build/default/production/_ext/1572996423/gfxu_image_jpg_internal.o
 .gnu.attributes
                0x00000080       0x10 build/default/production/_ext/1572996423/gfxu_image_jpg_external.o
 .gnu.attributes
                0x00000090       0x10 build/default/production/_ext/1572996423/gfxu_image_png_external.o
 .gnu.attributes
                0x000000a0       0x10 build/default/production/_ext/1572996423/gfxu_image_png_internal.o
 .gnu.attributes
                0x000000b0       0x10 build/default/production/_ext/1151653695/lodepng.o
 .gnu.attributes
                0x000000c0       0x10 build/default/production/_ext/1572996423/gfxu_image.o
 .gnu.attributes
                0x000000d0       0x10 build/default/production/_ext/1572996423/gfxu_image_raw_external.o
 .gnu.attributes
                0x000000e0       0x10 build/default/production/_ext/1572996423/gfxu_image_raw_internal.o
 .gnu.attributes
                0x000000f0       0x10 build/default/production/_ext/1572996423/gfxu_image_rle_external.o
 .gnu.attributes
                0x00000100       0x10 build/default/production/_ext/1572996423/gfxu_image_rle_internal.o
 .gnu.attributes
                0x00000110       0x10 build/default/production/_ext/1572996423/gfxu_image_utils.o
 .gnu.attributes
                0x00000120       0x10 build/default/production/_ext/1572996423/gfxu_palette.o
 .gnu.attributes
                0x00000130       0x10 build/default/production/_ext/1572996423/gfxu_string.o
 .gnu.attributes
                0x00000140       0x10 build/default/production/_ext/1572996423/gfxu_string_external.o
 .gnu.attributes
                0x00000150       0x10 build/default/production/_ext/1572996423/gfxu_stringbuffer_external.o
 .gnu.attributes
                0x00000160       0x10 build/default/production/_ext/1572996423/gfxu_string_internal.o
 .gnu.attributes
                0x00000170       0x10 build/default/production/_ext/1572996423/gfxu_string_query.o
 .gnu.attributes
                0x00000180       0x10 build/default/production/_ext/1572996423/gfxu_string_utils.o
 .gnu.attributes
                0x00000190       0x10 build/default/production/_ext/493962524/libaria.o
 .gnu.attributes
                0x000001a0       0x10 build/default/production/_ext/493962524/libaria_array.o
 .gnu.attributes
                0x000001b0       0x10 build/default/production/_ext/493962524/libaria_context.o
 .gnu.attributes
                0x000001c0       0x10 build/default/production/_ext/493962524/libaria_context_paint.o
 .gnu.attributes
                0x000001d0       0x10 build/default/production/_ext/493962524/libaria_draw.o
 .gnu.attributes
                0x000001e0       0x10 build/default/production/_ext/493962524/libaria_editwidget.o
 .gnu.attributes
                0x000001f0       0x10 build/default/production/_ext/493962524/libaria_event.o
 .gnu.attributes
                0x00000200       0x10 build/default/production/_ext/493962524/libaria_input.o
 .gnu.attributes
                0x00000210       0x10 build/default/production/_ext/493962524/libaria_layer.o
 .gnu.attributes
                0x00000220       0x10 build/default/production/_ext/493962524/libaria_list.o
 .gnu.attributes
                0x00000230       0x10 build/default/production/_ext/493962524/libaria_rectarray.o
 .gnu.attributes
                0x00000240       0x10 build/default/production/_ext/493962524/libaria_scheme.o
 .gnu.attributes
                0x00000250       0x10 build/default/production/_ext/493962524/libaria_screen.o
 .gnu.attributes
                0x00000260       0x10 build/default/production/_ext/493962524/libaria_string.o
 .gnu.attributes
                0x00000270       0x10 build/default/production/_ext/493962524/libaria_utils.o
 .gnu.attributes
                0x00000280       0x10 build/default/production/_ext/493962524/libaria_widget.o
 .gnu.attributes
                0x00000290       0x10 build/default/production/_ext/493962524/libaria_widget_skin_classic.o
 .gnu.attributes
                0x000002a0       0x10 build/default/production/_ext/493962524/libaria_widget_skin_classic_common.o
 .gnu.attributes
                0x000002b0       0x10 build/default/production/_ext/493962524/libaria_widget_arc.o
 .gnu.attributes
                0x000002c0       0x10 build/default/production/_ext/493962524/libaria_widget_arc_skin_classic.o
 .gnu.attributes
                0x000002d0       0x10 build/default/production/_ext/493962524/libaria_widget_bar_graph.o
 .gnu.attributes
                0x000002e0       0x10 build/default/production/_ext/493962524/libaria_widget_bar_graph_skin_classic.o
 .gnu.attributes
                0x000002f0       0x10 build/default/production/_ext/493962524/libaria_widget_button.o
 .gnu.attributes
                0x00000300       0x10 build/default/production/_ext/493962524/libaria_widget_button_skin_classic.o
 .gnu.attributes
                0x00000310       0x10 build/default/production/_ext/493962524/libaria_widget_checkbox.o
 .gnu.attributes
                0x00000320       0x10 build/default/production/_ext/493962524/libaria_widget_checkbox_skin_classic.o
 .gnu.attributes
                0x00000330       0x10 build/default/production/_ext/493962524/libaria_widget_circle.o
 .gnu.attributes
                0x00000340       0x10 build/default/production/_ext/493962524/libaria_widget_circle_skin_classic.o
 .gnu.attributes
                0x00000350       0x10 build/default/production/_ext/493962524/libaria_widget_circular_gauge.o
 .gnu.attributes
                0x00000360       0x10 build/default/production/_ext/493962524/libaria_widget_circular_gauge_skin_classic.o
 .gnu.attributes
                0x00000370       0x10 build/default/production/_ext/493962524/libaria_widget_circular_slider.o
 .gnu.attributes
                0x00000380       0x10 build/default/production/_ext/493962524/libaria_widget_circular_slider_skin_classic.o
 .gnu.attributes
                0x00000390       0x10 build/default/production/_ext/493962524/libaria_widget_drawsurface.o
 .gnu.attributes
                0x000003a0       0x10 build/default/production/_ext/493962524/libaria_widget_drawsurface_skin_classic.o
 .gnu.attributes
                0x000003b0       0x10 build/default/production/_ext/493962524/libaria_widget_gradient.o
 .gnu.attributes
                0x000003c0       0x10 build/default/production/_ext/493962524/libaria_widget_gradient_skin_classic.o
 .gnu.attributes
                0x000003d0       0x10 build/default/production/_ext/493962524/libaria_widget_groupbox.o
 .gnu.attributes
                0x000003e0       0x10 build/default/production/_ext/493962524/libaria_widget_groupbox_skin_classic.o
 .gnu.attributes
                0x000003f0       0x10 build/default/production/_ext/493962524/libaria_widget_image.o
 .gnu.attributes
                0x00000400       0x10 build/default/production/_ext/493962524/libaria_widget_image_skin_classic.o
 .gnu.attributes
                0x00000410       0x10 build/default/production/_ext/493962524/libaria_widget_imageplus.o
 .gnu.attributes
                0x00000420       0x10 build/default/production/_ext/493962524/libaria_widget_imageplus_skin_classic.o
 .gnu.attributes
                0x00000430       0x10 build/default/production/_ext/493962524/libaria_widget_imagesequence.o
 .gnu.attributes
                0x00000440       0x10 build/default/production/_ext/493962524/libaria_widget_imagesequence_skin_classic.o
 .gnu.attributes
                0x00000450       0x10 build/default/production/_ext/493962524/libaria_widget_keypad.o
 .gnu.attributes
                0x00000460       0x10 build/default/production/_ext/493962524/libaria_widget_keypad_skin_classic.o
 .gnu.attributes
                0x00000470       0x10 build/default/production/_ext/493962524/libaria_widget_label.o
 .gnu.attributes
                0x00000480       0x10 build/default/production/_ext/493962524/libaria_widget_label_skin_classic.o
 .gnu.attributes
                0x00000490       0x10 build/default/production/_ext/493962524/libaria_widget_line.o
 .gnu.attributes
                0x000004a0       0x10 build/default/production/_ext/493962524/libaria_widget_line_skin_classic.o
 .gnu.attributes
                0x000004b0       0x10 build/default/production/_ext/493962524/libaria_widget_line_graph.o
 .gnu.attributes
                0x000004c0       0x10 build/default/production/_ext/493962524/libaria_widget_line_graph_skin_classic.o
 .gnu.attributes
                0x000004d0       0x10 build/default/production/_ext/493962524/libaria_widget_list.o
 .gnu.attributes
                0x000004e0       0x10 build/default/production/_ext/493962524/libaria_widget_list_skin_classic.o
 .gnu.attributes
                0x000004f0       0x10 build/default/production/_ext/493962524/libaria_widget_listwheel.o
 .gnu.attributes
                0x00000500       0x10 build/default/production/_ext/493962524/libaria_widget_listwheel_skin_classic.o
 .gnu.attributes
                0x00000510       0x10 build/default/production/_ext/493962524/libaria_widget_pie_chart.o
 .gnu.attributes
                0x00000520       0x10 build/default/production/_ext/493962524/libaria_widget_pie_chart_skin_classic.o
 .gnu.attributes
                0x00000530       0x10 build/default/production/_ext/493962524/libaria_widget_progressbar.o
 .gnu.attributes
                0x00000540       0x10 build/default/production/_ext/493962524/libaria_widget_progressbar_skin_classic.o
 .gnu.attributes
                0x00000550       0x10 build/default/production/_ext/493962524/libaria_widget_radial_menu.o
 .gnu.attributes
                0x00000560       0x10 build/default/production/_ext/493962524/libaria_widget_radial_menu_skin_classic.o
 .gnu.attributes
                0x00000570       0x10 build/default/production/_ext/493962524/libaria_widget_radiobutton.o
 .gnu.attributes
                0x00000580       0x10 build/default/production/_ext/493962524/libaria_widget_radiobutton_skin_classic.o
 .gnu.attributes
                0x00000590       0x10 build/default/production/_ext/493962524/libaria_radiobutton_group.o
 .gnu.attributes
                0x000005a0       0x10 build/default/production/_ext/493962524/libaria_widget_rectangle.o
 .gnu.attributes
                0x000005b0       0x10 build/default/production/_ext/493962524/libaria_widget_rectangle_skin_classic.o
 .gnu.attributes
                0x000005c0       0x10 build/default/production/_ext/493962524/libaria_widget_scrollbar.o
 .gnu.attributes
                0x000005d0       0x10 build/default/production/_ext/493962524/libaria_widget_scrollbar_skin_classic.o
 .gnu.attributes
                0x000005e0       0x10 build/default/production/_ext/493962524/libaria_widget_slider.o
 .gnu.attributes
                0x000005f0       0x10 build/default/production/_ext/493962524/libaria_widget_slider_skin_classic.o
 .gnu.attributes
                0x00000600       0x10 build/default/production/_ext/493962524/libaria_widget_textfield.o
 .gnu.attributes
                0x00000610       0x10 build/default/production/_ext/493962524/libaria_widget_textfield_skin_classic.o
 .gnu.attributes
                0x00000620       0x10 build/default/production/_ext/493962524/libaria_widget_touchtest.o
 .gnu.attributes
                0x00000630       0x10 build/default/production/_ext/493962524/libaria_widget_touchtest_skin_classic.o
 .gnu.attributes
                0x00000640       0x10 build/default/production/_ext/493962524/libaria_widget_window.o
 .gnu.attributes
                0x00000650       0x10 build/default/production/_ext/493962524/libaria_widget_window_skin_classic.o
 .gnu.attributes
                0x00000660       0x10 build/default/production/_ext/1026407831/gfx.o
 .gnu.attributes
                0x00000670       0x10 build/default/production/_ext/1026407831/gfx_color.o
 .gnu.attributes
                0x00000680       0x10 build/default/production/_ext/1026407831/gfx_context.o
 .gnu.attributes
                0x00000690       0x10 build/default/production/_ext/1026407831/gfx_default_impl.o
 .gnu.attributes
                0x000006a0       0x10 build/default/production/_ext/1026407831/gfx_display.o
 .gnu.attributes
                0x000006b0       0x10 build/default/production/_ext/1026407831/gfx_driver_interface.o
 .gnu.attributes
                0x000006c0       0x10 build/default/production/_ext/1026407831/gfx_get.o
 .gnu.attributes
                0x000006d0       0x10 build/default/production/_ext/1026407831/gfx_interface.o
 .gnu.attributes
                0x000006e0       0x10 build/default/production/_ext/1026407831/gfx_layer.o
 .gnu.attributes
                0x000006f0       0x10 build/default/production/_ext/1026407831/gfx_pixel_buffer.o
 .gnu.attributes
                0x00000700       0x10 build/default/production/_ext/1026407831/gfx_processor_interface.o
 .gnu.attributes
                0x00000710       0x10 build/default/production/_ext/1026407831/gfx_rect.o
 .gnu.attributes
                0x00000720       0x10 build/default/production/_ext/1026407831/gfx_util.o
 .gnu.attributes
                0x00000730       0x10 build/default/production/_ext/1026407831/gfx_set.o
 .gnu.attributes
                0x00000740       0x10 build/default/production/_ext/1026407831/gfx_color_blend.o
 .gnu.attributes
                0x00000750       0x10 build/default/production/_ext/1026407831/gfx_color_convert.o
 .gnu.attributes
                0x00000760       0x10 build/default/production/_ext/1026407831/gfx_color_lerp.o
 .gnu.attributes
                0x00000770       0x10 build/default/production/_ext/1026407831/gfx_color_value.o
 .gnu.attributes
                0x00000780       0x10 build/default/production/_ext/1026407831/gfx_draw_arc.o
 .gnu.attributes
                0x00000790       0x10 build/default/production/_ext/1026407831/gfx_draw_blit.o
 .gnu.attributes
                0x000007a0       0x10 build/default/production/_ext/1026407831/gfx_draw_circle.o
 .gnu.attributes
                0x000007b0       0x10 build/default/production/_ext/1026407831/gfx_draw_ellipse.o
 .gnu.attributes
                0x000007c0       0x10 build/default/production/_ext/1026407831/gfx_draw_line.o
 .gnu.attributes
                0x000007d0       0x10 build/default/production/_ext/1026407831/gfx_draw_pixel.o
 .gnu.attributes
                0x000007e0       0x10 build/default/production/_ext/1026407831/gfx_draw_rect.o
 .gnu.attributes
                0x000007f0       0x10 build/default/production/_ext/1026407831/gfx_draw_stretchblit.o
 .gnu.attributes
                0x00000800       0x10 build/default/production/_ext/1026407831/gfx_math.o
 .gnu.attributes
                0x00000810       0x10 build/default/production/_ext/360842870/sys_dma.o
 .gnu.attributes
                0x00000820       0x10 build/default/production/_ext/1691207160/sys_input.o
 .gnu.attributes
                0x00000830       0x10 build/default/production/_ext/1691207160/sys_input_listener.o
 .gnu.attributes
                0x00000840       0x10 build/default/production/_ext/549570029/sys_int_pic32.o
 .gnu.attributes
                0x00000850       0x10 build/default/production/_ext/1988394548/drv_gfx_lcc_generic.o
 .gnu.attributes
                0x00000860       0x10 build/default/production/_ext/458109090/libaria_harmony.o
 .gnu.attributes
                0x00000870       0x10 build/default/production/_ext/458109090/libaria_init.o
 .gnu.attributes
                0x00000880       0x10 build/default/production/_ext/458109090/libaria_events.o
 .gnu.attributes
                0x00000890       0x10 build/default/production/_ext/458109090/libaria_macros.o
 .gnu.attributes
                0x000008a0       0x10 build/default/production/_ext/2065038297/gfx_display_def.o
 .gnu.attributes
                0x000008b0       0x10 build/default/production/_ext/2065038297/gfx_driver_def.o
 .gnu.attributes
                0x000008c0       0x10 build/default/production/_ext/2065038297/gfx_processor_def.o
 .gnu.attributes
                0x000008d0       0x10 build/default/production/_ext/639803181/sys_clk_pic32mz.o
 .gnu.attributes
                0x000008e0       0x10 build/default/production/_ext/340578644/sys_devcon.o
 .gnu.attributes
                0x000008f0       0x10 build/default/production/_ext/340578644/sys_devcon_pic32mz.o
 .gnu.attributes
                0x00000900       0x10 build/default/production/_ext/822048611/sys_ports_static.o
 .gnu.attributes
                0x00000910       0x10 build/default/production/_ext/494920387/sys_memory_ddr_static.o
 .gnu.attributes
                0x00000920       0x10 build/default/production/_ext/1541531744/sys_memory_static.o
 .gnu.attributes
                0x00000930       0x10 build/default/production/_ext/74298950/bsp.o
 .gnu.attributes
                0x00000940       0x10 build/default/production/_ext/1688732426/system_init.o
 .gnu.attributes
                0x00000950       0x10 build/default/production/_ext/1688732426/system_interrupt.o
 .gnu.attributes
                0x00000960       0x10 build/default/production/_ext/1688732426/system_exceptions.o
 .gnu.attributes
                0x00000970       0x10 build/default/production/_ext/1688732426/system_tasks.o
 .gnu.attributes
                0x00000980       0x10 build/default/production/_ext/259038627/gfx_assets.o
 .gnu.attributes
                0x00000990       0x10 f:/software_installations/mplab_xc32/bin/bin/../../lib/gcc/pic32mx/4.8.3\libgcc.a(floatunsisf.o)
 .gnu.attributes
                0x000009a0       0x10 f:/software_installations/mplab_xc32/bin/bin/../../lib/gcc/pic32mx/4.8.3/../../../../pic32mx/lib\libpic32.a(default-bootstrap-exception-handler.o)
 .gnu.attributes
                0x000009b0       0x10 f:/software_installations/mplab_xc32/bin/bin/../../lib/gcc/pic32mx/4.8.3/../../../../pic32mx/lib\libpic32.a(default-on-reset.o)
 .gnu.attributes
                0x000009c0       0x10 f:/software_installations/mplab_xc32/bin/bin/../../lib/gcc/pic32mx/4.8.3/../../../../pic32mx/lib\libpic32.a(default-on-bootstrap.o)
 .gnu.attributes
                0x000009d0       0x10 f:/software_installations/mplab_xc32/bin/bin/../../lib/gcc/pic32mx/4.8.3/../../../../pic32mx/lib\libpic32.a(defaultinterrupt.o)
 .gnu.attributes
                0x000009e0       0x10 f:/software_installations/mplab_xc32/bin/bin/../../lib/gcc/pic32mx/4.8.3/../../../../pic32mx/lib\libpic32.a(default-cache-err-exception-handler.o)
 .gnu.attributes
                0x000009f0       0x10 f:/software_installations/mplab_xc32/bin/bin/../../lib/gcc/pic32mx/4.8.3/../../../../pic32mx/lib\libpic32.a(default-simple-tlb-refill-exception-handler.o)
 .gnu.attributes
                0x00000a00       0x10 f:/software_installations/mplab_xc32/bin/bin/../../lib/gcc/pic32mx/4.8.3/../../../../pic32mx/lib\libc.a(fassert.o)
 .gnu.attributes
                0x00000a10       0x10 f:/software_installations/mplab_xc32/bin/bin/../../lib/gcc/pic32mx/4.8.3/../../../../pic32mx/lib\libc.a(calloc.o)
 .gnu.attributes
                0x00000a20       0x10 f:/software_installations/mplab_xc32/bin/bin/../../lib/gcc/pic32mx/4.8.3/../../../../pic32mx/lib\libc.a(malloc.o)
 .gnu.attributes
                0x00000a30       0x10 f:/software_installations/mplab_xc32/bin/bin/../../lib/gcc/pic32mx/4.8.3/../../../../pic32mx/lib\libc.a(signal.o)
 .gnu.attributes
                0x00000a40       0x10 f:/software_installations/mplab_xc32/bin/bin/../../lib/gcc/pic32mx/4.8.3/../../../../pic32mx/lib\libc.a(exit.o)
 .gnu.attributes
                0x00000a50       0x10 f:/software_installations/mplab_xc32/bin/bin/../../lib/gcc/pic32mx/4.8.3/../../../../pic32mx/lib\libc.a(stdclean_simple.o)
 .gnu.attributes
                0x00000a60       0x10 f:/software_installations/mplab_xc32/bin/bin/../../lib/gcc/pic32mx/4.8.3/../../../../pic32mx/lib\libc.a(fprintf_cdnopsuxX.eo)
 .gnu.attributes
                0x00000a70       0x10 f:/software_installations/mplab_xc32/bin/bin/../../lib/gcc/pic32mx/4.8.3/../../../../pic32mx/lib\libc.a(sprintf_cdnopuxX.eo)
 .gnu.attributes
                0x00000a80       0x10 f:/software_installations/mplab_xc32/bin/bin/../../lib/gcc/pic32mx/4.8.3/../../../../pic32mx/lib\libc.a(_iob.o)
 .gnu.attributes
                0x00000a90       0x10 f:/software_installations/mplab_xc32/bin/bin/../../lib/gcc/pic32mx/4.8.3/../../../../pic32mx/lib\libc.a(doprnt_cdnopsuxX.eo)
 .gnu.attributes
                0x00000aa0       0x10 f:/software_installations/mplab_xc32/bin/bin/../../lib/gcc/pic32mx/4.8.3/../../../../pic32mx/lib\libc.a(_fputc_simple.o)
 .gnu.attributes
                0x00000ab0       0x10 f:/software_installations/mplab_xc32/bin/bin/../../lib/gcc/pic32mx/4.8.3/../../../../pic32mx/lib\libc.a(ctype.o)
 .gnu.attributes
                0x00000ac0       0x10 f:/software_installations/mplab_xc32/bin/bin/../../lib/gcc/pic32mx/4.8.3/../../../../pic32mx/lib\libc.a(_flsbuf_simple.o)
 .gnu.attributes
                0x00000ad0       0x10 f:/software_installations/mplab_xc32/bin/bin/../../lib/gcc/pic32mx/4.8.3\libgcc.a(_udivdi3.o)
 .gnu.attributes
                0x00000ae0       0x10 f:/software_installations/mplab_xc32/bin/bin/../../lib/gcc/pic32mx/4.8.3\libgcc.a(_umoddi3.o)
 .gnu.attributes
                0x00000af0       0x10 f:/software_installations/mplab_xc32/bin/bin/../../lib/gcc/pic32mx/4.8.3/../../../../pic32mx/lib\libpic32.a(sbrk.o)
 .gnu.attributes
                0x00000b00       0x10 f:/software_installations/mplab_xc32/bin/bin/../../lib/gcc/pic32mx/4.8.3/../../../../pic32mx/lib\libpic32.a(write.o)
 .gnu.attributes
                0x00000b10       0x10 f:/software_installations/mplab_xc32/bin/bin/../../lib/gcc/pic32mx/4.8.3/../../../../pic32mx/lib\libpic32.a(errno.o)
 .gnu.attributes
                0x00000b20       0x10 f:/software_installations/mplab_xc32/bin/bin/../../lib/gcc/pic32mx/4.8.3/../../../../pic32mx/lib\libpic32.a(_mon_putc.o)
 .gnu.attributes
                0x00000b30       0x10 f:/software_installations/mplab_xc32/bin/bin/../../lib/gcc/pic32mx/4.8.3/../../../../pic32mx/lib\libpic32.a(xc32_uart.o)
                0x9d000000                PROVIDE (__pic32_init_cache_program_base_addr, 0x9d000000)
                0x80000000                PROVIDE (__pic32_init_cache_data_base_addr, 0x80000000)
                0xd0000000                PROVIDE (__pic32_init_sqi_kseg2_virtual_base_addr, 0xd0000000)
                0x30000000                PROVIDE (__pic32_init_sqi_kseg2_physical_base_addr, 0x30000000)
                0x0000001f                PROVIDE (__pic32_init_sqi_kseg2_entrylo0_bitset, 0x1f)
                0xd0000000                __pic32_tlb_0_entryhi = __pic32_init_sqi_kseg2_virtual_base_addr
                0x00c0001f                __pic32_tlb_0_entrylo0 = ((__pic32_init_sqi_kseg2_physical_base_addr >> 0x6) | __pic32_init_sqi_kseg2_entrylo0_bitset)
                0x00c4001f                __pic32_tlb_0_entrylo1 = (__pic32_tlb_0_entrylo0 | ((__pic32_init_sqi_kseg2_physical_base_addr + 0x1000000) >> 0x6))
                0xd2000000                __pic32_tlb_1_entryhi = (__pic32_init_sqi_kseg2_virtual_base_addr + 0x2000000)
                0x00c8001f                __pic32_tlb_1_entrylo0 = (((__pic32_init_sqi_kseg2_physical_base_addr + 0x2000000) >> 0x6) | __pic32_init_sqi_kseg2_entrylo0_bitset)
                0x00cc001f                __pic32_tlb_1_entrylo1 = (__pic32_tlb_1_entrylo0 | 0x40000)
                0xf0000000                PROVIDE (__pic32_init_sqi_kseg3_virtual_base_addr, 0xf0000000)
                0x30000000                PROVIDE (__pic32_init_sqi_kseg3_physical_base_addr, 0x30000000)
                0x00000017                PROVIDE (__pic32_init_sqi_kseg3_entrylo0_bitset, 0x17)
                0xf0000000                __pic32_tlb_2_entryhi = __pic32_init_sqi_kseg3_virtual_base_addr
                0x00c00017                __pic32_tlb_2_entrylo0 = ((__pic32_init_sqi_kseg3_physical_base_addr >> 0x6) | __pic32_init_sqi_kseg3_entrylo0_bitset)
                0x00c40017                __pic32_tlb_2_entrylo1 = (__pic32_tlb_2_entrylo0 | ((__pic32_init_sqi_kseg3_physical_base_addr + 0x1000000) >> 0x6))
                0xf2000000                __pic32_tlb_3_entryhi = (__pic32_init_sqi_kseg3_virtual_base_addr + 0x2000000)
                0x00c80017                __pic32_tlb_3_entrylo0 = (((__pic32_init_sqi_kseg3_physical_base_addr + 0x2000000) >> 0x6) | __pic32_init_sqi_kseg3_entrylo0_bitset)
                0x00cc0017                __pic32_tlb_3_entrylo1 = (__pic32_tlb_3_entrylo0 | 0x40000)
                0xc0000000                PROVIDE (__pic32_init_ebi_kseg2_virtual_base_addr, 0xc0000000)
                0x20000000                PROVIDE (__pic32_init_ebi_kseg2_physical_base_addr, 0x20000000)
                0x0000001f                PROVIDE (__pic32_init_ebi_kseg2_entrylo0_bitset, 0x1f)
                0xc0000000                __pic32_tlb_4_entryhi = __pic32_init_ebi_kseg2_virtual_base_addr
                0x0080001f                __pic32_tlb_4_entrylo0 = ((__pic32_init_ebi_kseg2_physical_base_addr >> 0x6) | __pic32_init_ebi_kseg2_entrylo0_bitset)
                0x0084001f                __pic32_tlb_4_entrylo1 = (__pic32_tlb_4_entrylo0 | ((__pic32_init_ebi_kseg2_physical_base_addr + 0x1000000) >> 0x6))
                0xc2000000                __pic32_tlb_5_entryhi = (__pic32_init_ebi_kseg2_virtual_base_addr + 0x2000000)
                0x0088001f                __pic32_tlb_5_entrylo0 = (((__pic32_init_ebi_kseg2_physical_base_addr + 0x2000000) >> 0x6) | __pic32_init_ebi_kseg2_entrylo0_bitset)
                0x008c001f                __pic32_tlb_5_entrylo1 = (__pic32_tlb_5_entrylo0 | 0x40000)
                0xe0000000                PROVIDE (__pic32_init_ebi_kseg3_virtual_base_addr, 0xe0000000)
                0x20000000                PROVIDE (__pic32_init_ebi_kseg3_physical_base_addr, 0x20000000)
                0x00000017                PROVIDE (__pic32_init_ebi_kseg3_entrylo0_bitset, 0x17)
                0xe0000000                __pic32_tlb_6_entryhi = __pic32_init_ebi_kseg3_virtual_base_addr
                0x00800017                __pic32_tlb_6_entrylo0 = ((__pic32_init_ebi_kseg3_physical_base_addr >> 0x6) | __pic32_init_ebi_kseg3_entrylo0_bitset)
                0x00840017                __pic32_tlb_6_entrylo1 = (__pic32_tlb_6_entrylo0 | ((__pic32_init_ebi_kseg3_physical_base_addr + 0x1000000) >> 0x6))
                0xe2000000                __pic32_tlb_7_entryhi = (__pic32_init_ebi_kseg3_virtual_base_addr + 0x2000000)
                0x00880017                __pic32_tlb_7_entrylo0 = (((__pic32_init_ebi_kseg3_physical_base_addr + 0x2000000) >> 0x6) | __pic32_init_ebi_kseg3_entrylo0_bitset)
                0x008c0017                __pic32_tlb_7_entrylo1 = (__pic32_tlb_7_entrylo0 | 0x40000)

.tlb_init_values
                0xbfc0064c       0x60
                0xbfc0064c                . = ALIGN (0x4)
                0xbfc0064c                __pic32_tlb_init_values_begin = ABSOLUTE (.)
                0xbfc0064c        0x4 LONG 0xd0000000 __pic32_tlb_0_entryhi
                0xbfc00650        0x4 LONG 0xc0001f __pic32_tlb_0_entrylo0
                0xbfc00654        0x4 LONG 0xc4001f __pic32_tlb_0_entrylo1
                0xbfc00658        0x4 LONG 0xd2000000 __pic32_tlb_1_entryhi
                0xbfc0065c        0x4 LONG 0xc8001f __pic32_tlb_1_entrylo0
                0xbfc00660        0x4 LONG 0xcc001f __pic32_tlb_1_entrylo1
                0xbfc00664        0x4 LONG 0xf0000000 __pic32_tlb_2_entryhi
                0xbfc00668        0x4 LONG 0xc00017 __pic32_tlb_2_entrylo0
                0xbfc0066c        0x4 LONG 0xc40017 __pic32_tlb_2_entrylo1
                0xbfc00670        0x4 LONG 0xf2000000 __pic32_tlb_3_entryhi
                0xbfc00674        0x4 LONG 0xc80017 __pic32_tlb_3_entrylo0
                0xbfc00678        0x4 LONG 0xcc0017 __pic32_tlb_3_entrylo1
                0xbfc0067c        0x4 LONG 0xc0000000 __pic32_tlb_4_entryhi
                0xbfc00680        0x4 LONG 0x80001f __pic32_tlb_4_entrylo0
                0xbfc00684        0x4 LONG 0x84001f __pic32_tlb_4_entrylo1
                0xbfc00688        0x4 LONG 0xc2000000 __pic32_tlb_5_entryhi
                0xbfc0068c        0x4 LONG 0x88001f __pic32_tlb_5_entrylo0
                0xbfc00690        0x4 LONG 0x8c001f __pic32_tlb_5_entrylo1
                0xbfc00694        0x4 LONG 0xe0000000 __pic32_tlb_6_entryhi
                0xbfc00698        0x4 LONG 0x800017 __pic32_tlb_6_entrylo0
                0xbfc0069c        0x4 LONG 0x840017 __pic32_tlb_6_entrylo1
                0xbfc006a0        0x4 LONG 0xe2000000 __pic32_tlb_7_entryhi
                0xbfc006a4        0x4 LONG 0x880017 __pic32_tlb_7_entrylo0
                0xbfc006a8        0x4 LONG 0x8c0017 __pic32_tlb_7_entrylo1
                0xbfc006ac                __pic32_tlb_init_values_end = ABSOLUTE (.)
                0x00000008                __pic32_tlb_init_values_count = 0x8
LOAD f:/software_installations/mplab_xc32/bin/bin/../../lib/gcc/pic32mx/4.8.3\libgcc.a
START GROUP
LOAD f:/software_installations/mplab_xc32/bin/bin/../../lib/gcc/pic32mx/4.8.3/../../../../pic32mx/lib\libpic32.a
LOAD f:/software_installations/mplab_xc32/bin/bin/../../lib/gcc/pic32mx/4.8.3/../../../../pic32mx/lib\libdebug.a
LOAD f:/software_installations/mplab_xc32/bin/bin/../../lib/gcc/pic32mx/4.8.3/../../../../pic32mx/lib\libpic32.a
LOAD f:/software_installations/mplab_xc32/bin/bin/../../lib/gcc/pic32mx/4.8.3/../../../../pic32mx/lib\libc.a
LOAD f:/software_installations/mplab_xc32/bin/bin/../../lib/gcc/pic32mx/4.8.3/../../../../pic32mx/lib\libc.a
LOAD f:/software_installations/mplab_xc32/bin/bin/../../lib/gcc/pic32mx/4.8.3/../../../../pic32mx/lib\libm.a
LOAD f:/software_installations/mplab_xc32/bin/bin/../../lib/gcc/pic32mx/4.8.3/../../../../pic32mx/lib\libe.a
LOAD f:/software_installations/mplab_xc32/bin/bin/../../lib/gcc/pic32mx/4.8.3/../../../../pic32mx/lib\libdspr2.a
LOAD f:/software_installations/mplab_xc32/bin/bin/../../lib/gcc/pic32mx/4.8.3/../../../../pic32mx/lib\libdsp.a
LOAD f:/software_installations/mplab_xc32/bin/bin/../../lib/gcc/pic32mx/4.8.3\libgcc.a
LOAD f:/software_installations/mplab_xc32/bin/bin/../../lib/gcc/pic32mx/4.8.3/../../../../pic32mx/lib\libpic32.a
END GROUP
LOAD f:/software_installations/mplab_xc32/bin/bin/../../lib/gcc/pic32mx/4.8.3\libgcc.a
OUTPUT(dist/default/production/Duro_LCD_NHD.X.production.elf elf32-tradlittlemips)
LOAD stack
LOAD data_init

.reginfo        0x00000000       0x18
 .reginfo       0x00000000       0x18 f:/software_installations/mplab_xc32/bin/bin/../../lib/gcc/pic32mx/4.8.3/../../../../pic32mx/lib/./proc/32MZ2064DAG176/crt0_mips32r2.o

.stack          0x80040f20      0x400
 .stack         0x80040f20      0x400 stack

.__vector_offset_BF810540_data
                0xbf810540      0x19c
 .__vector_offset_BF810540_data
                0xbf810540      0x19c f:/software_installations/mplab_xc32/bin/bin/../../lib/gcc/pic32mx/4.8.3/../../../../pic32mx/lib/./proc/32MZ2064DAG176\vector_offset_init.o

.__vector_offset_BF8106F4_data
                0xbf8106f4      0x154
 .__vector_offset_BF8106F4_data
                0xbf8106f4      0x154 f:/software_installations/mplab_xc32/bin/bin/../../lib/gcc/pic32mx/4.8.3/../../../../pic32mx/lib/./proc/32MZ2064DAG176\vector_offset_init.o

.__vector_offset_BF81084C_data
                0xbf81084c       0x24
 .__vector_offset_BF81084C_data
                0xbf81084c       0x24 f:/software_installations/mplab_xc32/bin/bin/../../lib/gcc/pic32mx/4.8.3/../../../../pic32mx/lib/./proc/32MZ2064DAG176\vector_offset_init.o

.__vector_offset_BF810874_data
                0xbf810874       0x1c
 .__vector_offset_BF810874_data
                0xbf810874       0x1c f:/software_installations/mplab_xc32/bin/bin/../../lib/gcc/pic32mx/4.8.3/../../../../pic32mx/lib/./proc/32MZ2064DAG176\vector_offset_init.o

.__vector_offset_BF8106E0_data
                0xbf8106e0        0xc
 .__vector_offset_BF8106E0_data
                0xbf8106e0        0xc f:/software_installations/mplab_xc32/bin/bin/../../lib/gcc/pic32mx/4.8.3/../../../../pic32mx/lib/./proc/32MZ2064DAG176\vector_offset_init.o

.__vector_offset_BF810898_data
                0xbf810898        0x8
 .__vector_offset_BF810898_data
                0xbf810898        0x8 f:/software_installations/mplab_xc32/bin/bin/../../lib/gcc/pic32mx/4.8.3/../../../../pic32mx/lib/./proc/32MZ2064DAG176\vector_offset_init.o

.COHERENTBSS$   0xa0000760    0x25800
 .COHERENTBSS$  0xa0000760    0x25800 build/default/production/_ext/1988394548/drv_gfx_lcc_generic.o
                0xa0000760                frameBuffer

.bss            0x80025f60     0x13f8
 .bss           0x80025f60      0x9fc build/default/production/_ext/1572996423/gfxu_image_jpg_internal.o
 .bss           0x8002695c      0x9fc build/default/production/_ext/1572996423/gfxu_image_jpg_external.o

.bss            0x80027358      0x254
 .bss           0x80027358      0x254 build/default/production/_ext/1864665665/drv_i2c_bb_a.o

.data           0x800275ac      0x410
 .data          0x800275ac      0x22c build/default/production/_ext/259038627/gfx_assets.o
                0x800275ac                stringTable
                0x800275d4                stringTable_data
                0x80027614                NotoSans_Regular
                0x8002763c                NotoSans_Regular_lookup_64_66
                0x80027648                NotoSans_Bold
                0x80027670                NotoSans_Bold_lookup_6D_70
                0x80027680                NewHarmonyLogo_Small_palette
                0x80027698                NewHarmonyLogo_Small_palette_data
                0x800277a0                NewHarmonyLogo_Small
 .data          0x800277d8      0x1e4 build/default/production/_ext/1026407831/gfx_color_convert.o
                0x800277d8                color_convert_table

.data           0x800279bc      0x2d8
 .data          0x800279bc      0x178 build/default/production/_ext/1026407831/gfx_interface.o
                0x800279bc                GFX_InterfaceTable
 .data          0x80027b34      0x160 build/default/production/_ext/1026407831/gfx_color.o
                0x80027b34                GFX_ColorInfo

.data           0x80027c94       0xa4
 .data          0x80027c94       0xa4 f:/software_installations/mplab_xc32/bin/bin/../../lib/gcc/pic32mx/4.8.3/../../../../pic32mx/lib\libc.a(_iob.o)
                0x80027c94                _Files
                0x80027c98                _iob

.bss            0x80027d38       0x48
 .bss           0x80027d38       0x48 build/default/production/_ext/1860398633/drv_mxt336t.o

.data           0x80027d80       0x44
 .data          0x80027d80       0x44 build/default/production/_ext/1572996423/gfxu_image_utils.o
                0x80027d80                calcOffset
                0x80027d98                getDiscreteValue

.bss            0x80027dc4       0x44
 .bss           0x80027dc4       0x44 f:/software_installations/mplab_xc32/bin/bin/../../lib/gcc/pic32mx/4.8.3/../../../../pic32mx/lib\libc.a(_iob.o)
                0x80027dc4                _sobuf
                0x80027de4                _sibuf
                0x80027e04                _outdone

.data           0x80027e08       0x68
 .data          0x80027e08       0x38 build/default/production/_ext/1026407831/gfx_pixel_buffer.o
                0x80027e08                pixelSet_FnTable
                0x80027e18                pixelGet_FnTable
                0x80027e28                indexGet_FnTable
 .data          0x80027e40       0x30 build/default/production/_ext/2065038297/gfx_display_def.o
                0x80027e40                GFX_DisplayInfoList

.data           0x80027e70       0x2c
 .data          0x80027e70       0x2c build/default/production/_ext/1026407831/gfx_color_lerp.o
                0x80027e70                color_lerp_table

.bss            0x80027e9c       0x44
 .bss           0x80027e9c       0x24 f:/software_installations/mplab_xc32/bin/bin/../../lib/gcc/pic32mx/4.8.3/../../../../pic32mx/lib\libpic32.a(sbrk.o)
                0x80027eb8                _maxbrk
                0x80027ebc                _minbrk
 .bss           0x80027ec0       0x20 f:/software_installations/mplab_xc32/bin/bin/../../lib/gcc/pic32mx/4.8.3/../../../../pic32mx/lib\libc.a(malloc.o)
                0x80027ec0                __allocx
                0x80027ec8                __alloct
                0x80027ecc                __allocp
                0x80027ed0                __allocs

.bss            0x80027ee0       0x18
 .bss           0x80027ee0       0x18 f:/software_installations/mplab_xc32/bin/bin/../../lib/gcc/pic32mx/4.8.3/../../../../pic32mx/lib\libc.a(signal.o)

.data           0x80027ef8        0xc
 .data          0x80027ef8        0xc build/default/production/_ext/1572996423/gfxu_string_utils.o
                0x80027ef8                decodeGlyph

.bss.errno      0x8000075c        0x4
 .bss.errno     0x8000075c        0x4 f:/software_installations/mplab_xc32/bin/bin/../../lib/gcc/pic32mx/4.8.3/../../../../pic32mx/lib\libpic32.a(errno.o)
                0x8000075c                errno

._debug_exception
                0xbfc00480       0x2c
 ._debug_exception
                0xbfc00480       0x2c f:/software_installations/mplab_xc32/bin/bin/../../lib/gcc/pic32mx/4.8.3/../../../../pic32mx/lib\debug-exception-return.o
                0xbfc00480                __DbgExecReturn

.rodata         0x9d000278     0x4900
 .rodata        0x9d000278     0x325c build/default/production/_ext/259038627/gfx_assets.o
                0x9d000278                NotoSans_Regular_data
                0x9d00045c                NotoSans_Bold_data
                0x9d000804                NewHarmonyLogo_Small_data
 .rodata        0x9d0034d4     0x16a4 build/default/production/_ext/1151653695/lodepng.o
                0x9d0048f0                lodepng_default_decompress_settings
                0x9d004900                lodepng_default_compress_settings

.text.lodepng_decode
                0x9d004b78     0x15c4
 .text.lodepng_decode
                0x9d004b78     0x15c4 build/default/production/_ext/1151653695/lodepng.o
                0x9d004b78                lodepng_decode

.dinit          0x9d00613c     0x10a0
 .dinit         0x9d00613c     0x10a0 data_init

.text.cpuDrawArc_Fill
                0x9d0071dc      0xef4
 .text.cpuDrawArc_Fill
                0x9d0071dc      0xef4 build/default/production/_ext/1026407831/gfx_draw_arc.o
                0x9d0071dc                cpuDrawArc_Fill

.text._vfprintf_cdnopsuxX
                0x9d0080d0      0xc8c
 .text._vfprintf_cdnopsuxX
                0x9d0080d0      0xc8c f:/software_installations/mplab_xc32/bin/bin/../../lib/gcc/pic32mx/4.8.3/../../../../pic32mx/lib\libc.a(doprnt_cdnopsuxX.eo)
                0x9d0080d0                _vfprintf_cdnopuxX
                0x9d0080d0                _vfprintf_cdnopsuxX

.text.DRV_I2C_BB_Tasks
                0x9d008d5c      0xac0
 .text.DRV_I2C_BB_Tasks
                0x9d008d5c      0xac0 build/default/production/_ext/1864665665/drv_i2c_bb.o
                0x9d008d5c                DRV_I2C_BB_Tasks

.text.JPEG_bPaintOneBlock
                0x9d00981c      0x98c
 .text.JPEG_bPaintOneBlock
                0x9d00981c      0x98c build/default/production/_ext/1572996423/gfxu_image_jpg_common.o
                0x9d00981c                JPEG_bPaintOneBlock

.text.lodepng_inflate
                0x9d00a1a8      0x978
 .text.lodepng_inflate
                0x9d00a1a8      0x978 build/default/production/_ext/1151653695/lodepng.o
                0x9d00a1a8                lodepng_inflate

.text.JPEG_bReadHeader
                0x9d00ab20      0x890
 .text.JPEG_bReadHeader
                0x9d00ab20      0x890 build/default/production/_ext/1572996423/gfxu_image_jpg_common.o
                0x9d00ab20                JPEG_bReadHeader

.text.DRV_MXT336T_Tasks
                0x9d00b3b0      0x7c4
 .text.DRV_MXT336T_Tasks
                0x9d00b3b0      0x7c4 build/default/production/_ext/1860398633/drv_mxt336t.o
                0x9d00b3b0                DRV_MXT336T_Tasks

.text.SYS_MEMORY_DDR_Initialize
                0x9d00bb74      0x6c8
 .text.SYS_MEMORY_DDR_Initialize
                0x9d00bb74      0x6c8 build/default/production/_ext/494920387/sys_memory_ddr_static.o
                0x9d00bb74                SYS_MEMORY_DDR_Initialize

.text.jpeg_idct_islow
                0x9d00c23c      0x6b8
 .text.jpeg_idct_islow
                0x9d00c23c      0x6b8 build/default/production/_ext/1528952846/jidctint.o
                0x9d00c23c                jpeg_idct_islow

.text.contextDefInitialization
                0x9d00c8f4      0x620
 .text.contextDefInitialization
                0x9d00c8f4      0x620 build/default/production/_ext/1026407831/gfx_default_impl.o
                0x9d00c8f4                contextDefInitialization

.text.SYS_PORTS_Initialize
                0x9d00cf14      0x598
 .text.SYS_PORTS_Initialize
                0x9d00cf14      0x598 build/default/production/_ext/822048611/sys_ports_static.o
                0x9d00cf14                SYS_PORTS_Initialize

.text.drawMultiLineString
                0x9d00d4ac      0x550
 .text.drawMultiLineString
                0x9d00d4ac      0x550 build/default/production/_ext/493962524/libaria_widget_label_skin_classic.o

.text.getPixelColorsRGBA8
                0x9d00d9fc      0x540
 .text.getPixelColorsRGBA8
                0x9d00d9fc      0x540 build/default/production/_ext/1151653695/lodepng.o

.text.lodepng_convert
                0x9d00df3c      0x538
 .text.lodepng_convert
                0x9d00df3c      0x538 build/default/production/_ext/1151653695/lodepng.o
                0x9d00df3c                lodepng_convert

.text._laContext_ShowScreen
                0x9d00e474      0x4b0
 .text._laContext_ShowScreen
                0x9d00e474      0x4b0 build/default/production/_ext/493962524/libaria_context.o
                0x9d00e474                _laContext_ShowScreen

.text           0x9d00e924      0x8bc
 .text          0x9d00e924      0x464 f:/software_installations/mplab_xc32/bin/bin/../../lib/gcc/pic32mx/4.8.3\libgcc.a(_umoddi3.o)
                0x9d00e924                __umoddi3
 .text          0x9d00ed88      0x458 f:/software_installations/mplab_xc32/bin/bin/../../lib/gcc/pic32mx/4.8.3\libgcc.a(_udivdi3.o)
                0x9d00ed88                __udivdi3

.text.run       0x9d00f1e0      0x450
 .text.run      0x9d00f1e0      0x450 build/default/production/_ext/1572996423/gfxu_image_raw_external.o

.text.cpuDrawStretchBlit_Bilinear
                0x9d00f630      0x440
 .text.cpuDrawStretchBlit_Bilinear
                0x9d00f630      0x440 build/default/production/_ext/1026407831/gfx_draw_stretchblit.o
                0x9d00f630                cpuDrawStretchBlit_Bilinear

.text.GFXU_DrawImageRLEInternal
                0x9d00fa70      0x428
 .text.GFXU_DrawImageRLEInternal
                0x9d00fa70      0x428 build/default/production/_ext/1572996423/gfxu_image_rle_internal.o
                0x9d00fa70                GFXU_DrawImageRLEInternal

.text.run       0x9d00fe98      0x414
 .text.run      0x9d00fe98      0x414 build/default/production/_ext/1572996423/gfxu_image_rle_external.o

.text.getPixelColorRGBA8
                0x9d0102ac      0x400
 .text.getPixelColorRGBA8
                0x9d0102ac      0x400 build/default/production/_ext/1151653695/lodepng.o

.text.drawMultiLineString
                0x9d0106ac      0x3fc
 .text.drawMultiLineString
                0x9d0106ac      0x3fc build/default/production/_ext/493962524/libaria_widget_button_skin_classic.o

.text.laWidget_SkinClassic_FillRoundCornerRect
                0x9d010aa8      0x3e8
 .text.laWidget_SkinClassic_FillRoundCornerRect
                0x9d010aa8      0x3e8 build/default/production/_ext/493962524/libaria_widget_skin_classic_common.o
                0x9d010aa8                laWidget_SkinClassic_FillRoundCornerRect

.text.DRV_I2C_Initialize
                0x9d010e90      0x3a4
 .text.DRV_I2C_Initialize
                0x9d010e90      0x3a4 build/default/production/_ext/1864665665/drv_i2c_bb_a.o
                0x9d010e90                DRV_I2C_Initialize

.text._laContext_PaintWidget
                0x9d011234      0x39c
 .text._laContext_PaintWidget
                0x9d011234      0x39c build/default/production/_ext/493962524/libaria_context_paint.o
                0x9d011234                _laContext_PaintWidget

.text.laWidget_SkinClassic_DrawRoundCornerLineBorder
                0x9d0115d0      0x398
 .text.laWidget_SkinClassic_DrawRoundCornerLineBorder
                0x9d0115d0      0x398 build/default/production/_ext/493962524/libaria_widget_skin_classic_common.o
                0x9d0115d0                laWidget_SkinClassic_DrawRoundCornerLineBorder

.text.unfilter  0x9d011968      0x390
 .text.unfilter
                0x9d011968      0x390 build/default/production/_ext/1151653695/lodepng.o

.text.HuffmanTree_makeFromLengths2
                0x9d011cf8      0x350
 .text.HuffmanTree_makeFromLengths2
                0x9d011cf8      0x350 build/default/production/_ext/1151653695/lodepng.o

.text.run       0x9d012048      0x34c
 .text.run      0x9d012048      0x34c build/default/production/_ext/1572996423/gfxu_string_external.o

.text.GFX_Open  0x9d012394      0x334
 .text.GFX_Open
                0x9d012394      0x334 build/default/production/_ext/1026407831/gfx.o
                0x9d012394                GFX_Open

.text.GFXU_DrawImage
                0x9d0126c8      0x330
 .text.GFXU_DrawImage
                0x9d0126c8      0x330 build/default/production/_ext/1572996423/gfxu_image.o
                0x9d0126c8                GFXU_DrawImage

.text.cpuDrawStretchBlit_NearestNeighbor
                0x9d0129f8      0x310
 .text.cpuDrawStretchBlit_NearestNeighbor
                0x9d0129f8      0x310 build/default/production/_ext/1026407831/gfx_draw_stretchblit.o
                0x9d0129f8                cpuDrawStretchBlit_NearestNeighbor

.text.DRV_GFX_LCC_DisplayRefresh
                0x9d012d08      0x304
 .text.DRV_GFX_LCC_DisplayRefresh
                0x9d012d08      0x304 build/default/production/_ext/1988394548/drv_gfx_lcc_generic.o
                0x9d012d08                DRV_GFX_LCC_DisplayRefresh

.text.run       0x9d01300c      0x300
 .text.run      0x9d01300c      0x300 build/default/production/_ext/1572996423/gfxu_stringbuffer_external.o

.text.GFXU_DrawImageJpgInternal
                0x9d01330c      0x2d4
 .text.GFXU_DrawImageJpgInternal
                0x9d01330c      0x2d4 build/default/production/_ext/1572996423/gfxu_image_jpg_internal.o
                0x9d01330c                GFXU_DrawImageJpgInternal

.text.JPEG_bDecodeOneBlock
                0x9d0135e0      0x2c0
 .text.JPEG_bDecodeOneBlock
                0x9d0135e0      0x2c0 build/default/production/_ext/1572996423/gfxu_image_jpg_common.o
                0x9d0135e0                JPEG_bDecodeOneBlock

.text.GFXU_DrawImagePngExternal
                0x9d0138a0      0x2bc
 .text.GFXU_DrawImagePngExternal
                0x9d0138a0      0x2bc build/default/production/_ext/1572996423/gfxu_image_png_external.o
                0x9d0138a0                GFXU_DrawImagePngExternal

.text.GFXU_DrawImageJpgExternal
                0x9d013b5c      0x2a4
 .text.GFXU_DrawImageJpgExternal
                0x9d013b5c      0x2a4 build/default/production/_ext/1572996423/gfxu_image_jpg_external.o
                0x9d013b5c                GFXU_DrawImageJpgExternal

.text.laUtils_ArrangeRectangleRelative
                0x9d013e00      0x28c
 .text.laUtils_ArrangeRectangleRelative
                0x9d013e00      0x28c build/default/production/_ext/493962524/libaria_utils.o
                0x9d013e00                laUtils_ArrangeRectangleRelative

.text.malloc    0x9d01408c      0x28c
 .text.malloc   0x9d01408c      0x28c f:/software_installations/mplab_xc32/bin/bin/../../lib/gcc/pic32mx/4.8.3/../../../../pic32mx/lib\libc.a(malloc.o)
                0x9d01408c                malloc

.text.cpuDrawLine
                0x9d014318      0x280
 .text.cpuDrawLine
                0x9d014318      0x280 build/default/production/_ext/1026407831/gfx_draw_line.o
                0x9d014318                cpuDrawLine

.text.GFX_DrawDirectBlit
                0x9d014598      0x27c
 .text.GFX_DrawDirectBlit
                0x9d014598      0x27c build/default/production/_ext/1026407831/gfx_draw_blit.o
                0x9d014598                GFX_DrawDirectBlit

.text.fpsubadd  0x9d014814      0x278
 .text.fpsubadd
                0x9d014814      0x278 f:/software_installations/mplab_xc32/bin/bin/../../lib/gcc/pic32mx/4.8.3/../../../../pic32mx/lib\libm.a(fp32subadd.o)
                0x9d014814                fpsub
                0x9d014814                __subsf3
                0x9d01481c                __addsf3
                0x9d01481c                fpadd

.text.GFX_DrawBlit
                0x9d014a8c      0x250
 .text.GFX_DrawBlit
                0x9d014a8c      0x250 build/default/production/_ext/1026407831/gfx_draw_blit.o
                0x9d014a8c                GFX_DrawBlit

.text.lodepng_inspect
                0x9d014cdc      0x24c
 .text.lodepng_inspect
                0x9d014cdc      0x24c build/default/production/_ext/1151653695/lodepng.o
                0x9d014cdc                lodepng_inspect

.text._laContext_Paint
                0x9d014f28      0x238
 .text._laContext_Paint
                0x9d014f28      0x238 build/default/production/_ext/493962524/libaria_context_paint.o
                0x9d014f28                _laContext_Paint

.text.GFXU_DrawImageRawInternal
                0x9d015160      0x230
 .text.GFXU_DrawImageRawInternal
                0x9d015160      0x230 build/default/production/_ext/1572996423/gfxu_image_raw_internal.o
                0x9d015160                GFXU_DrawImageRawInternal

.text.fp32div   0x9d015390      0x230
 .text.fp32div  0x9d015390      0x230 f:/software_installations/mplab_xc32/bin/bin/../../lib/gcc/pic32mx/4.8.3/../../../../pic32mx/lib\libm.a(fp32div.o)
                0x9d015390                fpdiv
                0x9d015390                __divsf3

.text.lccInitialize
                0x9d0155c0      0x228
 .text.lccInitialize
                0x9d0155c0      0x228 build/default/production/_ext/1988394548/drv_gfx_lcc_generic.o

.text.getPixelColorRGBA16
                0x9d0157e8      0x224
 .text.getPixelColorRGBA16
                0x9d0157e8      0x224 build/default/production/_ext/1151653695/lodepng.o

.text.GFX_DrawLine
                0x9d015a0c      0x224
 .text.GFX_DrawLine
                0x9d015a0c      0x224 build/default/production/_ext/1026407831/gfx_draw_line.o
                0x9d015a0c                GFX_DrawLine

.text.GFXU_DrawImagePngInternal
                0x9d015c30      0x21c
 .text.GFXU_DrawImagePngInternal
                0x9d015c30      0x21c build/default/production/_ext/1572996423/gfxu_image_png_internal.o
                0x9d015c30                GFXU_DrawImagePngInternal

.text._laLayer_Preframe
                0x9d015e4c      0x200
 .text._laLayer_Preframe
                0x9d015e4c      0x200 build/default/production/_ext/493962524/libaria_layer.o
                0x9d015e4c                _laLayer_Preframe

.text.laUtils_ArrangeRectangle
                0x9d01604c      0x1fc
 .text.laUtils_ArrangeRectangle
                0x9d01604c      0x1fc build/default/production/_ext/493962524/libaria_utils.o
                0x9d01604c                laUtils_ArrangeRectangle

.text.GFXU_DecodeUTF8
                0x9d016248      0x1f8
 .text.GFXU_DecodeUTF8
                0x9d016248      0x1f8 build/default/production/_ext/1572996423/gfxu_string_utils.o
                0x9d016248                GFXU_DecodeUTF8

.text.GFXU_DrawUnknownGlyph
                0x9d016440      0x1f4
 .text.GFXU_DrawUnknownGlyph
                0x9d016440      0x1f4 build/default/production/_ext/1572996423/gfxu_string_utils.o
                0x9d016440                GFXU_DrawUnknownGlyph

.text.SYS_INP_Tasks
                0x9d016634      0x1f4
 .text.SYS_INP_Tasks
                0x9d016634      0x1f4 build/default/production/_ext/1691207160/sys_input.o
                0x9d016634                SYS_INP_Tasks

.text.lodepng_add_itext
                0x9d016828      0x1f0
 .text.lodepng_add_itext
                0x9d016828      0x1f0 build/default/production/_ext/1151653695/lodepng.o
                0x9d016828                lodepng_add_itext

.text.ScreenCreate_screen1
                0x9d016a18      0x1e0
 .text.ScreenCreate_screen1
                0x9d016a18      0x1e0 build/default/production/_ext/458109090/libaria_init.o

.text.lodepng_zlib_decompress
                0x9d016bf8      0x1dc
 .text.lodepng_zlib_decompress
                0x9d016bf8      0x1dc build/default/production/_ext/1151653695/lodepng.o
                0x9d016bf8                lodepng_zlib_decompress

.text._DRV_I2C_QueueSlotGet
                0x9d016dd4      0x1d8
 .text._DRV_I2C_QueueSlotGet
                0x9d016dd4      0x1d8 build/default/production/_ext/1864665665/drv_i2c_bb_a.o
                0x9d016dd4                _DRV_I2C_QueueSlotGet

.text._laButtonWidget_InvalidateBorderAreas
                0x9d016fac      0x1d8
 .text._laButtonWidget_InvalidateBorderAreas
                0x9d016fac      0x1d8 build/default/production/_ext/493962524/libaria_widget_button_skin_classic.o
                0x9d016fac                _laButtonWidget_InvalidateBorderAreas

.text.cpuDrawRect_Gradient_LeftRight
                0x9d017184      0x1d4
 .text.cpuDrawRect_Gradient_LeftRight
                0x9d017184      0x1d4 build/default/production/_ext/1026407831/gfx_draw_rect.o
                0x9d017184                cpuDrawRect_Gradient_LeftRight

.text.cpuDrawRect_Gradient_TopBottom
                0x9d017358      0x1d4
 .text.cpuDrawRect_Gradient_TopBottom
                0x9d017358      0x1d4 build/default/production/_ext/1026407831/gfx_draw_rect.o
                0x9d017358                cpuDrawRect_Gradient_TopBottom

.text.GFXU_DrawGlyph
                0x9d01752c      0x1c8
 .text.GFXU_DrawGlyph
                0x9d01752c      0x1c8 build/default/production/_ext/1572996423/gfxu_string_utils.o
                0x9d01752c                GFXU_DrawGlyph

.text.SYS_CLK_Initialize
                0x9d0176f4      0x1bc
 .text.SYS_CLK_Initialize
                0x9d0176f4      0x1bc build/default/production/_ext/639803181/sys_clk_pic32mz.o
                0x9d0176f4                SYS_CLK_Initialize

.text.fp32mul   0x9d0178b0      0x1bc
 .text.fp32mul  0x9d0178b0      0x1bc f:/software_installations/mplab_xc32/bin/bin/../../lib/gcc/pic32mx/4.8.3/../../../../pic32mx/lib\libm.a(fp32mul.o)
                0x9d0178b0                __mulsf3
                0x9d0178b0                fpmul

.text.GFX_DrawArc
                0x9d017a6c      0x1b8
 .text.GFX_DrawArc
                0x9d017a6c      0x1b8 build/default/production/_ext/1026407831/gfx_draw_arc.o
                0x9d017a6c                GFX_DrawArc

.text.GFX_DrawRect
                0x9d017c24      0x1b8
 .text.GFX_DrawRect
                0x9d017c24      0x1b8 build/default/production/_ext/1026407831/gfx_draw_rect.o
                0x9d017c24                GFX_DrawRect

.text._IntHandlerDrvI2CMasterInstance0
                0x9d017ddc      0x1b8
 .text._IntHandlerDrvI2CMasterInstance0
                0x9d017ddc      0x1b8 build/default/production/_ext/1688732426/system_interrupt.o
                0x9d017ddc                _IntHandlerDrvI2CMasterInstance0

.text._IntHandlerExternalInterruptInstance0
                0x9d017f94      0x1b8
 .text._IntHandlerExternalInterruptInstance0
                0x9d017f94      0x1b8 build/default/production/_ext/1688732426/system_interrupt.o
                0x9d017f94                _IntHandlerExternalInterruptInstance0

.text.laWidget_SkinClassic_InvalidateBorderAreas
                0x9d01814c      0x1b4
 .text.laWidget_SkinClassic_InvalidateBorderAreas
                0x9d01814c      0x1b4 build/default/production/_ext/493962524/libaria_widget_skin_classic_common.o
                0x9d01814c                laWidget_SkinClassic_InvalidateBorderAreas

.text.touchMoved
                0x9d018300      0x1b4
 .text.touchMoved
                0x9d018300      0x1b4 build/default/production/_ext/493962524/libaria_widget_button.o

.text.DRV_I2C_BB_Initialize
                0x9d0184b4      0x1ac
 .text.DRV_I2C_BB_Initialize
                0x9d0184b4      0x1ac build/default/production/_ext/1864665665/drv_i2c_bb.o
                0x9d0184b4                DRV_I2C_BB_Initialize

.text.SYS_Initialize
                0x9d018660      0x1ac
 .text.SYS_Initialize
                0x9d018660      0x1ac build/default/production/_ext/1688732426/system_init.o
                0x9d018660                SYS_Initialize

.text._laButtonWidget_GetImageRect
                0x9d01880c      0x1a8
 .text._laButtonWidget_GetImageRect
                0x9d01880c      0x1a8 build/default/production/_ext/493962524/libaria_widget_button_skin_classic.o
                0x9d01880c                _laButtonWidget_GetImageRect

.text._IntHandlerSysDmaCh0
                0x9d0189b4      0x1a8
 .text._IntHandlerSysDmaCh0
                0x9d0189b4      0x1a8 build/default/production/_ext/1688732426/system_interrupt.o
                0x9d0189b4                _IntHandlerSysDmaCh0

.text.DRV_I2C_Receive
                0x9d018b5c      0x1a4
 .text.DRV_I2C_Receive
                0x9d018b5c      0x1a4 build/default/production/_ext/1864665665/drv_i2c_bb_a.o
                0x9d018b5c                DRV_I2C_Receive

.text.laScheme_Initialize
                0x9d018d00      0x1a4
 .text.laScheme_Initialize
                0x9d018d00      0x1a4 build/default/production/_ext/493962524/libaria_scheme.o
                0x9d018d00                laScheme_Initialize

.text._LCCRefreshISR
                0x9d018ea4      0x1a0
 .text._LCCRefreshISR
                0x9d018ea4      0x1a0 build/default/production/_ext/1988394548/drv_gfx_lcc_generic.o
                0x9d018ea4                _LCCRefreshISR

.text           0x9d019044      0x1a0
 .text          0x9d019044      0x1a0 f:/software_installations/mplab_xc32/bin/bin/../../lib/gcc/pic32mx/4.8.3/../../../../pic32mx/lib\libpic32.a(strcpy.o)
                0x9d019044                strcpy

.text.DRV_I2C_Transmit
                0x9d0191e4      0x19c
 .text.DRV_I2C_Transmit
                0x9d0191e4      0x19c build/default/production/_ext/1864665665/drv_i2c_bb_a.o
                0x9d0191e4                DRV_I2C_Transmit

.text.Adam7_getpassvalues
                0x9d019380      0x19c
 .text.Adam7_getpassvalues
                0x9d019380      0x19c build/default/production/_ext/1151653695/lodepng.o

.text.cpuDrawBlit
                0x9d01951c      0x19c
 .text.cpuDrawBlit
                0x9d01951c      0x19c build/default/production/_ext/1026407831/gfx_draw_blit.o
                0x9d01951c                cpuDrawBlit

.text.laInput_InjectTouchMoved
                0x9d0196b8      0x194
 .text.laInput_InjectTouchMoved
                0x9d0196b8      0x194 build/default/production/_ext/493962524/libaria_input.o
                0x9d0196b8                laInput_InjectTouchMoved

.text._sbrk_init
                0x9d01984c      0x194
 .text._sbrk_init
                0x9d01984c      0x194 f:/software_installations/mplab_xc32/bin/bin/../../lib/gcc/pic32mx/4.8.3/../../../../pic32mx/lib\libpic32.a(sbrk.o)
                0x9d01984c                _sbrk_init

.text.GFXU_GetStringLineRect
                0x9d0199e0      0x190
 .text.GFXU_GetStringLineRect
                0x9d0199e0      0x190 build/default/production/_ext/1572996423/gfxu_string_query.o
                0x9d0199e0                GFXU_GetStringLineRect

.text._laButtonWidget_GetTextRect
                0x9d019b70      0x190
 .text._laButtonWidget_GetTextRect
                0x9d019b70      0x190 build/default/production/_ext/493962524/libaria_widget_button_skin_classic.o
                0x9d019b70                _laButtonWidget_GetTextRect

.text.defColorModeSet
                0x9d019d00      0x18c
 .text.defColorModeSet
                0x9d019d00      0x18c build/default/production/_ext/1026407831/gfx_default_impl.o
                0x9d019d00                defColorModeSet

.text.cpuDrawLine_Thick
                0x9d019e8c      0x188
 .text.cpuDrawLine_Thick
                0x9d019e8c      0x188 build/default/production/_ext/1026407831/gfx_draw_line.o
                0x9d019e8c                cpuDrawLine_Thick

.text.laContext_Create
                0x9d01a014      0x184
 .text.laContext_Create
                0x9d01a014      0x184 build/default/production/_ext/493962524/libaria_context.o
                0x9d01a014                laContext_Create

.text.cpuDrawLine_Normal
                0x9d01a198      0x184
 .text.cpuDrawLine_Normal
                0x9d01a198      0x184 build/default/production/_ext/1026407831/gfx_draw_line.o
                0x9d01a198                cpuDrawLine_Normal

.text.cpuDrawEllipse_Line
                0x9d01a31c      0x180
 .text.cpuDrawEllipse_Line
                0x9d01a31c      0x180 build/default/production/_ext/1026407831/gfx_draw_ellipse.o
                0x9d01a31c                cpuDrawEllipse_Line

.text.cpuDrawDirectBlit
                0x9d01a49c      0x17c
 .text.cpuDrawDirectBlit
                0x9d01a49c      0x17c build/default/production/_ext/1026407831/gfx_draw_blit.o
                0x9d01a49c                cpuDrawDirectBlit

.text.touchUp   0x9d01a618      0x178
 .text.touchUp  0x9d01a618      0x178 build/default/production/_ext/493962524/libaria_widget_button.o

.text.GFXU_CompareString
                0x9d01a790      0x16c
 .text.GFXU_CompareString
                0x9d01a790      0x16c build/default/production/_ext/1572996423/gfxu_string_utils.o
                0x9d01a790                GFXU_CompareString

.text.SYS_DMA_ChannelSetup
                0x9d01a8fc      0x16c
 .text.SYS_DMA_ChannelSetup
                0x9d01a8fc      0x16c build/default/production/_ext/360842870/sys_dma.o
                0x9d01a8fc                SYS_DMA_ChannelSetup

.text           0x9d01aa68      0x2d0
 .text          0x9d01aa68      0x168 f:/software_installations/mplab_xc32/bin/bin/../../lib/gcc/pic32mx/4.8.3/../../../../pic32mx/lib\libpic32.a(memcpy.o)
                0x9d01aa68                memcpy
 .text          0x9d01abd0      0x168 f:/software_installations/mplab_xc32/bin/bin/../../lib/gcc/pic32mx/4.8.3/../../../../pic32mx/lib\libpic32.a(strlen.o)
                0x9d01abd0                strlen

.text.GFX_Close
                0x9d01ad38      0x164
 .text.GFX_Close
                0x9d01ad38      0x164 build/default/production/_ext/1026407831/gfx.o
                0x9d01ad38                GFX_Close

.text.GFX_RectSplit
                0x9d01ae9c      0x164
 .text.GFX_RectSplit
                0x9d01ae9c      0x164 build/default/production/_ext/1026407831/gfx_rect.o
                0x9d01ae9c                GFX_RectSplit

.text.laRectArray_SortBySize
                0x9d01b000      0x15c
 .text.laRectArray_SortBySize
                0x9d01b000      0x15c build/default/production/_ext/493962524/libaria_rectarray.o
                0x9d01b000                laRectArray_SortBySize

.text.drawImage
                0x9d01b15c      0x15c
 .text.drawImage
                0x9d01b15c      0x15c build/default/production/_ext/493962524/libaria_widget_image_skin_classic.o

.text.cpuDrawPixel
                0x9d01b2b8      0x15c
 .text.cpuDrawPixel
                0x9d01b2b8      0x15c build/default/production/_ext/1026407831/gfx_draw_pixel.o
                0x9d01b2b8                cpuDrawPixel

.text.SYS_DMA_ChannelTransferAdd
                0x9d01b414      0x15c
 .text.SYS_DMA_ChannelTransferAdd
                0x9d01b414      0x15c build/default/production/_ext/360842870/sys_dma.o
                0x9d01b414                SYS_DMA_ChannelTransferAdd

.text.rleReadRequestCompleted
                0x9d01b570      0x158
 .text.rleReadRequestCompleted
                0x9d01b570      0x158 build/default/production/_ext/1572996423/gfxu_image_rle_external.o

.text.GFX_UtilPointFromOrientedSpace
                0x9d01b6c8      0x158
 .text.GFX_UtilPointFromOrientedSpace
                0x9d01b6c8      0x158 build/default/production/_ext/1026407831/gfx_util.o
                0x9d01b6c8                GFX_UtilPointFromOrientedSpace

.text.getArcSoftEdgeColor
                0x9d01b820      0x154
 .text.getArcSoftEdgeColor
                0x9d01b820      0x154 build/default/production/_ext/1026407831/gfx_draw_arc.o
                0x9d01b820                getArcSoftEdgeColor

.text._laImageWidget_GetImageRect
                0x9d01b974      0x150
 .text._laImageWidget_GetImageRect
                0x9d01b974      0x150 build/default/production/_ext/493962524/libaria_widget_image_skin_classic.o
                0x9d01b974                _laImageWidget_GetImageRect

.text.GFXU_GetCharStringLineRect
                0x9d01bac4      0x14c
 .text.GFXU_GetCharStringLineRect
                0x9d01bac4      0x14c build/default/production/_ext/1572996423/gfxu_string_query.o
                0x9d01bac4                GFXU_GetCharStringLineRect

.text.cpuDrawCircle_Line
                0x9d01bc10      0x148
 .text.cpuDrawCircle_Line
                0x9d01bc10      0x148 build/default/production/_ext/1026407831/gfx_draw_circle.o
                0x9d01bc10                cpuDrawCircle_Line

.text.realloc   0x9d01bd58      0x148
 .text.realloc  0x9d01bd58      0x148 f:/software_installations/mplab_xc32/bin/bin/../../lib/gcc/pic32mx/4.8.3/../../../../pic32mx/lib\libc.a(malloc.o)
                0x9d01bd58                realloc

.text.JPEG_bGet1Bit
                0x9d01bea0      0x144
 .text.JPEG_bGet1Bit
                0x9d01bea0      0x144 build/default/production/_ext/1572996423/gfxu_image_jpg_common.o

.text.laString_DrawSubStringClipped
                0x9d01bfe4      0x144
 .text.laString_DrawSubStringClipped
                0x9d01bfe4      0x144 build/default/production/_ext/493962524/libaria_string.o
                0x9d01bfe4                laString_DrawSubStringClipped

.text.GFX_ColorBlend_RGBA_8888
                0x9d01c128      0x144
 .text.GFX_ColorBlend_RGBA_8888
                0x9d01c128      0x144 build/default/production/_ext/1026407831/gfx_color_blend.o
                0x9d01c128                GFX_ColorBlend_RGBA_8888

.text.GFX_SineCosineGet
                0x9d01c26c      0x144
 .text.GFX_SineCosineGet
                0x9d01c26c      0x144 build/default/production/_ext/1026407831/gfx_math.o
                0x9d01c26c                GFX_SineCosineGet

.text.fputc     0x9d01c3b0      0x144
 .text.fputc    0x9d01c3b0      0x144 f:/software_installations/mplab_xc32/bin/bin/../../lib/gcc/pic32mx/4.8.3/../../../../pic32mx/lib\libc.a(_fputc_simple.o)
                0x9d01c3b0                fputc

.text.cpuDrawRect_Fill
                0x9d01c4f4      0x140
 .text.cpuDrawRect_Fill
                0x9d01c4f4      0x140 build/default/production/_ext/1026407831/gfx_draw_rect.o
                0x9d01c4f4                cpuDrawRect_Fill

.text.GFXU_DrawSubStringClipped
                0x9d01c634      0x138
 .text.GFXU_DrawSubStringClipped
                0x9d01c634      0x138 build/default/production/_ext/1572996423/gfxu_string.o
                0x9d01c634                GFXU_DrawSubStringClipped

.text.laInput_InjectTouchDown
                0x9d01c76c      0x134
 .text.laInput_InjectTouchDown
                0x9d01c76c      0x134 build/default/production/_ext/493962524/libaria_input.o
                0x9d01c76c                laInput_InjectTouchDown

.text._laLayer_AddDamageRectToList
                0x9d01c8a0      0x134
 .text._laLayer_AddDamageRectToList
                0x9d01c8a0      0x134 build/default/production/_ext/493962524/libaria_layer.o
                0x9d01c8a0                _laLayer_AddDamageRectToList

.text.GFX_PixelBufferAreaGet_Unsafe
                0x9d01c9d4      0x134
 .text.GFX_PixelBufferAreaGet_Unsafe
                0x9d01c9d4      0x134 build/default/production/_ext/1026407831/gfx_pixel_buffer.o
                0x9d01c9d4                GFX_PixelBufferAreaGet_Unsafe

.text.GFXU_DrawImageRawExternal
                0x9d01cb08      0x130
 .text.GFXU_DrawImageRawExternal
                0x9d01cb08      0x130 build/default/production/_ext/1572996423/gfxu_image_raw_external.o
                0x9d01cb08                GFXU_DrawImageRawExternal

.text.GFXU_DrawImageRLEExternal
                0x9d01cc38      0x130
 .text.GFXU_DrawImageRLEExternal
                0x9d01cc38      0x130 build/default/production/_ext/1572996423/gfxu_image_rle_external.o
                0x9d01cc38                GFXU_DrawImageRLEExternal

.text.setLayerAttributes
                0x9d01cd68      0x130
 .text.setLayerAttributes
                0x9d01cd68      0x130 build/default/production/_ext/493962524/libaria_screen.o

.text._laWidget_Constructor
                0x9d01ce98      0x130
 .text._laWidget_Constructor
                0x9d01ce98      0x130 build/default/production/_ext/493962524/libaria_widget.o
                0x9d01ce98                _laWidget_Constructor

.text._laWidget_Invalidate
                0x9d01cfc8      0x130
 .text._laWidget_Invalidate
                0x9d01cfc8      0x130 build/default/production/_ext/493962524/libaria_widget.o
                0x9d01cfc8                _laWidget_Invalidate

.text.laWidget_SkinClassic_DrawBevelBorderRight
                0x9d01d0f8      0x130
 .text.laWidget_SkinClassic_DrawBevelBorderRight
                0x9d01d0f8      0x130 build/default/production/_ext/493962524/libaria_widget_skin_classic_common.o
                0x9d01d0f8                laWidget_SkinClassic_DrawBevelBorderRight

.text.laWidget_SkinClassic_DrawBevelBorderBottom
                0x9d01d228      0x130
 .text.laWidget_SkinClassic_DrawBevelBorderBottom
                0x9d01d228      0x130 build/default/production/_ext/493962524/libaria_widget_skin_classic_common.o
                0x9d01d228                laWidget_SkinClassic_DrawBevelBorderBottom

.text.GFX_DrawPixel
                0x9d01d358      0x130
 .text.GFX_DrawPixel
                0x9d01d358      0x130 build/default/production/_ext/1026407831/gfx_draw_pixel.o
                0x9d01d358                GFX_DrawPixel

.text.laEvent_ProcessEvents
                0x9d01d488      0x12c
 .text.laEvent_ProcessEvents
                0x9d01d488      0x12c build/default/production/_ext/493962524/libaria_event.o
                0x9d01d488                laEvent_ProcessEvents

.text._flsbuf   0x9d01d5b4      0x12c
 .text._flsbuf  0x9d01d5b4      0x12c f:/software_installations/mplab_xc32/bin/bin/../../lib/gcc/pic32mx/4.8.3/../../../../pic32mx/lib\libc.a(_flsbuf_simple.o)
                0x9d01d5b4                _flsbuf

.text.checkColorValidity
                0x9d01d6e0      0x128
 .text.checkColorValidity
                0x9d01d6e0      0x128 build/default/production/_ext/1151653695/lodepng.o

.text.GFX_RectClipAdj
                0x9d01d808      0x128
 .text.GFX_RectClipAdj
                0x9d01d808      0x128 build/default/production/_ext/1026407831/gfx_rect.o
                0x9d01d808                GFX_RectClipAdj

.text.cpuDrawRect_Line
                0x9d01d930      0x128
 .text.cpuDrawRect_Line
                0x9d01d930      0x128 build/default/production/_ext/1026407831/gfx_draw_rect.o
                0x9d01d930                cpuDrawRect_Line

.text.lccUpdate
                0x9d01da58      0x128
 .text.lccUpdate
                0x9d01da58      0x128 build/default/production/_ext/1988394548/drv_gfx_lcc_generic.o

.rodata         0x9d01db80      0x128
 .rodata        0x9d01db80      0x128 build/default/production/_ext/1688732426/system_exceptions.o

.text.laWidget_SkinClassic_DrawBevelBorderLeft
                0x9d01dca8      0x124
 .text.laWidget_SkinClassic_DrawBevelBorderLeft
                0x9d01dca8      0x124 build/default/production/_ext/493962524/libaria_widget_skin_classic_common.o
                0x9d01dca8                laWidget_SkinClassic_DrawBevelBorderLeft

.text.laWidget_SkinClassic_DrawBevelBorderTop
                0x9d01ddcc      0x124
 .text.laWidget_SkinClassic_DrawBevelBorderTop
                0x9d01ddcc      0x124 build/default/production/_ext/493962524/libaria_widget_skin_classic_common.o
                0x9d01ddcc                laWidget_SkinClassic_DrawBevelBorderTop

.text.GFX_LayerFromOrientedSpace
                0x9d01def0      0x124
 .text.GFX_LayerFromOrientedSpace
                0x9d01def0      0x124 build/default/production/_ext/1026407831/gfx_layer.o
                0x9d01def0                GFX_LayerFromOrientedSpace

.text.GFXU_DrawStringBufferExternal
                0x9d01e014      0x120
 .text.GFXU_DrawStringBufferExternal
                0x9d01e014      0x120 build/default/production/_ext/1572996423/gfxu_stringbuffer_external.o
                0x9d01e014                GFXU_DrawStringBufferExternal

.text.nextState
                0x9d01e134      0x120
 .text.nextState
                0x9d01e134      0x120 build/default/production/_ext/493962524/libaria_widget_button_skin_classic.o

.text.drawImage
                0x9d01e254      0x120
 .text.drawImage
                0x9d01e254      0x120 build/default/production/_ext/493962524/libaria_widget_button_skin_classic.o

.text.laLayer_New
                0x9d01e374      0x118
 .text.laLayer_New
                0x9d01e374      0x118 build/default/production/_ext/493962524/libaria_layer.o
                0x9d01e374                laLayer_New

.text.lodepng_add_text
                0x9d01e48c      0x114
 .text.lodepng_add_text
                0x9d01e48c      0x114 build/default/production/_ext/1151653695/lodepng.o
                0x9d01e48c                lodepng_add_text

.text._laLabelWidget_GetTextRect
                0x9d01e5a0      0x114
 .text._laLabelWidget_GetTextRect
                0x9d01e5a0      0x114 build/default/production/_ext/493962524/libaria_widget_label_skin_classic.o
                0x9d01e5a0                _laLabelWidget_GetTextRect

.text.GFX_UtilPointToOrientedSpace
                0x9d01e6b4      0x114
 .text.GFX_UtilPointToOrientedSpace
                0x9d01e6b4      0x114 build/default/production/_ext/1026407831/gfx_util.o
                0x9d01e6b4                GFX_UtilPointToOrientedSpace

.text.drawPaletteData
                0x9d01e7c8      0x110
 .text.drawPaletteData
                0x9d01e7c8      0x110 build/default/production/_ext/1572996423/gfxu_image_rle_external.o

.text.GFXU_DrawStringExternal
                0x9d01e8d8      0x110
 .text.GFXU_DrawStringExternal
                0x9d01e8d8      0x110 build/default/production/_ext/1572996423/gfxu_string_external.o
                0x9d01e8d8                GFXU_DrawStringExternal

.text.defDestroy
                0x9d01e9e8      0x110
 .text.defDestroy
                0x9d01e9e8      0x110 build/default/production/_ext/1026407831/gfx_default_impl.o
                0x9d01e9e8                defDestroy

.text.GFXU_DecodeAndDrawSubString
                0x9d01eaf8      0x10c
 .text.GFXU_DecodeAndDrawSubString
                0x9d01eaf8      0x10c build/default/production/_ext/1572996423/gfxu_string_utils.o
                0x9d01eaf8                GFXU_DecodeAndDrawSubString

.text.laRectArray_MergeSimilar
                0x9d01ec04      0x10c
 .text.laRectArray_MergeSimilar
                0x9d01ec04      0x10c build/default/production/_ext/493962524/libaria_rectarray.o
                0x9d01ec04                laRectArray_MergeSimilar

.text.defLayerBufferCountSet
                0x9d01ed10      0x10c
 .text.defLayerBufferCountSet
                0x9d01ed10      0x10c build/default/production/_ext/1026407831/gfx_default_impl.o
                0x9d01ed10                defLayerBufferCountSet

.text.laInput_InjectTouchUp
                0x9d01ee1c      0x108
 .text.laInput_InjectTouchUp
                0x9d01ee1c      0x108 build/default/production/_ext/493962524/libaria_input.o
                0x9d01ee1c                laInput_InjectTouchUp

.text.laWidget_SetSize
                0x9d01ef24      0x108
 .text.laWidget_SetSize
                0x9d01ef24      0x108 build/default/production/_ext/493962524/libaria_widget.o
                0x9d01ef24                laWidget_SetSize

.text.layerBufferAllocate
                0x9d01f02c      0x108
 .text.layerBufferAllocate
                0x9d01f02c      0x108 build/default/production/_ext/1026407831/gfx_default_impl.o

.text.SYS_DEVCON_PerformanceConfig
                0x9d01f134      0x104
 .text.SYS_DEVCON_PerformanceConfig
                0x9d01f134      0x104 build/default/production/_ext/340578644/sys_devcon_pic32mz.o
                0x9d01f134                SYS_DEVCON_PerformanceConfig

.rodata         0x9d01f238      0x104
 .rodata        0x9d01f238      0x104 f:/software_installations/mplab_xc32/bin/bin/../../lib/gcc/pic32mx/4.8.3/../../../../pic32mx/lib\libc.a(ctype.o)
                0x9d01f238                _ctype

.text.color_tree_add
                0x9d01f33c      0x100
 .text.color_tree_add
                0x9d01f33c      0x100 build/default/production/_ext/1151653695/lodepng.o

.text.GFX_EllipsePoint
                0x9d01f43c      0x100
 .text.GFX_EllipsePoint
                0x9d01f43c      0x100 build/default/production/_ext/1026407831/gfx_math.o
                0x9d01f43c                GFX_EllipsePoint

.text.DRV_I2C_MasterBufferReadXE
                0x9d01f53c       0xfc
 .text.DRV_I2C_MasterBufferReadXE
                0x9d01f53c       0xfc build/default/production/_ext/1864665665/drv_i2c_bb.o
                0x9d01f53c                DRV_I2C_MasterBufferReadXE

.text.laString_Compare
                0x9d01f638       0xfc
 .text.laString_Compare
                0x9d01f638       0xfc build/default/production/_ext/493962524/libaria_string.o
                0x9d01f638                laString_Compare

.text.laWidget_SetPosition
                0x9d01f734       0xfc
 .text.laWidget_SetPosition
                0x9d01f734       0xfc build/default/production/_ext/493962524/libaria_widget.o
                0x9d01f734                laWidget_SetPosition

.text.defDrawBlendModeSet
                0x9d01f830       0xfc
 .text.defDrawBlendModeSet
                0x9d01f830       0xfc build/default/production/_ext/1026407831/gfx_default_impl.o
                0x9d01f830                defDrawBlendModeSet

.text.DRV_I2C_MasterBufferWriteXE
                0x9d01f92c       0xf8
 .text.DRV_I2C_MasterBufferWriteXE
                0x9d01f92c       0xf8 build/default/production/_ext/1864665665/drv_i2c_bb.o
                0x9d01f92c                DRV_I2C_MasterBufferWriteXE

.text.GFX_LayerToOrientedSpace
                0x9d01fa24       0xf8
 .text.GFX_LayerToOrientedSpace
                0x9d01fa24       0xf8 build/default/production/_ext/1026407831/gfx_layer.o
                0x9d01fa24                GFX_LayerToOrientedSpace

.text.arcsOverlapQuadrant
                0x9d01fb1c       0xf8
 .text.arcsOverlapQuadrant
                0x9d01fb1c       0xf8 build/default/production/_ext/1026407831/gfx_draw_arc.o
                0x9d01fb1c                arcsOverlapQuadrant

.text.GFXU_DrawSubStringBufferInternal
                0x9d01fc14       0xf4
 .text.GFXU_DrawSubStringBufferInternal
                0x9d01fc14       0xf4 build/default/production/_ext/1572996423/gfxu_string_internal.o
                0x9d01fc14                GFXU_DrawSubStringBufferInternal

.text.laList_Remove
                0x9d01fd08       0xf4
 .text.laList_Remove
                0x9d01fd08       0xf4 build/default/production/_ext/493962524/libaria_list.o
                0x9d01fd08                laList_Remove

.text.la_strcmp
                0x9d01fdfc       0xf4
 .text.la_strcmp
                0x9d01fdfc       0xf4 build/default/production/_ext/493962524/libaria_string.o
                0x9d01fdfc                la_strcmp

.text.laString_Copy
                0x9d000010       0xf0
 .text.laString_Copy
                0x9d000010       0xf0 build/default/production/_ext/493962524/libaria_string.o
                0x9d000010                laString_Copy

.text.DRV_I2C_Open
                0x9d01fef0       0xec
 .text.DRV_I2C_Open
                0x9d01fef0       0xec build/default/production/_ext/1864665665/drv_i2c_bb_a.o
                0x9d01fef0                DRV_I2C_Open

.text.pickChild
                0x9d01ffdc       0xec
 .text.pickChild
                0x9d01ffdc       0xec build/default/production/_ext/493962524/libaria_utils.o

.text.GFX_DrawPixelByDrawState
                0x9d0200c8       0xec
 .text.GFX_DrawPixelByDrawState
                0x9d0200c8       0xec build/default/production/_ext/1026407831/gfx_draw_pixel.o
                0x9d0200c8                GFX_DrawPixelByDrawState

.text.SYS_DMA_Tasks
                0x9d0201b4       0xec
 .text.SYS_DMA_Tasks
                0x9d0201b4       0xec build/default/production/_ext/360842870/sys_dma.o
                0x9d0201b4                SYS_DMA_Tasks

.text.getRLEDataAtIndex
                0x9d0202a0       0xe8
 .text.getRLEDataAtIndex
                0x9d0202a0       0xe8 build/default/production/_ext/1572996423/gfxu_image_utils.o
                0x9d0202a0                getRLEDataAtIndex

.text.updateDirtyFlags
                0x9d020388       0xe8
 .text.updateDirtyFlags
                0x9d020388       0xe8 build/default/production/_ext/493962524/libaria_context_paint.o

.text.laUtils_WidgetIsOccluded
                0x9d020470       0xe8
 .text.laUtils_WidgetIsOccluded
                0x9d020470       0xe8 build/default/production/_ext/493962524/libaria_utils.o
                0x9d020470                laUtils_WidgetIsOccluded

.text.lodepng_color_mode_copy
                0x9d020558       0xe4
 .text.lodepng_color_mode_copy
                0x9d020558       0xe4 build/default/production/_ext/1151653695/lodepng.o
                0x9d020558                lodepng_color_mode_copy

.text.GFX_PixelBufferCreate
                0x9d02063c       0xe0
 .text.GFX_PixelBufferCreate
                0x9d02063c       0xe0 build/default/production/_ext/1026407831/gfx_pixel_buffer.o
                0x9d02063c                GFX_PixelBufferCreate

.text.lodepng_color_mode_equal
                0x9d02071c       0xdc
 .text.lodepng_color_mode_equal
                0x9d02071c       0xdc build/default/production/_ext/1151653695/lodepng.o

.text.touchDown
                0x9d0207f8       0xdc
 .text.touchDown
                0x9d0207f8       0xdc build/default/production/_ext/493962524/libaria_widget_button.o

.text.defMirroringSet
                0x9d0208d4       0xdc
 .text.defMirroringSet
                0x9d0208d4       0xdc build/default/production/_ext/1026407831/gfx_default_impl.o
                0x9d0208d4                defMirroringSet

.text.general_exception
                0x9d0209b0       0xdc
 .text.general_exception
                0x9d0209b0       0xdc f:/software_installations/mplab_xc32/bin/bin/../../lib/gcc/pic32mx/4.8.3/../../../../pic32mx/lib\libpic32.a(general-exception.o)
                0x9d0209b0                _general_exception_context

.text.defInitialize
                0x9d020a8c       0xd8
 .text.defInitialize
                0x9d020a8c       0xd8 build/default/production/_ext/1026407831/gfx_default_impl.o
                0x9d020a8c                defInitialize

.text.defOrientationSet
                0x9d020b64       0xd8
 .text.defOrientationSet
                0x9d020b64       0xd8 build/default/production/_ext/1026407831/gfx_default_impl.o
                0x9d020b64                defOrientationSet

.text._cache_err_exception_context
                0x9d020c3c       0xd8
 .text._cache_err_exception_context
                0x9d020c3c       0xd8 f:/software_installations/mplab_xc32/bin/bin/../../lib/gcc/pic32mx/4.8.3/../../../../pic32mx/lib\libpic32.a(cache-err-exception.o)
                0x9d020c3c                _cache_err_exception_context

.text.simple_tlb_refill_context
                0x9d020d14       0xd8
 .text.simple_tlb_refill_context
                0x9d020d14       0xd8 f:/software_installations/mplab_xc32/bin/bin/../../lib/gcc/pic32mx/4.8.3/../../../../pic32mx/lib\libpic32.a(simple-tlb-refill-exception.o)
                0x9d020d14                _simple_tlb_refill_exception_context

.text.generateFixedLitLenTree
                0x9d020dec       0xd4
 .text.generateFixedLitLenTree
                0x9d020dec       0xd4 build/default/production/_ext/1151653695/lodepng.o

.text.transformCoordinate
                0x9d020ec0       0xd4
 .text.transformCoordinate
                0x9d020ec0       0xd4 build/default/production/_ext/493962524/libaria_input.o
                0x9d020ec0                transformCoordinate

.text.laLayer_AddDamageRect
                0x9d020f94       0xd4
 .text.laLayer_AddDamageRect
                0x9d020f94       0xd4 build/default/production/_ext/493962524/libaria_layer.o
                0x9d020f94                laLayer_AddDamageRect

.text.laRectArray_RemoveDuplicates
                0x9d021068       0xd4
 .text.laRectArray_RemoveDuplicates
                0x9d021068       0xd4 build/default/production/_ext/493962524/libaria_rectarray.o
                0x9d021068                laRectArray_RemoveDuplicates

.text.drawBackground
                0x9d02113c       0xd4
 .text.drawBackground
                0x9d02113c       0xd4 build/default/production/_ext/493962524/libaria_widget_skin_classic.o

.text._mon_putc
                0x9d021210       0xd4
 .text._mon_putc
                0x9d021210       0xd4 f:/software_installations/mplab_xc32/bin/bin/../../lib/gcc/pic32mx/4.8.3/../../../../pic32mx/lib\libpic32.a(_mon_putc.o)
                0x9d021210                _mon_putc

.text.laWidget_SetBackgroundType
                0x9d0212e4       0xd0
 .text.laWidget_SetBackgroundType
                0x9d0212e4       0xd0 build/default/production/_ext/493962524/libaria_widget.o
                0x9d0212e4                laWidget_SetBackgroundType

.text.nextState
                0x9d0213b4       0xd0
 .text.nextState
                0x9d0213b4       0xd0 build/default/production/_ext/493962524/libaria_widget_label_skin_classic.o

.rodata         0x9d021488       0xd0
 .rodata        0x9d021488       0xd0 f:/software_installations/mplab_xc32/bin/bin/../../lib/gcc/pic32mx/4.8.3/../../../../pic32mx/lib\libc.a(doprnt_cdnopsuxX.eo)

.text.color_tree_get
                0x9d021558       0xcc
 .text.color_tree_get
                0x9d021558       0xcc build/default/production/_ext/1151653695/lodepng.o

.text.LodePNGIText_cleanup
                0x9d021624       0xc8
 .text.LodePNGIText_cleanup
                0x9d021624       0xc8 build/default/production/_ext/1151653695/lodepng.o

.text.lodepng_chunk_append
                0x9d0216ec       0xc8
 .text.lodepng_chunk_append
                0x9d0216ec       0xc8 build/default/production/_ext/1151653695/lodepng.o
                0x9d0216ec                lodepng_chunk_append

.text.laRectArray_RemoveOverlapping
                0x9d0217b4       0xc8
 .text.laRectArray_RemoveOverlapping
                0x9d0217b4       0xc8 build/default/production/_ext/493962524/libaria_rectarray.o
                0x9d0217b4                laRectArray_RemoveOverlapping

.text._laButtonWidget_Constructor
                0x9d02187c       0xc8
 .text._laButtonWidget_Constructor
                0x9d02187c       0xc8 build/default/production/_ext/493962524/libaria_widget_button.o
                0x9d02187c                _laButtonWidget_Constructor

.text._sbrk     0x9d021944       0xc8
 .text._sbrk    0x9d021944       0xc8 f:/software_installations/mplab_xc32/bin/bin/../../lib/gcc/pic32mx/4.8.3/../../../../pic32mx/lib\libpic32.a(sbrk.o)
                0x9d021944                _sbrk

.text.handleTouchDown
                0x9d021a0c       0xc4
 .text.handleTouchDown
                0x9d021a0c       0xc4 build/default/production/_ext/493962524/libaria_input.o
                0x9d021a0c                handleTouchDown

.text._laLayer_FinishFrame
                0x9d021ad0       0xc4
 .text._laLayer_FinishFrame
                0x9d021ad0       0xc4 build/default/production/_ext/493962524/libaria_layer.o
                0x9d021ad0                _laLayer_FinishFrame

.text.laWidget_SkinClassic_DrawBlit
                0x9d021b94       0xc4
 .text.laWidget_SkinClassic_DrawBlit
                0x9d021b94       0xc4 build/default/production/_ext/493962524/libaria_widget_skin_classic_common.o
                0x9d021b94                laWidget_SkinClassic_DrawBlit

.text.GFX_RectCombine
                0x9d021c58       0xc4
 .text.GFX_RectCombine
                0x9d021c58       0xc4 build/default/production/_ext/1026407831/gfx_rect.o
                0x9d021c58                GFX_RectCombine

.text.removePaddingBits
                0x9d021d1c       0xc0
 .text.removePaddingBits
                0x9d021d1c       0xc0 build/default/production/_ext/1151653695/lodepng.o

.text.laString_GetLineRect
                0x9d021ddc       0xc0
 .text.laString_GetLineRect
                0x9d021ddc       0xc0 build/default/production/_ext/493962524/libaria_string.o
                0x9d021ddc                laString_GetLineRect

.text.laWidget_SkinClassic_DrawLineBorderRight
                0x9d021e9c       0xc0
 .text.laWidget_SkinClassic_DrawLineBorderRight
                0x9d021e9c       0xc0 build/default/production/_ext/493962524/libaria_widget_skin_classic_common.o
                0x9d021e9c                laWidget_SkinClassic_DrawLineBorderRight

.text._DRV_I2C_QueuePush
                0x9d021f5c       0xbc
 .text._DRV_I2C_QueuePush
                0x9d021f5c       0xbc build/default/production/_ext/1864665665/drv_i2c_bb_a.o
                0x9d021f5c                _DRV_I2C_QueuePush

.text.JPEG_bGetNextHuffByte
                0x9d022018       0xbc
 .text.JPEG_bGetNextHuffByte
                0x9d022018       0xbc build/default/production/_ext/1572996423/gfxu_image_jpg_common.o

.text.GFXU_DrawCharSubStringClipped
                0x9d0220d4       0xbc
 .text.GFXU_DrawCharSubStringClipped
                0x9d0220d4       0xbc build/default/production/_ext/1572996423/gfxu_string.o
                0x9d0220d4                GFXU_DrawCharSubStringClipped

.text.laString_GetMultiLineRect
                0x9d022190       0xbc
 .text.laString_GetMultiLineRect
                0x9d022190       0xbc build/default/production/_ext/493962524/libaria_string.o
                0x9d022190                laString_GetMultiLineRect

.text.defLayerBufferAddressSet
                0x9d02224c       0xbc
 .text.defLayerBufferAddressSet
                0x9d02224c       0xbc build/default/production/_ext/1026407831/gfx_default_impl.o
                0x9d02224c                defLayerBufferAddressSet

.tlb.__pic32_tlb_init_ebi_sqi
                0x9d022308       0xbc
 .tlb.__pic32_tlb_init_ebi_sqi
                0x9d022308       0xbc f:/software_installations/mplab_xc32/bin/bin/../../lib/gcc/pic32mx/4.8.3/../../../../pic32mx/lib\libpic32.a(pic32_init_tlb_ebi_sqi.o)
                0x9d022308                __pic32_tlb_init_ebi_sqi

.text.laWidget_SkinClassic_DrawLineBorderBottom
                0x9d0223c4       0xb8
 .text.laWidget_SkinClassic_DrawLineBorderBottom
                0x9d0223c4       0xb8 build/default/production/_ext/493962524/libaria_widget_skin_classic_common.o
                0x9d0223c4                laWidget_SkinClassic_DrawLineBorderBottom

.text._laButtonWidget_Paint
                0x9d02247c       0xb8
 .text._laButtonWidget_Paint
                0x9d02247c       0xb8 build/default/production/_ext/493962524/libaria_widget_button_skin_classic.o
                0x9d02247c                _laButtonWidget_Paint

.rodata         0x9d022534       0xb8
 .rodata        0x9d022534       0xb8 build/default/production/_ext/1026407831/gfx_math.o
                0x9d022534                _CosineTable

.text.drawGlyphRow8bpp
                0x9d0225ec       0xb4
 .text.drawGlyphRow8bpp
                0x9d0225ec       0xb4 build/default/production/_ext/1572996423/gfxu_string_utils.o
                0x9d0225ec                drawGlyphRow8bpp

.text.laWidget_SkinClassic_DrawLineBorderLeft
                0x9d0226a0       0xb4
 .text.laWidget_SkinClassic_DrawLineBorderLeft
                0x9d0226a0       0xb4 build/default/production/_ext/493962524/libaria_widget_skin_classic_common.o
                0x9d0226a0                laWidget_SkinClassic_DrawLineBorderLeft

.text._laImageWidget_Paint
                0x9d022754       0xb4
 .text._laImageWidget_Paint
                0x9d022754       0xb4 build/default/production/_ext/493962524/libaria_widget_image_skin_classic.o
                0x9d022754                _laImageWidget_Paint

.text._laLabelWidget_Paint
                0x9d022808       0xb4
 .text._laLabelWidget_Paint
                0x9d022808       0xb4 build/default/production/_ext/493962524/libaria_widget_label_skin_classic.o
                0x9d022808                _laLabelWidget_Paint

.text.GFX_RectsAreSimilar
                0x9d0228bc       0xb4
 .text.GFX_RectsAreSimilar
                0x9d0228bc       0xb4 build/default/production/_ext/1026407831/gfx_rect.o
                0x9d0228bc                GFX_RectsAreSimilar

.text.GFXU_DrawSubStringInternal
                0x9d022970       0xb0
 .text.GFXU_DrawSubStringInternal
                0x9d022970       0xb0 build/default/production/_ext/1572996423/gfxu_string_internal.o
                0x9d022970                GFXU_DrawSubStringInternal

.text.GFXU_FontGetLookupTableEntry
                0x9d022a20       0xb0
 .text.GFXU_FontGetLookupTableEntry
                0x9d022a20       0xb0 build/default/production/_ext/1572996423/gfxu_string_utils.o
                0x9d022a20                GFXU_FontGetLookupTableEntry

.text._shuffleLeft
                0x9d022ad0       0xb0
 .text._shuffleLeft
                0x9d022ad0       0xb0 build/default/production/_ext/493962524/libaria_rectarray.o

.text.laRectArray_PushBack
                0x9d022b80       0xb0
 .text.laRectArray_PushBack
                0x9d022b80       0xb0 build/default/production/_ext/493962524/libaria_rectarray.o
                0x9d022b80                laRectArray_PushBack

.text.nextState
                0x9d022c30       0xb0
 .text.nextState
                0x9d022c30       0xb0 build/default/production/_ext/493962524/libaria_widget_image_skin_classic.o

.text.lerp_argb8888
                0x9d022ce0       0xb0
 .text.lerp_argb8888
                0x9d022ce0       0xb0 build/default/production/_ext/1026407831/gfx_color_lerp.o

.text.lerp_rgba8888
                0x9d022d90       0xb0
 .text.lerp_rgba8888
                0x9d022d90       0xb0 build/default/production/_ext/1026407831/gfx_color_lerp.o

.text.drawGlyphRow1bpp
                0x9d022e40       0xac
 .text.drawGlyphRow1bpp
                0x9d022e40       0xac build/default/production/_ext/1572996423/gfxu_string_utils.o
                0x9d022e40                drawGlyphRow1bpp

.text.laArray_Destroy
                0x9d022eec       0xac
 .text.laArray_Destroy
                0x9d022eec       0xac build/default/production/_ext/493962524/libaria_array.o
                0x9d022eec                laArray_Destroy

.text.findNextLayer
                0x9d022f98       0xac
 .text.findNextLayer
                0x9d022f98       0xac build/default/production/_ext/493962524/libaria_context_paint.o

.text.laWidget_GetCumulativeAlphaAmount
                0x9d023044       0xac
 .text.laWidget_GetCumulativeAlphaAmount
                0x9d023044       0xac build/default/production/_ext/493962524/libaria_widget.o
                0x9d023044                laWidget_GetCumulativeAlphaAmount

.text.laWidget_SkinClassic_DrawLineBorderTop
                0x9d0230f0       0xac
 .text.laWidget_SkinClassic_DrawLineBorderTop
                0x9d0230f0       0xac build/default/production/_ext/493962524/libaria_widget_skin_classic_common.o
                0x9d0230f0                laWidget_SkinClassic_DrawLineBorderTop

.text.GFX_PixelBufferAreaGet
                0x9d02319c       0xac
 .text.GFX_PixelBufferAreaGet
                0x9d02319c       0xac build/default/production/_ext/1026407831/gfx_pixel_buffer.o
                0x9d02319c                GFX_PixelBufferAreaGet

.text.laScreen_New
                0x9d023248       0xa8
 .text.laScreen_New
                0x9d023248       0xa8 build/default/production/_ext/493962524/libaria_screen.o
                0x9d023248                laScreen_New

.text           0x9d0232f0       0xa8
 .text          0x9d0232f0       0xa8 f:/software_installations/mplab_xc32/bin/bin/../../lib/gcc/pic32mx/4.8.3/../../../../pic32mx/lib\libpic32.a(memset.o)
                0x9d0232f0                memset

.text.DRV_MXT336T_Open
                0x9d023398       0xa4
 .text.DRV_MXT336T_Open
                0x9d023398       0xa4 build/default/production/_ext/1860398633/drv_mxt336t.o
                0x9d023398                DRV_MXT336T_Open

.text._laLayer_InvalidateChildren
                0x9d02343c       0xa4
 .text._laLayer_InvalidateChildren
                0x9d02343c       0xa4 build/default/production/_ext/493962524/libaria_layer.o
                0x9d02343c                _laLayer_InvalidateChildren

.text.laRectArray_Copy
                0x9d0234e0       0xa4
 .text.laRectArray_Copy
                0x9d0234e0       0xa4 build/default/production/_ext/493962524/libaria_rectarray.o
                0x9d0234e0                laRectArray_Copy

.text.laWidget_RectToLayerSpace
                0x9d023584       0xa4
 .text.laWidget_RectToLayerSpace
                0x9d023584       0xa4 build/default/production/_ext/493962524/libaria_widget.o
                0x9d023584                laWidget_RectToLayerSpace

.text.invalidateContents
                0x9d023628       0xa4
 .text.invalidateContents
                0x9d023628       0xa4 build/default/production/_ext/493962524/libaria_widget_button.o

.text.StartI2C  0x9d0236cc       0xa0
 .text.StartI2C
                0x9d0236cc       0xa0 build/default/production/_ext/1864665665/drv_i2c_bb.o
                0x9d0236cc                StartI2C

.text.DRV_MXT336T_Initialize
                0x9d02376c       0xa0
 .text.DRV_MXT336T_Initialize
                0x9d02376c       0xa0 build/default/production/_ext/1860398633/drv_mxt336t.o
                0x9d02376c                DRV_MXT336T_Initialize

.text.HuffmanTree_makeFromLengths
                0x9d02380c       0xa0
 .text.HuffmanTree_makeFromLengths
                0x9d02380c       0xa0 build/default/production/_ext/1151653695/lodepng.o

.text.imageReadRequestCompleted
                0x9d0238ac       0xa0
 .text.imageReadRequestCompleted
                0x9d0238ac       0xa0 build/default/production/_ext/1572996423/gfxu_image_raw_external.o

.text.GFXU_DecodeUTF16
                0x9d02394c       0xa0
 .text.GFXU_DecodeUTF16
                0x9d02394c       0xa0 build/default/production/_ext/1572996423/gfxu_string_utils.o
                0x9d02394c                GFXU_DecodeUTF16

.text._laWidget_Destructor
                0x9d0239ec       0xa0
 .text._laWidget_Destructor
                0x9d0239ec       0xa0 build/default/production/_ext/493962524/libaria_widget.o
                0x9d0239ec                _laWidget_Destructor

.text.laWidget_AddChild
                0x9d023a8c       0xa0
 .text.laWidget_AddChild
                0x9d023a8c       0xa0 build/default/production/_ext/493962524/libaria_widget.o
                0x9d023a8c                laWidget_AddChild

.text.laWidget_SkinClassic_Draw2x2BeveledBorder
                0x9d023b2c       0xa0
 .text.laWidget_SkinClassic_Draw2x2BeveledBorder
                0x9d023b2c       0xa0 build/default/production/_ext/493962524/libaria_widget_skin_classic_common.o
                0x9d023b2c                laWidget_SkinClassic_Draw2x2BeveledBorder

.text._DRV_I2C_QueuePop
                0x9d023bcc       0x9c
 .text._DRV_I2C_QueuePop
                0x9d023bcc       0x9c build/default/production/_ext/1864665665/drv_i2c_bb_a.o
                0x9d023bcc                _DRV_I2C_QueuePop

.text.GFX_ColorBilerp
                0x9d023c68       0x9c
 .text.GFX_ColorBilerp
                0x9d023c68       0x9c build/default/production/_ext/1026407831/gfx_color_lerp.o
                0x9d023c68                GFX_ColorBilerp

.text.rejectPixel
                0x9d023d04       0x9c
 .text.rejectPixel
                0x9d023d04       0x9c build/default/production/_ext/1026407831/gfx_draw_pixel.o

.text.write     0x9d023da0       0x9c
 .text.write    0x9d023da0       0x9c f:/software_installations/mplab_xc32/bin/bin/../../lib/gcc/pic32mx/4.8.3/../../../../pic32mx/lib\libpic32.a(write.o)
                0x9d023da0                write

.text._laContext_UpdateWidget
                0x9d023e3c       0x98
 .text._laContext_UpdateWidget
                0x9d023e3c       0x98 build/default/production/_ext/493962524/libaria_context.o
                0x9d023e3c                _laContext_UpdateWidget

.text.lerp_rgba5551
                0x9d023ed4       0x98
 .text.lerp_rgba5551
                0x9d023ed4       0x98 build/default/production/_ext/1026407831/gfx_color_lerp.o

.text.LibAria_Initialize
                0x9d023f6c       0x98
 .text.LibAria_Initialize
                0x9d023f6c       0x98 build/default/production/_ext/458109090/libaria_harmony.o
                0x9d023f6c                LibAria_Initialize

.text.GFXU_FontGetGlyphInfo
                0x9d024004       0x94
 .text.GFXU_FontGetGlyphInfo
                0x9d024004       0x94 build/default/production/_ext/1572996423/gfxu_string_utils.o
                0x9d024004                GFXU_FontGetGlyphInfo

.text.laArray_Resize
                0x9d024098       0x94
 .text.laArray_Resize
                0x9d024098       0x94 build/default/production/_ext/493962524/libaria_array.o
                0x9d024098                laArray_Resize

.text.laArray_PushBack
                0x9d02412c       0x94
 .text.laArray_PushBack
                0x9d02412c       0x94 build/default/production/_ext/493962524/libaria_array.o
                0x9d02412c                laArray_PushBack

.text.laArray_Free
                0x9d0241c0       0x94
 .text.laArray_Free
                0x9d0241c0       0x94 build/default/production/_ext/493962524/libaria_array.o
                0x9d0241c0                laArray_Free

.text.laContext_SetActiveScreen
                0x9d024254       0x94
 .text.laContext_SetActiveScreen
                0x9d024254       0x94 build/default/production/_ext/493962524/libaria_context.o
                0x9d024254                laContext_SetActiveScreen

.text._laLayer_Moved
                0x9d0242e8       0x94
 .text._laLayer_Moved
                0x9d0242e8       0x94 build/default/production/_ext/493962524/libaria_layer.o
                0x9d0242e8                _laLayer_Moved

.text._laLayer_Resized
                0x9d02437c       0x94
 .text._laLayer_Resized
                0x9d02437c       0x94 build/default/production/_ext/493962524/libaria_layer.o
                0x9d02437c                _laLayer_Resized

.text.laList_PushBack
                0x9d024410       0x94
 .text.laList_PushBack
                0x9d024410       0x94 build/default/production/_ext/493962524/libaria_list.o
                0x9d024410                laList_PushBack

.text.laRectArray_Resize
                0x9d0244a4       0x94
 .text.laRectArray_Resize
                0x9d0244a4       0x94 build/default/production/_ext/493962524/libaria_rectarray.o
                0x9d0244a4                laRectArray_Resize

.text.laUtils_ClipRectToParent
                0x9d024538       0x94
 .text.laUtils_ClipRectToParent
                0x9d024538       0x94 build/default/production/_ext/493962524/libaria_utils.o
                0x9d024538                laUtils_ClipRectToParent

.text.laWidget_SkinClassic_FillRect
                0x9d0245cc       0x94
 .text.laWidget_SkinClassic_FillRect
                0x9d0245cc       0x94 build/default/production/_ext/493962524/libaria_widget_skin_classic_common.o
                0x9d0245cc                laWidget_SkinClassic_FillRect

.text.GFX_PixelBufferClipRect
                0x9d024660       0x94
 .text.GFX_PixelBufferClipRect
                0x9d024660       0x94 build/default/production/_ext/1026407831/gfx_pixel_buffer.o
                0x9d024660                GFX_PixelBufferClipRect

.text.LodePNGText_cleanup
                0x9d0246f4       0x90
 .text.LodePNGText_cleanup
                0x9d0246f4       0x90 build/default/production/_ext/1151653695/lodepng.o

.text.laContext_RedrawAll
                0x9d024784       0x90
 .text.laContext_RedrawAll
                0x9d024784       0x90 build/default/production/_ext/493962524/libaria_context.o
                0x9d024784                laContext_RedrawAll

.text.laContext_SetEditWidget
                0x9d024814       0x90
 .text.laContext_SetEditWidget
                0x9d024814       0x90 build/default/production/_ext/493962524/libaria_context.o
                0x9d024814                laContext_SetEditWidget

.text.laUtils_PickFromLayer
                0x9d0248a4       0x90
 .text.laUtils_PickFromLayer
                0x9d0248a4       0x90 build/default/production/_ext/493962524/libaria_utils.o
                0x9d0248a4                laUtils_PickFromLayer

.text.laWidget_DeleteAllDescendants
                0x9d024934       0x90
 .text.laWidget_DeleteAllDescendants
                0x9d024934       0x90 build/default/production/_ext/493962524/libaria_widget.o
                0x9d024934                laWidget_DeleteAllDescendants

.text.laWidget_SkinClassic_Draw1x2BeveledBorder
                0x9d0249c4       0x90
 .text.laWidget_SkinClassic_Draw1x2BeveledBorder
                0x9d0249c4       0x90 build/default/production/_ext/493962524/libaria_widget_skin_classic_common.o
                0x9d0249c4                laWidget_SkinClassic_Draw1x2BeveledBorder

.text._RegWrite16
                0x9d024a54       0x8c
 .text._RegWrite16
                0x9d024a54       0x8c build/default/production/_ext/1860398633/drv_mxt336t.o

.rodata         0x9d024ae0      0x118
 .rodata        0x9d024ae0       0x8c build/default/production/_ext/1572996423/gfxu_image_png_external.o
 .rodata        0x9d024b6c       0x8c build/default/production/_ext/1572996423/gfxu_image_png_internal.o

.text.lodepng_decode_memory
                0x9d024bf8       0x8c
 .text.lodepng_decode_memory
                0x9d024bf8       0x8c build/default/production/_ext/1151653695/lodepng.o
                0x9d024bf8                lodepng_decode_memory

.text.GFXU_StringLookup
                0x9d024c84       0x8c
 .text.GFXU_StringLookup
                0x9d024c84       0x8c build/default/production/_ext/1572996423/gfxu_string_utils.o
                0x9d024c84                GFXU_StringLookup

.text.laList_Destroy
                0x9d024d10       0x8c
 .text.laList_Destroy
                0x9d024d10       0x8c build/default/production/_ext/493962524/libaria_list.o
                0x9d024d10                laList_Destroy

.text.defLayerPositionSet
                0x9d024d9c       0x8c
 .text.defLayerPositionSet
                0x9d024d9c       0x8c build/default/production/_ext/1026407831/gfx_default_impl.o
                0x9d024d9c                defLayerPositionSet

.text.GFX_RectClip
                0x9d024e28       0x8c
 .text.GFX_RectClip
                0x9d024e28       0x8c build/default/production/_ext/1026407831/gfx_rect.o
                0x9d024e28                GFX_RectClip

.text._IntHandlerChangeNotification_PortB
                0x9d024eb4       0x8c
 .text._IntHandlerChangeNotification_PortB
                0x9d024eb4       0x8c build/default/production/_ext/1688732426/system_interrupt.o
                0x9d024eb4                _IntHandlerChangeNotification_PortB

.text._IntHandlerChangeNotification_PortF
                0x9d024f40       0x8c
 .text._IntHandlerChangeNotification_PortF
                0x9d024f40       0x8c build/default/production/_ext/1688732426/system_interrupt.o
                0x9d024f40                _IntHandlerChangeNotification_PortF

.text.lodepng_chunk_type_equals
                0x9d024fcc       0x88
 .text.lodepng_chunk_type_equals
                0x9d024fcc       0x88 build/default/production/_ext/1151653695/lodepng.o
                0x9d024fcc                lodepng_chunk_type_equals

.text.waitImage
                0x9d025054       0x88
 .text.waitImage
                0x9d025054       0x88 build/default/production/_ext/493962524/libaria_widget_image_skin_classic.o

.text.defDrawPaletteSet
                0x9d0250dc       0x88
 .text.defDrawPaletteSet
                0x9d0250dc       0x88 build/default/production/_ext/1026407831/gfx_default_impl.o
                0x9d0250dc                defDrawPaletteSet

.text.defGlobalAlphaBlend
                0x9d025164       0x88
 .text.defGlobalAlphaBlend
                0x9d025164       0x88 build/default/production/_ext/1026407831/gfx_default_impl.o
                0x9d025164                defGlobalAlphaBlend

.text.defPixelArrayGet
                0x9d0251ec       0x88
 .text.defPixelArrayGet
                0x9d0251ec       0x88 build/default/production/_ext/1026407831/gfx_default_impl.o
                0x9d0251ec                defPixelArrayGet

.text.JPEG_bGenerateHuffmanTables
                0x9d025274       0x84
 .text.JPEG_bGenerateHuffmanTables
                0x9d025274       0x84 build/default/production/_ext/1572996423/gfxu_image_jpg_common.o
                0x9d025274                JPEG_bGenerateHuffmanTables

.text.uivector_resize
                0x9d0252f8       0x84
 .text.uivector_resize
                0x9d0252f8       0x84 build/default/production/_ext/1151653695/lodepng.o

.text.string_set
                0x9d02537c       0x84
 .text.string_set
                0x9d02537c       0x84 build/default/production/_ext/1151653695/lodepng.o

.text.lodepng_info_init
                0x9d025400       0x84
 .text.lodepng_info_init
                0x9d025400       0x84 build/default/production/_ext/1151653695/lodepng.o
                0x9d025400                lodepng_info_init

.text.laButtonWidget_SetText
                0x9d025484       0x84
 .text.laButtonWidget_SetText
                0x9d025484       0x84 build/default/production/_ext/493962524/libaria_widget_button.o
                0x9d025484                laButtonWidget_SetText

.text.GFX_ReadPixelArray
                0x9d025508       0x84
 .text.GFX_ReadPixelArray
                0x9d025508       0x84 build/default/production/_ext/1026407831/gfx.o
                0x9d025508                GFX_ReadPixelArray

.text.GFX_PolarToXY
                0x9d02558c       0x84
 .text.GFX_PolarToXY
                0x9d02558c       0x84 build/default/production/_ext/1026407831/gfx_math.o
                0x9d02558c                GFX_PolarToXY

.text.SYS_INP_AddListener
                0x9d025610       0x84
 .text.SYS_INP_AddListener
                0x9d025610       0x84 build/default/production/_ext/1691207160/sys_input.o
                0x9d025610                SYS_INP_AddListener

.text           0x9d025694       0x84
 .text          0x9d025694       0x84 f:/software_installations/mplab_xc32/bin/bin/../../lib/gcc/pic32mx/4.8.3/../../../../pic32mx/lib\libpic32.a(pic32_data_init.o)
                0x9d025694                __pic32_data_init

.text.uivector_resizev
                0x9d025718       0x80
 .text.uivector_resizev
                0x9d025718       0x80 build/default/production/_ext/1151653695/lodepng.o

.text.generateFixedDistanceTree
                0x9d025798       0x80
 .text.generateFixedDistanceTree
                0x9d025798       0x80 build/default/production/_ext/1151653695/lodepng.o

.text._laLayer_Paint
                0x9d025818       0x80
 .text._laLayer_Paint
                0x9d025818       0x80 build/default/production/_ext/493962524/libaria_layer.o
                0x9d025818                _laLayer_Paint

.text.laUtils_WidgetLayerRect
                0x9d025898       0x80
 .text.laUtils_WidgetLayerRect
                0x9d025898       0x80 build/default/production/_ext/493962524/libaria_utils.o
                0x9d025898                laUtils_WidgetLayerRect

.text.laWidget_SkinClassic_DrawStandardLineBorder
                0x9d025918       0x80
 .text.laWidget_SkinClassic_DrawStandardLineBorder
                0x9d025918       0x80 build/default/production/_ext/493962524/libaria_widget_skin_classic_common.o
                0x9d025918                laWidget_SkinClassic_DrawStandardLineBorder

.text.layerBufferFree
                0x9d025998       0x80
 .text.layerBufferFree
                0x9d025998       0x80 build/default/production/_ext/1026407831/gfx_default_impl.o

.text.defLayerSwapSet
                0x9d025a18       0x80
 .text.defLayerSwapSet
                0x9d025a18       0x80 build/default/production/_ext/1026407831/gfx_default_impl.o
                0x9d025a18                defLayerSwapSet

.text.get_displayInfo
                0x9d025a98       0x80
 .text.get_displayInfo
                0x9d025a98       0x80 build/default/production/_ext/1026407831/gfx_get.o
                0x9d025a98                get_displayInfo

.text.lerp_rgb888
                0x9d025b18       0x80
 .text.lerp_rgb888
                0x9d025b18       0x80 build/default/production/_ext/1026407831/gfx_color_lerp.o

.text.lerp_rgb565
                0x9d025b98       0x80
 .text.lerp_rgb565
                0x9d025b98       0x80 build/default/production/_ext/1026407831/gfx_color_lerp.o

.text.lerp_rgb332
                0x9d025c18       0x80
 .text.lerp_rgb332
                0x9d025c18       0x80 build/default/production/_ext/1026407831/gfx_color_lerp.o

.text.rejectBlit
                0x9d025c98       0x80
 .text.rejectBlit
                0x9d025c98       0x80 build/default/production/_ext/1026407831/gfx_draw_blit.o

.text._fassert  0x9d025d18       0x80
 .text._fassert
                0x9d025d18       0x80 f:/software_installations/mplab_xc32/bin/bin/../../lib/gcc/pic32mx/4.8.3/../../../../pic32mx/lib\libc.a(fassert.o)
                0x9d025d18                _fassert

.text.readBitsFromReversedStream
                0x9d025d98       0x7c
 .text.readBitsFromReversedStream
                0x9d025d98       0x7c build/default/production/_ext/1151653695/lodepng.o

.text.laString_GetHeight
                0x9d025e14       0x7c
 .text.laString_GetHeight
                0x9d025e14       0x7c build/default/production/_ext/493962524/libaria_string.o
                0x9d025e14                laString_GetHeight

.text.laString_GetAscent
                0x9d025e90       0x7c
 .text.laString_GetAscent
                0x9d025e90       0x7c build/default/production/_ext/493962524/libaria_string.o
                0x9d025e90                laString_GetAscent

.text.laWidget_SkinClassic_DrawBackground
                0x9d025f0c       0x7c
 .text.laWidget_SkinClassic_DrawBackground
                0x9d025f0c       0x7c build/default/production/_ext/493962524/libaria_widget_skin_classic_common.o
                0x9d025f0c                laWidget_SkinClassic_DrawBackground

.text.laLabelWidget_SetText
                0x9d025f88       0x7c
 .text.laLabelWidget_SetText
                0x9d025f88       0x7c build/default/production/_ext/493962524/libaria_widget_label.o
                0x9d025f88                laLabelWidget_SetText

.text.GFX_LayerSwap
                0x9d026004       0x7c
 .text.GFX_LayerSwap
                0x9d026004       0x7c build/default/production/_ext/1026407831/gfx_layer.o
                0x9d026004                GFX_LayerSwap

.text.cpuDrawLine_Horz
                0x9d026080       0x7c
 .text.cpuDrawLine_Horz
                0x9d026080       0x7c build/default/production/_ext/1026407831/gfx_draw_line.o
                0x9d026080                cpuDrawLine_Horz

.text.cpuDrawLine_Vert
                0x9d0260fc       0x7c
 .text.cpuDrawLine_Vert
                0x9d0260fc       0x7c build/default/production/_ext/1026407831/gfx_draw_line.o
                0x9d0260fc                cpuDrawLine_Vert

.text.GFX_PercentOf
                0x9d026178       0x7c
 .text.GFX_PercentOf
                0x9d026178       0x7c build/default/production/_ext/1026407831/gfx_math.o
                0x9d026178                GFX_PercentOf

.text.fptoul    0x9d0261f4       0x7c
 .text.fptoul   0x9d0261f4       0x7c f:/software_installations/mplab_xc32/bin/bin/../../lib/gcc/pic32mx/4.8.3/../../../../pic32mx/lib\libm.a(fptoul.o)
                0x9d0261f4                fptoui
                0x9d0261f4                fptoul
                0x9d0261f4                __fixunssfsi

.text.huffmanDecodeSymbol
                0x9d026270       0x78
 .text.huffmanDecodeSymbol
                0x9d026270       0x78 build/default/production/_ext/1151653695/lodepng.o

.text.addColorBits
                0x9d0262e8       0x78
 .text.addColorBits
                0x9d0262e8       0x78 build/default/production/_ext/1151653695/lodepng.o

.text.paethPredictor
                0x9d026360       0x78
 .text.paethPredictor
                0x9d026360       0x78 build/default/production/_ext/1151653695/lodepng.o

.text.GFXU_StringIndexLookup
                0x9d0263d8       0x78
 .text.GFXU_StringIndexLookup
                0x9d0263d8       0x78 build/default/production/_ext/1572996423/gfxu_string_utils.o
                0x9d0263d8                GFXU_StringIndexLookup

.text.laArray_Find
                0x9d026450       0x78
 .text.laArray_Find
                0x9d026450       0x78 build/default/production/_ext/493962524/libaria_array.o
                0x9d026450                laArray_Find

.text._laLabelWidget_Constructor
                0x9d0264c8       0x78
 .text._laLabelWidget_Constructor
                0x9d0264c8       0x78 build/default/production/_ext/493962524/libaria_widget_label.o
                0x9d0264c8                _laLabelWidget_Constructor

.text.defAlphaChannelBlend
                0x9d026540       0x78
 .text.defAlphaChannelBlend
                0x9d026540       0x78 build/default/production/_ext/1026407831/gfx_default_impl.o
                0x9d026540                defAlphaChannelBlend

.rodata         0x9d0265b8       0x78
 .rodata        0x9d0265b8       0x78 build/default/production/_ext/1688732426/system_init.o
                0x9d0265b8                sysInputInit
                0x9d0265bc                sysDmaInit
                0x9d0265c0                drvMXT336TInitData
                0x9d0265dc                drvI2C0InitData

.text.ucvector_reserve
                0x9d026630       0x74
 .text.ucvector_reserve
                0x9d026630       0x74 build/default/production/_ext/1151653695/lodepng.o

.text.GFXU_StringFontIndexLookup
                0x9d0266a4       0x74
 .text.GFXU_StringFontIndexLookup
                0x9d0266a4       0x74 build/default/production/_ext/1572996423/gfxu_string_utils.o
                0x9d0266a4                GFXU_StringFontIndexLookup

.text._laContext_Update
                0x9d026718       0x74
 .text._laContext_Update
                0x9d026718       0x74 build/default/production/_ext/493962524/libaria_context.o
                0x9d026718                _laContext_Update

.text.laContext_SetFocusWidget
                0x9d02678c       0x74
 .text.laContext_SetFocusWidget
                0x9d02678c       0x74 build/default/production/_ext/493962524/libaria_context.o
                0x9d02678c                laContext_SetFocusWidget

.text.laLayer_SetBufferCount
                0x9d026800       0x74
 .text.laLayer_SetBufferCount
                0x9d026800       0x74 build/default/production/_ext/493962524/libaria_layer.o
                0x9d026800                laLayer_SetBufferCount

.text.laScreen_SetLayer
                0x9d026874       0x74
 .text.laScreen_SetLayer
                0x9d026874       0x74 build/default/production/_ext/493962524/libaria_screen.o
                0x9d026874                laScreen_SetLayer

.text.laUtils_ChildIntersectsParent
                0x9d0268e8       0x74
 .text.laUtils_ChildIntersectsParent
                0x9d0268e8       0x74 build/default/production/_ext/493962524/libaria_utils.o
                0x9d0268e8                laUtils_ChildIntersectsParent

.text.laUtils_GetNextHighestWidget
                0x9d02695c       0x74
 .text.laUtils_GetNextHighestWidget
                0x9d02695c       0x74 build/default/production/_ext/493962524/libaria_utils.o
                0x9d02695c                laUtils_GetNextHighestWidget

.text.laWidget_Invalidate
                0x9d0269d0       0x74
 .text.laWidget_Invalidate
                0x9d0269d0       0x74 build/default/production/_ext/493962524/libaria_widget.o
                0x9d0269d0                laWidget_Invalidate

.text.laWidget_SkinClassic_DrawStandardRaisedBorder
                0x9d026a44       0x74
 .text.laWidget_SkinClassic_DrawStandardRaisedBorder
                0x9d026a44       0x74 build/default/production/_ext/493962524/libaria_widget_skin_classic_common.o
                0x9d026a44                laWidget_SkinClassic_DrawStandardRaisedBorder

.text.drawBorder
                0x9d026ab8       0x74
 .text.drawBorder
                0x9d026ab8       0x74 build/default/production/_ext/493962524/libaria_widget_button_skin_classic.o

.text.drawBackground
                0x9d026b2c       0x74
 .text.drawBackground
                0x9d026b2c       0x74 build/default/production/_ext/493962524/libaria_widget_button_skin_classic.o

.text.laImageWidget_SetImage
                0x9d026ba0       0x74
 .text.laImageWidget_SetImage
                0x9d026ba0       0x74 build/default/production/_ext/493962524/libaria_widget_image.o
                0x9d026ba0                laImageWidget_SetImage

.text.GFX_RectContainsRect
                0x9d026c14       0x74
 .text.GFX_RectContainsRect
                0x9d026c14       0x74 build/default/production/_ext/1026407831/gfx_rect.o
                0x9d026c14                GFX_RectContainsRect

.text.GFX_RectIntersects
                0x9d026c88       0x74
 .text.GFX_RectIntersects
                0x9d026c88       0x74 build/default/production/_ext/1026407831/gfx_rect.o
                0x9d026c88                GFX_RectIntersects

.text.raise     0x9d026cfc       0x74
 .text.raise    0x9d026cfc       0x74 f:/software_installations/mplab_xc32/bin/bin/../../lib/gcc/pic32mx/4.8.3/../../../../pic32mx/lib\libc.a(signal.o)
                0x9d026cfc                raise

.text.laString_CreateFromID
                0x9d000110       0x70
 .text.laString_CreateFromID
                0x9d000110       0x70 build/default/production/_ext/493962524/libaria_string.o
                0x9d000110                laString_CreateFromID

.text.laWidget_SkinClassic_DrawStandardLoweredBorder
                0x9d000190       0x70
 .text.laWidget_SkinClassic_DrawStandardLoweredBorder
                0x9d000190       0x70 build/default/production/_ext/493962524/libaria_widget_skin_classic_common.o
                0x9d000190                laWidget_SkinClassic_DrawStandardLoweredBorder

.text.GFX_Set   0x9d026d70       0x70
 .text.GFX_Set  0x9d026d70       0x70 build/default/production/_ext/1026407831/gfx.o
                0x9d026d70                GFX_Set

.text.GFX_PixelBufferSet_Unsafe
                0x9d026de0       0x70
 .text.GFX_PixelBufferSet_Unsafe
                0x9d026de0       0x70 build/default/production/_ext/1026407831/gfx_pixel_buffer.o
                0x9d026de0                GFX_PixelBufferSet_Unsafe

.text.GFX_ScaleInteger
                0x9d026e50       0x70
 .text.GFX_ScaleInteger
                0x9d026e50       0x70 build/default/production/_ext/1026407831/gfx_math.o
                0x9d026e50                GFX_ScaleInteger

.rodata         0x9d026ec0       0x70
 .rodata        0x9d026ec0       0x70 f:/software_installations/mplab_xc32/bin/bin/../../lib/gcc/pic32mx/4.8.3/../../../../pic32mx/lib\libc.a(fassert.o)

.text.JPEG_wGetBits
                0x9d026f30       0x6c
 .text.JPEG_wGetBits
                0x9d026f30       0x6c build/default/production/_ext/1572996423/gfxu_image_jpg_common.o

.text._shuffleLeft
                0x9d026f9c       0x6c
 .text._shuffleLeft
                0x9d026f9c       0x6c build/default/production/_ext/493962524/libaria_array.o

.text.handleTouchUp
                0x9d027008       0x6c
 .text.handleTouchUp
                0x9d027008       0x6c build/default/production/_ext/493962524/libaria_input.o
                0x9d027008                handleTouchUp

.text.handleTouchMoved
                0x9d027074       0x6c
 .text.handleTouchMoved
                0x9d027074       0x6c build/default/production/_ext/493962524/libaria_input.o
                0x9d027074                handleTouchMoved

.text.laRectArray_RemoveAt
                0x9d0270e0       0x6c
 .text.laRectArray_RemoveAt
                0x9d0270e0       0x6c build/default/production/_ext/493962524/libaria_rectarray.o
                0x9d0270e0                laRectArray_RemoveAt

.text.laString_Destroy
                0x9d02714c       0x6c
 .text.laString_Destroy
                0x9d02714c       0x6c build/default/production/_ext/493962524/libaria_string.o
                0x9d02714c                laString_Destroy

.text.laUtils_GetLayer
                0x9d0271b8       0x6c
 .text.laUtils_GetLayer
                0x9d0271b8       0x6c build/default/production/_ext/493962524/libaria_utils.o
                0x9d0271b8                laUtils_GetLayer

.text.laWidget_SkinClassic_DrawLineBorder
                0x9d027224       0x6c
 .text.laWidget_SkinClassic_DrawLineBorder
                0x9d027224       0x6c build/default/production/_ext/493962524/libaria_widget_skin_classic_common.o
                0x9d027224                laWidget_SkinClassic_DrawLineBorder

.text.laWidget_SkinClassic_DrawStandardHybridBorder
                0x9d027290       0x6c
 .text.laWidget_SkinClassic_DrawStandardHybridBorder
                0x9d027290       0x6c build/default/production/_ext/493962524/libaria_widget_skin_classic_common.o
                0x9d027290                laWidget_SkinClassic_DrawStandardHybridBorder

.text.GFX_Lerp  0x9d0272fc       0x6c
 .text.GFX_Lerp
                0x9d0272fc       0x6c build/default/production/_ext/1026407831/gfx_math.o
                0x9d0272fc                GFX_Lerp

.text.SYS_DMA_Initialize
                0x9d027368       0x6c
 .text.SYS_DMA_Initialize
                0x9d027368       0x6c build/default/production/_ext/360842870/sys_dma.o
                0x9d027368                SYS_DMA_Initialize

.text._MXT336T_FindObject
                0x9d0273d4       0x68
 .text._MXT336T_FindObject
                0x9d0273d4       0x68 build/default/production/_ext/1860398633/drv_mxt336t.o

.text.JPEG_wReadWord
                0x9d02743c       0x68
 .text.JPEG_wReadWord
                0x9d02743c       0x68 build/default/production/_ext/1572996423/gfxu_image_jpg_common.o

.text.externalMemoryRead
                0x9d0274a4       0x68
 .text.externalMemoryRead
                0x9d0274a4       0x68 build/default/production/_ext/1572996423/gfxu_image_jpg_external.o

.text.setBitOfReversedStream
                0x9d02750c       0x68
 .text.setBitOfReversedStream
                0x9d02750c       0x68 build/default/production/_ext/1151653695/lodepng.o

.text.laArray_Remove
                0x9d027574       0x68
 .text.laArray_Remove
                0x9d027574       0x68 build/default/production/_ext/493962524/libaria_array.o
                0x9d027574                laArray_Remove

.text.laContext_GetScreenRect
                0x9d0275dc       0x68
 .text.laContext_GetScreenRect
                0x9d0275dc       0x68 build/default/production/_ext/493962524/libaria_context.o
                0x9d0275dc                laContext_GetScreenRect

.text.laRectArray_Destroy
                0x9d027644       0x68
 .text.laRectArray_Destroy
                0x9d027644       0x68 build/default/production/_ext/493962524/libaria_rectarray.o
                0x9d027644                laRectArray_Destroy

.text.waitString
                0x9d0276ac       0x68
 .text.waitString
                0x9d0276ac       0x68 build/default/production/_ext/493962524/libaria_widget_button_skin_classic.o

.text.waitImage
                0x9d027714       0x68
 .text.waitImage
                0x9d027714       0x68 build/default/production/_ext/493962524/libaria_widget_button_skin_classic.o

.text._laImageWidget_Constructor
                0x9d02777c       0x68
 .text._laImageWidget_Constructor
                0x9d02777c       0x68 build/default/production/_ext/493962524/libaria_widget_image.o
                0x9d02777c                _laImageWidget_Constructor

.text.waitString
                0x9d0277e4       0x68
 .text.waitString
                0x9d0277e4       0x68 build/default/production/_ext/493962524/libaria_widget_label_skin_classic.o

.text.defDrawGradientColorGet
                0x9d02784c       0x68
 .text.defDrawGradientColorGet
                0x9d02784c       0x68 build/default/production/_ext/1026407831/gfx_default_impl.o
                0x9d02784c                defDrawGradientColorGet

.text.defLayerSizeGet
                0x9d0278b4       0x68
 .text.defLayerSizeGet
                0x9d0278b4       0x68 build/default/production/_ext/1026407831/gfx_default_impl.o
                0x9d0278b4                defLayerSizeGet

.text.defLayerSizeSet
                0x9d02791c       0x68
 .text.defLayerSizeSet
                0x9d02791c       0x68 build/default/production/_ext/1026407831/gfx_default_impl.o
                0x9d02791c                defLayerSizeSet

.text._GFX_LayerSizeSet
                0x9d027984       0x68
 .text._GFX_LayerSizeSet
                0x9d027984       0x68 build/default/production/_ext/1026407831/gfx_layer.o
                0x9d027984                _GFX_LayerSizeSet

.text.GFX_PixelBufferSet
                0x9d0279ec       0x68
 .text.GFX_PixelBufferSet
                0x9d0279ec       0x68 build/default/production/_ext/1026407831/gfx_pixel_buffer.o
                0x9d0279ec                GFX_PixelBufferSet

.text.getNumColorChannels
                0x9d027a54       0x64
 .text.getNumColorChannels
                0x9d027a54       0x64 build/default/production/_ext/1151653695/lodepng.o

.text._laInput_HandleInputEvent
                0x9d027ab8       0x64
 .text._laInput_HandleInputEvent
                0x9d027ab8       0x64 build/default/production/_ext/493962524/libaria_input.o
                0x9d027ab8                _laInput_HandleInputEvent

.text.isAncestorOf
                0x9d027b1c       0x64
 .text.isAncestorOf
                0x9d027b1c       0x64 build/default/production/_ext/493962524/libaria_widget.o

.text.laWidget_RemoveChild
                0x9d027b80       0x64
 .text.laWidget_RemoveChild
                0x9d027b80       0x64 build/default/production/_ext/493962524/libaria_widget.o
                0x9d027b80                laWidget_RemoveChild

.text.defLayerActiveSet
                0x9d027be4       0x64
 .text.defLayerActiveSet
                0x9d027be4       0x64 build/default/production/_ext/1026407831/gfx_default_impl.o
                0x9d027be4                defLayerActiveSet

.text.defDrawMaskEnableSet
                0x9d027c48       0x64
 .text.defDrawMaskEnableSet
                0x9d027c48       0x64 build/default/production/_ext/1026407831/gfx_default_impl.o
                0x9d027c48                defDrawMaskEnableSet

.text.rgb565_gs8
                0x9d027cac       0x64
 .text.rgb565_gs8
                0x9d027cac       0x64 build/default/production/_ext/1026407831/gfx_color_convert.o

.text.rgb332_gs8
                0x9d027d10       0x64
 .text.rgb332_gs8
                0x9d027d10       0x64 build/default/production/_ext/1026407831/gfx_color_convert.o

.text.JPEG_sGetBitsValue
                0x9d027d74       0x60
 .text.JPEG_sGetBitsValue
                0x9d027d74       0x60 build/default/production/_ext/1572996423/gfxu_image_jpg_common.o

.text.color_tree_cleanup
                0x9d027dd4       0x60
 .text.color_tree_cleanup
                0x9d027dd4       0x60 build/default/production/_ext/1151653695/lodepng.o

.text.GFXU_GetStringHeight
                0x9d027e34       0x60
 .text.GFXU_GetStringHeight
                0x9d027e34       0x60 build/default/production/_ext/1572996423/gfxu_string_query.o
                0x9d027e34                GFXU_GetStringHeight

.text.GFXU_GetStringAscent
                0x9d027e94       0x60
 .text.GFXU_GetStringAscent
                0x9d027e94       0x60 build/default/production/_ext/1572996423/gfxu_string_query.o
                0x9d027e94                GFXU_GetStringAscent

.text.laLayer_Delete
                0x9d027ef4       0x60
 .text.laLayer_Delete
                0x9d027ef4       0x60 build/default/production/_ext/493962524/libaria_layer.o
                0x9d027ef4                laLayer_Delete

.text._laWidget_ValidateChildren
                0x9d027f54       0x60
 .text._laWidget_ValidateChildren
                0x9d027f54       0x60 build/default/production/_ext/493962524/libaria_widget.o
                0x9d027f54                _laWidget_ValidateChildren

.text.GFX_PixelBufferOffsetGet
                0x9d027fb4       0x60
 .text.GFX_PixelBufferOffsetGet
                0x9d027fb4       0x60 build/default/production/_ext/1026407831/gfx_pixel_buffer.o
                0x9d027fb4                GFX_PixelBufferOffsetGet

.text.GFX_RectFromPoints
                0x9d028014       0x60
 .text.GFX_RectFromPoints
                0x9d028014       0x60 build/default/production/_ext/1026407831/gfx_rect.o
                0x9d028014                GFX_RectFromPoints

.text.lut_argb8888
                0x9d028074       0x60
 .text.lut_argb8888
                0x9d028074       0x60 build/default/production/_ext/1026407831/gfx_color_convert.o

.text.lut_rgba8888
                0x9d0280d4       0x60
 .text.lut_rgba8888
                0x9d0280d4       0x60 build/default/production/_ext/1026407831/gfx_color_convert.o

.text.lut_rgb888
                0x9d028134       0x60
 .text.lut_rgb888
                0x9d028134       0x60 build/default/production/_ext/1026407831/gfx_color_convert.o

.text.lut_rgba5551
                0x9d028194       0x60
 .text.lut_rgba5551
                0x9d028194       0x60 build/default/production/_ext/1026407831/gfx_color_convert.o

.text.lut_rgb565
                0x9d0281f4       0x60
 .text.lut_rgb565
                0x9d0281f4       0x60 build/default/production/_ext/1026407831/gfx_color_convert.o

.text.lut_rgb332
                0x9d028254       0x60
 .text.lut_rgb332
                0x9d028254       0x60 build/default/production/_ext/1026407831/gfx_color_convert.o

.text.lut_gs8   0x9d0282b4       0x60
 .text.lut_gs8  0x9d0282b4       0x60 build/default/production/_ext/1026407831/gfx_color_convert.o

.text.sitofp    0x9d028314       0x60
 .text.sitofp   0x9d028314       0x60 f:/software_installations/mplab_xc32/bin/bin/../../lib/gcc/pic32mx/4.8.3/../../../../pic32mx/lib\libm.a(sitofp.o)
                0x9d028314                __floatsisf
                0x9d028314                litofp
                0x9d028314                sitofp

.text.lodepng_chunk_check_crc
                0x9d028374       0x5c
 .text.lodepng_chunk_check_crc
                0x9d028374       0x5c build/default/production/_ext/1151653695/lodepng.o
                0x9d028374                lodepng_chunk_check_crc

.text.done      0x9d0283d0       0xb8
 .text.done     0x9d0283d0       0x5c build/default/production/_ext/1572996423/gfxu_string_external.o
 .text.done     0x9d02842c       0x5c build/default/production/_ext/1572996423/gfxu_stringbuffer_external.o

.text.laUtils_RectToLayerSpace
                0x9d028488       0x5c
 .text.laUtils_RectToLayerSpace
                0x9d028488       0x5c build/default/production/_ext/493962524/libaria_utils.o
                0x9d028488                laUtils_RectToLayerSpace

.text.drawBorder
                0x9d0284e4       0x5c
 .text.drawBorder
                0x9d0284e4       0x5c build/default/production/_ext/493962524/libaria_widget_skin_classic.o

.text.defDrawGradientColorSet
                0x9d028540       0x5c
 .text.defDrawGradientColorSet
                0x9d028540       0x5c build/default/production/_ext/1026407831/gfx_default_impl.o
                0x9d028540                defDrawGradientColorSet

.text.defLayerPositionGet
                0x9d02859c       0x5c
 .text.defLayerPositionGet
                0x9d02859c       0x5c build/default/production/_ext/1026407831/gfx_default_impl.o
                0x9d02859c                defLayerPositionGet

.text.indexGet  0x9d0285f8       0x5c
 .text.indexGet
                0x9d0285f8       0x5c build/default/production/_ext/1026407831/gfx_pixel_buffer.o

.text.GFX_PixelBufferDestroy
                0x9d028654       0x5c
 .text.GFX_PixelBufferDestroy
                0x9d028654       0x5c build/default/production/_ext/1026407831/gfx_pixel_buffer.o
                0x9d028654                GFX_PixelBufferDestroy

.text.pointRelPositionFromLine
                0x9d0286b0       0x5c
 .text.pointRelPositionFromLine
                0x9d0286b0       0x5c build/default/production/_ext/1026407831/gfx_draw_arc.o
                0x9d0286b0                pointRelPositionFromLine

.text.SYS_DMA_ChannelAllocate
                0x9d02870c       0x5c
 .text.SYS_DMA_ChannelAllocate
                0x9d02870c       0x5c build/default/production/_ext/360842870/sys_dma.o
                0x9d02870c                SYS_DMA_ChannelAllocate

.text.createDefaultMemIntf
                0x9d028768       0x58
 .text.createDefaultMemIntf
                0x9d028768       0x58 build/default/production/_ext/1572996423/gfxu_image_utils.o
                0x9d028768                createDefaultMemIntf

.text._laLayer_NeedsDraw
                0x9d0287c0       0x58
 .text._laLayer_NeedsDraw
                0x9d0287c0       0x58 build/default/production/_ext/493962524/libaria_layer.o
                0x9d0287c0                _laLayer_NeedsDraw

.text.laImageWidget_New
                0x9d028818       0x58
 .text.laImageWidget_New
                0x9d028818       0x58 build/default/production/_ext/493962524/libaria_widget_image.o
                0x9d028818                laImageWidget_New

.text.drawBorder
                0x9d028870       0xb0
 .text.drawBorder
                0x9d028870       0x58 build/default/production/_ext/493962524/libaria_widget_image_skin_classic.o
 .text.drawBorder
                0x9d0288c8       0x58 build/default/production/_ext/493962524/libaria_widget_label_skin_classic.o

.text.GFX_ColorModeInfoGet
                0x9d028920       0x58
 .text.GFX_ColorModeInfoGet
                0x9d028920       0x58 build/default/production/_ext/1026407831/gfx_color.o
                0x9d028920                GFX_ColorModeInfoGet

.text.defDrawPipelineModeSet
                0x9d028978       0x58
 .text.defDrawPipelineModeSet
                0x9d028978       0x58 build/default/production/_ext/1026407831/gfx_default_impl.o
                0x9d028978                defDrawPipelineModeSet

.text.defDrawPaletteGet
                0x9d0289d0       0x58
 .text.defDrawPaletteGet
                0x9d0289d0       0x58 build/default/production/_ext/1026407831/gfx_default_impl.o
                0x9d0289d0                defDrawPaletteGet

.text.GFX_PixelBufferGetIndex
                0x9d028a28       0x58
 .text.GFX_PixelBufferGetIndex
                0x9d028a28       0x58 build/default/production/_ext/1026407831/gfx_pixel_buffer.o
                0x9d028a28                GFX_PixelBufferGetIndex

.text.GFX_ColorLerp
                0x9d028a80       0x58
 .text.GFX_ColorLerp
                0x9d028a80       0x58 build/default/production/_ext/1026407831/gfx_color_lerp.o
                0x9d028a80                GFX_ColorLerp

.text.GFX_PercentWholeRounded
                0x9d028ad8       0x58
 .text.GFX_PercentWholeRounded
                0x9d028ad8       0x58 build/default/production/_ext/1026407831/gfx_math.o
                0x9d028ad8                GFX_PercentWholeRounded

.text.LibAria_Tasks
                0x9d028b30       0x58
 .text.LibAria_Tasks
                0x9d028b30       0x58 build/default/production/_ext/458109090/libaria_harmony.o
                0x9d028b30                LibAria_Tasks

.text.SYS_DEVCON_SystemUnlock
                0x9d028b88       0x58
 .text.SYS_DEVCON_SystemUnlock
                0x9d028b88       0x58 build/default/production/_ext/340578644/sys_devcon.o
                0x9d028b88                SYS_DEVCON_SystemUnlock

.text.main_entry
                0x9d028be0       0x54
 .text.main_entry
                0x9d028be0       0x54 f:/software_installations/mplab_xc32/bin/bin/../../lib/gcc/pic32mx/4.8.3/../../../../pic32mx/lib/./proc/32MZ2064DAG176/crt0_mips32r2.o
                0x9d028c14                __crt0_exit

.text.ucvector_push_back
                0x9d028c34       0x54
 .text.ucvector_push_back
                0x9d028c34       0x54 build/default/production/_ext/1151653695/lodepng.o

.text.lodepng_crc32
                0x9d028c88       0x54
 .text.lodepng_crc32
                0x9d028c88       0x54 build/default/production/_ext/1151653695/lodepng.o
                0x9d028c88                lodepng_crc32

.text.lodepng_get_raw_size_idat
                0x9d028cdc       0x54
 .text.lodepng_get_raw_size_idat
                0x9d028cdc       0x54 build/default/production/_ext/1151653695/lodepng.o

.text.lodepng_get_raw_size
                0x9d028d30       0x54
 .text.lodepng_get_raw_size
                0x9d028d30       0x54 build/default/production/_ext/1151653695/lodepng.o
                0x9d028d30                lodepng_get_raw_size

.text._laLayer_Postframe
                0x9d028d84       0x54
 .text._laLayer_Postframe
                0x9d028d84       0x54 build/default/production/_ext/493962524/libaria_layer.o
                0x9d028d84                _laLayer_Postframe

.text.laWidget_GetCumulativeAlphaEnable
                0x9d028dd8       0x54
 .text.laWidget_GetCumulativeAlphaEnable
                0x9d028dd8       0x54 build/default/production/_ext/493962524/libaria_widget.o
                0x9d028dd8                laWidget_GetCumulativeAlphaEnable

.text.laWidget_SkinClassic_DrawRoundCornerBackground
                0x9d028e2c       0x54
 .text.laWidget_SkinClassic_DrawRoundCornerBackground
                0x9d028e2c       0x54 build/default/production/_ext/493962524/libaria_widget_skin_classic_common.o
                0x9d028e2c                laWidget_SkinClassic_DrawRoundCornerBackground

.text.laWidget_SkinClassic_DrawStandardBackground
                0x9d028e80       0x54
 .text.laWidget_SkinClassic_DrawStandardBackground
                0x9d028e80       0x54 build/default/production/_ext/493962524/libaria_widget_skin_classic_common.o
                0x9d028e80                laWidget_SkinClassic_DrawStandardBackground

.text._laButtonWidget_Destructor
                0x9d028ed4       0x54
 .text._laButtonWidget_Destructor
                0x9d028ed4       0x54 build/default/production/_ext/493962524/libaria_widget_button.o
                0x9d028ed4                _laButtonWidget_Destructor

.text._laLabelWidget_Destructor
                0x9d028f28       0x54
 .text._laLabelWidget_Destructor
                0x9d028f28       0x54 build/default/production/_ext/493962524/libaria_widget_label.o
                0x9d028f28                _laLabelWidget_Destructor

.text.GFX_Get   0x9d028f7c       0x54
 .text.GFX_Get  0x9d028f7c       0x54 build/default/production/_ext/1026407831/gfx.o
                0x9d028f7c                GFX_Get

.text.GFX_PixelBufferGet_Unsafe
                0x9d028fd0       0x54
 .text.GFX_PixelBufferGet_Unsafe
                0x9d028fd0       0x54 build/default/production/_ext/1026407831/gfx_pixel_buffer.o
                0x9d028fd0                GFX_PixelBufferGet_Unsafe

.text.SYS_INT_SourceDisable
                0x9d029024       0x54
 .text.SYS_INT_SourceDisable
                0x9d029024       0x54 build/default/production/_ext/549570029/sys_int_pic32.o
                0x9d029024                SYS_INT_SourceDisable

.text.libaria_initialize
                0x9d029078       0x54
 .text.libaria_initialize
                0x9d029078       0x54 build/default/production/_ext/458109090/libaria_init.o
                0x9d029078                libaria_initialize

.text.lodepng_info_cleanup
                0x9d0290cc       0x50
 .text.lodepng_info_cleanup
                0x9d0290cc       0x50 build/default/production/_ext/1151653695/lodepng.o
                0x9d0290cc                lodepng_info_cleanup

.text._laLayer_Reset
                0x9d02911c       0x50
 .text._laLayer_Reset
                0x9d02911c       0x50 build/default/production/_ext/493962524/libaria_layer.o
                0x9d02911c                _laLayer_Reset

.text.laButtonWidget_New
                0x9d02916c       0x50
 .text.laButtonWidget_New
                0x9d02916c       0x50 build/default/production/_ext/493962524/libaria_widget_button.o
                0x9d02916c                laButtonWidget_New

.text.laLabelWidget_New
                0x9d0291bc       0x50
 .text.laLabelWidget_New
                0x9d0291bc       0x50 build/default/production/_ext/493962524/libaria_widget_label.o
                0x9d0291bc                laLabelWidget_New

.text.GFX_PixelBufferGet
                0x9d02920c       0x50
 .text.GFX_PixelBufferGet
                0x9d02920c       0x50 build/default/production/_ext/1026407831/gfx_pixel_buffer.o
                0x9d02920c                GFX_PixelBufferGet

.text.GFX_RectContainsPoint
                0x9d02925c       0x50
 .text.GFX_RectContainsPoint
                0x9d02925c       0x50 build/default/production/_ext/1026407831/gfx_rect.o
                0x9d02925c                GFX_RectContainsPoint

.text.sbrk      0x9d0292ac       0x50
 .text.sbrk     0x9d0292ac       0x50 f:/software_installations/mplab_xc32/bin/bin/../../lib/gcc/pic32mx/4.8.3/../../../../pic32mx/lib\libpic32.a(sbrk.o)
                0x9d0292ac                sbrk

.rodata         0x9d0292fc       0x4c
 .rodata        0x9d0292fc       0x4c build/default/production/_ext/1572996423/gfxu_image_jpg_common.o

.text.readBitsFromStream
                0x9d029348       0x4c
 .text.readBitsFromStream
                0x9d029348       0x4c build/default/production/_ext/1151653695/lodepng.o

.text.laWidget_SetBorderType
                0x9d029394       0x4c
 .text.laWidget_SetBorderType
                0x9d029394       0x4c build/default/production/_ext/493962524/libaria_widget.o
                0x9d029394                laWidget_SetBorderType

.text._laWidget_Paint
                0x9d0293e0       0x4c
 .text._laWidget_Paint
                0x9d0293e0       0x4c build/default/production/_ext/493962524/libaria_widget_skin_classic.o
                0x9d0293e0                _laWidget_Paint

.text.defLayerBufferCoherentSet
                0x9d02942c       0x4c
 .text.defLayerBufferCoherentSet
                0x9d02942c       0x4c build/default/production/_ext/1026407831/gfx_default_impl.o
                0x9d02942c                defLayerBufferCoherentSet

.text           0x9d029478       0x4c
 .text          0x9d029478       0x4c f:/software_installations/mplab_xc32/bin/bin/../../lib/gcc/pic32mx/4.8.3\libgcc.a(floatunsisf.o)
                0x9d029478                __floatunsisf

.text.calloc    0x9d0294c4       0x4c
 .text.calloc   0x9d0294c4       0x4c f:/software_installations/mplab_xc32/bin/bin/../../lib/gcc/pic32mx/4.8.3/../../../../pic32mx/lib\libc.a(calloc.o)
                0x9d0294c4                calloc

.text.GFXU_GetStringSizeInBytes
                0x9d029510       0x48
 .text.GFXU_GetStringSizeInBytes
                0x9d029510       0x48 build/default/production/_ext/1572996423/gfxu_string_query.o
                0x9d029510                GFXU_GetStringSizeInBytes

.text.laContext_AddScreen
                0x9d029558       0x48
 .text.laContext_AddScreen
                0x9d029558       0x48 build/default/production/_ext/493962524/libaria_context.o
                0x9d029558                laContext_AddScreen

.text.laEvent_AddEvent
                0x9d0295a0       0x48
 .text.laEvent_AddEvent
                0x9d0295a0       0x48 build/default/production/_ext/493962524/libaria_event.o
                0x9d0295a0                laEvent_AddEvent

.text.la_strcpy
                0x9d0295e8       0x48
 .text.la_strcpy
                0x9d0295e8       0x48 build/default/production/_ext/493962524/libaria_string.o

.text._laImageWidget_Destructor
                0x9d029630       0x48
 .text._laImageWidget_Destructor
                0x9d029630       0x48 build/default/production/_ext/493962524/libaria_widget_image.o
                0x9d029630                _laImageWidget_Destructor

.text.defDrawTargetSet
                0x9d029678       0x48
 .text.defDrawTargetSet
                0x9d029678       0x48 build/default/production/_ext/1026407831/gfx_default_impl.o
                0x9d029678                defDrawTargetSet

.text.defDrawClipRectGet
                0x9d0296c0       0x48
 .text.defDrawClipRectGet
                0x9d0296c0       0x48 build/default/production/_ext/1026407831/gfx_default_impl.o
                0x9d0296c0                defDrawClipRectGet

.text.defDrawClipRectSet
                0x9d029708       0x48
 .text.defDrawClipRectSet
                0x9d029708       0x48 build/default/production/_ext/1026407831/gfx_default_impl.o
                0x9d029708                defDrawClipRectSet

.text.GFX_RectCompare
                0x9d029750       0x48
 .text.GFX_RectCompare
                0x9d029750       0x48 build/default/production/_ext/1026407831/gfx_rect.o
                0x9d029750                GFX_RectCompare

.text.SYS_INP_InjectTouchDown
                0x9d029798       0x48
 .text.SYS_INP_InjectTouchDown
                0x9d029798       0x48 build/default/production/_ext/1691207160/sys_input.o
                0x9d029798                SYS_INP_InjectTouchDown

.text.SYS_INP_InjectTouchUp
                0x9d0297e0       0x48
 .text.SYS_INP_InjectTouchUp
                0x9d0297e0       0x48 build/default/production/_ext/1691207160/sys_input.o
                0x9d0297e0                SYS_INP_InjectTouchUp

.text.SYS_INP_InjectTouchMove
                0x9d029828       0x48
 .text.SYS_INP_InjectTouchMove
                0x9d029828       0x48 build/default/production/_ext/1691207160/sys_input.o
                0x9d029828                SYS_INP_InjectTouchMove

.text.driverLCCInfoGet
                0x9d029870       0x48
 .text.driverLCCInfoGet
                0x9d029870       0x48 build/default/production/_ext/1988394548/drv_gfx_lcc_generic.o
                0x9d029870                driverLCCInfoGet

.text.SYS_DEVCON_SystemLock
                0x9d0298b8       0x48
 .text.SYS_DEVCON_SystemLock
                0x9d0298b8       0x48 build/default/production/_ext/340578644/sys_devcon.o
                0x9d0298b8                SYS_DEVCON_SystemLock

.text._bootstrap_exception_handler
                0x9d029900       0x48
 .text._bootstrap_exception_handler
                0x9d029900       0x48 f:/software_installations/mplab_xc32/bin/bin/../../lib/gcc/pic32mx/4.8.3/../../../../pic32mx/lib\libpic32.a(default-bootstrap-exception-handler.o)
                0x9d029900                _bootstrap_exception_handler

.text._cache_err_exception_handler
                0x9d029948       0x48
 .text._cache_err_exception_handler
                0x9d029948       0x48 f:/software_installations/mplab_xc32/bin/bin/../../lib/gcc/pic32mx/4.8.3/../../../../pic32mx/lib\libpic32.a(default-cache-err-exception-handler.o)
                0x9d029948                _cache_err_exception_handler

.text._simple_tlb_refill_exception_handler
                0x9d029990       0x48
 .text._simple_tlb_refill_exception_handler
                0x9d029990       0x48 f:/software_installations/mplab_xc32/bin/bin/../../lib/gcc/pic32mx/4.8.3/../../../../pic32mx/lib\libpic32.a(default-simple-tlb-refill-exception-handler.o)
                0x9d029990                _simple_tlb_refill_exception_handler

.text.lodepng_encoder_settings_init
                0x9d0299d8       0x44
 .text.lodepng_encoder_settings_init
                0x9d0299d8       0x44 build/default/production/_ext/1151653695/lodepng.o
                0x9d0299d8                lodepng_encoder_settings_init

.text.lodepng_state_init
                0x9d029a1c       0x44
 .text.lodepng_state_init
                0x9d029a1c       0x44 build/default/production/_ext/1151653695/lodepng.o
                0x9d029a1c                lodepng_state_init

.text.GFXU_DrawGlyphRow
                0x9d029a60       0x44
 .text.GFXU_DrawGlyphRow
                0x9d029a60       0x44 build/default/production/_ext/1572996423/gfxu_string_utils.o
                0x9d029a60                GFXU_DrawGlyphRow

.text.invalidateImageRect
                0x9d029aa4       0x44
 .text.invalidateImageRect
                0x9d029aa4       0x44 build/default/production/_ext/493962524/libaria_widget_image.o

.text.invalidateTextRect
                0x9d029ae8       0x44
 .text.invalidateTextRect
                0x9d029ae8       0x44 build/default/production/_ext/493962524/libaria_widget_label.o

.text.defBegin  0x9d029b2c       0x44
 .text.defBegin
                0x9d029b2c       0x44 build/default/production/_ext/1026407831/gfx_default_impl.o
                0x9d029b2c                defBegin

.text.defLayerBufferIsAllocated
                0x9d029b70       0x44
 .text.defLayerBufferIsAllocated
                0x9d029b70       0x44 build/default/production/_ext/1026407831/gfx_default_impl.o
                0x9d029b70                defLayerBufferIsAllocated

.text.get_layerBufferAddress
                0x9d029bb4       0x44
 .text.get_layerBufferAddress
                0x9d029bb4       0x44 build/default/production/_ext/1026407831/gfx_get.o
                0x9d029bb4                get_layerBufferAddress

.text.get_layerBufferCoherent
                0x9d029bf8       0x44
 .text.get_layerBufferCoherent
                0x9d029bf8       0x44 build/default/production/_ext/1026407831/gfx_get.o
                0x9d029bf8                get_layerBufferCoherent

.text.get_layerBufferAllocated
                0x9d029c3c       0x44
 .text.get_layerBufferAllocated
                0x9d029c3c       0x44 build/default/production/_ext/1026407831/gfx_get.o
                0x9d029c3c                get_layerBufferAllocated

.text.SYS_INP_Init
                0x9d029c80       0x44
 .text.SYS_INP_Init
                0x9d029c80       0x44 build/default/production/_ext/1691207160/sys_input.o
                0x9d029c80                SYS_INP_Init

.text.lccDestroy
                0x9d029cc4       0x44
 .text.lccDestroy
                0x9d029cc4       0x44 build/default/production/_ext/1988394548/drv_gfx_lcc_generic.o

.text           0x9d029d08       0x44
 .text          0x9d029d08       0x44 f:/software_installations/mplab_xc32/bin/bin/../../lib/gcc/pic32mx/4.8.3/../../../../pic32mx/lib\pic32_software_reset.o
                0x9d029d08                __pic32_software_reset

.text.internalMemoryRead
                0x9d029d4c       0x40
 .text.internalMemoryRead
                0x9d029d4c       0x40 build/default/production/_ext/1572996423/gfxu_image_jpg_internal.o

.text.lodepng_realloc
                0x9d029d8c       0x40
 .text.lodepng_realloc
                0x9d029d8c       0x40 build/default/production/_ext/1572996423/gfxu_image_png_internal.o
                0x9d029d8c                lodepng_realloc

.text.ucvector_resize
                0x9d029dcc       0x40
 .text.ucvector_resize
                0x9d029dcc       0x40 build/default/production/_ext/1151653695/lodepng.o

.text.string_init
                0x9d029e0c       0x40
 .text.string_init
                0x9d029e0c       0x40 build/default/production/_ext/1151653695/lodepng.o

.text.laContext_Update
                0x9d029e4c       0x40
 .text.laContext_Update
                0x9d029e4c       0x40 build/default/production/_ext/493962524/libaria_context.o
                0x9d029e4c                laContext_Update

.text.laWidget_GetIndexOfChild
                0x9d029e8c       0x40
 .text.laWidget_GetIndexOfChild
                0x9d029e8c       0x40 build/default/production/_ext/493962524/libaria_widget.o
                0x9d029e8c                laWidget_GetIndexOfChild

.text.defBrightnessSet
                0x9d029ecc       0x40
 .text.defBrightnessSet
                0x9d029ecc       0x40 build/default/production/_ext/1026407831/gfx_default_impl.o
                0x9d029ecc                defBrightnessSet

.text.get_drawGradientColor
                0x9d029f0c       0x40
 .text.get_drawGradientColor
                0x9d029f0c       0x40 build/default/production/_ext/1026407831/gfx_get.o
                0x9d029f0c                get_drawGradientColor

.text.rgba5551_rgba8888
                0x9d029f4c       0x40
 .text.rgba5551_rgba8888
                0x9d029f4c       0x40 build/default/production/_ext/1026407831/gfx_color_convert.o

.text.rgba5551_argb8888
                0x9d029f8c       0x40
 .text.rgba5551_argb8888
                0x9d029f8c       0x40 build/default/production/_ext/1026407831/gfx_color_convert.o

.text.GFX_ColorConvert
                0x9d029fcc       0x40
 .text.GFX_ColorConvert
                0x9d029fcc       0x40 build/default/production/_ext/1026407831/gfx_color_convert.o
                0x9d029fcc                GFX_ColorConvert

.text.SYS_Tasks
                0x9d02a00c       0x40
 .text.SYS_Tasks
                0x9d02a00c       0x40 build/default/production/_ext/1688732426/system_tasks.o
                0x9d02a00c                SYS_Tasks

.text._DRV_I2C_IsQueueEmpty
                0x9d02a04c       0x3c
 .text._DRV_I2C_IsQueueEmpty
                0x9d02a04c       0x3c build/default/production/_ext/1864665665/drv_i2c_bb_a.o
                0x9d02a04c                _DRV_I2C_IsQueueEmpty

.text.zlib_decompress
                0x9d02a088       0x3c
 .text.zlib_decompress
                0x9d02a088       0x3c build/default/production/_ext/1151653695/lodepng.o

.text.lodepng_compress_settings_init
                0x9d02a0c4       0x3c
 .text.lodepng_compress_settings_init
                0x9d02a0c4       0x3c build/default/production/_ext/1151653695/lodepng.o
                0x9d02a0c4                lodepng_compress_settings_init

.text.lodepng_palette_clear
                0x9d02a100       0x3c
 .text.lodepng_palette_clear
                0x9d02a100       0x3c build/default/production/_ext/1151653695/lodepng.o
                0x9d02a100                lodepng_palette_clear

.text.laContext_GetActiveScreenIndex
                0x9d02a13c       0x3c
 .text.laContext_GetActiveScreenIndex
                0x9d02a13c       0x3c build/default/production/_ext/493962524/libaria_context.o
                0x9d02a13c                laContext_GetActiveScreenIndex

.text.defVSyncCallbackSet
                0x9d02a178       0x3c
 .text.defVSyncCallbackSet
                0x9d02a178       0x3c build/default/production/_ext/1026407831/gfx_default_impl.o
                0x9d02a178                defVSyncCallbackSet

.text.defHSyncCallbackSet
                0x9d02a1b4       0x3c
 .text.defHSyncCallbackSet
                0x9d02a1b4       0x3c build/default/production/_ext/1026407831/gfx_default_impl.o
                0x9d02a1b4                defHSyncCallbackSet

.text.defLayerBufferAddressGet
                0x9d02a1f0       0x3c
 .text.defLayerBufferAddressGet
                0x9d02a1f0       0x3c build/default/production/_ext/1026407831/gfx_default_impl.o
                0x9d02a1f0                defLayerBufferAddressGet

.text.defLayerBufferCoherentGet
                0x9d02a22c       0x3c
 .text.defLayerBufferCoherentGet
                0x9d02a22c       0x3c build/default/production/_ext/1026407831/gfx_default_impl.o
                0x9d02a22c                defLayerBufferCoherentGet

.text.defLayerAlphaAmountSet
                0x9d02a268       0x3c
 .text.defLayerAlphaAmountSet
                0x9d02a268       0x3c build/default/production/_ext/1026407831/gfx_default_impl.o
                0x9d02a268                defLayerAlphaAmountSet

.text.GFX_RectToPoints
                0x9d02a2a4       0x3c
 .text.GFX_RectToPoints
                0x9d02a2a4       0x3c build/default/production/_ext/1026407831/gfx_rect.o
                0x9d02a2a4                GFX_RectToPoints

.text.set_layerAlphaEnable
                0x9d02a2e0       0x3c
 .text.set_layerAlphaEnable
                0x9d02a2e0       0x3c build/default/production/_ext/1026407831/gfx_set.o
                0x9d02a2e0                set_layerAlphaEnable

.text.set_layerAlphaAmount
                0x9d02a31c       0x3c
 .text.set_layerAlphaAmount
                0x9d02a31c       0x3c build/default/production/_ext/1026407831/gfx_set.o
                0x9d02a31c                set_layerAlphaAmount

.text.set_layerMaskEnable
                0x9d02a358       0x3c
 .text.set_layerMaskEnable
                0x9d02a358       0x3c build/default/production/_ext/1026407831/gfx_set.o
                0x9d02a358                set_layerMaskEnable

.text.set_layerMaskColor
                0x9d02a394       0x3c
 .text.set_layerMaskColor
                0x9d02a394       0x3c build/default/production/_ext/1026407831/gfx_set.o
                0x9d02a394                set_layerMaskColor

.text.set_drawGradientColor
                0x9d02a3d0       0x3c
 .text.set_drawGradientColor
                0x9d02a3d0       0x3c build/default/production/_ext/1026407831/gfx_set.o
                0x9d02a3d0                set_drawGradientColor

.text._general_exception_handler
                0x9d02a40c       0x3c
 .text._general_exception_handler
                0x9d02a40c       0x3c build/default/production/_ext/1688732426/system_exceptions.o
                0x9d02a40c                _general_exception_handler

.text._DRV_I2C_Advance_Queue
                0x9d02a448       0x38
 .text._DRV_I2C_Advance_Queue
                0x9d02a448       0x38 build/default/production/_ext/1864665665/drv_i2c_bb_a.o
                0x9d02a448                _DRV_I2C_Advance_Queue

.text.lodepng_free
                0x9d02a480       0x38
 .text.lodepng_free
                0x9d02a480       0x38 build/default/production/_ext/1572996423/gfxu_image_png_internal.o
                0x9d02a480                lodepng_free

.text.HuffmanTree_cleanup
                0x9d02a4b8       0x38
 .text.HuffmanTree_cleanup
                0x9d02a4b8       0x38 build/default/production/_ext/1151653695/lodepng.o

.text.GFXU_DecodeCodePoint
                0x9d02a4f0       0x38
 .text.GFXU_DecodeCodePoint
                0x9d02a4f0       0x38 build/default/production/_ext/1572996423/gfxu_string_utils.o
                0x9d02a4f0                GFXU_DecodeCodePoint

.text.laInitialize
                0x9d02a528       0x38
 .text.laInitialize
                0x9d02a528       0x38 build/default/production/_ext/493962524/libaria.o
                0x9d02a528                laInitialize

.text.laEditWidget_StartEdit
                0x9d02a560       0x38
 .text.laEditWidget_StartEdit
                0x9d02a560       0x38 build/default/production/_ext/493962524/libaria_editwidget.o
                0x9d02a560                laEditWidget_StartEdit

.text.laUtils_ScreenToOrientedSpace
                0x9d02a598       0x38
 .text.laUtils_ScreenToOrientedSpace
                0x9d02a598       0x38 build/default/production/_ext/493962524/libaria_utils.o
                0x9d02a598                laUtils_ScreenToOrientedSpace

.text.laUtils_ScreenToMirroredSpace
                0x9d02a5d0       0x38
 .text.laUtils_ScreenToMirroredSpace
                0x9d02a5d0       0x38 build/default/production/_ext/493962524/libaria_utils.o
                0x9d02a5d0                laUtils_ScreenToMirroredSpace

.text.languageChanging
                0x9d02a608       0x70
 .text.languageChanging
                0x9d02a608       0x38 build/default/production/_ext/493962524/libaria_widget_button.o
 .text.languageChanging
                0x9d02a640       0x38 build/default/production/_ext/493962524/libaria_widget_label.o

.text.GFX_Update
                0x9d02a678       0x38
 .text.GFX_Update
                0x9d02a678       0x38 build/default/production/_ext/1026407831/gfx.o
                0x9d02a678                GFX_Update

.text.GFX_Begin
                0x9d02a6b0       0x38
 .text.GFX_Begin
                0x9d02a6b0       0x38 build/default/production/_ext/1026407831/gfx.o
                0x9d02a6b0                GFX_Begin

.text.GFX_DriverIntfGet
                0x9d02a6e8       0x38
 .text.GFX_DriverIntfGet
                0x9d02a6e8       0x38 build/default/production/_ext/1026407831/gfx_driver_interface.o
                0x9d02a6e8                GFX_DriverIntfGet

.text.get_brightness
                0x9d02a720       0x38
 .text.get_brightness
                0x9d02a720       0x38 build/default/production/_ext/1026407831/gfx_get.o
                0x9d02a720                get_brightness

.text.get_vsyncCallback
                0x9d02a758       0x38
 .text.get_vsyncCallback
                0x9d02a758       0x38 build/default/production/_ext/1026407831/gfx_get.o
                0x9d02a758                get_vsyncCallback

.text.get_hsyncCallback
                0x9d02a790       0x38
 .text.get_hsyncCallback
                0x9d02a790       0x38 build/default/production/_ext/1026407831/gfx_get.o
                0x9d02a790                get_hsyncCallback

.text.get_orientation
                0x9d02a7c8       0x38
 .text.get_orientation
                0x9d02a7c8       0x38 build/default/production/_ext/1026407831/gfx_get.o
                0x9d02a7c8                get_orientation

.text.get_mirroring
                0x9d02a800       0x38
 .text.get_mirroring
                0x9d02a800       0x38 build/default/production/_ext/1026407831/gfx_get.o
                0x9d02a800                get_mirroring

.text.get_colorMode
                0x9d02a838       0x38
 .text.get_colorMode
                0x9d02a838       0x38 build/default/production/_ext/1026407831/gfx_get.o
                0x9d02a838                get_colorMode

.text.get_globalPalette
                0x9d02a870       0x38
 .text.get_globalPalette
                0x9d02a870       0x38 build/default/production/_ext/1026407831/gfx_get.o
                0x9d02a870                get_globalPalette

.text.get_layerEnabled
                0x9d02a8a8       0x38
 .text.get_layerEnabled
                0x9d02a8a8       0x38 build/default/production/_ext/1026407831/gfx_get.o
                0x9d02a8a8                get_layerEnabled

.text.get_layerVisible
                0x9d02a8e0       0x38
 .text.get_layerVisible
                0x9d02a8e0       0x38 build/default/production/_ext/1026407831/gfx_get.o
                0x9d02a8e0                get_layerVisible

.text.get_layerInvalid
                0x9d02a918       0x38
 .text.get_layerInvalid
                0x9d02a918       0x38 build/default/production/_ext/1026407831/gfx_get.o
                0x9d02a918                get_layerInvalid

.text.get_layerVsync
                0x9d02a950       0x38
 .text.get_layerVsync
                0x9d02a950       0x38 build/default/production/_ext/1026407831/gfx_get.o
                0x9d02a950                get_layerVsync

.text.get_layerSwapSync
                0x9d02a988       0x38
 .text.get_layerSwapSync
                0x9d02a988       0x38 build/default/production/_ext/1026407831/gfx_get.o
                0x9d02a988                get_layerSwapSync

.text.get_layerSwap
                0x9d02a9c0       0x38
 .text.get_layerSwap
                0x9d02a9c0       0x38 build/default/production/_ext/1026407831/gfx_get.o
                0x9d02a9c0                get_layerSwap

.text.get_layerAlphaEnable
                0x9d02a9f8       0x38
 .text.get_layerAlphaEnable
                0x9d02a9f8       0x38 build/default/production/_ext/1026407831/gfx_get.o
                0x9d02a9f8                get_layerAlphaEnable

.text.get_layerAlphaAmount
                0x9d02aa30       0x38
 .text.get_layerAlphaAmount
                0x9d02aa30       0x38 build/default/production/_ext/1026407831/gfx_get.o
                0x9d02aa30                get_layerAlphaAmount

.text.get_layerMaskEnable
                0x9d02aa68       0x38
 .text.get_layerMaskEnable
                0x9d02aa68       0x38 build/default/production/_ext/1026407831/gfx_get.o
                0x9d02aa68                get_layerMaskEnable

.text.get_layerMaskColor
                0x9d02aaa0       0x38
 .text.get_layerMaskColor
                0x9d02aaa0       0x38 build/default/production/_ext/1026407831/gfx_get.o
                0x9d02aaa0                get_layerMaskColor

.text.get_layerBufferCount
                0x9d02aad8       0x38
 .text.get_layerBufferCount
                0x9d02aad8       0x38 build/default/production/_ext/1026407831/gfx_get.o
                0x9d02aad8                get_layerBufferCount

.text.get_drawPipelineMode
                0x9d02ab10       0x38
 .text.get_drawPipelineMode
                0x9d02ab10       0x38 build/default/production/_ext/1026407831/gfx_get.o
                0x9d02ab10                get_drawPipelineMode

.text.get_drawMode
                0x9d02ab48       0x38
 .text.get_drawMode
                0x9d02ab48       0x38 build/default/production/_ext/1026407831/gfx_get.o
                0x9d02ab48                get_drawMode

.text.get_drawColor
                0x9d02ab80       0x38
 .text.get_drawColor
                0x9d02ab80       0x38 build/default/production/_ext/1026407831/gfx_get.o
                0x9d02ab80                get_drawColor

.text.get_drawBlendMode
                0x9d02abb8       0x38
 .text.get_drawBlendMode
                0x9d02abb8       0x38 build/default/production/_ext/1026407831/gfx_get.o
                0x9d02abb8                get_drawBlendMode

.text.get_drawResizeMode
                0x9d02abf0       0x38
 .text.get_drawResizeMode
                0x9d02abf0       0x38 build/default/production/_ext/1026407831/gfx_get.o
                0x9d02abf0                get_drawResizeMode

.text.get_drawAlphaEnable
                0x9d02ac28       0x38
 .text.get_drawAlphaEnable
                0x9d02ac28       0x38 build/default/production/_ext/1026407831/gfx_get.o
                0x9d02ac28                get_drawAlphaEnable

.text.get_drawAlphaValue
                0x9d02ac60       0x38
 .text.get_drawAlphaValue
                0x9d02ac60       0x38 build/default/production/_ext/1026407831/gfx_get.o
                0x9d02ac60                get_drawAlphaValue

.text.get_drawMaskEnable
                0x9d02ac98       0x38
 .text.get_drawMaskEnable
                0x9d02ac98       0x38 build/default/production/_ext/1026407831/gfx_get.o
                0x9d02ac98                get_drawMaskEnable

.text.get_drawMaskValue
                0x9d02acd0       0x38
 .text.get_drawMaskValue
                0x9d02acd0       0x38 build/default/production/_ext/1026407831/gfx_get.o
                0x9d02acd0                get_drawMaskValue

.text.get_drawThickness
                0x9d02ad08       0x38
 .text.get_drawThickness
                0x9d02ad08       0x38 build/default/production/_ext/1026407831/gfx_get.o
                0x9d02ad08                get_drawThickness

.text.get_drawClipEnable
                0x9d02ad40       0x38
 .text.get_drawClipEnable
                0x9d02ad40       0x38 build/default/production/_ext/1026407831/gfx_get.o
                0x9d02ad40                get_drawClipEnable

.text.GFX_PixelBufferOffsetGet_Unsafe
                0x9d02ad78       0x38
 .text.GFX_PixelBufferOffsetGet_Unsafe
                0x9d02ad78       0x38 build/default/production/_ext/1026407831/gfx_pixel_buffer.o
                0x9d02ad78                GFX_PixelBufferOffsetGet_Unsafe

.text.GFX_UtilOrientPoint
                0x9d02adb0       0x38
 .text.GFX_UtilOrientPoint
                0x9d02adb0       0x38 build/default/production/_ext/1026407831/gfx_util.o
                0x9d02adb0                GFX_UtilOrientPoint

.text.GFX_UtilMirrorPoint
                0x9d02ade8       0x38
 .text.GFX_UtilMirrorPoint
                0x9d02ade8       0x38 build/default/production/_ext/1026407831/gfx_util.o
                0x9d02ade8                GFX_UtilMirrorPoint

.text.SYS_DMA_ChannelEnable
                0x9d02ae20       0x38
 .text.SYS_DMA_ChannelEnable
                0x9d02ae20       0x38 build/default/production/_ext/360842870/sys_dma.o
                0x9d02ae20                SYS_DMA_ChannelEnable

.text.SYS_DMA_ChannelForceStart
                0x9d02ae58       0x38
 .text.SYS_DMA_ChannelForceStart
                0x9d02ae58       0x38 build/default/production/_ext/360842870/sys_dma.o
                0x9d02ae58                SYS_DMA_ChannelForceStart

.text.uivector_cleanup
                0x9d02ae90       0x34
 .text.uivector_cleanup
                0x9d02ae90       0x34 build/default/production/_ext/1151653695/lodepng.o

.text.ucvector_cleanup
                0x9d02aec4       0x34
 .text.ucvector_cleanup
                0x9d02aec4       0x34 build/default/production/_ext/1151653695/lodepng.o

.text.laInput_SetEnabled
                0x9d02aef8       0x34
 .text.laInput_SetEnabled
                0x9d02aef8       0x34 build/default/production/_ext/493962524/libaria_input.o
                0x9d02aef8                laInput_SetEnabled

.text.la_strlen
                0x9d02af2c       0x34
 .text.la_strlen
                0x9d02af2c       0x34 build/default/production/_ext/493962524/libaria_string.o

.text.laWidget_GetChildAtIndex
                0x9d02af60       0x34
 .text.laWidget_GetChildAtIndex
                0x9d02af60       0x34 build/default/production/_ext/493962524/libaria_widget.o
                0x9d02af60                laWidget_GetChildAtIndex

.text.defLayerBufferFree
                0x9d02af94       0x34
 .text.defLayerBufferFree
                0x9d02af94       0x34 build/default/production/_ext/1026407831/gfx_default_impl.o
                0x9d02af94                defLayerBufferFree

.text.defLayerBufferAllocate
                0x9d02afc8       0x34
 .text.defLayerBufferAllocate
                0x9d02afc8       0x34 build/default/production/_ext/1026407831/gfx_default_impl.o
                0x9d02afc8                defLayerBufferAllocate

.text.get_driverInfo
                0x9d02affc       0x34
 .text.get_driverInfo
                0x9d02affc       0x34 build/default/production/_ext/1026407831/gfx_get.o
                0x9d02affc                get_driverInfo

.text.get_brightnessRange
                0x9d02b030       0x34
 .text.get_brightnessRange
                0x9d02b030       0x34 build/default/production/_ext/1026407831/gfx_get.o
                0x9d02b030                get_brightnessRange

.text.get_layerCount
                0x9d02b064       0x34
 .text.get_layerCount
                0x9d02b064       0x34 build/default/production/_ext/1026407831/gfx_get.o
                0x9d02b064                get_layerCount

.text.get_layerActive
                0x9d02b098       0x34
 .text.get_layerActive
                0x9d02b098       0x34 build/default/production/_ext/1026407831/gfx_get.o
                0x9d02b098                get_layerActive

.text.get_layerPosition
                0x9d02b0cc       0x34
 .text.get_layerPosition
                0x9d02b0cc       0x34 build/default/production/_ext/1026407831/gfx_get.o
                0x9d02b0cc                get_layerPosition

.text.get_layerSize
                0x9d02b100       0x34
 .text.get_layerSize
                0x9d02b100       0x34 build/default/production/_ext/1026407831/gfx_get.o
                0x9d02b100                get_layerSize

.text.get_drawPalette
                0x9d02b134       0x34
 .text.get_drawPalette
                0x9d02b134       0x34 build/default/production/_ext/1026407831/gfx_get.o
                0x9d02b134                get_drawPalette

.text.get_drawTarget
                0x9d02b168       0x34
 .text.get_drawTarget
                0x9d02b168       0x34 build/default/production/_ext/1026407831/gfx_get.o
                0x9d02b168                get_drawTarget

.text.set_layerPosition
                0x9d02b19c       0x34
 .text.set_layerPosition
                0x9d02b19c       0x34 build/default/production/_ext/1026407831/gfx_set.o
                0x9d02b19c                set_layerPosition

.text.set_layerSize
                0x9d02b1d0       0x34
 .text.set_layerSize
                0x9d02b1d0       0x34 build/default/production/_ext/1026407831/gfx_set.o
                0x9d02b1d0                set_layerSize

.text.set_layerBufferAddress
                0x9d02b204       0x34
 .text.set_layerBufferAddress
                0x9d02b204       0x34 build/default/production/_ext/1026407831/gfx_set.o
                0x9d02b204                set_layerBufferAddress

.text.set_layerBufferCoherent
                0x9d02b238       0x34
 .text.set_layerBufferCoherent
                0x9d02b238       0x34 build/default/production/_ext/1026407831/gfx_set.o
                0x9d02b238                set_layerBufferCoherent

.text.rgba8888_rgba5551
                0x9d02b26c       0x34
 .text.rgba8888_rgba5551
                0x9d02b26c       0x34 build/default/production/_ext/1026407831/gfx_color_convert.o

.text.exit      0x9d02b2a0       0x34
 .text.exit     0x9d02b2a0       0x34 f:/software_installations/mplab_xc32/bin/bin/../../lib/gcc/pic32mx/4.8.3/../../../../pic32mx/lib\libc.a(exit.o)
                0x9d02b2a0                exit

.text.JPEG_bReadByte
                0x9d02b2d4       0x30
 .text.JPEG_bReadByte
                0x9d02b2d4       0x30 build/default/production/_ext/1572996423/gfxu_image_jpg_common.o

.text.lodepng_malloc
                0x9d02b304       0x30
 .text.lodepng_malloc
                0x9d02b304       0x30 build/default/production/_ext/1572996423/gfxu_image_png_internal.o
                0x9d02b304                lodepng_malloc

.text.lodepng_get_bpp
                0x9d02b334       0x30
 .text.lodepng_get_bpp
                0x9d02b334       0x30 build/default/production/_ext/1151653695/lodepng.o
                0x9d02b334                lodepng_get_bpp

.text.lodepng_state_cleanup
                0x9d02b364       0x30
 .text.lodepng_state_cleanup
                0x9d02b364       0x30 build/default/production/_ext/1151653695/lodepng.o
                0x9d02b364                lodepng_state_cleanup

.text.laEditWidget_EndEdit
                0x9d02b394       0x30
 .text.laEditWidget_EndEdit
                0x9d02b394       0x30 build/default/production/_ext/493962524/libaria_editwidget.o
                0x9d02b394                laEditWidget_EndEdit

.text.orient_180
                0x9d02b3c4       0x30
 .text.orient_180
                0x9d02b3c4       0x30 build/default/production/_ext/493962524/libaria_utils.o

.text.laUtils_WidgetLocalRect
                0x9d02b3f4       0x30
 .text.laUtils_WidgetLocalRect
                0x9d02b3f4       0x30 build/default/production/_ext/493962524/libaria_utils.o
                0x9d02b3f4                laUtils_WidgetLocalRect

.text.__pic32_alloc_coherent
                0x9d02b424       0x30
 .text.__pic32_alloc_coherent
                0x9d02b424       0x30 build/default/production/_ext/1026407831/gfx.o

.text.GFX_End   0x9d02b454       0x30
 .text.GFX_End  0x9d02b454       0x30 build/default/production/_ext/1026407831/gfx.o
                0x9d02b454                GFX_End

.text.defLayerEnabledSet
                0x9d02b484       0x30
 .text.defLayerEnabledSet
                0x9d02b484       0x30 build/default/production/_ext/1026407831/gfx_default_impl.o
                0x9d02b484                defLayerEnabledSet

.text.defLayerVisibleSet
                0x9d02b4b4       0x30
 .text.defLayerVisibleSet
                0x9d02b4b4       0x30 build/default/production/_ext/1026407831/gfx_default_impl.o
                0x9d02b4b4                defLayerVisibleSet

.text.defLayerVsyncSet
                0x9d02b4e4       0x30
 .text.defLayerVsyncSet
                0x9d02b4e4       0x30 build/default/production/_ext/1026407831/gfx_default_impl.o
                0x9d02b4e4                defLayerVsyncSet

.text.defLayerInvalidSet
                0x9d02b514       0x30
 .text.defLayerInvalidSet
                0x9d02b514       0x30 build/default/production/_ext/1026407831/gfx_default_impl.o
                0x9d02b514                defLayerInvalidSet

.text.defLayerAlphaEnableSet
                0x9d02b544       0x30
 .text.defLayerAlphaEnableSet
                0x9d02b544       0x30 build/default/production/_ext/1026407831/gfx_default_impl.o
                0x9d02b544                defLayerAlphaEnableSet

.text.defLayerMaskEnableSet
                0x9d02b574       0x30
 .text.defLayerMaskEnableSet
                0x9d02b574       0x30 build/default/production/_ext/1026407831/gfx_default_impl.o
                0x9d02b574                defLayerMaskEnableSet

.text.defLayerMaskColorSet
                0x9d02b5a4       0x30
 .text.defLayerMaskColorSet
                0x9d02b5a4       0x30 build/default/production/_ext/1026407831/gfx_default_impl.o
                0x9d02b5a4                defLayerMaskColorSet

.text.defDrawTargetGet
                0x9d02b5d4       0x30
 .text.defDrawTargetGet
                0x9d02b5d4       0x30 build/default/production/_ext/1026407831/gfx_default_impl.o
                0x9d02b5d4                defDrawTargetGet

.text.get_drawClipRect
                0x9d02b604       0x30
 .text.get_drawClipRect
                0x9d02b604       0x30 build/default/production/_ext/1026407831/gfx_get.o
                0x9d02b604                get_drawClipRect

.text.orient_180
                0x9d02b634       0x30
 .text.orient_180
                0x9d02b634       0x30 build/default/production/_ext/1026407831/gfx_util.o

.text.GFX_UtilSizeFromOrientedSpace
                0x9d02b664       0x30
 .text.GFX_UtilSizeFromOrientedSpace
                0x9d02b664       0x30 build/default/production/_ext/1026407831/gfx_util.o
                0x9d02b664                GFX_UtilSizeFromOrientedSpace

.text.set_brightness
                0x9d02b694       0x30
 .text.set_brightness
                0x9d02b694       0x30 build/default/production/_ext/1026407831/gfx_set.o
                0x9d02b694                set_brightness

.text.set_vsyncCallback
                0x9d02b6c4       0x30
 .text.set_vsyncCallback
                0x9d02b6c4       0x30 build/default/production/_ext/1026407831/gfx_set.o
                0x9d02b6c4                set_vsyncCallback

.text.set_hsyncCallback
                0x9d02b6f4       0x30
 .text.set_hsyncCallback
                0x9d02b6f4       0x30 build/default/production/_ext/1026407831/gfx_set.o
                0x9d02b6f4                set_hsyncCallback

.text.set_orientation
                0x9d02b724       0x30
 .text.set_orientation
                0x9d02b724       0x30 build/default/production/_ext/1026407831/gfx_set.o
                0x9d02b724                set_orientation

.text.set_mirroring
                0x9d02b754       0x30
 .text.set_mirroring
                0x9d02b754       0x30 build/default/production/_ext/1026407831/gfx_set.o
                0x9d02b754                set_mirroring

.text.set_colorMode
                0x9d02b784       0x30
 .text.set_colorMode
                0x9d02b784       0x30 build/default/production/_ext/1026407831/gfx_set.o
                0x9d02b784                set_colorMode

.text.set_globalPalette
                0x9d02b7b4       0x30
 .text.set_globalPalette
                0x9d02b7b4       0x30 build/default/production/_ext/1026407831/gfx_set.o
                0x9d02b7b4                set_globalPalette

.text.set_layerActive
                0x9d02b7e4       0x30
 .text.set_layerActive
                0x9d02b7e4       0x30 build/default/production/_ext/1026407831/gfx_set.o
                0x9d02b7e4                set_layerActive

.text.set_layerEnabled
                0x9d02b814       0x30
 .text.set_layerEnabled
                0x9d02b814       0x30 build/default/production/_ext/1026407831/gfx_set.o
                0x9d02b814                set_layerEnabled

.text.set_layerVisible
                0x9d02b844       0x30
 .text.set_layerVisible
                0x9d02b844       0x30 build/default/production/_ext/1026407831/gfx_set.o
                0x9d02b844                set_layerVisible

.text.set_layerInvalid
                0x9d02b874       0x30
 .text.set_layerInvalid
                0x9d02b874       0x30 build/default/production/_ext/1026407831/gfx_set.o
                0x9d02b874                set_layerInvalid

.text.set_layerVsync
                0x9d02b8a4       0x30
 .text.set_layerVsync
                0x9d02b8a4       0x30 build/default/production/_ext/1026407831/gfx_set.o
                0x9d02b8a4                set_layerVsync

.text.set_layerSwapSync
                0x9d02b8d4       0x30
 .text.set_layerSwapSync
                0x9d02b8d4       0x30 build/default/production/_ext/1026407831/gfx_set.o
                0x9d02b8d4                set_layerSwapSync

.text.set_layerSwap
                0x9d02b904       0x30
 .text.set_layerSwap
                0x9d02b904       0x30 build/default/production/_ext/1026407831/gfx_set.o
                0x9d02b904                set_layerSwap

.text.set_layerBufferCount
                0x9d02b934       0x30
 .text.set_layerBufferCount
                0x9d02b934       0x30 build/default/production/_ext/1026407831/gfx_set.o
                0x9d02b934                set_layerBufferCount

.text.set_layerBufferAllocated
                0x9d02b964       0x30
 .text.set_layerBufferAllocated
                0x9d02b964       0x30 build/default/production/_ext/1026407831/gfx_set.o
                0x9d02b964                set_layerBufferAllocated

.text.set_layerBufferFree
                0x9d02b994       0x30
 .text.set_layerBufferFree
                0x9d02b994       0x30 build/default/production/_ext/1026407831/gfx_set.o
                0x9d02b994                set_layerBufferFree

.text.set_drawPipelineMode
                0x9d02b9c4       0x30
 .text.set_drawPipelineMode
                0x9d02b9c4       0x30 build/default/production/_ext/1026407831/gfx_set.o
                0x9d02b9c4                set_drawPipelineMode

.text.set_drawMode
                0x9d02b9f4       0x30
 .text.set_drawMode
                0x9d02b9f4       0x30 build/default/production/_ext/1026407831/gfx_set.o
                0x9d02b9f4                set_drawMode

.text.set_drawColor
                0x9d02ba24       0x30
 .text.set_drawColor
                0x9d02ba24       0x30 build/default/production/_ext/1026407831/gfx_set.o
                0x9d02ba24                set_drawColor

.text.set_drawPalette
                0x9d02ba54       0x30
 .text.set_drawPalette
                0x9d02ba54       0x30 build/default/production/_ext/1026407831/gfx_set.o
                0x9d02ba54                set_drawPalette

.text.set_drawTarget
                0x9d02ba84       0x30
 .text.set_drawTarget
                0x9d02ba84       0x30 build/default/production/_ext/1026407831/gfx_set.o
                0x9d02ba84                set_drawTarget

.text.set_drawBlendMode
                0x9d02bab4       0x30
 .text.set_drawBlendMode
                0x9d02bab4       0x30 build/default/production/_ext/1026407831/gfx_set.o
                0x9d02bab4                set_drawBlendMode

.text.set_drawResizeMode
                0x9d02bae4       0x30
 .text.set_drawResizeMode
                0x9d02bae4       0x30 build/default/production/_ext/1026407831/gfx_set.o
                0x9d02bae4                set_drawResizeMode

.text.set_drawAlphaEnable
                0x9d02bb14       0x30
 .text.set_drawAlphaEnable
                0x9d02bb14       0x30 build/default/production/_ext/1026407831/gfx_set.o
                0x9d02bb14                set_drawAlphaEnable

.text.set_drawAlphaValue
                0x9d02bb44       0x30
 .text.set_drawAlphaValue
                0x9d02bb44       0x30 build/default/production/_ext/1026407831/gfx_set.o
                0x9d02bb44                set_drawAlphaValue

.text.set_drawMaskEnable
                0x9d02bb74       0x30
 .text.set_drawMaskEnable
                0x9d02bb74       0x30 build/default/production/_ext/1026407831/gfx_set.o
                0x9d02bb74                set_drawMaskEnable

.text.set_drawMaskValue
                0x9d02bba4       0x30
 .text.set_drawMaskValue
                0x9d02bba4       0x30 build/default/production/_ext/1026407831/gfx_set.o
                0x9d02bba4                set_drawMaskValue

.text.set_drawThickness
                0x9d02bbd4       0x30
 .text.set_drawThickness
                0x9d02bbd4       0x30 build/default/production/_ext/1026407831/gfx_set.o
                0x9d02bbd4                set_drawThickness

.text.set_drawClipEnable
                0x9d02bc04       0x30
 .text.set_drawClipEnable
                0x9d02bc04       0x30 build/default/production/_ext/1026407831/gfx_set.o
                0x9d02bc04                set_drawClipEnable

.text.set_drawClipRect
                0x9d02bc34       0x30
 .text.set_drawClipRect
                0x9d02bc34       0x30 build/default/production/_ext/1026407831/gfx_set.o
                0x9d02bc34                set_drawClipRect

.text.rgb332_rgb888
                0x9d02bc64       0x30
 .text.rgb332_rgb888
                0x9d02bc64       0x30 build/default/production/_ext/1026407831/gfx_color_convert.o

.text.rgb332_rgba8888
                0x9d02bc94       0x30
 .text.rgb332_rgba8888
                0x9d02bc94       0x30 build/default/production/_ext/1026407831/gfx_color_convert.o

.text.rgb332_argb8888
                0x9d02bcc4       0x30
 .text.rgb332_argb8888
                0x9d02bcc4       0x30 build/default/production/_ext/1026407831/gfx_color_convert.o

.text.rgba5551_rgb888
                0x9d02bcf4       0x30
 .text.rgba5551_rgb888
                0x9d02bcf4       0x30 build/default/production/_ext/1026407831/gfx_color_convert.o

.text.argb8888_rgba5551
                0x9d02bd24       0x30
 .text.argb8888_rgba5551
                0x9d02bd24       0x30 build/default/production/_ext/1026407831/gfx_color_convert.o

.text.SYS_CLK_PeripheralFrequencyGet
                0x9d02bd54       0x30
 .text.SYS_CLK_PeripheralFrequencyGet
                0x9d02bd54       0x30 build/default/production/_ext/639803181/sys_clk_pic32mz.o
                0x9d02bd54                SYS_CLK_PeripheralFrequencyGet

.text.free      0x9d02bd84       0x30
 .text.free     0x9d02bd84       0x30 f:/software_installations/mplab_xc32/bin/bin/../../lib/gcc/pic32mx/4.8.3/../../../../pic32mx/lib\libc.a(malloc.o)
                0x9d02bd84                free

.text.lodepng_read32bitInt
                0x9d02bdb4       0x2c
 .text.lodepng_read32bitInt
                0x9d02bdb4       0x2c build/default/production/_ext/1151653695/lodepng.o
                0x9d02bdb4                lodepng_read32bitInt

.text.lodepng_chunk_next_const
                0x9d02bde0       0x2c
 .text.lodepng_chunk_next_const
                0x9d02bde0       0x2c build/default/production/_ext/1151653695/lodepng.o
                0x9d02bde0                lodepng_chunk_next_const

.text.lodepng_color_mode_init
                0x9d02be0c       0x2c
 .text.lodepng_color_mode_init
                0x9d02be0c       0x2c build/default/production/_ext/1151653695/lodepng.o
                0x9d02be0c                lodepng_color_mode_init

.text.getDiscreteValueAtIndex
                0x9d02be38       0x2c
 .text.getDiscreteValueAtIndex
                0x9d02be38       0x2c build/default/production/_ext/1572996423/gfxu_image_utils.o
                0x9d02be38                getDiscreteValueAtIndex

.text.getOffsetFromIndexAndBPP
                0x9d02be64       0x2c
 .text.getOffsetFromIndexAndBPP
                0x9d02be64       0x2c build/default/production/_ext/1572996423/gfxu_image_utils.o
                0x9d02be64                getOffsetFromIndexAndBPP

.text._laContext_HandleScreenChangeEvent
                0x9d02be90       0x2c
 .text._laContext_HandleScreenChangeEvent
                0x9d02be90       0x2c build/default/production/_ext/493962524/libaria_context.o
                0x9d02be90                _laContext_HandleScreenChangeEvent

.text.laString_IsEmpty
                0x9d02bebc       0x2c
 .text.laString_IsEmpty
                0x9d02bebc       0x2c build/default/production/_ext/493962524/libaria_string.o
                0x9d02bebc                laString_IsEmpty

.text.drawBackground
                0x9d02bee8       0x58
 .text.drawBackground
                0x9d02bee8       0x2c build/default/production/_ext/493962524/libaria_widget_image_skin_classic.o
 .text.drawBackground
                0x9d02bf14       0x2c build/default/production/_ext/493962524/libaria_widget_label_skin_classic.o

.text.defGlobalPaletteSet
                0x9d02bf40       0x2c
 .text.defGlobalPaletteSet
                0x9d02bf40       0x2c build/default/production/_ext/1026407831/gfx_default_impl.o
                0x9d02bf40                defGlobalPaletteSet

.text.defLayerSwapSyncSet
                0x9d02bf6c       0x2c
 .text.defLayerSwapSyncSet
                0x9d02bf6c       0x2c build/default/production/_ext/1026407831/gfx_default_impl.o
                0x9d02bf6c                defLayerSwapSyncSet

.text.defDrawModeSet
                0x9d02bf98       0x2c
 .text.defDrawModeSet
                0x9d02bf98       0x2c build/default/production/_ext/1026407831/gfx_default_impl.o
                0x9d02bf98                defDrawModeSet

.text.defDrawColorSet
                0x9d02bfc4       0x2c
 .text.defDrawColorSet
                0x9d02bfc4       0x2c build/default/production/_ext/1026407831/gfx_default_impl.o
                0x9d02bfc4                defDrawColorSet

.text.defDrawResizeModeSet
                0x9d02bff0       0x2c
 .text.defDrawResizeModeSet
                0x9d02bff0       0x2c build/default/production/_ext/1026407831/gfx_default_impl.o
                0x9d02bff0                defDrawResizeModeSet

.text.defDrawAlphaEnableSet
                0x9d02c01c       0x2c
 .text.defDrawAlphaEnableSet
                0x9d02c01c       0x2c build/default/production/_ext/1026407831/gfx_default_impl.o
                0x9d02c01c                defDrawAlphaEnableSet

.text.defDrawAlphaValueSet
                0x9d02c048       0x2c
 .text.defDrawAlphaValueSet
                0x9d02c048       0x2c build/default/production/_ext/1026407831/gfx_default_impl.o
                0x9d02c048                defDrawAlphaValueSet

.text.defDrawMaskValueSet
                0x9d02c074       0x2c
 .text.defDrawMaskValueSet
                0x9d02c074       0x2c build/default/production/_ext/1026407831/gfx_default_impl.o
                0x9d02c074                defDrawMaskValueSet

.text.defDrawThicknessSet
                0x9d02c0a0       0x2c
 .text.defDrawThicknessSet
                0x9d02c0a0       0x2c build/default/production/_ext/1026407831/gfx_default_impl.o
                0x9d02c0a0                defDrawThicknessSet

.text.defDrawClipEnabledSet
                0x9d02c0cc       0x2c
 .text.defDrawClipEnabledSet
                0x9d02c0cc       0x2c build/default/production/_ext/1026407831/gfx_default_impl.o
                0x9d02c0cc                defDrawClipEnabledSet

.text.indexGet1bpp
                0x9d02c0f8       0x2c
 .text.indexGet1bpp
                0x9d02c0f8       0x2c build/default/production/_ext/1026407831/gfx_pixel_buffer.o

.text.rgb565_argb8888
                0x9d02c124       0x2c
 .text.rgb565_argb8888
                0x9d02c124       0x2c build/default/production/_ext/1026407831/gfx_color_convert.o

.text.GFX_Percent
                0x9d02c150       0x2c
 .text.GFX_Percent
                0x9d02c150       0x2c build/default/production/_ext/1026407831/gfx_math.o
                0x9d02c150                GFX_Percent

.text._fprintf_cdnopsuxX
                0x9d02c17c       0x2c
 .text._fprintf_cdnopsuxX
                0x9d02c17c       0x2c f:/software_installations/mplab_xc32/bin/bin/../../lib/gcc/pic32mx/4.8.3/../../../../pic32mx/lib\libc.a(fprintf_cdnopsuxX.eo)
                0x9d02c17c                _fprintf_cdnopsuxX

.text._stub_sbd_memlayout
                0x9d02c1a8       0x2c
 .text._stub_sbd_memlayout
                0x9d02c1a8       0x2c f:/software_installations/mplab_xc32/bin/bin/../../lib/gcc/pic32mx/4.8.3/../../../../pic32mx/lib\libpic32.a(sbrk.o)
                0x9d02c1a8                _sbd_memlayout
                0x9d02c1a8                _stub_sbd_memlayout

.text.readBitFromReversedStream
                0x9d02c1d4       0x28
 .text.readBitFromReversedStream
                0x9d02c1d4       0x28 build/default/production/_ext/1151653695/lodepng.o

.text.lodepng_decoder_settings_init
                0x9d02c1fc       0x28
 .text.lodepng_decoder_settings_init
                0x9d02c1fc       0x28 build/default/production/_ext/1151653695/lodepng.o
                0x9d02c1fc                lodepng_decoder_settings_init

.text.headerReadRequestCompleted
                0x9d02c224       0x28
 .text.headerReadRequestCompleted
                0x9d02c224       0x28 build/default/production/_ext/1572996423/gfxu_image_rle_external.o

.text.GFXU_GetGlyphRowDataSize
                0x9d02c24c       0x28
 .text.GFXU_GetGlyphRowDataSize
                0x9d02c24c       0x28 build/default/production/_ext/1572996423/gfxu_string_utils.o
                0x9d02c24c                GFXU_GetGlyphRowDataSize

.text.laContext_SetStringTable
                0x9d02c274       0x28
 .text.laContext_SetStringTable
                0x9d02c274       0x28 build/default/production/_ext/493962524/libaria_context.o
                0x9d02c274                laContext_SetStringTable

.text.GFX_Initialize
                0x9d02c29c       0x28
 .text.GFX_Initialize
                0x9d02c29c       0x28 build/default/production/_ext/1026407831/gfx.o
                0x9d02c29c                GFX_Initialize

.text.defOrientPoint
                0x9d02c2c4       0x28
 .text.defOrientPoint
                0x9d02c2c4       0x28 build/default/production/_ext/1026407831/gfx_default_impl.o
                0x9d02c2c4                defOrientPoint

.text.defMirrorPoint
                0x9d02c2ec       0x28
 .text.defMirrorPoint
                0x9d02c2ec       0x28 build/default/production/_ext/1026407831/gfx_default_impl.o
                0x9d02c2ec                defMirrorPoint

.text.rgb332_rgb565
                0x9d02c314       0x28
 .text.rgb332_rgb565
                0x9d02c314       0x28 build/default/production/_ext/1026407831/gfx_color_convert.o

.text.rgb332_rgba5551
                0x9d02c33c       0x28
 .text.rgb332_rgba5551
                0x9d02c33c       0x28 build/default/production/_ext/1026407831/gfx_color_convert.o

.text.rgb565_rgba8888
                0x9d02c364       0x28
 .text.rgb565_rgba8888
                0x9d02c364       0x28 build/default/production/_ext/1026407831/gfx_color_convert.o

.text.rgb888_rgba5551
                0x9d02c38c       0x28
 .text.rgb888_rgba5551
                0x9d02c38c       0x28 build/default/production/_ext/1026407831/gfx_color_convert.o

.text.SYS_INT_ExternalInterruptTriggerSet
                0x9d02c3b4       0x28
 .text.SYS_INT_ExternalInterruptTriggerSet
                0x9d02c3b4       0x28 build/default/production/_ext/549570029/sys_int_pic32.o
                0x9d02c3b4                SYS_INT_ExternalInterruptTriggerSet

.text.touchMoveHandler
                0x9d02c3dc       0x28
 .text.touchMoveHandler
                0x9d02c3dc       0x28 build/default/production/_ext/458109090/libaria_harmony.o

.text.touchUpHandler
                0x9d02c404       0x28
 .text.touchUpHandler
                0x9d02c404       0x28 build/default/production/_ext/458109090/libaria_harmony.o

.text.touchDownHandler
                0x9d02c42c       0x28
 .text.touchDownHandler
                0x9d02c42c       0x28 build/default/production/_ext/458109090/libaria_harmony.o

.text.GFX_InitializeDriverList
                0x9d02c454       0x28
 .text.GFX_InitializeDriverList
                0x9d02c454       0x28 build/default/production/_ext/2065038297/gfx_driver_def.o
                0x9d02c454                GFX_InitializeDriverList

.text.getGlyphRowDataSize1bpp
                0x9d02c47c       0x24
 .text.getGlyphRowDataSize1bpp
                0x9d02c47c       0x24 build/default/production/_ext/1572996423/gfxu_string_utils.o
                0x9d02c47c                getGlyphRowDataSize1bpp

.text.laArray_Create
                0x9d02c4a0       0x24
 .text.laArray_Create
                0x9d02c4a0       0x24 build/default/production/_ext/493962524/libaria_array.o
                0x9d02c4a0                laArray_Create

.text.laRectArray_Create
                0x9d02c4c4       0x24
 .text.laRectArray_Create
                0x9d02c4c4       0x24 build/default/production/_ext/493962524/libaria_rectarray.o
                0x9d02c4c4                laRectArray_Create

.text.laScreen_GetLayerIndex
                0x9d02c4e8       0x24
 .text.laScreen_GetLayerIndex
                0x9d02c4e8       0x24 build/default/production/_ext/493962524/libaria_screen.o
                0x9d02c4e8                laScreen_GetLayerIndex

.text.laString_Initialize
                0x9d02c50c       0x24
 .text.laString_Initialize
                0x9d02c50c       0x24 build/default/production/_ext/493962524/libaria_string.o
                0x9d02c50c                laString_Initialize

.text.orient_90
                0x9d02c530       0x24
 .text.orient_90
                0x9d02c530       0x24 build/default/production/_ext/493962524/libaria_utils.o

.text.orient_270
                0x9d02c554       0x24
 .text.orient_270
                0x9d02c554       0x24 build/default/production/_ext/493962524/libaria_utils.o

.text.mirror_0  0x9d02c578       0x24
 .text.mirror_0
                0x9d02c578       0x24 build/default/production/_ext/493962524/libaria_utils.o

.text.mirror_90
                0x9d02c59c       0x24
 .text.mirror_90
                0x9d02c59c       0x24 build/default/production/_ext/493962524/libaria_utils.o

.text.mirror_180
                0x9d02c5c0       0x24
 .text.mirror_180
                0x9d02c5c0       0x24 build/default/production/_ext/493962524/libaria_utils.o

.text.mirror_270
                0x9d02c5e4       0x24
 .text.mirror_270
                0x9d02c5e4       0x24 build/default/production/_ext/493962524/libaria_utils.o

.text.defAlphaGetPoint
                0x9d02c608       0x24
 .text.defAlphaGetPoint
                0x9d02c608       0x24 build/default/production/_ext/1026407831/gfx_default_impl.o
                0x9d02c608                defAlphaGetPoint

.text.defEnd    0x9d02c62c       0x24
 .text.defEnd   0x9d02c62c       0x24 build/default/production/_ext/1026407831/gfx_default_impl.o
                0x9d02c62c                defEnd

.text.defLayerEnabledGet
                0x9d02c650       0x24
 .text.defLayerEnabledGet
                0x9d02c650       0x24 build/default/production/_ext/1026407831/gfx_default_impl.o
                0x9d02c650                defLayerEnabledGet

.text.defLayerVisibleGet
                0x9d02c674       0x24
 .text.defLayerVisibleGet
                0x9d02c674       0x24 build/default/production/_ext/1026407831/gfx_default_impl.o
                0x9d02c674                defLayerVisibleGet

.text.defLayerBufferCountGet
                0x9d02c698       0x24
 .text.defLayerBufferCountGet
                0x9d02c698       0x24 build/default/production/_ext/1026407831/gfx_default_impl.o
                0x9d02c698                defLayerBufferCountGet

.text.defLayerVsyncGet
                0x9d02c6bc       0x24
 .text.defLayerVsyncGet
                0x9d02c6bc       0x24 build/default/production/_ext/1026407831/gfx_default_impl.o
                0x9d02c6bc                defLayerVsyncGet

.text.defLayerInvalidGet
                0x9d02c6e0       0x24
 .text.defLayerInvalidGet
                0x9d02c6e0       0x24 build/default/production/_ext/1026407831/gfx_default_impl.o
                0x9d02c6e0                defLayerInvalidGet

.text.defLayerSwapGet
                0x9d02c704       0x24
 .text.defLayerSwapGet
                0x9d02c704       0x24 build/default/production/_ext/1026407831/gfx_default_impl.o
                0x9d02c704                defLayerSwapGet

.text.defLayerAlphaEnableGet
                0x9d02c728       0x24
 .text.defLayerAlphaEnableGet
                0x9d02c728       0x24 build/default/production/_ext/1026407831/gfx_default_impl.o
                0x9d02c728                defLayerAlphaEnableGet

.text.defLayerAlphaAmountGet
                0x9d02c74c       0x24
 .text.defLayerAlphaAmountGet
                0x9d02c74c       0x24 build/default/production/_ext/1026407831/gfx_default_impl.o
                0x9d02c74c                defLayerAlphaAmountGet

.text.defLayerMaskEnableGet
                0x9d02c770       0x24
 .text.defLayerMaskEnableGet
                0x9d02c770       0x24 build/default/production/_ext/1026407831/gfx_default_impl.o
                0x9d02c770                defLayerMaskEnableGet

.text.defLayerMaskColorGet
                0x9d02c794       0x24
 .text.defLayerMaskColorGet
                0x9d02c794       0x24 build/default/production/_ext/1026407831/gfx_default_impl.o
                0x9d02c794                defLayerMaskColorGet

.text.indexGet4bpp
                0x9d02c7b8       0x24
 .text.indexGet4bpp
                0x9d02c7b8       0x24 build/default/production/_ext/1026407831/gfx_pixel_buffer.o

.text.orient_90
                0x9d02c7dc       0x24
 .text.orient_90
                0x9d02c7dc       0x24 build/default/production/_ext/1026407831/gfx_util.o

.text.orient_270
                0x9d02c800       0x24
 .text.orient_270
                0x9d02c800       0x24 build/default/production/_ext/1026407831/gfx_util.o

.text.mirror_0  0x9d02c824       0x24
 .text.mirror_0
                0x9d02c824       0x24 build/default/production/_ext/1026407831/gfx_util.o

.text.mirror_90
                0x9d02c848       0x24
 .text.mirror_90
                0x9d02c848       0x24 build/default/production/_ext/1026407831/gfx_util.o

.text.mirror_180
                0x9d02c86c       0x24
 .text.mirror_180
                0x9d02c86c       0x24 build/default/production/_ext/1026407831/gfx_util.o

.text.mirror_270
                0x9d02c890       0x24
 .text.mirror_270
                0x9d02c890       0x24 build/default/production/_ext/1026407831/gfx_util.o

.text.rgb565_rgb888
                0x9d02c8b4       0x24
 .text.rgb565_rgb888
                0x9d02c8b4       0x24 build/default/production/_ext/1026407831/gfx_color_convert.o

.text.rgb888_rgb332
                0x9d02c8d8       0x24
 .text.rgb888_rgb332
                0x9d02c8d8       0x24 build/default/production/_ext/1026407831/gfx_color_convert.o

.text.rgba8888_rgb332
                0x9d02c8fc       0x24
 .text.rgba8888_rgb332
                0x9d02c8fc       0x24 build/default/production/_ext/1026407831/gfx_color_convert.o

.text.rgba8888_rgb565
                0x9d02c920       0x24
 .text.rgba8888_rgb565
                0x9d02c920       0x24 build/default/production/_ext/1026407831/gfx_color_convert.o

.text.rgba8888_rgb888
                0x9d02c944       0x24
 .text.rgba8888_rgb888
                0x9d02c944       0x24 build/default/production/_ext/1026407831/gfx_color_convert.o

.text.main      0x9d02c968       0x20
 .text.main     0x9d02c968       0x20 build/default/production/_ext/1360937237/main.o
                0x9d02c968                main

.text.JPEG_vResetDecoder
                0x9d02c988       0x20
 .text.JPEG_vResetDecoder
                0x9d02c988       0x20 build/default/production/_ext/1572996423/gfxu_image_jpg_common.o
                0x9d02c988                JPEG_vResetDecoder

.text.getDiscreteValueAtIndex1
                0x9d02c9a8       0x20
 .text.getDiscreteValueAtIndex1
                0x9d02c9a8       0x20 build/default/production/_ext/1572996423/gfxu_image_utils.o
                0x9d02c9a8                getDiscreteValueAtIndex1

.rodata         0x9d02c9c8       0x20
 .rodata        0x9d02c9c8       0x20 build/default/production/_ext/493962524/libaria_utils.o

.text.defBrightnessGet
                0x9d02c9e8       0x20
 .text.defBrightnessGet
                0x9d02c9e8       0x20 build/default/production/_ext/1026407831/gfx_default_impl.o
                0x9d02c9e8                defBrightnessGet

.text.defVSyncCallbackGet
                0x9d02ca08       0x20
 .text.defVSyncCallbackGet
                0x9d02ca08       0x20 build/default/production/_ext/1026407831/gfx_default_impl.o
                0x9d02ca08                defVSyncCallbackGet

.text.defHSyncCallbackGet
                0x9d02ca28       0x20
 .text.defHSyncCallbackGet
                0x9d02ca28       0x20 build/default/production/_ext/1026407831/gfx_default_impl.o
                0x9d02ca28                defHSyncCallbackGet

.text.defOrientationGet
                0x9d02ca48       0x20
 .text.defOrientationGet
                0x9d02ca48       0x20 build/default/production/_ext/1026407831/gfx_default_impl.o
                0x9d02ca48                defOrientationGet

.text.defMirroringGet
                0x9d02ca68       0x20
 .text.defMirroringGet
                0x9d02ca68       0x20 build/default/production/_ext/1026407831/gfx_default_impl.o
                0x9d02ca68                defMirroringGet

.text.defColorModeGet
                0x9d02ca88       0x20
 .text.defColorModeGet
                0x9d02ca88       0x20 build/default/production/_ext/1026407831/gfx_default_impl.o
                0x9d02ca88                defColorModeGet

.text.defGlobalPaletteGet
                0x9d02caa8       0x20
 .text.defGlobalPaletteGet
                0x9d02caa8       0x20 build/default/production/_ext/1026407831/gfx_default_impl.o
                0x9d02caa8                defGlobalPaletteGet

.text.defLayerActiveGet
                0x9d02cac8       0x20
 .text.defLayerActiveGet
                0x9d02cac8       0x20 build/default/production/_ext/1026407831/gfx_default_impl.o
                0x9d02cac8                defLayerActiveGet

.text.defLayerSwapSyncGet
                0x9d02cae8       0x20
 .text.defLayerSwapSyncGet
                0x9d02cae8       0x20 build/default/production/_ext/1026407831/gfx_default_impl.o
                0x9d02cae8                defLayerSwapSyncGet

.text.defDrawPipelineModeGet
                0x9d02cb08       0x20
 .text.defDrawPipelineModeGet
                0x9d02cb08       0x20 build/default/production/_ext/1026407831/gfx_default_impl.o
                0x9d02cb08                defDrawPipelineModeGet

.text.defDrawModeGet
                0x9d02cb28       0x20
 .text.defDrawModeGet
                0x9d02cb28       0x20 build/default/production/_ext/1026407831/gfx_default_impl.o
                0x9d02cb28                defDrawModeGet

.text.defDrawColorGet
                0x9d02cb48       0x20
 .text.defDrawColorGet
                0x9d02cb48       0x20 build/default/production/_ext/1026407831/gfx_default_impl.o
                0x9d02cb48                defDrawColorGet

.text.defDrawBlendModeGet
                0x9d02cb68       0x20
 .text.defDrawBlendModeGet
                0x9d02cb68       0x20 build/default/production/_ext/1026407831/gfx_default_impl.o
                0x9d02cb68                defDrawBlendModeGet

.text.defDrawResizeModeGet
                0x9d02cb88       0x20
 .text.defDrawResizeModeGet
                0x9d02cb88       0x20 build/default/production/_ext/1026407831/gfx_default_impl.o
                0x9d02cb88                defDrawResizeModeGet

.text.defDrawAlphaEnableGet
                0x9d02cba8       0x20
 .text.defDrawAlphaEnableGet
                0x9d02cba8       0x20 build/default/production/_ext/1026407831/gfx_default_impl.o
                0x9d02cba8                defDrawAlphaEnableGet

.text.defDrawAlphaValueGet
                0x9d02cbc8       0x20
 .text.defDrawAlphaValueGet
                0x9d02cbc8       0x20 build/default/production/_ext/1026407831/gfx_default_impl.o
                0x9d02cbc8                defDrawAlphaValueGet

.text.defDrawMaskEnableGet
                0x9d02cbe8       0x20
 .text.defDrawMaskEnableGet
                0x9d02cbe8       0x20 build/default/production/_ext/1026407831/gfx_default_impl.o
                0x9d02cbe8                defDrawMaskEnableGet

.text.defDrawMaskValueGet
                0x9d02cc08       0x20
 .text.defDrawMaskValueGet
                0x9d02cc08       0x20 build/default/production/_ext/1026407831/gfx_default_impl.o
                0x9d02cc08                defDrawMaskValueGet

.text.defDrawThicknessGet
                0x9d02cc28       0x20
 .text.defDrawThicknessGet
                0x9d02cc28       0x20 build/default/production/_ext/1026407831/gfx_default_impl.o
                0x9d02cc28                defDrawThicknessGet

.text.defDrawClipEnabledGet
                0x9d02cc48       0x20
 .text.defDrawClipEnabledGet
                0x9d02cc48       0x20 build/default/production/_ext/1026407831/gfx_default_impl.o
                0x9d02cc48                defDrawClipEnabledGet

.text.get3byte  0x9d02cc68       0x20
 .text.get3byte
                0x9d02cc68       0x20 build/default/production/_ext/1026407831/gfx_pixel_buffer.o

.rodata         0x9d02cc88       0x20
 .rodata        0x9d02cc88       0x20 build/default/production/_ext/1026407831/gfx_util.o

.text.gs8_rgb565
                0x9d02cca8       0x20
 .text.gs8_rgb565
                0x9d02cca8       0x20 build/default/production/_ext/1026407831/gfx_color_convert.o

.text.gs8_rgba5551
                0x9d02ccc8       0x20
 .text.gs8_rgba5551
                0x9d02ccc8       0x20 build/default/production/_ext/1026407831/gfx_color_convert.o

.text.rgb565_rgb332
                0x9d02cce8       0x20
 .text.rgb565_rgb332
                0x9d02cce8       0x20 build/default/production/_ext/1026407831/gfx_color_convert.o

.text.rgba5551_rgb332
                0x9d02cd08       0x20
 .text.rgba5551_rgb332
                0x9d02cd08       0x20 build/default/production/_ext/1026407831/gfx_color_convert.o

.text.rgb888_rgb565
                0x9d02cd28       0x20
 .text.rgb888_rgb565
                0x9d02cd28       0x20 build/default/production/_ext/1026407831/gfx_color_convert.o

.text.layerSwapPending
                0x9d02cd48       0x20
 .text.layerSwapPending
                0x9d02cd48       0x20 build/default/production/_ext/1988394548/drv_gfx_lcc_generic.o

.text.driverLCCContextInitialize
                0x9d02cd68       0x20
 .text.driverLCCContextInitialize
                0x9d02cd68       0x20 build/default/production/_ext/1988394548/drv_gfx_lcc_generic.o
                0x9d02cd68                driverLCCContextInitialize

.text.laUpdate  0x9d02cd88       0x1c
 .text.laUpdate
                0x9d02cd88       0x1c build/default/production/_ext/493962524/libaria.o
                0x9d02cd88                laUpdate

.text.laContext_GetStringTable
                0x9d02cda4       0x1c
 .text.laContext_GetStringTable
                0x9d02cda4       0x1c build/default/production/_ext/493962524/libaria_context.o
                0x9d02cda4                laContext_GetStringTable

.text.laContext_GetStringLanguage
                0x9d02cdc0       0x1c
 .text.laContext_GetStringLanguage
                0x9d02cdc0       0x1c build/default/production/_ext/493962524/libaria_context.o
                0x9d02cdc0                laContext_GetStringLanguage

.text.laContext_GetEditWidget
                0x9d02cddc       0x1c
 .text.laContext_GetEditWidget
                0x9d02cddc       0x1c build/default/production/_ext/493962524/libaria_context.o
                0x9d02cddc                laContext_GetEditWidget

.text.laRectArray_Clear
                0x9d02cdf8       0x1c
 .text.laRectArray_Clear
                0x9d02cdf8       0x1c build/default/production/_ext/493962524/libaria_rectarray.o
                0x9d02cdf8                laRectArray_Clear

.text.__pic32_free_coherent
                0x9d02ce14       0x1c
 .text.__pic32_free_coherent
                0x9d02ce14       0x1c build/default/production/_ext/1026407831/gfx.o

.text.defPixelGet
                0x9d02ce30       0x1c
 .text.defPixelGet
                0x9d02ce30       0x1c build/default/production/_ext/1026407831/gfx_default_impl.o
                0x9d02ce30                defPixelGet

.text.defPixelSet
                0x9d02ce4c       0x1c
 .text.defPixelSet
                0x9d02ce4c       0x1c build/default/production/_ext/1026407831/gfx_default_impl.o
                0x9d02ce4c                defPixelSet

.text.GFX_DriverIntfInitialize
                0x9d02ce68       0x1c
 .text.GFX_DriverIntfInitialize
                0x9d02ce68       0x1c build/default/production/_ext/1026407831/gfx_driver_interface.o
                0x9d02ce68                GFX_DriverIntfInitialize

.text.set3byte  0x9d02ce84       0x1c
 .text.set3byte
                0x9d02ce84       0x1c build/default/production/_ext/1026407831/gfx_pixel_buffer.o

.text.gs8_rgba8888
                0x9d02cea0       0x1c
 .text.gs8_rgba8888
                0x9d02cea0       0x1c build/default/production/_ext/1026407831/gfx_color_convert.o

.text.gs8_argb8888
                0x9d02cebc       0x1c
 .text.gs8_argb8888
                0x9d02cebc       0x1c build/default/production/_ext/1026407831/gfx_color_convert.o

.text.lerp_gs8  0x9d02ced8       0x1c
 .text.lerp_gs8
                0x9d02ced8       0x1c build/default/production/_ext/1026407831/gfx_color_lerp.o

.text.SYS_MEMORY_Initialize
                0x9d02cef4       0x1c
 .text.SYS_MEMORY_Initialize
                0x9d02cef4       0x1c build/default/production/_ext/1541531744/sys_memory_static.o
                0x9d02cef4                SYS_MEMORY_Initialize

.text.APP_Tasks
                0x9d02cf10       0x18
 .text.APP_Tasks
                0x9d02cf10       0x18 build/default/production/_ext/1360937237/app.o
                0x9d02cf10                APP_Tasks

.text.DRV_MXT336T_ReadRequest
                0x9d02cf28       0x18
 .text.DRV_MXT336T_ReadRequest
                0x9d02cf28       0x18 build/default/production/_ext/1860398633/drv_mxt336t.o
                0x9d02cf28                DRV_MXT336T_ReadRequest

.text.getDiscreteValueAtIndex4
                0x9d02cf40       0x18
 .text.getDiscreteValueAtIndex4
                0x9d02cf40       0x18 build/default/production/_ext/1572996423/gfxu_image_utils.o
                0x9d02cf40                getDiscreteValueAtIndex4

.text.GFXU_DecodeASCII
                0x9d02cf58       0x18
 .text.GFXU_DecodeASCII
                0x9d02cf58       0x18 build/default/production/_ext/1572996423/gfxu_string_utils.o
                0x9d02cf58                GFXU_DecodeASCII

.text.orient_0  0x9d02cf70       0x18
 .text.orient_0
                0x9d02cf70       0x18 build/default/production/_ext/493962524/libaria_utils.o

.text._laWidget_IncreaseDirtyState
                0x9d02cf88       0x18
 .text._laWidget_IncreaseDirtyState
                0x9d02cf88       0x18 build/default/production/_ext/493962524/libaria_widget.o
                0x9d02cf88                _laWidget_IncreaseDirtyState

.text.defMirrorPointEmpty
                0x9d02cfa0       0x18
 .text.defMirrorPointEmpty
                0x9d02cfa0       0x18 build/default/production/_ext/1026407831/gfx_default_impl.o
                0x9d02cfa0                defMirrorPointEmpty

.text.GFX_DisplayInfoPtrGet
                0x9d02cfb8       0x18
 .text.GFX_DisplayInfoPtrGet
                0x9d02cfb8       0x18 build/default/production/_ext/1026407831/gfx_display.o
                0x9d02cfb8                GFX_DisplayInfoPtrGet

.text.orient_0  0x9d02cfd0       0x18
 .text.orient_0
                0x9d02cfd0       0x18 build/default/production/_ext/1026407831/gfx_util.o

.text.gs8_rgb332
                0x9d02cfe8       0x18
 .text.gs8_rgb332
                0x9d02cfe8       0x18 build/default/production/_ext/1026407831/gfx_color_convert.o

.text.rgb565_rgba5551
                0x9d02d000       0x18
 .text.rgb565_rgba5551
                0x9d02d000       0x18 build/default/production/_ext/1026407831/gfx_color_convert.o

.text           0x9d02d018       0x18
 .text          0x9d02d018       0x18 f:/software_installations/mplab_xc32/bin/bin/../../lib/gcc/pic32mx/4.8.3/../../../../pic32mx/lib\libpic32.a(default-nmi-handler.o)
                0x9d02d018                _nmi_handler

.text.abort     0x9d02d030       0x18
 .text.abort    0x9d02d030       0x18 f:/software_installations/mplab_xc32/bin/bin/../../lib/gcc/pic32mx/4.8.3/../../../../pic32mx/lib\libc.a(signal.o)
                0x9d02d030                abort

.text.paletteReadRequestCompleted
                0x9d02d048       0x28
 .text.paletteReadRequestCompleted
                0x9d02d048       0x14 build/default/production/_ext/1572996423/gfxu_image_raw_external.o
 .text.paletteReadRequestCompleted
                0x9d02d05c       0x14 build/default/production/_ext/1572996423/gfxu_image_rle_external.o

.text.fontDataRequestCompleted
                0x9d02d070       0x28
 .text.fontDataRequestCompleted
                0x9d02d070       0x14 build/default/production/_ext/1572996423/gfxu_string_external.o
 .text.fontDataRequestCompleted
                0x9d02d084       0x14 build/default/production/_ext/1572996423/gfxu_stringbuffer_external.o

.text.laContext_GetDefaultScheme
                0x9d02d098       0x14
 .text.laContext_GetDefaultScheme
                0x9d02d098       0x14 build/default/production/_ext/493962524/libaria_context.o
                0x9d02d098                laContext_GetDefaultScheme

.text.defBrightnessRangeGet
                0x9d02d0ac       0x14
 .text.defBrightnessRangeGet
                0x9d02d0ac       0x14 build/default/production/_ext/1026407831/gfx_default_impl.o
                0x9d02d0ac                defBrightnessRangeGet

.text.get_displayCount
                0x9d02d0c0       0x14
 .text.get_displayCount
                0x9d02d0c0       0x14 build/default/production/_ext/1026407831/gfx_get.o
                0x9d02d0c0                get_displayCount

.text.get_driverCount
                0x9d02d0d4       0x14
 .text.get_driverCount
                0x9d02d0d4       0x14 build/default/production/_ext/1026407831/gfx_get.o
                0x9d02d0d4                get_driverCount

.text.gs8_rgb888
                0x9d02d0e8       0x14
 .text.gs8_rgb888
                0x9d02d0e8       0x14 build/default/production/_ext/1026407831/gfx_color_convert.o

.text.rgba5551_rgb565
                0x9d02d0fc       0x14
 .text.rgba5551_rgb565
                0x9d02d0fc       0x14 build/default/production/_ext/1026407831/gfx_color_convert.o

.text.SYS_DMA_Suspend
                0x9d02d110       0x14
 .text.SYS_DMA_Suspend
                0x9d02d110       0x14 build/default/production/_ext/360842870/sys_dma.o
                0x9d02d110                SYS_DMA_Suspend

.text.SYS_DMA_Resume
                0x9d02d124       0x14
 .text.SYS_DMA_Resume
                0x9d02d124       0x14 build/default/production/_ext/360842870/sys_dma.o
                0x9d02d124                SYS_DMA_Resume

.text.SYS_INT_Initialize
                0x9d02d138       0x14
 .text.SYS_INT_Initialize
                0x9d02d138       0x14 build/default/production/_ext/549570029/sys_int_pic32.o
                0x9d02d138                SYS_INT_Initialize

.text.SYS_DEVCON_Initialize
                0x9d02d14c       0x14
 .text.SYS_DEVCON_Initialize
                0x9d02d14c       0x14 build/default/production/_ext/340578644/sys_devcon.o
                0x9d02d14c                SYS_DEVCON_Initialize

.rodata         0x9d02d160       0x20
 .rodata        0x9d02d160       0x10 build/default/production/_ext/493962524/libaria_widget_image_skin_classic.o
 .rodata        0x9d02d170       0x10 build/default/production/_ext/493962524/libaria_widget_label_skin_classic.o

.text.defMaskColor
                0x9d02d180       0x10
 .text.defMaskColor
                0x9d02d180       0x10 build/default/production/_ext/1026407831/gfx_default_impl.o
                0x9d02d180                defMaskColor

.text.GFX_Mini  0x9d02d190       0x10
 .text.GFX_Mini
                0x9d02d190       0x10 build/default/production/_ext/1026407831/gfx_math.o
                0x9d02d190                GFX_Mini

.text.GFX_Maxi  0x9d02d1a0       0x10
 .text.GFX_Maxi
                0x9d02d1a0       0x10 build/default/production/_ext/1026407831/gfx_math.o
                0x9d02d1a0                GFX_Maxi

.text.JPEG_vInitDisplay
                0x9d02d1b0        0xc
 .text.JPEG_vInitDisplay
                0x9d02d1b0        0xc build/default/production/_ext/1572996423/gfxu_image_jpg_common.o
                0x9d02d1b0                JPEG_vInitDisplay

.text.calcOffset24bpp
                0x9d02d1bc        0xc
 .text.calcOffset24bpp
                0x9d02d1bc        0xc build/default/production/_ext/1572996423/gfxu_image_utils.o

.text.laContext_SetActive
                0x9d02d1c8        0xc
 .text.laContext_SetActive
                0x9d02d1c8        0xc build/default/production/_ext/493962524/libaria_context.o
                0x9d02d1c8                laContext_SetActive

.text.GFX_DriverIntfPtrGet
                0x9d02d1d4        0xc
 .text.GFX_DriverIntfPtrGet
                0x9d02d1d4        0xc build/default/production/_ext/1026407831/gfx_driver_interface.o
                0x9d02d1d4                GFX_DriverIntfPtrGet

.text.set1byte  0x9d02d1e0        0xc
 .text.set1byte
                0x9d02d1e0        0xc build/default/production/_ext/1026407831/gfx_pixel_buffer.o

.text.set2byte  0x9d02d1ec        0xc
 .text.set2byte
                0x9d02d1ec        0xc build/default/production/_ext/1026407831/gfx_pixel_buffer.o

.text.set4byte  0x9d02d1f8        0xc
 .text.set4byte
                0x9d02d1f8        0xc build/default/production/_ext/1026407831/gfx_pixel_buffer.o

.text.rgb888_rgba8888
                0x9d02d204        0xc
 .text.rgb888_rgba8888
                0x9d02d204        0xc build/default/production/_ext/1026407831/gfx_color_convert.o

.text.rgb888_argb8888
                0x9d02d210        0xc
 .text.rgb888_argb8888
                0x9d02d210        0xc build/default/production/_ext/1026407831/gfx_color_convert.o

.text.SYS_CLK_SystemFrequencyGet
                0x9d02d21c        0xc
 .text.SYS_CLK_SystemFrequencyGet
                0x9d02d21c        0xc build/default/production/_ext/639803181/sys_clk_pic32mz.o
                0x9d02d21c                SYS_CLK_SystemFrequencyGet

.text.APP_Initialize
                0x9d02d228        0x8
 .text.APP_Initialize
                0x9d02d228        0x8 build/default/production/_ext/1360937237/app.o
                0x9d02d228                APP_Initialize

.text.DRV_I2C_TransferStatusGet
                0x9d02d230        0x8
 .text.DRV_I2C_TransferStatusGet
                0x9d02d230        0x8 build/default/production/_ext/1864665665/drv_i2c_bb_a.o
                0x9d02d230                DRV_I2C_TransferStatusGet

.text.getDiscreteValueAtIndex8
                0x9d02d238        0x8
 .text.getDiscreteValueAtIndex8
                0x9d02d238        0x8 build/default/production/_ext/1572996423/gfxu_image_utils.o
                0x9d02d238                getDiscreteValueAtIndex8

.text.calcOffset1bpp
                0x9d02d240        0x8
 .text.calcOffset1bpp
                0x9d02d240        0x8 build/default/production/_ext/1572996423/gfxu_image_utils.o

.text.calcOffset4bpp
                0x9d02d248        0x8
 .text.calcOffset4bpp
                0x9d02d248        0x8 build/default/production/_ext/1572996423/gfxu_image_utils.o

.text.calcOffset8bpp
                0x9d02d250        0x8
 .text.calcOffset8bpp
                0x9d02d250        0x8 build/default/production/_ext/1572996423/gfxu_image_utils.o

.text.calcOffset16bpp
                0x9d02d258        0x8
 .text.calcOffset16bpp
                0x9d02d258        0x8 build/default/production/_ext/1572996423/gfxu_image_utils.o

.text.calcOffset32bpp
                0x9d02d260        0x8
 .text.calcOffset32bpp
                0x9d02d260        0x8 build/default/production/_ext/1572996423/gfxu_image_utils.o

.text.getGlyphRowDataSize8bpp
                0x9d02d268        0x8
 .text.getGlyphRowDataSize8bpp
                0x9d02d268        0x8 build/default/production/_ext/1572996423/gfxu_string_utils.o
                0x9d02d268                getGlyphRowDataSize8bpp

.text.laContext_GetActive
                0x9d02d270        0x8
 .text.laContext_GetActive
                0x9d02d270        0x8 build/default/production/_ext/493962524/libaria_context.o
                0x9d02d270                laContext_GetActive

.text.update    0x9d02d278        0x8
 .text.update   0x9d02d278        0x8 build/default/production/_ext/493962524/libaria_widget.o

.text.moved     0x9d02d280        0x8
 .text.moved    0x9d02d280        0x8 build/default/production/_ext/493962524/libaria_widget.o

.text.resized   0x9d02d288        0x8
 .text.resized  0x9d02d288        0x8 build/default/production/_ext/493962524/libaria_widget.o

.text.focusGained
                0x9d02d290        0x8
 .text.focusGained
                0x9d02d290        0x8 build/default/production/_ext/493962524/libaria_widget.o

.text.focusLost
                0x9d02d298        0x8
 .text.focusLost
                0x9d02d298        0x8 build/default/production/_ext/493962524/libaria_widget.o

.text.touchDownEvent
                0x9d02d2a0        0x8
 .text.touchDownEvent
                0x9d02d2a0        0x8 build/default/production/_ext/493962524/libaria_widget.o

.text.touchUpEvent
                0x9d02d2a8        0x8
 .text.touchUpEvent
                0x9d02d2a8        0x8 build/default/production/_ext/493962524/libaria_widget.o

.text.touchMovedEvent
                0x9d02d2b0        0x8
 .text.touchMovedEvent
                0x9d02d2b0        0x8 build/default/production/_ext/493962524/libaria_widget.o

.text.languageChangingEvent
                0x9d02d2b8        0x8
 .text.languageChangingEvent
                0x9d02d2b8        0x8 build/default/production/_ext/493962524/libaria_widget.o

.text._laWidget_SetDirtyState
                0x9d02d2c0        0x8
 .text._laWidget_SetDirtyState
                0x9d02d2c0        0x8 build/default/production/_ext/493962524/libaria_widget.o
                0x9d02d2c0                _laWidget_SetDirtyState

.text._laWidget_ClearDirtyState
                0x9d02d2c8        0x8
 .text._laWidget_ClearDirtyState
                0x9d02d2c8        0x8 build/default/production/_ext/493962524/libaria_widget.o
                0x9d02d2c8                _laWidget_ClearDirtyState

.text.GFX_ActiveContext
                0x9d02d2d0        0x8
 .text.GFX_ActiveContext
                0x9d02d2d0        0x8 build/default/production/_ext/1026407831/gfx_context.o
                0x9d02d2d0                GFX_ActiveContext

.text.GFX_ContextActiveSet
                0x9d02d2d8        0x8
 .text.GFX_ContextActiveSet
                0x9d02d2d8        0x8 build/default/production/_ext/1026407831/gfx_context.o
                0x9d02d2d8                GFX_ContextActiveSet

.text._GFX_DefaultSyncCallback
                0x9d02d2e0        0x8
 .text._GFX_DefaultSyncCallback
                0x9d02d2e0        0x8 build/default/production/_ext/1026407831/gfx_context.o
                0x9d02d2e0                _GFX_DefaultSyncCallback

.text.defUpdate
                0x9d02d2e8        0x8
 .text.defUpdate
                0x9d02d2e8        0x8 build/default/production/_ext/1026407831/gfx_default_impl.o
                0x9d02d2e8                defUpdate

.text.defLayerSwapPending
                0x9d02d2f0        0x8
 .text.defLayerSwapPending
                0x9d02d2f0        0x8 build/default/production/_ext/1026407831/gfx_default_impl.o
                0x9d02d2f0                defLayerSwapPending

.text.defLayerSwapped
                0x9d02d2f8        0x8
 .text.defLayerSwapped
                0x9d02d2f8        0x8 build/default/production/_ext/1026407831/gfx_default_impl.o
                0x9d02d2f8                defLayerSwapped

.text.defMaskEmpty
                0x9d02d300        0x8
 .text.defMaskEmpty
                0x9d02d300        0x8 build/default/production/_ext/1026407831/gfx_default_impl.o
                0x9d02d300                defMaskEmpty

.text.defAlphaEmptyPoint
                0x9d02d308        0x8
 .text.defAlphaEmptyPoint
                0x9d02d308        0x8 build/default/production/_ext/1026407831/gfx_default_impl.o
                0x9d02d308                defAlphaEmptyPoint

.text.defEmptyAlphaBlend
                0x9d02d310        0x8
 .text.defEmptyAlphaBlend
                0x9d02d310        0x8 build/default/production/_ext/1026407831/gfx_default_impl.o
                0x9d02d310                defEmptyAlphaBlend

.text.defInterrupt
                0x9d02d318        0x8
 .text.defInterrupt
                0x9d02d318        0x8 build/default/production/_ext/1026407831/gfx_default_impl.o
                0x9d02d318                defInterrupt

.text.get_unimplemented
                0x9d02d320        0x8
 .text.get_unimplemented
                0x9d02d320        0x8 build/default/production/_ext/1026407831/gfx_get.o
                0x9d02d320                get_unimplemented

.text.get1byte  0x9d02d328        0x8
 .text.get1byte
                0x9d02d328        0x8 build/default/production/_ext/1026407831/gfx_pixel_buffer.o

.text.get2byte  0x9d02d330        0x8
 .text.get2byte
                0x9d02d330        0x8 build/default/production/_ext/1026407831/gfx_pixel_buffer.o

.text.get4byte  0x9d02d338        0x8
 .text.get4byte
                0x9d02d338        0x8 build/default/production/_ext/1026407831/gfx_pixel_buffer.o

.text.set_unimplemented
                0x9d02d340        0x8
 .text.set_unimplemented
                0x9d02d340        0x8 build/default/production/_ext/1026407831/gfx_set.o
                0x9d02d340                set_unimplemented

.text.no_conv   0x9d02d348        0x8
 .text.no_conv  0x9d02d348        0x8 build/default/production/_ext/1026407831/gfx_color_convert.o

.text.gs8_yuv   0x9d02d350        0x8
 .text.gs8_yuv  0x9d02d350        0x8 build/default/production/_ext/1026407831/gfx_color_convert.o

.text.rgb332_yuv
                0x9d02d358        0x8
 .text.rgb332_yuv
                0x9d02d358        0x8 build/default/production/_ext/1026407831/gfx_color_convert.o

.text.rgb565_yuv
                0x9d02d360        0x8
 .text.rgb565_yuv
                0x9d02d360        0x8 build/default/production/_ext/1026407831/gfx_color_convert.o

.text.rgba5551_gs8
                0x9d02d368        0x8
 .text.rgba5551_gs8
                0x9d02d368        0x8 build/default/production/_ext/1026407831/gfx_color_convert.o

.text.rgba5551_yuv
                0x9d02d370        0x8
 .text.rgba5551_yuv
                0x9d02d370        0x8 build/default/production/_ext/1026407831/gfx_color_convert.o

.text.rgb888_gs8
                0x9d02d378        0x8
 .text.rgb888_gs8
                0x9d02d378        0x8 build/default/production/_ext/1026407831/gfx_color_convert.o

.text.rgb888_yuv
                0x9d02d380        0x8
 .text.rgb888_yuv
                0x9d02d380        0x8 build/default/production/_ext/1026407831/gfx_color_convert.o

.text.rgba8888_gs8
                0x9d02d388        0x8
 .text.rgba8888_gs8
                0x9d02d388        0x8 build/default/production/_ext/1026407831/gfx_color_convert.o

.text.rgba8888_argb8888
                0x9d02d390        0x8
 .text.rgba8888_argb8888
                0x9d02d390        0x8 build/default/production/_ext/1026407831/gfx_color_convert.o

.text.rgba8888_yuv
                0x9d02d398        0x8
 .text.rgba8888_yuv
                0x9d02d398        0x8 build/default/production/_ext/1026407831/gfx_color_convert.o

.text.argb8888_rgb888
                0x9d02d3a0        0x8
 .text.argb8888_rgb888
                0x9d02d3a0        0x8 build/default/production/_ext/1026407831/gfx_color_convert.o

.text.argb8888_rgba8888
                0x9d02d3a8        0x8
 .text.argb8888_rgba8888
                0x9d02d3a8        0x8 build/default/production/_ext/1026407831/gfx_color_convert.o

.text.yuv_gs8   0x9d02d3b0        0x8
 .text.yuv_gs8  0x9d02d3b0        0x8 build/default/production/_ext/1026407831/gfx_color_convert.o

.text.yuv_rgb332
                0x9d02d3b8        0x8
 .text.yuv_rgb332
                0x9d02d3b8        0x8 build/default/production/_ext/1026407831/gfx_color_convert.o

.text.yuv_rgb565
                0x9d02d3c0        0x8
 .text.yuv_rgb565
                0x9d02d3c0        0x8 build/default/production/_ext/1026407831/gfx_color_convert.o

.text.yuv_rgba5551
                0x9d02d3c8        0x8
 .text.yuv_rgba5551
                0x9d02d3c8        0x8 build/default/production/_ext/1026407831/gfx_color_convert.o

.text.yuv_rgb888
                0x9d02d3d0        0x8
 .text.yuv_rgb888
                0x9d02d3d0        0x8 build/default/production/_ext/1026407831/gfx_color_convert.o

.text.yuv_rgba8888
                0x9d02d3d8        0x8
 .text.yuv_rgba8888
                0x9d02d3d8        0x8 build/default/production/_ext/1026407831/gfx_color_convert.o

.text.yuv_argb8888
                0x9d02d3e0        0x8
 .text.yuv_argb8888
                0x9d02d3e0        0x8 build/default/production/_ext/1026407831/gfx_color_convert.o

.text.lut_yuv   0x9d02d3e8        0x8
 .text.lut_yuv  0x9d02d3e8        0x8 build/default/production/_ext/1026407831/gfx_color_convert.o

.text.cpuDrawLine_AA
                0x9d02d3f0        0x8
 .text.cpuDrawLine_AA
                0x9d02d3f0        0x8 build/default/production/_ext/1026407831/gfx_draw_line.o
                0x9d02d3f0                cpuDrawLine_AA

.text.cpuDrawRect_Line_AA
                0x9d02d3f8        0x8
 .text.cpuDrawRect_Line_AA
                0x9d02d3f8        0x8 build/default/production/_ext/1026407831/gfx_draw_rect.o
                0x9d02d3f8                cpuDrawRect_Line_AA

.text.cpuDrawRect_Fill_AA
                0x9d02d400        0x8
 .text.cpuDrawRect_Fill_AA
                0x9d02d400        0x8 build/default/production/_ext/1026407831/gfx_draw_rect.o
                0x9d02d400                cpuDrawRect_Fill_AA

.text.layerBufferCountSet
                0x9d02d408        0x8
 .text.layerBufferCountSet
                0x9d02d408        0x8 build/default/production/_ext/1988394548/drv_gfx_lcc_generic.o

.text.layerBufferAddressSet
                0x9d02d410        0x8
 .text.layerBufferAddressSet
                0x9d02d410        0x8 build/default/production/_ext/1988394548/drv_gfx_lcc_generic.o

.text.layerBufferAllocate
                0x9d02d418        0x8
 .text.layerBufferAllocate
                0x9d02d418        0x8 build/default/production/_ext/1988394548/drv_gfx_lcc_generic.o

.text.BSP_Initialize
                0x9d02d420        0x8
 .text.BSP_Initialize
                0x9d02d420        0x8 build/default/production/_ext/74298950/bsp.o
                0x9d02d420                BSP_Initialize

.text._on_reset
                0x9d02d428        0x8
 .text._on_reset
                0x9d02d428        0x8 f:/software_installations/mplab_xc32/bin/bin/../../lib/gcc/pic32mx/4.8.3/../../../../pic32mx/lib\libpic32.a(default-on-reset.o)
                0x9d02d428                _on_reset

.text._on_bootstrap
                0x9d02d430        0x8
 .text._on_bootstrap
                0x9d02d430        0x8 f:/software_installations/mplab_xc32/bin/bin/../../lib/gcc/pic32mx/4.8.3/../../../../pic32mx/lib\libpic32.a(default-on-bootstrap.o)
                0x9d02d430                _on_bootstrap

.text._cleanup  0x9d02d438        0x8
 .text._cleanup
                0x9d02d438        0x8 f:/software_installations/mplab_xc32/bin/bin/../../lib/gcc/pic32mx/4.8.3/../../../../pic32mx/lib\libc.a(stdclean_simple.o)
                0x9d02d438                _cleanup

.rodata         0x9d021484        0x4
 .rodata        0x9d021484        0x4 build/default/production/_ext/1988394548/drv_gfx_lcc_generic.o
