Archive member included because of file (symbol)

f:/software_installations/mplab_xc32/bin/bin/../../lib/gcc/pic32mx/4.8.3\libgcc.a(floatunsisf.o)
                              build/pic32mz_da_sk_intddr_meb2/production/_ext/1847583374/gfx_math.o (__floatunsisf)
f:/software_installations/mplab_xc32/bin/bin/../../lib/gcc/pic32mx/4.8.3/../../../../pic32mx/lib\libpic32.a(memcpy.o)
                              build/pic32mz_da_sk_intddr_meb2/production/_ext/1847583374/gfx.o (memcpy)
f:/software_installations/mplab_xc32/bin/bin/../../lib/gcc/pic32mx/4.8.3/../../../../pic32mx/lib\libpic32.a(memset.o)
                              build/pic32mz_da_sk_intddr_meb2/production/_ext/1847583374/gfx.o (memset)
f:/software_installations/mplab_xc32/bin/bin/../../lib/gcc/pic32mx/4.8.3/../../../../pic32mx/lib\libpic32.a(strcmp.o)
                              build/pic32mz_da_sk_intddr_meb2/production/_ext/493934858/lodepng.o (strcmp)
f:/software_installations/mplab_xc32/bin/bin/../../lib/gcc/pic32mx/4.8.3/../../../../pic32mx/lib\libpic32.a(strcpy.o)
                              build/pic32mz_da_sk_intddr_meb2/production/_ext/2137108136/sys_debug.o (strcpy)
f:/software_installations/mplab_xc32/bin/bin/../../lib/gcc/pic32mx/4.8.3/../../../../pic32mx/lib\libpic32.a(strlen.o)
                              build/pic32mz_da_sk_intddr_meb2/production/_ext/1907747181/libaria_string.o (strlen)
f:/software_installations/mplab_xc32/bin/bin/../../lib/gcc/pic32mx/4.8.3/../../../../pic32mx/lib\libpic32.a(default-bootstrap-exception-handler.o)
                              f:/software_installations/mplab_xc32/bin/bin/../../lib/gcc/pic32mx/4.8.3/../../../../pic32mx/lib/./proc/32MZ2064DAG176/crt0_mips32r2.o (_bootstrap_exception_handler)
f:/software_installations/mplab_xc32/bin/bin/../../lib/gcc/pic32mx/4.8.3/../../../../pic32mx/lib\libpic32.a(default-on-reset.o)
                              f:/software_installations/mplab_xc32/bin/bin/../../lib/gcc/pic32mx/4.8.3/../../../../pic32mx/lib/./proc/32MZ2064DAG176/crt0_mips32r2.o (_on_reset)
f:/software_installations/mplab_xc32/bin/bin/../../lib/gcc/pic32mx/4.8.3/../../../../pic32mx/lib\libpic32.a(default-on-bootstrap.o)
                              f:/software_installations/mplab_xc32/bin/bin/../../lib/gcc/pic32mx/4.8.3/../../../../pic32mx/lib/./proc/32MZ2064DAG176/crt0_mips32r2.o (_on_bootstrap)
f:/software_installations/mplab_xc32/bin/bin/../../lib/gcc/pic32mx/4.8.3/../../../../pic32mx/lib\libpic32.a(default-nmi-handler.o)
                              f:/software_installations/mplab_xc32/bin/bin/../../lib/gcc/pic32mx/4.8.3/../../../../pic32mx/lib/./proc/32MZ2064DAG176/crt0_mips32r2.o (_nmi_handler)
f:/software_installations/mplab_xc32/bin/bin/../../lib/gcc/pic32mx/4.8.3/../../../../pic32mx/lib\libpic32.a(pic32_data_init.o)
                              f:/software_installations/mplab_xc32/bin/bin/../../lib/gcc/pic32mx/4.8.3/../../../../pic32mx/lib/./proc/32MZ2064DAG176/crt0_mips32r2.o (__pic32_data_init)
f:/software_installations/mplab_xc32/bin/bin/../../lib/gcc/pic32mx/4.8.3/../../../../pic32mx/lib\libpic32.a(pic32_init_cache.o)
                              f:/software_installations/mplab_xc32/bin/bin/../../lib/gcc/pic32mx/4.8.3/../../../../pic32mx/lib/./proc/32MZ2064DAG176/crt0_mips32r2.o (__pic32_init_cache)
f:/software_installations/mplab_xc32/bin/bin/../../lib/gcc/pic32mx/4.8.3/../../../../pic32mx/lib\libpic32.a(pic32_init_tlb_ebi_sqi.o)
                              f:/software_installations/mplab_xc32/bin/bin/../../lib/gcc/pic32mx/4.8.3/../../../../pic32mx/lib/./proc/32MZ2064DAG176/crt0_mips32r2.o (__pic32_tlb_init_ebi_sqi)
f:/software_installations/mplab_xc32/bin/bin/../../lib/gcc/pic32mx/4.8.3/../../../../pic32mx/lib\libpic32.a(cache-err-exception.o)
                              f:/software_installations/mplab_xc32/bin/bin/../../lib/gcc/pic32mx/4.8.3/../../../../pic32mx/lib/./proc/32MZ2064DAG176/crt0_mips32r2.o (_cache_err_exception_context)
f:/software_installations/mplab_xc32/bin/bin/../../lib/gcc/pic32mx/4.8.3/../../../../pic32mx/lib\libpic32.a(simple-tlb-refill-exception.o)
                              f:/software_installations/mplab_xc32/bin/bin/../../lib/gcc/pic32mx/4.8.3/../../../../pic32mx/lib/./proc/32MZ2064DAG176/crt0_mips32r2.o (_simple_tlb_refill_exception_context)
f:/software_installations/mplab_xc32/bin/bin/../../lib/gcc/pic32mx/4.8.3/../../../../pic32mx/lib\libpic32.a(defaultinterrupt.o)
                              f:/software_installations/mplab_xc32/bin/bin/../../lib/gcc/pic32mx/4.8.3/../../../../pic32mx/lib/./proc/32MZ2064DAG176\default_isr_vectors.o (_DefaultInterrupt)
f:/software_installations/mplab_xc32/bin/bin/../../lib/gcc/pic32mx/4.8.3/../../../../pic32mx/lib\libpic32.a(default-cache-err-exception-handler.o)
                              f:/software_installations/mplab_xc32/bin/bin/../../lib/gcc/pic32mx/4.8.3/../../../../pic32mx/lib\libpic32.a(cache-err-exception.o) (_cache_err_exception_handler)
f:/software_installations/mplab_xc32/bin/bin/../../lib/gcc/pic32mx/4.8.3/../../../../pic32mx/lib\libpic32.a(default-simple-tlb-refill-exception-handler.o)
                              f:/software_installations/mplab_xc32/bin/bin/../../lib/gcc/pic32mx/4.8.3/../../../../pic32mx/lib\libpic32.a(simple-tlb-refill-exception.o) (_simple_tlb_refill_exception_handler)
f:/software_installations/mplab_xc32/bin/bin/../../lib/gcc/pic32mx/4.8.3/../../../../pic32mx/lib\liblega-c.a(malloc.o)
                              build/pic32mz_da_sk_intddr_meb2/production/_ext/1177928576/drv_mxt336t.o (free)
f:/software_installations/mplab_xc32/bin/bin/../../lib/gcc/pic32mx/4.8.3/../../../../pic32mx/lib\liblega-c.a(malloc_realloc.o)
                              build/pic32mz_da_sk_intddr_meb2/production/_ext/1847583374/gfx.o (realloc)
f:/software_installations/mplab_xc32/bin/bin/../../lib/gcc/pic32mx/4.8.3/../../../../pic32mx/lib\liblega-c.a(malloc_calloc.o)
                              build/pic32mz_da_sk_intddr_meb2/production/_ext/1847583374/gfx.o (calloc)
f:/software_installations/mplab_xc32/bin/bin/../../lib/gcc/pic32mx/4.8.3/../../../../pic32mx/lib\liblega-c.a(errno.o)
                              f:/software_installations/mplab_xc32/bin/bin/../../lib/gcc/pic32mx/4.8.3/../../../../pic32mx/lib\liblega-c.a(malloc.o) (errno)
f:/software_installations/mplab_xc32/bin/bin/../../lib/gcc/pic32mx/4.8.3/../../../../pic32mx/lib\liblega-c.a(sprintf_cdnopuxX.eo)
                              build/pic32mz_da_sk_intddr_meb2/production/_ext/1907747181/libaria_widget_circular_gauge_skin_classic.o (_sprintf_cdnopuxX)
f:/software_installations/mplab_xc32/bin/bin/../../lib/gcc/pic32mx/4.8.3/../../../../pic32mx/lib\liblega-c.a(vsnprintf.o)
                              build/pic32mz_da_sk_intddr_meb2/production/_ext/2137108136/sys_debug.o (vsnprintf)
f:/software_installations/mplab_xc32/bin/bin/../../lib/gcc/pic32mx/4.8.3/../../../../pic32mx/lib\liblega-c.a(memmove.o)
                              f:/software_installations/mplab_xc32/bin/bin/../../lib/gcc/pic32mx/4.8.3/../../../../pic32mx/lib\liblega-c.a(malloc_realloc.o) (memmove)
f:/software_installations/mplab_xc32/bin/bin/../../lib/gcc/pic32mx/4.8.3/../../../../pic32mx/lib\liblega-c.a(_doprnt_cdnopuxX.eo)
                              f:/software_installations/mplab_xc32/bin/bin/../../lib/gcc/pic32mx/4.8.3/../../../../pic32mx/lib\liblega-c.a(sprintf_cdnopuxX.eo) (_do_print_cdnopuxX)
f:/software_installations/mplab_xc32/bin/bin/../../lib/gcc/pic32mx/4.8.3/../../../../pic32mx/lib\liblega-c.a(_doprnt.o)
                              f:/software_installations/mplab_xc32/bin/bin/../../lib/gcc/pic32mx/4.8.3/../../../../pic32mx/lib\liblega-c.a(vsnprintf.o) (do_print)
f:/software_installations/mplab_xc32/bin/bin/../../lib/gcc/pic32mx/4.8.3/../../../../pic32mx/lib\liblega-c.a(_iobdata.o)
                              f:/software_installations/mplab_xc32/bin/bin/../../lib/gcc/pic32mx/4.8.3/../../../../pic32mx/lib\liblega-c.a(_doprnt_cdnopuxX.eo) (_libc_data)
f:/software_installations/mplab_xc32/bin/bin/../../lib/gcc/pic32mx/4.8.3/../../../../pic32mx/lib\liblega-c.a(_iobfuncs.o)
                              f:/software_installations/mplab_xc32/bin/bin/../../lib/gcc/pic32mx/4.8.3/../../../../pic32mx/lib\liblega-c.a(_iobdata.o) (_filbuf_simple)
f:/software_installations/mplab_xc32/bin/bin/../../lib/gcc/pic32mx/4.8.3/../../../../pic32mx/lib\liblega-c.a(_iobstring.o)
                              f:/software_installations/mplab_xc32/bin/bin/../../lib/gcc/pic32mx/4.8.3/../../../../pic32mx/lib\liblega-c.a(sprintf_cdnopuxX.eo) (_io_strfuncs)
f:/software_installations/mplab_xc32/bin/bin/../../lib/gcc/pic32mx/4.8.3/../../../../pic32mx/lib\liblega-c.a(fputc.o)
                              f:/software_installations/mplab_xc32/bin/bin/../../lib/gcc/pic32mx/4.8.3/../../../../pic32mx/lib\liblega-c.a(_doprnt_cdnopuxX.eo) (fputc)
f:/software_installations/mplab_xc32/bin/bin/../../lib/gcc/pic32mx/4.8.3/../../../../pic32mx/lib\libm.a(dptofp.o)
                              f:/software_installations/mplab_xc32/bin/bin/../../lib/gcc/pic32mx/4.8.3/../../../../pic32mx/lib\liblega-c.a(_doprnt.o) (dptofp)
f:/software_installations/mplab_xc32/bin/bin/../../lib/gcc/pic32mx/4.8.3/../../../../pic32mx/lib\libm.a(fp32div.o)
                              build/pic32mz_da_sk_intddr_meb2/production/_ext/1847583374/gfx_math.o (fpdiv)
f:/software_installations/mplab_xc32/bin/bin/../../lib/gcc/pic32mx/4.8.3/../../../../pic32mx/lib\libm.a(fp32mul.o)
                              build/pic32mz_da_sk_intddr_meb2/production/_ext/1847583374/gfx_math.o (fpmul)
f:/software_installations/mplab_xc32/bin/bin/../../lib/gcc/pic32mx/4.8.3/../../../../pic32mx/lib\libm.a(fp32subadd.o)
                              build/pic32mz_da_sk_intddr_meb2/production/_ext/1907747181/libaria_widget_bar_graph_skin_classic.o (fpsub)
f:/software_installations/mplab_xc32/bin/bin/../../lib/gcc/pic32mx/4.8.3/../../../../pic32mx/lib\libm.a(fpatan.o)
                              build/pic32mz_da_sk_intddr_meb2/production/_ext/1847583374/gfx_math.o (atanf)
f:/software_installations/mplab_xc32/bin/bin/../../lib/gcc/pic32mx/4.8.3/../../../../pic32mx/lib\libm.a(fpcmp.o)
                              build/pic32mz_da_sk_intddr_meb2/production/_ext/1847583374/gfx_math.o (fpcmp)
f:/software_installations/mplab_xc32/bin/bin/../../lib/gcc/pic32mx/4.8.3/../../../../pic32mx/lib\libm.a(fpexatan.o)
                              f:/software_installations/mplab_xc32/bin/bin/../../lib/gcc/pic32mx/4.8.3/../../../../pic32mx/lib\libm.a(fpatan.o) (fpexatan)
f:/software_installations/mplab_xc32/bin/bin/../../lib/gcc/pic32mx/4.8.3/../../../../pic32mx/lib\libm.a(fpmodf.o)
                              f:/software_installations/mplab_xc32/bin/bin/../../lib/gcc/pic32mx/4.8.3/../../../../pic32mx/lib\liblega-c.a(_doprnt.o) (modff)
f:/software_installations/mplab_xc32/bin/bin/../../lib/gcc/pic32mx/4.8.3/../../../../pic32mx/lib\libm.a(fpexsqrt32.o)
                              f:/software_installations/mplab_xc32/bin/bin/../../lib/gcc/pic32mx/4.8.3/../../../../pic32mx/lib\libm.a(fpatan.o) (fpexsqrt)
f:/software_installations/mplab_xc32/bin/bin/../../lib/gcc/pic32mx/4.8.3/../../../../pic32mx/lib\libm.a(fptoli.o)
                              build/pic32mz_da_sk_intddr_meb2/production/_ext/1847583374/gfx_math.o (fptosi)
f:/software_installations/mplab_xc32/bin/bin/../../lib/gcc/pic32mx/4.8.3/../../../../pic32mx/lib\libm.a(fptoul.o)
                              build/pic32mz_da_sk_intddr_meb2/production/_ext/1847583374/gfx_math.o (fptoui)
f:/software_installations/mplab_xc32/bin/bin/../../lib/gcc/pic32mx/4.8.3/../../../../pic32mx/lib\libm.a(sitofp.o)
                              build/pic32mz_da_sk_intddr_meb2/production/_ext/1847583374/gfx_math.o (sitofp)
f:/software_installations/mplab_xc32/bin/bin/../../lib/gcc/pic32mx/4.8.3\libgcc.a(_udivdi3.o)
                              f:/software_installations/mplab_xc32/bin/bin/../../lib/gcc/pic32mx/4.8.3/../../../../pic32mx/lib\liblega-c.a(_doprnt_cdnopuxX.eo) (__udivdi3)
f:/software_installations/mplab_xc32/bin/bin/../../lib/gcc/pic32mx/4.8.3\libgcc.a(_umoddi3.o)
                              f:/software_installations/mplab_xc32/bin/bin/../../lib/gcc/pic32mx/4.8.3/../../../../pic32mx/lib\liblega-c.a(_doprnt_cdnopuxX.eo) (__umoddi3)
f:/software_installations/mplab_xc32/bin/bin/../../lib/gcc/pic32mx/4.8.3/../../../../pic32mx/lib\libpic32.a(sbrk.o)
                              f:/software_installations/mplab_xc32/bin/bin/../../lib/gcc/pic32mx/4.8.3/../../../../pic32mx/lib\liblega-c.a(malloc.o) (getpagesize)
f:/software_installations/mplab_xc32/bin/bin/../../lib/gcc/pic32mx/4.8.3/../../../../pic32mx/lib\libpic32.a(_mon_getc.o)
                              f:/software_installations/mplab_xc32/bin/bin/../../lib/gcc/pic32mx/4.8.3/../../../../pic32mx/lib\liblega-c.a(_iobfuncs.o) (_mon_getc)
f:/software_installations/mplab_xc32/bin/bin/../../lib/gcc/pic32mx/4.8.3/../../../../pic32mx/lib\libpic32.a(_mon_write.o)
                              f:/software_installations/mplab_xc32/bin/bin/../../lib/gcc/pic32mx/4.8.3/../../../../pic32mx/lib\liblega-c.a(_iobfuncs.o) (_mon_write)
f:/software_installations/mplab_xc32/bin/bin/../../lib/gcc/pic32mx/4.8.3/../../../../pic32mx/lib\libpic32.a(xc32_uart.o)
                              f:/software_installations/mplab_xc32/bin/bin/../../lib/gcc/pic32mx/4.8.3/../../../../pic32mx/lib\libpic32.a(_mon_getc.o) (__XC_UART)
f:/software_installations/mplab_xc32/bin/bin/../../lib/gcc/pic32mx/4.8.3/../../../../pic32mx/lib\libpic32.a(_mon_putc.o)
                              f:/software_installations/mplab_xc32/bin/bin/../../lib/gcc/pic32mx/4.8.3/../../../../pic32mx/lib\libpic32.a(_mon_write.o) (_mon_putc)

Allocating common symbols
Common symbol       size              file

infoBlock           0xc               build/pic32mz_da_sk_intddr_meb2/production/_ext/1177928576/drv_mxt336t.o
gDrvI2CCommonDataObj
                    0x3               build/pic32mz_da_sk_intddr_meb2/production/_ext/475095144/drv_i2c_bb_a.o
sMXT336TDriverInstances
                    0x80              build/pic32mz_da_sk_intddr_meb2/production/_ext/1177928576/drv_mxt336t.o
infoBlockData       0x4               build/pic32mz_da_sk_intddr_meb2/production/_ext/1177928576/drv_mxt336t.o
sysObj              0x14              build/pic32mz_da_sk_intddr_meb2/production/_ext/1653314881/system_init.o
listenerFlags       0x2               build/pic32mz_da_sk_intddr_meb2/production/_ext/252650337/sys_input.o
state               0x4               build/pic32mz_da_sk_intddr_meb2/production/_ext/1094895838/drv_gfx_glcd_static.o
touchScreenProcessor
                    0x4               build/pic32mz_da_sk_intddr_meb2/production/_ext/1177928576/drv_mxt336t.o
gblErrLvl           0x4               build/pic32mz_da_sk_intddr_meb2/production/_ext/2137108136/sys_debug.o
libariaObj          0x4               build/pic32mz_da_sk_intddr_meb2/production/_ext/590040425/libaria_harmony.o
eventCount          0x4               build/pic32mz_da_sk_intddr_meb2/production/_ext/252650337/sys_input.o
touchEndID          0x4               build/pic32mz_da_sk_intddr_meb2/production/_ext/1177928576/drv_mxt336t.o
gDrvUSART0Obj       0x4               build/pic32mz_da_sk_intddr_meb2/production/_ext/418582516/drv_usart_static.o
ImageWidget1        0x4               build/pic32mz_da_sk_intddr_meb2/production/_ext/590040425/libaria_init.o
cntxt               0x4               build/pic32mz_da_sk_intddr_meb2/production/_ext/1094895838/drv_gfx_glcd_static.o
messageProcessor    0x4               build/pic32mz_da_sk_intddr_meb2/production/_ext/1177928576/drv_mxt336t.o
objectTable         0x4               build/pic32mz_da_sk_intddr_meb2/production/_ext/1177928576/drv_mxt336t.o
starttime           0x4               build/pic32mz_da_sk_intddr_meb2/production/_ext/475095144/drv_i2c_bb_a.o
sysDevconObj        0x8               build/pic32mz_da_sk_intddr_meb2/production/_ext/1796496159/sys_devcon.o
reportIDMapSize     0x4               build/pic32mz_da_sk_intddr_meb2/production/_ext/1177928576/drv_mxt336t.o
LabelWidget1        0x4               build/pic32mz_da_sk_intddr_meb2/production/_ext/590040425/libaria_init.o
infoBlockSize       0x4               build/pic32mz_da_sk_intddr_meb2/production/_ext/1177928576/drv_mxt336t.o
touchBaseID         0x4               build/pic32mz_da_sk_intddr_meb2/production/_ext/1177928576/drv_mxt336t.o
inputListener       0x30              build/pic32mz_da_sk_intddr_meb2/production/_ext/590040425/libaria_harmony.o
sysDebugInstance    0x10              build/pic32mz_da_sk_intddr_meb2/production/_ext/2137108136/sys_debug.o
waitingForVSync     0x4               build/pic32mz_da_sk_intddr_meb2/production/_ext/1094895838/drv_gfx_glcd_static.o
generalEvents       0x200             build/pic32mz_da_sk_intddr_meb2/production/_ext/252650337/sys_input.o
defaultScheme       0x40              build/pic32mz_da_sk_intddr_meb2/production/_ext/590040425/libaria_init.o
ButtonWidget1       0x4               build/pic32mz_da_sk_intddr_meb2/production/_ext/590040425/libaria_init.o
operationStatus     0x4               build/pic32mz_da_sk_intddr_meb2/production/_ext/1177928576/drv_mxt336t.o
reportIDMapList     0x4               build/pic32mz_da_sk_intddr_meb2/production/_ext/1177928576/drv_mxt336t.o
appData             0x4               build/pic32mz_da_sk_intddr_meb2/production/_ext/1360937237/app.o
listeners           0x60              build/pic32mz_da_sk_intddr_meb2/production/_ext/252650337/sys_input.o
objectCount         0x4               build/pic32mz_da_sk_intddr_meb2/production/_ext/1177928576/drv_mxt336t.o
commandProcessor    0x4               build/pic32mz_da_sk_intddr_meb2/production/_ext/1177928576/drv_mxt336t.o

Microchip PIC32 Memory-Usage Report

kseg0 Program-Memory Usage
section                    address  length [bytes]      (dec)  Description
-------                 ----------  -------------------------  -----------
.simple_tlb_refill_excp 0x9d000000           0x10          16   
.text.laString_Copy     0x9d000010           0xf0         240   
.cache_err_excpt        0x9d000100           0x10          16   
.text.GFX_Set           0x9d000110           0x70         112   
.app_excpt              0x9d000180           0x10          16  General-Exception 
.text.GFX_PixelBufferSe 0x9d000190           0x70         112   
.vectors                0x9d000200           0x70         112   
.rodata                 0x9d000270         0x36ac       13996  Read-only const 
.text.lodepng_decode    0x9d00391c         0x15c4        5572   
.dinit                  0x9d004ee0         0x1380        4992   
.text.cpuDrawArc_Fill   0x9d006260          0xef4        3828   
.text._fconvert         0x9d007154          0xd34        3380   
.text.do_print          0x9d007e88          0xb10        2832   
.text.DRV_I2C_BB_Tasks  0x9d008998          0xac0        2752   
.text.JPEG_bPaintOneBlo 0x9d009458          0x98c        2444   
.text.lodepng_inflate   0x9d009de4          0x978        2424   
.text.JPEG_bReadHeader  0x9d00a75c          0x890        2192   
.text.malloc            0x9d00afec          0x800        2048   
.text.DRV_MXT336T_Tasks 0x9d00b7ec          0x7c4        1988   
.text.SYS_MEMORY_DDR_In 0x9d00bfb0          0x6c8        1736   
.text.jpeg_idct_islow   0x9d00c678          0x6b8        1720   
.text.SYS_PORTS_Initial 0x9d00cd30          0x658        1624   
.text.contextDefInitial 0x9d00d388          0x620        1568   
.text.glcdInitialize    0x9d00d9a8          0x5c0        1472   
.text.realloc           0x9d00df68          0x584        1412   
.text.drawMultiLineStri 0x9d00e4ec          0x550        1360   
.text.getPixelColorsRGB 0x9d00ea3c          0x540        1344   
.text.lodepng_convert   0x9d00ef7c          0x538        1336   
.text._laContext_ShowSc 0x9d00f4b4          0x4b0        1200   
.text                   0x9d00f964          0x8bc        2236  App's exec code 
.text.run               0x9d010220          0x450        1104   
.text.cpuDrawStretchBli 0x9d010670          0x440        1088   
.text.GFXU_DrawImageRLE 0x9d010ab0          0x428        1064   
.text.run               0x9d010ed8          0x414        1044   
.text.getPixelColorRGBA 0x9d0112ec          0x400        1024   
.text.drawMultiLineStri 0x9d0116ec          0x3fc        1020   
.text.laWidget_SkinClas 0x9d011ae8          0x3e8        1000   
.text.DRV_I2C_Initializ 0x9d011ed0          0x3a4         932   
.text._laContext_PaintW 0x9d012274          0x39c         924   
.text.laWidget_SkinClas 0x9d012610          0x398         920   
.text.unfilter          0x9d0129a8          0x390         912   
.text.HuffmanTree_makeF 0x9d012d38          0x350         848   
.text.run               0x9d013088          0x34c         844   
.text.GFX_Open          0x9d0133d4          0x334         820   
.text.GFXU_DrawImage    0x9d013708          0x330         816   
.text.cpuDrawStretchBli 0x9d013a38          0x310         784   
.text.run               0x9d013d48          0x300         768   
.text.GFXU_DrawImageJpg 0x9d014048          0x2d4         724   
.text.JPEG_bDecodeOneBl 0x9d01431c          0x2c0         704   
.text.GFXU_DrawImagePng 0x9d0145dc          0x2bc         700   
.text.GFXU_DrawImageJpg 0x9d014898          0x2a4         676   
.text._IntHandlerVSync  0x9d014b3c          0x2a4         676   
.text.laUtils_ArrangeRe 0x9d014de0          0x28c         652   
.text.cpuDrawLine       0x9d01506c          0x280         640   
.text.GFX_DrawDirectBli 0x9d0152ec          0x27c         636   
.text.free              0x9d015568          0x27c         636   
.text.fpsubadd          0x9d0157e4          0x278         632   
.text.GFX_DrawBlit      0x9d015a5c          0x250         592   
.text.lodepng_inspect   0x9d015cac          0x24c         588   
.text._laContext_Paint  0x9d015ef8          0x238         568   
.text.GFXU_DrawImageRaw 0x9d016130          0x230         560   
.text.fp32div           0x9d016360          0x230         560   
.text.GFX_DrawLine      0x9d016590          0x224         548   
.text.getPixelColorRGBA 0x9d0167b4          0x224         548   
.text.GFXU_DrawImagePng 0x9d0169d8          0x21c         540   
.text._laLayer_Preframe 0x9d016bf4          0x200         512   
.text.laUtils_ArrangeRe 0x9d016df4          0x1fc         508   
.text.GFXU_DecodeUTF8   0x9d016ff0          0x1f8         504   
.text.GFXU_DrawUnknownG 0x9d0171e8          0x1f4         500   
.text.SYS_INP_Tasks     0x9d0173dc          0x1f4         500   
.text.lodepng_add_itext 0x9d0175d0          0x1f0         496   
.text.ScreenCreate_defa 0x9d0177c0          0x1ec         492   
.text.lodepng_zlib_deco 0x9d0179ac          0x1dc         476   
.text._DRV_I2C_QueueSlo 0x9d017b88          0x1d8         472   
.text._laButtonWidget_I 0x9d017d60          0x1d8         472   
.text.cpuDrawRect_Gradi 0x9d017f38          0x1d4         468   
.text.cpuDrawRect_Gradi 0x9d01810c          0x1d4         468   
.text.GFXU_DrawGlyph    0x9d0182e0          0x1c8         456   
.text.SYS_CLK_Initializ 0x9d0184a8          0x1bc         444   
.text.fp32mul           0x9d018664          0x1bc         444   
.text.GFX_DrawRect      0x9d018820          0x1b8         440   
.text.GFX_DrawArc       0x9d0189d8          0x1b8         440   
.text._IntHandlerDrvI2C 0x9d018b90          0x1b8         440   
.text._IntHandlerExtern 0x9d018d48          0x1b8         440   
.text.touchMoved        0x9d018f00          0x1b4         436   
.text.laWidget_SkinClas 0x9d0190b4          0x1b4         436   
.text.DRV_I2C_BB_Initia 0x9d019268          0x1ac         428   
.text._laButtonWidget_G 0x9d019414          0x1a8         424   
.text.DRV_I2C_Receive   0x9d0195bc          0x1a4         420   
.text.laScheme_Initiali 0x9d019760          0x1a4         420   
.text                   0x9d019904          0x1a0         416  App's exec code 
.text.DRV_I2C_Transmit  0x9d019aa4          0x19c         412   
.text.cpuDrawBlit       0x9d019c40          0x19c         412   
.text.Adam7_getpassvalu 0x9d019ddc          0x19c         412   
.text.laInput_InjectTou 0x9d019f78          0x194         404   
.text.SYS_Initialize    0x9d01a10c          0x194         404   
.text._sbrk_init        0x9d01a2a0          0x194         404   
.text._laButtonWidget_G 0x9d01a434          0x190         400   
.text.GFXU_GetStringLin 0x9d01a5c4          0x190         400   
.text.defColorModeSet   0x9d01a754          0x18c         396   
.text.cpuDrawLine_Thick 0x9d01a8e0          0x188         392   
.text.cpuDrawLine_Norma 0x9d01aa68          0x184         388   
.text.laContext_Create  0x9d01abec          0x184         388   
.text.cpuDrawEllipse_Li 0x9d01ad70          0x180         384   
.text.cpuDrawDirectBlit 0x9d01aef0          0x17c         380   
.text.touchUp           0x9d01b06c          0x178         376   
.text.colorModeSet      0x9d01b1e4          0x178         376   
.text.GFXU_CompareStrin 0x9d01b35c          0x16c         364   
.text                   0x9d01b4c8          0x2d0         720  App's exec code 
.text.GFX_Close         0x9d01b798          0x164         356   
.text.GFX_RectSplit     0x9d01b8fc          0x164         356   
.text.cpuDrawPixel      0x9d01ba60          0x15c         348   
.text.drawImage         0x9d01bbbc          0x15c         348   
.text.laRectArray_SortB 0x9d01bd18          0x15c         348   
.text.GFX_UtilPointFrom 0x9d01be74          0x158         344   
.text.rleReadRequestCom 0x9d01bfcc          0x158         344   
.text.getArcSoftEdgeCol 0x9d01c124          0x154         340   
.text._laImageWidget_Ge 0x9d01c278          0x150         336   
.text.GFXU_GetCharStrin 0x9d01c3c8          0x14c         332   
.text.cpuDrawCircle_Lin 0x9d01c514          0x148         328   
.text.GFX_ColorBlend_RG 0x9d01c65c          0x144         324   
.text.GFX_SineCosineGet 0x9d01c7a0          0x144         324   
.text.laString_DrawSubS 0x9d01c8e4          0x144         324   
.text.JPEG_bGet1Bit     0x9d01ca28          0x144         324   
.text.cpuDrawRect_Fill  0x9d01cb6c          0x140         320   
.text.DRV_USART0_Initia 0x9d01ccac          0x13c         316   
.text._outcnvrt         0x9d01cde8          0x13c         316   
.text.GFXU_DrawSubStrin 0x9d01cf24          0x138         312   
.text.GFX_PixelBufferAr 0x9d01d05c          0x134         308   
.text.laInput_InjectTou 0x9d01d190          0x134         308   
.text._laLayer_AddDamag 0x9d01d2c4          0x134         308   
.text.GFX_DrawPixel     0x9d01d3f8          0x130         304   
.text.setLayerAttribute 0x9d01d528          0x130         304   
.text._laWidget_Constru 0x9d01d658          0x130         304   
.text._laWidget_Invalid 0x9d01d788          0x130         304   
.text.laWidget_SkinClas 0x9d01d8b8          0x130         304   
.text.laWidget_SkinClas 0x9d01d9e8          0x130         304   
.text.GFXU_DrawImageRaw 0x9d01db18          0x130         304   
.text.GFXU_DrawImageRLE 0x9d01dc48          0x130         304   
.text.rounded.isra.0    0x9d01dd78          0x130         304   
.text.laEvent_ProcessEv 0x9d01dea8          0x12c         300   
.text.GFX_RectClipAdj   0x9d01dfd4          0x128         296   
.text.cpuDrawRect_Line  0x9d01e0fc          0x128         296   
.text.checkColorValidit 0x9d01e224          0x128         296   
.text.GFX_LayerFromOrie 0x9d01e34c          0x124         292   
.text.laWidget_SkinClas 0x9d01e470          0x124         292   
.text.laWidget_SkinClas 0x9d01e594          0x124         292   
.text.nextState         0x9d01e6b8          0x120         288   
.text.drawImage         0x9d01e7d8          0x120         288   
.text.GFXU_DrawStringBu 0x9d01e8f8          0x120         288   
.text.laLayer_New       0x9d01ea18          0x118         280   
.text.GFX_UtilPointToOr 0x9d01eb30          0x114         276   
.text._laLabelWidget_Ge 0x9d01ec44          0x114         276   
.text.lodepng_add_text  0x9d01ed58          0x114         276   
.text.defDestroy        0x9d01ee6c          0x110         272   
.text.drawPaletteData   0x9d01ef7c          0x110         272   
.text.GFXU_DrawStringEx 0x9d01f08c          0x110         272   
.text.layerBufferCountS 0x9d01f19c          0x110         272   
.text.general_exception 0x9d01f2ac          0x110         272   
.text.defLayerBufferCou 0x9d01f3bc          0x10c         268   
.text.laRectArray_Merge 0x9d01f4c8          0x10c         268   
.text.GFXU_DecodeAndDra 0x9d01f5d4          0x10c         268   
.text.layerBufferAlloca 0x9d01f6e0          0x108         264   
.text.laInput_InjectTou 0x9d01f7e8          0x108         264   
.text.laWidget_SetSize  0x9d01f8f0          0x108         264   
.text.layerSwapped      0x9d01f9f8          0x104         260   
.text.SYS_DEVCON_Perfor 0x9d01fafc          0x104         260   
.text.malloc_trim       0x9d01fc00          0x104         260   
.text.GFX_EllipsePoint  0x9d01fd04          0x100         256   
.text.color_tree_add    0x9d01fe04          0x100         256   
.text.calloc            0x9d01ff04          0x100         256   
.text.dptofp            0x9d020004          0x100         256   
.text.DRV_I2C_MasterBuf 0x9d020104           0xfc         252   
.text.defDrawBlendModeS 0x9d020200           0xfc         252   
.text.laString_Compare  0x9d0202fc           0xfc         252   
.text.laWidget_SetPosit 0x9d0203f8           0xfc         252   
.text._flsbuf_simple    0x9d0204f4           0xfc         252   
.text.DRV_I2C_MasterBuf 0x9d0205f0           0xf8         248   
.text.GFX_LayerToOrient 0x9d0206e8           0xf8         248   
.text.arcsOverlapQuadra 0x9d0207e0           0xf8         248   
.text.SYS_DEBUG_Print   0x9d0208d8           0xf8         248   
.text.laList_Remove     0x9d0209d0           0xf4         244   
.text.la_strcmp         0x9d020ac4           0xf4         244   
.text.GFXU_DrawSubStrin 0x9d020bb8           0xf4         244   
.text.DRV_I2C_Open      0x9d020cac           0xec         236   
.text.GFX_DrawPixelByDr 0x9d020d98           0xec         236   
.text.pickChild         0x9d020e84           0xec         236   
.text.updateDirtyFlags  0x9d020f70           0xe8         232   
.text.laUtils_WidgetIsO 0x9d021058           0xe8         232   
.text.getRLEDataAtIndex 0x9d021140           0xe8         232   
.text.lodepng_color_mod 0x9d021228           0xe4         228   
.text.libaria_initializ 0x9d02130c           0xe4         228   
.text._mon_getc         0x9d0213f0           0xe4         228   
.text.GFX_PixelBufferCr 0x9d0214d4           0xe0         224   
.text.defMirroringSet   0x9d0215b4           0xdc         220   
.text.touchDown         0x9d021690           0xdc         220   
.text.lodepng_color_mod 0x9d02176c           0xdc         220   
.text.defInitialize     0x9d021848           0xd8         216   
.text.defOrientationSet 0x9d021920           0xd8         216   
.text._cache_err_except 0x9d0219f8           0xd8         216   
.text.simple_tlb_refill 0x9d021ad0           0xd8         216   
.text.transformCoordina 0x9d021ba8           0xd4         212   
.text.laLayer_AddDamage 0x9d021c7c           0xd4         212   
.text.drawBackground    0x9d021d50           0xd4         212   
.text.laRectArray_Remov 0x9d021e24           0xd4         212   
.text.generateFixedLitL 0x9d021ef8           0xd4         212   
.text.libm              0x9d021fcc           0xd4         212   
.text._mon_putc         0x9d0220a0           0xd4         212   
.text.laWidget_SetBackg 0x9d022174           0xd0         208   
.text.nextState         0x9d022244           0xd0         208   
.text.color_tree_get    0x9d022314           0xcc         204   
.text._laButtonWidget_C 0x9d0223e0           0xc8         200   
.text.laRectArray_Remov 0x9d0224a8           0xc8         200   
.text.LodePNGIText_clea 0x9d022570           0xc8         200   
.text.lodepng_chunk_app 0x9d022638           0xc8         200   
.text._sbrk             0x9d022700           0xc8         200   
.text.GFX_RectCombine   0x9d0227c8           0xc4         196   
.text.handleTouchDown   0x9d02288c           0xc4         196   
.text._laLayer_FinishFr 0x9d022950           0xc4         196   
.text.laWidget_SkinClas 0x9d022a14           0xc4         196   
.text.laString_GetLineR 0x9d022ad8           0xc0         192   
.text.laWidget_SkinClas 0x9d022b98           0xc0         192   
.text.removePaddingBits 0x9d022c58           0xc0         192   
.text._DRV_I2C_QueuePus 0x9d022d18           0xbc         188   
.text.defLayerBufferAdd 0x9d022dd4           0xbc         188   
.text.laString_GetMulti 0x9d022e90           0xbc         188   
.text.GFXU_DrawCharSubS 0x9d022f4c           0xbc         188   
.text.JPEG_bGetNextHuff 0x9d023008           0xbc         188   
.text.layerBufferAlloca 0x9d0230c4           0xbc         188   
.tlb.__pic32_tlb_init_e 0x9d023180           0xbc         188   
.rodata                 0x9d02323c           0xb8         184  Read-only const 
.text._laButtonWidget_P 0x9d0232f4           0xb8         184   
.text.laWidget_SkinClas 0x9d0233ac           0xb8         184   
.text.GFX_RectsAreSimil 0x9d023464           0xb4         180   
.text._laImageWidget_Pa 0x9d023518           0xb4         180   
.text._laLabelWidget_Pa 0x9d0235cc           0xb4         180   
.text.laWidget_SkinClas 0x9d023680           0xb4         180   
.text.drawGlyphRow8bpp  0x9d023734           0xb4         180   
.text.layerAlphaAmountS 0x9d0237e8           0xb4         180   
.text.lerp_argb8888     0x9d02389c           0xb0         176   
.text.lerp_rgba8888     0x9d02394c           0xb0         176   
.text.nextState         0x9d0239fc           0xb0         176   
.text._shuffleLeft      0x9d023aac           0xb0         176   
.text.laRectArray_PushB 0x9d023b5c           0xb0         176   
.text.GFXU_DrawSubStrin 0x9d023c0c           0xb0         176   
.text.GFXU_FontGetLooku 0x9d023cbc           0xb0         176   
.text.GFX_PixelBufferAr 0x9d023d6c           0xac         172   
.text.findNextLayer     0x9d023e18           0xac         172   
.text.laWidget_GetCumul 0x9d023ec4           0xac         172   
.text.laArray_Destroy   0x9d023f70           0xac         172   
.text.laWidget_SkinClas 0x9d02401c           0xac         172   
.text.drawGlyphRow1bpp  0x9d0240c8           0xac         172   
.text.fputc             0x9d024174           0xac         172   
.text.laScreen_New      0x9d024220           0xa8         168   
.text.layerSizeSet      0x9d0242c8           0xa8         168   
.text.layerPositionSet  0x9d024370           0xa8         168   
.text                   0x9d024418           0xa8         168  App's exec code 
.text.DRV_MXT336T_Open  0x9d0244c0           0xa4         164   
.text._laLayer_Invalida 0x9d024564           0xa4         164   
.text.laWidget_RectToLa 0x9d024608           0xa4         164   
.text.invalidateContent 0x9d0246ac           0xa4         164   
.text.laRectArray_Copy  0x9d024750           0xa4         164   
.text.StartI2C          0x9d0247f4           0xa0         160   
.text.DRV_MXT336T_Initi 0x9d024894           0xa0         160   
.text._laWidget_Destruc 0x9d024934           0xa0         160   
.text.laWidget_AddChild 0x9d0249d4           0xa0         160   
.text.laWidget_SkinClas 0x9d024a74           0xa0         160   
.text.imageReadRequestC 0x9d024b14           0xa0         160   
.text.GFXU_DecodeUTF16  0x9d024bb4           0xa0         160   
.text.HuffmanTree_makeF 0x9d024c54           0xa0         160   
.text.layerEnabledSet   0x9d024cf4           0xa0         160   
.text._DRV_I2C_QueuePop 0x9d024d94           0x9c         156   
.text.GFX_ColorBilerp   0x9d024e30           0x9c         156   
.text.rejectPixel       0x9d024ecc           0x9c         156   
.text.repl              0x9d024f68           0x9c         156   
.text.fpcmp             0x9d025004           0x9c         156   
.text.lerp_rgba5551     0x9d0250a0           0x98         152   
.text._laContext_Update 0x9d025138           0x98         152   
.text.LibAria_Initializ 0x9d0251d0           0x98         152   
.text.GFX_PixelBufferCl 0x9d025268           0x94         148   
.text.laContext_SetActi 0x9d0252fc           0x94         148   
.text._laLayer_Moved    0x9d025390           0x94         148   
.text._laLayer_Resized  0x9d025424           0x94         148   
.text.laList_PushBack   0x9d0254b8           0x94         148   
.text.laUtils_ClipRectT 0x9d02554c           0x94         148   
.text.laArray_Resize    0x9d0255e0           0x94         148   
.text.laArray_PushBack  0x9d025674           0x94         148   
.text.laArray_Free      0x9d025708           0x94         148   
.text.laRectArray_Resiz 0x9d02579c           0x94         148   
.text.laWidget_SkinClas 0x9d025830           0x94         148   
.text.GFXU_FontGetGlyph 0x9d0258c4           0x94         148   
.text.laContext_RedrawA 0x9d025958           0x90         144   
.text.laContext_SetEdit 0x9d0259e8           0x90         144   
.text.laUtils_PickFromL 0x9d025a78           0x90         144   
.text.laWidget_DeleteAl 0x9d025b08           0x90         144   
.text.laWidget_SkinClas 0x9d025b98           0x90         144   
.text.LodePNGText_clean 0x9d025c28           0x90         144   
.text.layerSwapPending  0x9d025cb8           0x90         144   
.text.layerBufferAddres 0x9d025d48           0x90         144   
.text._RegWrite16       0x9d025dd8           0x8c         140   
.text.defLayerPositionS 0x9d025e64           0x8c         140   
.text.GFX_RectClip      0x9d025ef0           0x8c         140   
.text.laList_Destroy    0x9d025f7c           0x8c         140   
.text.GFXU_StringLookup 0x9d026008           0x8c         140   
.text.lodepng_decode_me 0x9d026094           0x8c         140   
.text._IntHandlerChange 0x9d026120           0x8c         140   
.text._IntHandlerChange 0x9d0261ac           0x8c         140   
.rodata                 0x9d026238           0x8c         140  Read-only const 
.text.defDrawPaletteSet 0x9d0262c4           0x88         136   
.text.defGlobalAlphaBle 0x9d02634c           0x88         136   
.text.defPixelArrayGet  0x9d0263d4           0x88         136   
.text.waitImage         0x9d02645c           0x88         136   
.text.lodepng_chunk_typ 0x9d0264e4           0x88         136   
.text.GFX_ReadPixelArra 0x9d02656c           0x84         132   
.text.GFX_PolarToXY     0x9d0265f0           0x84         132   
.text.laButtonWidget_Se 0x9d026674           0x84         132   
.text.JPEG_bGenerateHuf 0x9d0266f8           0x84         132   
.text.SYS_INP_AddListen 0x9d02677c           0x84         132   
.text.uivector_resize   0x9d026800           0x84         132   
.text.string_set        0x9d026884           0x84         132   
.text.lodepng_info_init 0x9d026908           0x84         132   
.text                   0x9d02698c           0x84         132  App's exec code 
.text.layerBufferFree   0x9d026a10           0x80         128   
.text.defLayerSwapSet   0x9d026a90           0x80         128   
.text.get_displayInfo   0x9d026b10           0x80         128   
.text.lerp_rgb888       0x9d026b90           0x80         128   
.text.lerp_rgb565       0x9d026c10           0x80         128   
.text.lerp_rgb332       0x9d026c90           0x80         128   
.text.rejectBlit        0x9d026d10           0x80         128   
.text._laLayer_Paint    0x9d026d90           0x80         128   
.text.laUtils_WidgetLay 0x9d026e10           0x80         128   
.text.laWidget_SkinClas 0x9d026e90           0x80         128   
.text.uivector_resizev  0x9d026f10           0x80         128   
.text.generateFixedDist 0x9d026f90           0x80         128   
.text.getColorModeStrid 0x9d027010           0x80         128   
.text._fflush_simple    0x9d027090           0x80         128   
.text._fwrite_simple    0x9d027110           0x80         128   
.text.fptoli            0x9d027190           0x80         128   
.text.GFX_LayerSwap     0x9d027210           0x7c         124   
.text.cpuDrawLine_Horz  0x9d02728c           0x7c         124   
.text.cpuDrawLine_Vert  0x9d027308           0x7c         124   
.text.GFX_PercentOf     0x9d027384           0x7c         124   
.text.laString_GetHeigh 0x9d027400           0x7c         124   
.text.laString_GetAscen 0x9d02747c           0x7c         124   
.text.laLabelWidget_Set 0x9d0274f8           0x7c         124   
.text.laWidget_SkinClas 0x9d027574           0x7c         124   
.text.readBitsFromRever 0x9d0275f0           0x7c         124   
.text.fptoul            0x9d02766c           0x7c         124   
.text.defAlphaChannelBl 0x9d0276e8           0x78         120   
.text._laLabelWidget_Co 0x9d027760           0x78         120   
.text.laArray_Find      0x9d0277d8           0x78         120   
.text.GFXU_StringIndexL 0x9d027850           0x78         120   
.text.huffmanDecodeSymb 0x9d0278c8           0x78         120   
.text.addColorBits      0x9d027940           0x78         120   
.text.paethPredictor    0x9d0279b8           0x78         120   
.text.GFX_RectContainsR 0x9d027a30           0x74         116   
.text.GFX_RectIntersect 0x9d027aa4           0x74         116   
.text._laContext_Update 0x9d027b18           0x74         116   
.text.laContext_SetFocu 0x9d027b8c           0x74         116   
.text.laLayer_SetBuffer 0x9d027c00           0x74         116   
.text.laLayer_SetVSync  0x9d027c74           0x74         116   
.text.laScreen_SetLayer 0x9d027ce8           0x74         116   
.text.laUtils_ChildInte 0x9d027d5c           0x74         116   
.text.laUtils_GetNextHi 0x9d027dd0           0x74         116   
.text.laWidget_Invalida 0x9d027e44           0x74         116   
.text.drawBorder        0x9d027eb8           0x74         116   
.text.drawBackground    0x9d027f2c           0x74         116   
.text.laImageWidget_Set 0x9d027fa0           0x74         116   
.text.laWidget_SkinClas 0x9d028014           0x74         116   
.text.GFXU_StringFontIn 0x9d028088           0x74         116   
.text.ucvector_reserve  0x9d0280fc           0x74         116   
.rodata                 0x9d028170           0x74         116  Read-only const 
.text._general_exceptio 0x9d0281e4           0x74         116   
.text.SYS_Tasks         0x9d028258           0x74         116   
.text.GFX_ScaleInteger  0x9d0282cc           0x70         112   
.text.laString_CreateFr 0x9d02833c           0x70         112   
.text.laWidget_SkinClas 0x9d0283ac           0x70         112   
.text.vsnprintf         0x9d02841c           0x70         112   
.text.GFX_Lerp          0x9d02848c           0x6c         108   
.text.handleTouchUp     0x9d0284f8           0x6c         108   
.text.handleTouchMoved  0x9d028564           0x6c         108   
.text.laString_Destroy  0x9d0285d0           0x6c         108   
.text.laUtils_GetLayer  0x9d02863c           0x6c         108   
.text._shuffleLeft      0x9d0286a8           0x6c         108   
.text.laRectArray_Remov 0x9d028714           0x6c         108   
.text.laWidget_SkinClas 0x9d028780           0x6c         108   
.text.laWidget_SkinClas 0x9d0287ec           0x6c         108   
.rodata                 0x9d028858           0xd8         216  Read-only const 
.text.JPEG_wGetBits     0x9d028930           0x6c         108   
.rodata                 0x9d02899c           0x6c         108  Read-only const 
.text._MXT336T_FindObje 0x9d028a08           0x68         104   
.text.defDrawGradientCo 0x9d028a70           0x68         104   
.text.defLayerSizeGet   0x9d028ad8           0x68         104   
.text.defLayerSizeSet   0x9d028b40           0x68         104   
.text._GFX_LayerSizeSet 0x9d028ba8           0x68         104   
.text.GFX_PixelBufferSe 0x9d028c10           0x68         104   
.text.laContext_GetScre 0x9d028c78           0x68         104   
.text.waitString        0x9d028ce0           0x68         104   
.text.waitImage         0x9d028d48           0x68         104   
.text._laImageWidget_Co 0x9d028db0           0x68         104   
.text.waitString        0x9d028e18           0x68         104   
.text.laArray_Remove    0x9d028e80           0x68         104   
.text.laRectArray_Destr 0x9d028ee8           0x68         104   
.text.JPEG_wReadWord    0x9d028f50           0x68         104   
.text.externalMemoryRea 0x9d028fb8           0x68         104   
.text.setBitOfReversedS 0x9d029020           0x68         104   
.text.memmove           0x9d029088           0x68         104   
.text.__sputn           0x9d0290f0           0x68         104   
.text.defLayerActiveSet 0x9d029158           0x64         100   
.text.defDrawMaskEnable 0x9d0291bc           0x64         100   
.text.rgb565_gs8        0x9d029220           0x64         100   
.text.rgb332_gs8        0x9d029284           0x64         100   
.text._laInput_HandleIn 0x9d0292e8           0x64         100   
.text.isAncestorOf      0x9d02934c           0x64         100   
.text.laWidget_RemoveCh 0x9d0293b0           0x64         100   
.text.getNumColorChanne 0x9d029414           0x64         100   
.text.GFX_PixelBufferOf 0x9d029478           0x60          96   
.text.GFX_RectFromPoint 0x9d0294d8           0x60          96   
.text.lut_argb8888      0x9d029538           0x60          96   
.text.lut_rgba8888      0x9d029598           0x60          96   
.text.lut_rgb888        0x9d0295f8           0x60          96   
.text.lut_rgba5551      0x9d029658           0x60          96   
.text.lut_rgb565        0x9d0296b8           0x60          96   
.text.lut_rgb332        0x9d029718           0x60          96   
.text.lut_gs8           0x9d029778           0x60          96   
.text.laLayer_Delete    0x9d0297d8           0x60          96   
.text._laWidget_Validat 0x9d029838           0x60          96   
.text.GFXU_GetStringHei 0x9d029898           0x60          96   
.text.GFXU_GetStringAsc 0x9d0298f8           0x60          96   
.text.JPEG_sGetBitsValu 0x9d029958           0x60          96   
.text.color_tree_cleanu 0x9d0299b8           0x60          96   
.text.sitofp            0x9d029a18           0x60          96   
.text.defDrawGradientCo 0x9d029a78           0x5c          92   
.text.defLayerPositionG 0x9d029ad4           0x5c          92   
.text.indexGet          0x9d029b30           0x5c          92   
.text.GFX_PixelBufferDe 0x9d029b8c           0x5c          92   
.text.pointRelPositionF 0x9d029be8           0x5c          92   
.text.laUtils_RectToLay 0x9d029c44           0x5c          92   
.text.drawBorder        0x9d029ca0           0x5c          92   
.text.done              0x9d029cfc           0xb8         184   
.text.lodepng_chunk_che 0x9d029db4           0x5c          92   
.text.GFX_ColorModeInfo 0x9d029e10           0x58          88   
.text.defDrawPipelineMo 0x9d029e68           0x58          88   
.text.defDrawPaletteGet 0x9d029ec0           0x58          88   
.text.GFX_PixelBufferGe 0x9d029f18           0x58          88   
.text.GFX_ColorLerp     0x9d029f70           0x58          88   
.text.GFX_PercentWholeR 0x9d029fc8           0x58          88   
.text._laLayer_NeedsDra 0x9d02a020           0x58          88   
.text.laImageWidget_New 0x9d02a078           0x58          88   
.text.drawBorder        0x9d02a0d0           0xb0         176   
.text.createDefaultMemI 0x9d02a180           0x58          88   
.text.LibAria_Tasks     0x9d02a1d8           0x58          88   
.text.SYS_DEVCON_System 0x9d02a230           0x58          88   
.text.main_entry        0x9d02a288           0x54          84   
.text.GFX_Get           0x9d02a2dc           0x54          84   
.text.GFX_PixelBufferGe 0x9d02a330           0x54          84   
.text._laLayer_Postfram 0x9d02a384           0x54          84   
.text.laWidget_GetCumul 0x9d02a3d8           0x54          84   
.text._laButtonWidget_D 0x9d02a42c           0x54          84   
.text._laLabelWidget_De 0x9d02a480           0x54          84   
.text.laWidget_SkinClas 0x9d02a4d4           0x54          84   
.text.laWidget_SkinClas 0x9d02a528           0x54          84   
.text.SYS_INT_SourceDis 0x9d02a57c           0x54          84   
.text.ucvector_push_bac 0x9d02a5d0           0x54          84   
.text.lodepng_crc32     0x9d02a624           0x54          84   
.text.lodepng_get_raw_s 0x9d02a678           0x54          84   
.text.lodepng_get_raw_s 0x9d02a6cc           0x54          84   
.text.SYS_CONSOLE_Write 0x9d02a720           0x54          84   
.text.GFX_PixelBufferGe 0x9d02a774           0x50          80   
.text.GFX_RectContainsP 0x9d02a7c4           0x50          80   
.text._laLayer_Reset    0x9d02a814           0x50          80   
.text.laButtonWidget_Ne 0x9d02a864           0x50          80   
.text.laLabelWidget_New 0x9d02a8b4           0x50          80   
.text.lodepng_info_clea 0x9d02a904           0x50          80   
.text._fassert          0x9d02a954           0x50          80   
.text.sbrk              0x9d02a9a4           0x50          80   
.text.defLayerBufferCoh 0x9d02a9f4           0x4c          76   
.text.laWidget_SetBorde 0x9d02aa40           0x4c          76   
.text._laWidget_Paint   0x9d02aa8c           0x4c          76   
.rodata                 0x9d02aad8           0x4c          76  Read-only const 
.text.readBitsFromStrea 0x9d02ab24           0x4c          76   
.text                   0x9d02ab70           0x4c          76  App's exec code 
.text._mon_write        0x9d02abbc           0x4c          76   
.text.defDrawTargetSet  0x9d02ac08           0x48          72   
.text.defDrawClipRectGe 0x9d02ac50           0x48          72   
.text.defDrawClipRectSe 0x9d02ac98           0x48          72   
.text.GFX_RectCompare   0x9d02ace0           0x48          72   
.text.laContext_AddScre 0x9d02ad28           0x48          72   
.text.laEvent_AddEvent  0x9d02ad70           0x48          72   
.text.la_strcpy         0x9d02adb8           0x48          72   
.text._laImageWidget_De 0x9d02ae00           0x48          72   
.text.GFXU_GetStringSiz 0x9d02ae48           0x48          72   
.text.SYS_INP_InjectTou 0x9d02ae90           0x48          72   
.text.SYS_INP_InjectTou 0x9d02aed8           0x48          72   
.text.SYS_INP_InjectTou 0x9d02af20           0x48          72   
.text.driverGLCDInfoGet 0x9d02af68           0x48          72   
.text.SYS_DEVCON_System 0x9d02afb0           0x48          72   
.text._bootstrap_except 0x9d02aff8           0x48          72   
.text._cache_err_except 0x9d02b040           0x48          72   
.text._simple_tlb_refil 0x9d02b088           0x48          72   
.text.defBegin          0x9d02b0d0           0x44          68   
.text.defLayerBufferIsA 0x9d02b114           0x44          68   
.text.get_layerBufferAd 0x9d02b158           0x44          68   
.text.get_layerBufferCo 0x9d02b19c           0x44          68   
.text.get_layerBufferAl 0x9d02b1e0           0x44          68   
.text.invalidateImageRe 0x9d02b224           0x44          68   
.text.invalidateTextRec 0x9d02b268           0x44          68   
.text.GFXU_DrawGlyphRow 0x9d02b2ac           0x44          68   
.text.SYS_INP_Init      0x9d02b2f0           0x44          68   
.text.lodepng_encoder_s 0x9d02b334           0x44          68   
.text.lodepng_state_ini 0x9d02b378           0x44          68   
.text.glcdDestroy       0x9d02b3bc           0x44          68   
.text                   0x9d02b400           0x44          68  App's exec code 
.text.defBrightnessSet  0x9d02b444           0x40          64   
.text.get_drawGradientC 0x9d02b484           0x40          64   
.text.rgba5551_rgba8888 0x9d02b4c4           0x40          64   
.text.rgba5551_argb8888 0x9d02b504           0x40          64   
.text.GFX_ColorConvert  0x9d02b544           0x40          64   
.text.laContext_Update  0x9d02b584           0x40          64   
.text.laWidget_GetIndex 0x9d02b5c4           0x40          64   
.text.lodepng_realloc   0x9d02b604           0x40          64   
.text.internalMemoryRea 0x9d02b644           0x40          64   
.text.ucvector_resize   0x9d02b684           0x40          64   
.text.string_init       0x9d02b6c4           0x40          64   
.text.glcdUpdate        0x9d02b704           0x40          64   
.rodata                 0x9d02b744           0x3c          60  Read-only const 
.text._DRV_I2C_IsQueueE 0x9d02b780           0x3c          60   
.text.defVSyncCallbackS 0x9d02b7bc           0x3c          60   
.text.defHSyncCallbackS 0x9d02b7f8           0x3c          60   
.text.defLayerBufferAdd 0x9d02b834           0x3c          60   
.text.defLayerBufferCoh 0x9d02b870           0x3c          60   
.text.defLayerAlphaAmou 0x9d02b8ac           0x3c          60   
.text.GFX_RectToPoints  0x9d02b8e8           0x3c          60   
.text.set_layerAlphaEna 0x9d02b924           0x3c          60   
.text.set_layerAlphaAmo 0x9d02b960           0x3c          60   
.text.set_layerMaskEnab 0x9d02b99c           0x3c          60   
.text.set_layerMaskColo 0x9d02b9d8           0x3c          60   
.text.set_drawGradientC 0x9d02ba14           0x3c          60   
.text.laContext_GetActi 0x9d02ba50           0x3c          60   
.text.zlib_decompress   0x9d02ba8c           0x3c          60   
.text.lodepng_compress_ 0x9d02bac8           0x3c          60   
.text.lodepng_palette_c 0x9d02bb04           0x3c          60   
.rodata                 0x9d02bb40           0x3c          60  Read-only const 
.text._DRV_I2C_Advance_ 0x9d02bb7c           0x38          56   
.text.GFX_Update        0x9d02bbb4           0x38          56   
.text.GFX_Begin         0x9d02bbec           0x38          56   
.text.GFX_DriverIntfGet 0x9d02bc24           0x38          56   
.text.get_brightness    0x9d02bc5c           0x38          56   
.text.get_vsyncCallback 0x9d02bc94           0x38          56   
.text.get_hsyncCallback 0x9d02bccc           0x38          56   
.text.get_orientation   0x9d02bd04           0x38          56   
.text.get_mirroring     0x9d02bd3c           0x38          56   
.text.get_colorMode     0x9d02bd74           0x38          56   
.text.get_globalPalette 0x9d02bdac           0x38          56   
.text.get_layerEnabled  0x9d02bde4           0x38          56   
.text.get_layerVisible  0x9d02be1c           0x38          56   
.text.get_layerInvalid  0x9d02be54           0x38          56   
.text.get_layerVsync    0x9d02be8c           0x38          56   
.text.get_layerSwapSync 0x9d02bec4           0x38          56   
.text.get_layerSwap     0x9d02befc           0x38          56   
.text.get_layerAlphaEna 0x9d02bf34           0x38          56   
.text.get_layerAlphaAmo 0x9d02bf6c           0x38          56   
.text.get_layerMaskEnab 0x9d02bfa4           0x38          56   
.text.get_layerMaskColo 0x9d02bfdc           0x38          56   
.text.get_layerBufferCo 0x9d02c014           0x38          56   
.text.get_drawPipelineM 0x9d02c04c           0x38          56   
.text.get_drawMode      0x9d02c084           0x38          56   
.text.get_drawColor     0x9d02c0bc           0x38          56   
.text.get_drawBlendMode 0x9d02c0f4           0x38          56   
.text.get_drawResizeMod 0x9d02c12c           0x38          56   
.text.get_drawAlphaEnab 0x9d02c164           0x38          56   
.text.get_drawAlphaValu 0x9d02c19c           0x38          56   
.text.get_drawMaskEnabl 0x9d02c1d4           0x38          56   
.text.get_drawMaskValue 0x9d02c20c           0x38          56   
.text.get_drawThickness 0x9d02c244           0x38          56   
.text.get_drawClipEnabl 0x9d02c27c           0x38          56   
.text.GFX_PixelBufferOf 0x9d02c2b4           0x38          56   
.text.GFX_UtilOrientPoi 0x9d02c2ec           0x38          56   
.text.GFX_UtilMirrorPoi 0x9d02c324           0x38          56   
.text.laInitialize      0x9d02c35c           0x38          56   
.text.laEditWidget_Star 0x9d02c394           0x38          56   
.text.laUtils_ScreenToO 0x9d02c3cc           0x38          56   
.text.laUtils_ScreenToM 0x9d02c404           0x38          56   
.text.languageChanging  0x9d02c43c           0x70         112   
.text.lodepng_free      0x9d02c4ac           0x38          56   
.text.GFXU_DecodeCodePo 0x9d02c4e4           0x38          56   
.text.HuffmanTree_clean 0x9d02c51c           0x38          56   
.text.layerAlphaAmountG 0x9d02c554           0x38          56   
.text.APP_Initialize    0x9d02c58c           0x34          52   
.text.defLayerBufferFre 0x9d02c5c0           0x34          52   
.text.defLayerBufferAll 0x9d02c5f4           0x34          52   
.text.get_driverInfo    0x9d02c628           0x34          52   
.text.get_brightnessRan 0x9d02c65c           0x34          52   
.text.get_layerCount    0x9d02c690           0x34          52   
.text.get_layerActive   0x9d02c6c4           0x34          52   
.text.get_layerPosition 0x9d02c6f8           0x34          52   
.text.get_layerSize     0x9d02c72c           0x34          52   
.text.get_drawPalette   0x9d02c760           0x34          52   
.text.get_drawTarget    0x9d02c794           0x34          52   
.text.set_layerPosition 0x9d02c7c8           0x34          52   
.text.set_layerSize     0x9d02c7fc           0x34          52   
.text.set_layerBufferAd 0x9d02c830           0x34          52   
.text.set_layerBufferCo 0x9d02c864           0x34          52   
.text.rgba8888_rgba5551 0x9d02c898           0x34          52   
.text.laInput_SetEnable 0x9d02c8cc           0x34          52   
.text.la_strlen         0x9d02c900           0x34          52   
.text.laWidget_GetChild 0x9d02c934           0x34          52   
.text.uivector_cleanup  0x9d02c968           0x34          52   
.text.ucvector_cleanup  0x9d02c99c           0x34          52   
.text._filbuf_simple    0x9d02c9d0           0x34          52   
.text.__pic32_alloc_coh 0x9d02ca04           0x30          48   
.text.GFX_End           0x9d02ca34           0x30          48   
.text.defLayerEnabledSe 0x9d02ca64           0x30          48   
.text.defLayerVisibleSe 0x9d02ca94           0x30          48   
.text.defLayerVsyncSet  0x9d02cac4           0x30          48   
.text.defLayerInvalidSe 0x9d02caf4           0x30          48   
.text.defLayerAlphaEnab 0x9d02cb24           0x30          48   
.text.defLayerMaskEnabl 0x9d02cb54           0x30          48   
.text.defLayerMaskColor 0x9d02cb84           0x30          48   
.text.defDrawTargetGet  0x9d02cbb4           0x30          48   
.text.get_drawClipRect  0x9d02cbe4           0x30          48   
.text.orient_180        0x9d02cc14           0x30          48   
.text.GFX_UtilSizeFromO 0x9d02cc44           0x30          48   
.text.set_brightness    0x9d02cc74           0x30          48   
.text.set_vsyncCallback 0x9d02cca4           0x30          48   
.text.set_hsyncCallback 0x9d02ccd4           0x30          48   
.text.set_orientation   0x9d02cd04           0x30          48   
.text.set_mirroring     0x9d02cd34           0x30          48   
.text.set_colorMode     0x9d02cd64           0x30          48   
.text.set_globalPalette 0x9d02cd94           0x30          48   
.text.set_layerActive   0x9d02cdc4           0x30          48   
.text.set_layerEnabled  0x9d02cdf4           0x30          48   
.text.set_layerVisible  0x9d02ce24           0x30          48   
.text.set_layerInvalid  0x9d02ce54           0x30          48   
.text.set_layerVsync    0x9d02ce84           0x30          48   
.text.set_layerSwapSync 0x9d02ceb4           0x30          48   
.text.set_layerSwap     0x9d02cee4           0x30          48   
.text.set_layerBufferCo 0x9d02cf14           0x30          48   
.text.set_layerBufferAl 0x9d02cf44           0x30          48   
.text.set_layerBufferFr 0x9d02cf74           0x30          48   
.text.set_drawPipelineM 0x9d02cfa4           0x30          48   
.text.set_drawMode      0x9d02cfd4           0x30          48   
.text.set_drawColor     0x9d02d004           0x30          48   
.text.set_drawPalette   0x9d02d034           0x30          48   
.text.set_drawTarget    0x9d02d064           0x30          48   
.text.set_drawBlendMode 0x9d02d094           0x30          48   
.text.set_drawResizeMod 0x9d02d0c4           0x30          48   
.text.set_drawAlphaEnab 0x9d02d0f4           0x30          48   
.text.set_drawAlphaValu 0x9d02d124           0x30          48   
.text.set_drawMaskEnabl 0x9d02d154           0x30          48   
.text.set_drawMaskValue 0x9d02d184           0x30          48   
.text.set_drawThickness 0x9d02d1b4           0x30          48   
.text.set_drawClipEnabl 0x9d02d1e4           0x30          48   
.text.set_drawClipRect  0x9d02d214           0x30          48   
.text.rgb332_rgb888     0x9d02d244           0x30          48   
.text.rgb332_rgba8888   0x9d02d274           0x30          48   
.text.rgb332_argb8888   0x9d02d2a4           0x30          48   
.text.rgba5551_rgb888   0x9d02d2d4           0x30          48   
.text.argb8888_rgba5551 0x9d02d304           0x30          48   
.text.laEditWidget_EndE 0x9d02d334           0x30          48   
.text.orient_180        0x9d02d364           0x30          48   
.text.laUtils_WidgetLoc 0x9d02d394           0x30          48   
.text.lodepng_malloc    0x9d02d3c4           0x30          48   
.text.JPEG_bReadByte    0x9d02d3f4           0x30          48   
.text.SYS_DEBUG_Initial 0x9d02d424           0x30          48   
.text.lodepng_get_bpp   0x9d02d454           0x30          48   
.text.lodepng_state_cle 0x9d02d484           0x30          48   
.text.DRV_USART_Initial 0x9d02d4b4           0x30          48   
.text.SYS_CLK_Periphera 0x9d02d4e4           0x30          48   
.text._fsync_simple     0x9d02d514           0x30          48   
.text.defGlobalPaletteS 0x9d02d544           0x2c          44   
.text.defLayerSwapSyncS 0x9d02d570           0x2c          44   
.text.defDrawModeSet    0x9d02d59c           0x2c          44   
.text.defDrawColorSet   0x9d02d5c8           0x2c          44   
.text.defDrawResizeMode 0x9d02d5f4           0x2c          44   
.text.defDrawAlphaEnabl 0x9d02d620           0x2c          44   
.text.defDrawAlphaValue 0x9d02d64c           0x2c          44   
.text.defDrawMaskValueS 0x9d02d678           0x2c          44   
.text.defDrawThicknessS 0x9d02d6a4           0x2c          44   
.text.defDrawClipEnable 0x9d02d6d0           0x2c          44   
.text.indexGet1bpp      0x9d02d6fc           0x2c          44   
.text.rgb565_argb8888   0x9d02d728           0x2c          44   
.text.GFX_Percent       0x9d02d754           0x2c          44   
.text._laContext_Handle 0x9d02d780           0x2c          44   
.text.laString_IsEmpty  0x9d02d7ac           0x2c          44   
.text.drawBackground    0x9d02d7d8           0x58          88   
.text.getDiscreteValueA 0x9d02d830           0x2c          44   
.text.getOffsetFromInde 0x9d02d85c           0x2c          44   
.text.lodepng_read32bit 0x9d02d888           0x2c          44   
.text.lodepng_chunk_nex 0x9d02d8b4           0x2c          44   
.text.lodepng_color_mod 0x9d02d8e0           0x2c          44   
.text.driverGLCDContext 0x9d02d90c           0x2c          44   
.text._stub_sbd_memlayo 0x9d02d938           0x2c          44   
.text.GFX_Initialize    0x9d02d964           0x28          40   
.text.defOrientPoint    0x9d02d98c           0x28          40   
.text.defMirrorPoint    0x9d02d9b4           0x28          40   
.text.rgb332_rgb565     0x9d02d9dc           0x28          40   
.text.rgb332_rgba5551   0x9d02da04           0x28          40   
.text.rgb565_rgba8888   0x9d02da2c           0x28          40   
.text.rgb888_rgba5551   0x9d02da54           0x28          40   
.text.laContext_SetStri 0x9d02da7c           0x28          40   
.text.headerReadRequest 0x9d02daa4           0x28          40   
.text.GFXU_GetGlyphRowD 0x9d02dacc           0x28          40   
.text.SYS_INT_ExternalI 0x9d02daf4           0x28          40   
.text.readBitFromRevers 0x9d02db1c           0x28          40   
.text.lodepng_decoder_s 0x9d02db44           0x28          40   
.text.touchMoveHandler  0x9d02db6c           0x28          40   
.text.touchUpHandler    0x9d02db94           0x28          40   
.text.touchDownHandler  0x9d02dbbc           0x28          40   
.text.GFX_InitializeDri 0x9d02dbe4           0x28          40   
.text.defAlphaGetPoint  0x9d02dc0c           0x24          36   
.text.defEnd            0x9d02dc30           0x24          36   
.text.defLayerEnabledGe 0x9d02dc54           0x24          36   
.text.defLayerVisibleGe 0x9d02dc78           0x24          36   
.text.defLayerBufferCou 0x9d02dc9c           0x24          36   
.text.defLayerVsyncGet  0x9d02dcc0           0x24          36   
.text.defLayerInvalidGe 0x9d02dce4           0x24          36   
.text.defLayerSwapGet   0x9d02dd08           0x24          36   
.text.defLayerAlphaEnab 0x9d02dd2c           0x24          36   
.text.defLayerAlphaAmou 0x9d02dd50           0x24          36   
.text.defLayerMaskEnabl 0x9d02dd74           0x24          36   
.text.defLayerMaskColor 0x9d02dd98           0x24          36   
.text.indexGet4bpp      0x9d02ddbc           0x24          36   
.text.orient_90         0x9d02dde0           0x24          36   
.text.orient_270        0x9d02de04           0x24          36   
.text.mirror_0          0x9d02de28           0x24          36   
.text.mirror_90         0x9d02de4c           0x24          36   
.text.mirror_180        0x9d02de70           0x24          36   
.text.mirror_270        0x9d02de94           0x24          36   
.text.rgb565_rgb888     0x9d02deb8           0x24          36   
.text.rgb888_rgb332     0x9d02dedc           0x24          36   
.text.rgba8888_rgb332   0x9d02df00           0x24          36   
.text.rgba8888_rgb565   0x9d02df24           0x24          36   
.text.rgba8888_rgb888   0x9d02df48           0x24          36   
.text.laScreen_GetLayer 0x9d02df6c           0x24          36   
.text.laString_Initiali 0x9d02df90           0x24          36   
.text.orient_90         0x9d02dfb4           0x24          36   
.text.orient_270        0x9d02dfd8           0x24          36   
.text.mirror_0          0x9d02dffc           0x24          36   
.text.mirror_90         0x9d02e020           0x24          36   
.text.mirror_180        0x9d02e044           0x24          36   
.text.mirror_270        0x9d02e068           0x24          36   
.text.laArray_Create    0x9d02e08c           0x24          36   
.text.laRectArray_Creat 0x9d02e0b0           0x24          36   
.text.getGlyphRowDataSi 0x9d02e0d4           0x24          36   
.text.DRV_USART0_WriteB 0x9d02e0f8           0x24          36   
.text.main              0x9d02e11c           0x20          32   
.text.defBrightnessGet  0x9d02e13c           0x20          32   
.text.defVSyncCallbackG 0x9d02e15c           0x20          32   
.text.defHSyncCallbackG 0x9d02e17c           0x20          32   
.text.defOrientationGet 0x9d02e19c           0x20          32   
.text.defMirroringGet   0x9d02e1bc           0x20          32   
.text.defColorModeGet   0x9d02e1dc           0x20          32   
.text.defGlobalPaletteG 0x9d02e1fc           0x20          32   
.text.defLayerActiveGet 0x9d02e21c           0x20          32   
.text.defLayerSwapSyncG 0x9d02e23c           0x20          32   
.text.defDrawPipelineMo 0x9d02e25c           0x20          32   
.text.defDrawModeGet    0x9d02e27c           0x20          32   
.text.defDrawColorGet   0x9d02e29c           0x20          32   
.text.defDrawBlendModeG 0x9d02e2bc           0x20          32   
.text.defDrawResizeMode 0x9d02e2dc           0x20          32   
.text.defDrawAlphaEnabl 0x9d02e2fc           0x20          32   
.text.defDrawAlphaValue 0x9d02e31c           0x20          32   
.text.defDrawMaskEnable 0x9d02e33c           0x20          32   
.text.defDrawMaskValueG 0x9d02e35c           0x20          32   
.text.defDrawThicknessG 0x9d02e37c           0x20          32   
.text.defDrawClipEnable 0x9d02e39c           0x20          32   
.text.get3byte          0x9d02e3bc           0x20          32   
.rodata                 0x9d02e3dc           0x20          32  Read-only const 
.text.gs8_rgb565        0x9d02e3fc           0x20          32   
.text.gs8_rgba5551      0x9d02e41c           0x20          32   
.text.rgb565_rgb332     0x9d02e43c           0x20          32   
.text.rgba5551_rgb332   0x9d02e45c           0x20          32   
.text.rgb888_rgb565     0x9d02e47c           0x20          32   
.rodata                 0x9d02e49c           0x20          32  Read-only const 
.text.getDiscreteValueA 0x9d02e4bc           0x20          32   
.text.JPEG_vResetDecode 0x9d02e4dc           0x20          32   
.text.__pic32_free_cohe 0x9d02e4fc           0x1c          28   
.text.defPixelGet       0x9d02e518           0x1c          28   
.text.defPixelSet       0x9d02e534           0x1c          28   
.text.GFX_DriverIntfIni 0x9d02e550           0x1c          28   
.text.set3byte          0x9d02e56c           0x1c          28   
.text.gs8_rgba8888      0x9d02e588           0x1c          28   
.text.gs8_argb8888      0x9d02e5a4           0x1c          28   
.text.lerp_gs8          0x9d02e5c0           0x1c          28   
.text.laUpdate          0x9d02e5dc           0x1c          28   
.text.laContext_GetStri 0x9d02e5f8           0x1c          28   
.text.laContext_GetStri 0x9d02e614           0x1c          28   
.text.laContext_GetEdit 0x9d02e630           0x1c          28   
.text.laRectArray_Clear 0x9d02e64c           0x1c          28   
.text.SYS_MEMORY_Initia 0x9d02e668           0x1c          28   
.text.APP_Tasks         0x9d02e684           0x18          24   
.text.DRV_MXT336T_ReadR 0x9d02e69c           0x18          24   
.text.defMirrorPointEmp 0x9d02e6b4           0x18          24   
.text.GFX_DisplayInfoPt 0x9d02e6cc           0x18          24   
.text.orient_0          0x9d02e6e4           0x18          24   
.text.gs8_rgb332        0x9d02e6fc           0x18          24   
.text.rgb565_rgba5551   0x9d02e714           0x18          24   
.text.orient_0          0x9d02e72c           0x18          24   
.text._laWidget_Increas 0x9d02e744           0x18          24   
.text.getDiscreteValueA 0x9d02e75c           0x18          24   
.text.GFXU_DecodeASCII  0x9d02e774           0x18          24   
.text                   0x9d02e78c           0x18          24  App's exec code 
.text.defBrightnessRang 0x9d02e7a4           0x14          20   
.text.get_displayCount  0x9d02e7b8           0x14          20   
.text.get_driverCount   0x9d02e7cc           0x14          20   
.text.gs8_rgb888        0x9d02e7e0           0x14          20   
.text.rgba5551_rgb565   0x9d02e7f4           0x14          20   
.text.laContext_GetDefa 0x9d02e808           0x14          20   
.text.paletteReadReques 0x9d02e81c           0x28          40   
.text.fontDataRequestCo 0x9d02e844           0x28          40   
.text.SYS_INT_Initializ 0x9d02e86c           0x14          20   
.text.SYS_DEVCON_Initia 0x9d02e880           0x14          20   
.rodata                 0x9d02e894           0x28          40  Read-only const 
.text.defMaskColor      0x9d02e8bc           0x10          16   
.text.GFX_Mini          0x9d02e8cc           0x10          16   
.text.GFX_Maxi          0x9d02e8dc           0x10          16   
.rodata                 0x9d02e8ec           0x20          32  Read-only const 
.text.GFX_DriverIntfPtr 0x9d02e90c            0xc          12   
.text.set1byte          0x9d02e918            0xc          12   
.text.set2byte          0x9d02e924            0xc          12   
.text.set4byte          0x9d02e930            0xc          12   
.text.rgb888_rgba8888   0x9d02e93c            0xc          12   
.text.rgb888_argb8888   0x9d02e948            0xc          12   
.text.laContext_SetActi 0x9d02e954            0xc          12   
.text.calcOffset24bpp   0x9d02e960            0xc          12   
.text.JPEG_vInitDisplay 0x9d02e96c            0xc          12   
.text.SYS_CLK_SystemFre 0x9d02e978            0xc          12   
.text.DRV_I2C_TransferS 0x9d02e984            0x8           8   
.text.GFX_ActiveContext 0x9d02e98c            0x8           8   
.text.GFX_ContextActive 0x9d02e994            0x8           8   
.text._GFX_DefaultSyncC 0x9d02e99c            0x8           8   
.text.defUpdate         0x9d02e9a4            0x8           8   
.text.defLayerSwapPendi 0x9d02e9ac            0x8           8   
.text.defLayerSwapped   0x9d02e9b4            0x8           8   
.text.defMaskEmpty      0x9d02e9bc            0x8           8   
.text.defAlphaEmptyPoin 0x9d02e9c4            0x8           8   
.text.defEmptyAlphaBlen 0x9d02e9cc            0x8           8   
.text.defInterrupt      0x9d02e9d4            0x8           8   
.text.get_unimplemented 0x9d02e9dc            0x8           8   
.text.get1byte          0x9d02e9e4            0x8           8   
.text.get2byte          0x9d02e9ec            0x8           8   
.text.get4byte          0x9d02e9f4            0x8           8   
.text.set_unimplemented 0x9d02e9fc            0x8           8   
.text.no_conv           0x9d02ea04            0x8           8   
.text.gs8_yuv           0x9d02ea0c            0x8           8   
.text.rgb332_yuv        0x9d02ea14            0x8           8   
.text.rgb565_yuv        0x9d02ea1c            0x8           8   
.text.rgba5551_gs8      0x9d02ea24            0x8           8   
.text.rgba5551_yuv      0x9d02ea2c            0x8           8   
.text.rgb888_gs8        0x9d02ea34            0x8           8   
.text.rgb888_yuv        0x9d02ea3c            0x8           8   
.text.rgba8888_gs8      0x9d02ea44            0x8           8   
.text.rgba8888_argb8888 0x9d02ea4c            0x8           8   
.text.rgba8888_yuv      0x9d02ea54            0x8           8   
.text.argb8888_rgb888   0x9d02ea5c            0x8           8   
.text.argb8888_rgba8888 0x9d02ea64            0x8           8   
.text.yuv_gs8           0x9d02ea6c            0x8           8   
.text.yuv_rgb332        0x9d02ea74            0x8           8   
.text.yuv_rgb565        0x9d02ea7c            0x8           8   
.text.yuv_rgba5551      0x9d02ea84            0x8           8   
.text.yuv_rgb888        0x9d02ea8c            0x8           8   
.text.yuv_rgba8888      0x9d02ea94            0x8           8   
.text.yuv_argb8888      0x9d02ea9c            0x8           8   
.text.lut_yuv           0x9d02eaa4            0x8           8   
.text.cpuDrawLine_AA    0x9d02eaac            0x8           8   
.text.cpuDrawRect_Line_ 0x9d02eab4            0x8           8   
.text.cpuDrawRect_Fill_ 0x9d02eabc            0x8           8   
.text.laContext_GetActi 0x9d02eac4            0x8           8   
.text.update            0x9d02eacc            0x8           8   
.text.moved             0x9d02ead4            0x8           8   
.text.resized           0x9d02eadc            0x8           8   
.text.focusGained       0x9d02eae4            0x8           8   
.text.focusLost         0x9d02eaec            0x8           8   
.text.touchDownEvent    0x9d02eaf4            0x8           8   
.text.touchUpEvent      0x9d02eafc            0x8           8   
.text.touchMovedEvent   0x9d02eb04            0x8           8   
.text.languageChangingE 0x9d02eb0c            0x8           8   
.text._laWidget_SetDirt 0x9d02eb14            0x8           8   
.text._laWidget_ClearDi 0x9d02eb1c            0x8           8   
.text.getDiscreteValueA 0x9d02eb24            0x8           8   
.text.calcOffset1bpp    0x9d02eb2c            0x8           8   
.text.calcOffset4bpp    0x9d02eb34            0x8           8   
.text.calcOffset8bpp    0x9d02eb3c            0x8           8   
.text.calcOffset16bpp   0x9d02eb44            0x8           8   
.text.calcOffset32bpp   0x9d02eb4c            0x8           8   
.text.getGlyphRowDataSi 0x9d02eb54            0x8           8   
.text.SYS_DEBUG_ErrorLe 0x9d02eb5c            0x8           8   
.text.DRV_USART_TasksTr 0x9d02eb64            0x8           8   
.text.DRV_USART_TasksRe 0x9d02eb6c            0x8           8   
.text.DRV_USART_TasksEr 0x9d02eb74            0x8           8   
.text.layerBufferFree   0x9d02eb7c            0x8           8   
.rodata                 0x9d02eb84            0x8           8  Read-only const 
.text.SYS_CONSOLE_Initi 0x9d02eb8c            0x8           8   
.text.SYS_CONSOLE_Tasks 0x9d02eb94            0x8           8   
.text.BSP_Initialize    0x9d02eb9c            0x8           8   
.text._on_reset         0x9d02eba4            0x8           8   
.text._on_bootstrap     0x9d02ebac            0x8           8   
.text._filbuf_string    0x9d02ebb4            0x8           8   
.text._flsbuf_string    0x9d02ebbc            0x8           8   
.text._fflush_string    0x9d02ebc4            0x8           8   
.text._fwrite_string    0x9d02ebcc            0x8           8   
.text._fsync_string     0x9d02ebd4            0x8           8   
.text.getpagesize       0x9d02ebdc            0x8           8   
      Total kseg0_program_mem used  :     0x2ebe4      191460  9.1% of 0x200000

kseg0 Boot-Memory Usage
section                    address  length [bytes]      (dec)  Description
-------                 ----------  -------------------------  -----------
         Total kseg0_boot_mem used  :           0           0  

kseg1 Boot-Memory Usage
section                    address  length [bytes]      (dec)  Description
-------                 ----------  -------------------------  -----------
.reset                  0xbfc00000          0x1b0         432  Reset handler 
.bev_excpt              0xbfc00380           0x10          16  BEV-Exception 
         Total kseg1_boot_mem used  :       0x1c0         448  38.9% of 0x480
        --------------------------------------------------------------------------
         Total Program Memory used  :     0x2eda4      191908  9.1% of 0x200480
        --------------------------------------------------------------------------


kseg0 Data-Memory Usage
section                    address  length [bytes]      (dec)  Description
-------                 ----------  -------------------------  -----------
.sdata                  0x80000000          0x220         544  Small init data 
.sbss                   0x80000220           0xfc         252  Small uninit data 
.bss                    0x8000031c          0x380         896  Uninitialized data 
.bss                    0x8000069c         0x49fc       18940  Uninitialized data 
.bss                    0x80005098          0x9fc        2556  Uninitialized data 
.data                   0x80005a94          0x410        1040  Initialized data 
.bss                    0x80005ea4          0x254         596  Uninitialized data 
.data                   0x800060f8          0x35c         860  Initialized data 
.data                   0x80006454          0x260         608  Initialized data 
.bss                    0x800066b4           0xe4         228  Uninitialized data 
.data                   0x80006798           0xd4         212  Initialized data 
.bss                    0x8000686c           0xd0         208  Uninitialized data 
.data                   0x8000693c           0x7c         124  Initialized data 
.bss                    0x800069b8           0x34          52  Uninitialized data 
.data                   0x800069ec           0x5c          92  Initialized data 
.bss                    0x80006a48           0x24          36  Uninitialized data 
.data                   0x80006a6c           0x18          24  Initialized data 
         Total kseg0_data_mem used  :      0x6a84       27268  4.2% of 0xa0000
        --------------------------------------------------------------------------
            Total Data Memory used  :      0x6a84       27268  4.2% of 0xa0000
        --------------------------------------------------------------------------


Dynamic Data-Memory Reservation
section                    address  length [bytes]      (dec)  Description
-------                 ----------  -------------------------  -----------
heap                    0x80006a88         0x29a8       10664  Reserved for heap 
stack                   0x80009448        0x96ba8      617384  Reserved for stack 

        --------------------------------------------------------------------------

Discarded input sections

 .text          0x00000000        0x0 f:/software_installations/mplab_xc32/bin/bin/../../lib/gcc/pic32mx/4.8.3/../../../../pic32mx/lib/./proc/32MZ2064DAG176/crt0_mips32r2.o
 .data          0x00000000        0x0 f:/software_installations/mplab_xc32/bin/bin/../../lib/gcc/pic32mx/4.8.3/../../../../pic32mx/lib/./proc/32MZ2064DAG176/crt0_mips32r2.o
 .bss           0x00000000        0x0 f:/software_installations/mplab_xc32/bin/bin/../../lib/gcc/pic32mx/4.8.3/../../../../pic32mx/lib/./proc/32MZ2064DAG176/crt0_mips32r2.o
 .text          0x00000000        0x0 f:/software_installations/mplab_xc32/bin/bin/../../lib/gcc/pic32mx/4.8.3/../../../../pic32mx/lib\debug-exception-return.o
 .data          0x00000000        0x0 f:/software_installations/mplab_xc32/bin/bin/../../lib/gcc/pic32mx/4.8.3/../../../../pic32mx/lib\debug-exception-return.o
 .bss           0x00000000        0x0 f:/software_installations/mplab_xc32/bin/bin/../../lib/gcc/pic32mx/4.8.3/../../../../pic32mx/lib\debug-exception-return.o
 .reginfo       0x00000000       0x18 f:/software_installations/mplab_xc32/bin/bin/../../lib/gcc/pic32mx/4.8.3/../../../../pic32mx/lib\debug-exception-return.o
 .text          0x00000000        0x0 build/pic32mz_da_sk_intddr_meb2/production/_ext/1360937237/app.o
 .data          0x00000000        0x0 build/pic32mz_da_sk_intddr_meb2/production/_ext/1360937237/app.o
 .bss           0x00000000        0x0 build/pic32mz_da_sk_intddr_meb2/production/_ext/1360937237/app.o
 .reginfo       0x00000000       0x18 build/pic32mz_da_sk_intddr_meb2/production/_ext/1360937237/app.o
 COMMON         0x00000000        0x0 build/pic32mz_da_sk_intddr_meb2/production/_ext/1360937237/app.o
 .text          0x00000000        0x0 build/pic32mz_da_sk_intddr_meb2/production/_ext/1360937237/main.o
 .data          0x00000000        0x0 build/pic32mz_da_sk_intddr_meb2/production/_ext/1360937237/main.o
 .bss           0x00000000        0x0 build/pic32mz_da_sk_intddr_meb2/production/_ext/1360937237/main.o
 .reginfo       0x00000000       0x18 build/pic32mz_da_sk_intddr_meb2/production/_ext/1360937237/main.o
 .text          0x00000000        0x0 build/pic32mz_da_sk_intddr_meb2/production/_ext/475095144/drv_i2c_bb_a.o
 .data          0x00000000        0x0 build/pic32mz_da_sk_intddr_meb2/production/_ext/475095144/drv_i2c_bb_a.o
 .reginfo       0x00000000       0x18 build/pic32mz_da_sk_intddr_meb2/production/_ext/475095144/drv_i2c_bb_a.o
 .text.DRV_I2C_Deinitialize
                0x00000000       0xfc build/pic32mz_da_sk_intddr_meb2/production/_ext/475095144/drv_i2c_bb_a.o
 .text.DRV_I2C_Status
                0x00000000       0x1c build/pic32mz_da_sk_intddr_meb2/production/_ext/475095144/drv_i2c_bb_a.o
 .text.DRV_I2C_Tasks
                0x00000000      0x8d0 build/pic32mz_da_sk_intddr_meb2/production/_ext/475095144/drv_i2c_bb_a.o
 .text.DRV_I2C_Close
                0x00000000       0x38 build/pic32mz_da_sk_intddr_meb2/production/_ext/475095144/drv_i2c_bb_a.o
 .text.DRV_I2C_ClientSetup
                0x00000000       0x70 build/pic32mz_da_sk_intddr_meb2/production/_ext/475095144/drv_i2c_bb_a.o
 .text.DRV_I2C_BufferEventHandlerSet
                0x00000000        0xc build/pic32mz_da_sk_intddr_meb2/production/_ext/475095144/drv_i2c_bb_a.o
 .text.DRV_I2C_BufferAddRead
                0x00000000      0x1a8 build/pic32mz_da_sk_intddr_meb2/production/_ext/475095144/drv_i2c_bb_a.o
 .text.DRV_I2C_BufferAddWrite
                0x00000000      0x1a0 build/pic32mz_da_sk_intddr_meb2/production/_ext/475095144/drv_i2c_bb_a.o
 .text.DRV_I2C_TransmitThenReceive
                0x00000000      0x1c0 build/pic32mz_da_sk_intddr_meb2/production/_ext/475095144/drv_i2c_bb_a.o
 .text.DRV_I2C_BufferAddWriteRead
                0x00000000      0x1c4 build/pic32mz_da_sk_intddr_meb2/production/_ext/475095144/drv_i2c_bb_a.o
 .text.DRV_I2C_BufferStatus
                0x00000000        0x8 build/pic32mz_da_sk_intddr_meb2/production/_ext/475095144/drv_i2c_bb_a.o
 .text.DRV_I2C_BytesTransferred
                0x00000000        0x8 build/pic32mz_da_sk_intddr_meb2/production/_ext/475095144/drv_i2c_bb_a.o
 .text.DRV_I2C_VersionGet
                0x00000000        0x8 build/pic32mz_da_sk_intddr_meb2/production/_ext/475095144/drv_i2c_bb_a.o
 .rodata        0x00000000        0xc build/pic32mz_da_sk_intddr_meb2/production/_ext/475095144/drv_i2c_bb_a.o
 .text.DRV_I2C_VersionStrGet
                0x00000000        0xc build/pic32mz_da_sk_intddr_meb2/production/_ext/475095144/drv_i2c_bb_a.o
 .text.DRV_I2C_Bus_Reset
                0x00000000      0x4a0 build/pic32mz_da_sk_intddr_meb2/production/_ext/475095144/drv_i2c_bb_a.o
 .text.DRV_I2C_StopEventSend
                0x00000000       0x20 build/pic32mz_da_sk_intddr_meb2/production/_ext/475095144/drv_i2c_bb_a.o
 .text.DRV_I2C_RestartEventSend
                0x00000000       0x20 build/pic32mz_da_sk_intddr_meb2/production/_ext/475095144/drv_i2c_bb_a.o
 .text.DRV_I2C_IRQEventSend
                0x00000000       0x50 build/pic32mz_da_sk_intddr_meb2/production/_ext/475095144/drv_i2c_bb_a.o
 .text          0x00000000        0x0 build/pic32mz_da_sk_intddr_meb2/production/_ext/475095144/drv_i2c_bb.o
 .data          0x00000000        0x0 build/pic32mz_da_sk_intddr_meb2/production/_ext/475095144/drv_i2c_bb.o
 .bss           0x00000000        0x0 build/pic32mz_da_sk_intddr_meb2/production/_ext/475095144/drv_i2c_bb.o
 .reginfo       0x00000000       0x18 build/pic32mz_da_sk_intddr_meb2/production/_ext/475095144/drv_i2c_bb.o
 .text.DRV_I2C_MasterBufferWrite
                0x00000000       0xe4 build/pic32mz_da_sk_intddr_meb2/production/_ext/475095144/drv_i2c_bb.o
 .text.DRV_I2C_MasterBufferRead
                0x00000000       0xe4 build/pic32mz_da_sk_intddr_meb2/production/_ext/475095144/drv_i2c_bb.o
 .text.DRV_I2C_MasterBufferWriteReadXE
                0x00000000      0x104 build/pic32mz_da_sk_intddr_meb2/production/_ext/475095144/drv_i2c_bb.o
 .text.DRV_I2C_MasterBufferWriteRead
                0x00000000       0xf0 build/pic32mz_da_sk_intddr_meb2/production/_ext/475095144/drv_i2c_bb.o
 .text          0x00000000        0x0 build/pic32mz_da_sk_intddr_meb2/production/_ext/1177928576/drv_mxt336t.o
 .data          0x00000000        0x0 build/pic32mz_da_sk_intddr_meb2/production/_ext/1177928576/drv_mxt336t.o
 .reginfo       0x00000000       0x18 build/pic32mz_da_sk_intddr_meb2/production/_ext/1177928576/drv_mxt336t.o
 .text.MXT_INTERRUPT_PIN_VALUE_GET
                0x00000000       0x14 build/pic32mz_da_sk_intddr_meb2/production/_ext/1177928576/drv_mxt336t.o
 .text.DRV_MXT336T_Deinitialize
                0x00000000       0x40 build/pic32mz_da_sk_intddr_meb2/production/_ext/1177928576/drv_mxt336t.o
 .text.DRV_MXT336T_Status
                0x00000000       0x1c build/pic32mz_da_sk_intddr_meb2/production/_ext/1177928576/drv_mxt336t.o
 .text.DRV_MXT336T_Close
                0x00000000       0x30 build/pic32mz_da_sk_intddr_meb2/production/_ext/1177928576/drv_mxt336t.o
 .text          0x00000000        0x0 build/pic32mz_da_sk_intddr_meb2/production/_ext/1847583374/gfx.o
 .data          0x00000000        0x0 build/pic32mz_da_sk_intddr_meb2/production/_ext/1847583374/gfx.o
 .bss           0x00000000        0x0 build/pic32mz_da_sk_intddr_meb2/production/_ext/1847583374/gfx.o
 .reginfo       0x00000000       0x18 build/pic32mz_da_sk_intddr_meb2/production/_ext/1847583374/gfx.o
 .text.GFX_HandleInterrupt
                0x00000000       0x40 build/pic32mz_da_sk_intddr_meb2/production/_ext/1847583374/gfx.o
 .text.GFX_ReadPixel
                0x00000000       0xf8 build/pic32mz_da_sk_intddr_meb2/production/_ext/1847583374/gfx.o
 .text          0x00000000        0x0 build/pic32mz_da_sk_intddr_meb2/production/_ext/1847583374/gfx_color.o
 .bss           0x00000000        0x0 build/pic32mz_da_sk_intddr_meb2/production/_ext/1847583374/gfx_color.o
 .reginfo       0x00000000       0x18 build/pic32mz_da_sk_intddr_meb2/production/_ext/1847583374/gfx_color.o
 .text.GFX_ColorChannelRed
                0x00000000       0x24 build/pic32mz_da_sk_intddr_meb2/production/_ext/1847583374/gfx_color.o
 .text.GFX_ColorChannelGreen
                0x00000000       0x24 build/pic32mz_da_sk_intddr_meb2/production/_ext/1847583374/gfx_color.o
 .text.GFX_ColorChannelBlue
                0x00000000       0x24 build/pic32mz_da_sk_intddr_meb2/production/_ext/1847583374/gfx_color.o
 .text.GFX_ColorChannelAlpha
                0x00000000       0x40 build/pic32mz_da_sk_intddr_meb2/production/_ext/1847583374/gfx_color.o
 .text          0x00000000        0x0 build/pic32mz_da_sk_intddr_meb2/production/_ext/1847583374/gfx_context.o
 .data          0x00000000        0x0 build/pic32mz_da_sk_intddr_meb2/production/_ext/1847583374/gfx_context.o
 .bss           0x00000000        0x0 build/pic32mz_da_sk_intddr_meb2/production/_ext/1847583374/gfx_context.o
 .reginfo       0x00000000       0x18 build/pic32mz_da_sk_intddr_meb2/production/_ext/1847583374/gfx_context.o
 .text          0x00000000        0x0 build/pic32mz_da_sk_intddr_meb2/production/_ext/1847583374/gfx_default_impl.o
 .data          0x00000000        0x0 build/pic32mz_da_sk_intddr_meb2/production/_ext/1847583374/gfx_default_impl.o
 .bss           0x00000000        0x0 build/pic32mz_da_sk_intddr_meb2/production/_ext/1847583374/gfx_default_impl.o
 .reginfo       0x00000000       0x18 build/pic32mz_da_sk_intddr_meb2/production/_ext/1847583374/gfx_default_impl.o
 .text.defUnsupported
                0x00000000        0x8 build/pic32mz_da_sk_intddr_meb2/production/_ext/1847583374/gfx_default_impl.o
 .text.defSwap  0x00000000      0x104 build/pic32mz_da_sk_intddr_meb2/production/_ext/1847583374/gfx_default_impl.o
 .text          0x00000000        0x0 build/pic32mz_da_sk_intddr_meb2/production/_ext/1847583374/gfx_display.o
 .data          0x00000000        0x0 build/pic32mz_da_sk_intddr_meb2/production/_ext/1847583374/gfx_display.o
 .bss           0x00000000        0x0 build/pic32mz_da_sk_intddr_meb2/production/_ext/1847583374/gfx_display.o
 .reginfo       0x00000000       0x18 build/pic32mz_da_sk_intddr_meb2/production/_ext/1847583374/gfx_display.o
 .text          0x00000000        0x0 build/pic32mz_da_sk_intddr_meb2/production/_ext/1847583374/gfx_driver_interface.o
 .data          0x00000000        0x0 build/pic32mz_da_sk_intddr_meb2/production/_ext/1847583374/gfx_driver_interface.o
 .bss           0x00000000        0x0 build/pic32mz_da_sk_intddr_meb2/production/_ext/1847583374/gfx_driver_interface.o
 .reginfo       0x00000000       0x18 build/pic32mz_da_sk_intddr_meb2/production/_ext/1847583374/gfx_driver_interface.o
 .text          0x00000000        0x0 build/pic32mz_da_sk_intddr_meb2/production/_ext/1847583374/gfx_get.o
 .data          0x00000000        0x0 build/pic32mz_da_sk_intddr_meb2/production/_ext/1847583374/gfx_get.o
 .bss           0x00000000        0x0 build/pic32mz_da_sk_intddr_meb2/production/_ext/1847583374/gfx_get.o
 .reginfo       0x00000000       0x18 build/pic32mz_da_sk_intddr_meb2/production/_ext/1847583374/gfx_get.o
 .text.get_drawAntialias
                0x00000000       0x38 build/pic32mz_da_sk_intddr_meb2/production/_ext/1847583374/gfx_get.o
 .text          0x00000000        0x0 build/pic32mz_da_sk_intddr_meb2/production/_ext/1847583374/gfx_interface.o
 .bss           0x00000000        0x0 build/pic32mz_da_sk_intddr_meb2/production/_ext/1847583374/gfx_interface.o
 .reginfo       0x00000000       0x18 build/pic32mz_da_sk_intddr_meb2/production/_ext/1847583374/gfx_interface.o
 .text          0x00000000        0x0 build/pic32mz_da_sk_intddr_meb2/production/_ext/1847583374/gfx_layer.o
 .data          0x00000000        0x0 build/pic32mz_da_sk_intddr_meb2/production/_ext/1847583374/gfx_layer.o
 .bss           0x00000000        0x0 build/pic32mz_da_sk_intddr_meb2/production/_ext/1847583374/gfx_layer.o
 .reginfo       0x00000000       0x18 build/pic32mz_da_sk_intddr_meb2/production/_ext/1847583374/gfx_layer.o
 .text.GFX_LayerReadBuffer
                0x00000000       0x1c build/pic32mz_da_sk_intddr_meb2/production/_ext/1847583374/gfx_layer.o
 .text.GFX_LayerWriteBuffer
                0x00000000       0x1c build/pic32mz_da_sk_intddr_meb2/production/_ext/1847583374/gfx_layer.o
 .text.GFX_LayerRotate
                0x00000000       0x24 build/pic32mz_da_sk_intddr_meb2/production/_ext/1847583374/gfx_layer.o
 .text.GFX_LayerPointFromOrientedSpace
                0x00000000      0x14c build/pic32mz_da_sk_intddr_meb2/production/_ext/1847583374/gfx_layer.o
 .text.GFX_LayerPointToOrientedSpace
                0x00000000      0x154 build/pic32mz_da_sk_intddr_meb2/production/_ext/1847583374/gfx_layer.o
 .text.GFX_LayerRectFromOrientedSpace
                0x00000000      0x130 build/pic32mz_da_sk_intddr_meb2/production/_ext/1847583374/gfx_layer.o
 .text.GFX_LayerRectToOrientedSpace
                0x00000000       0x18 build/pic32mz_da_sk_intddr_meb2/production/_ext/1847583374/gfx_layer.o
 .text          0x00000000        0x0 build/pic32mz_da_sk_intddr_meb2/production/_ext/1847583374/gfx_pixel_buffer.o
 .bss           0x00000000        0x0 build/pic32mz_da_sk_intddr_meb2/production/_ext/1847583374/gfx_pixel_buffer.o
 .reginfo       0x00000000       0x18 build/pic32mz_da_sk_intddr_meb2/production/_ext/1847583374/gfx_pixel_buffer.o
 .text.GFX_PixelBufferCopy
                0x00000000       0xa8 build/pic32mz_da_sk_intddr_meb2/production/_ext/1847583374/gfx_pixel_buffer.o
 .text.GFX_PixelBufferConvert
                0x00000000      0x140 build/pic32mz_da_sk_intddr_meb2/production/_ext/1847583374/gfx_pixel_buffer.o
 .text.GFX_PixelBufferAreaSet_Unsafe
                0x00000000      0x19c build/pic32mz_da_sk_intddr_meb2/production/_ext/1847583374/gfx_pixel_buffer.o
 .text.GFX_PixelBufferAreaSet
                0x00000000      0x144 build/pic32mz_da_sk_intddr_meb2/production/_ext/1847583374/gfx_pixel_buffer.o
 .text.GFX_PixelBufferAreaFill_Unsafe
                0x00000000       0xb4 build/pic32mz_da_sk_intddr_meb2/production/_ext/1847583374/gfx_pixel_buffer.o
 .text.GFX_PixelBufferAreaFill
                0x00000000       0x70 build/pic32mz_da_sk_intddr_meb2/production/_ext/1847583374/gfx_pixel_buffer.o
 .text          0x00000000        0x0 build/pic32mz_da_sk_intddr_meb2/production/_ext/1847583374/gfx_rect.o
 .data          0x00000000        0x0 build/pic32mz_da_sk_intddr_meb2/production/_ext/1847583374/gfx_rect.o
 .bss           0x00000000        0x0 build/pic32mz_da_sk_intddr_meb2/production/_ext/1847583374/gfx_rect.o
 .reginfo       0x00000000       0x18 build/pic32mz_da_sk_intddr_meb2/production/_ext/1847583374/gfx_rect.o
 .text          0x00000000        0x0 build/pic32mz_da_sk_intddr_meb2/production/_ext/1847583374/gfx_util.o
 .data          0x00000000        0x0 build/pic32mz_da_sk_intddr_meb2/production/_ext/1847583374/gfx_util.o
 .bss           0x00000000        0x0 build/pic32mz_da_sk_intddr_meb2/production/_ext/1847583374/gfx_util.o
 .reginfo       0x00000000       0x18 build/pic32mz_da_sk_intddr_meb2/production/_ext/1847583374/gfx_util.o
 .text.GFX_UtilSizeToOrientedSpace
                0x00000000       0x30 build/pic32mz_da_sk_intddr_meb2/production/_ext/1847583374/gfx_util.o
 .text.GFX_UtilSortPointsX
                0x00000000       0x30 build/pic32mz_da_sk_intddr_meb2/production/_ext/1847583374/gfx_util.o
 .text.GFX_UtilSortPointsY
                0x00000000       0x30 build/pic32mz_da_sk_intddr_meb2/production/_ext/1847583374/gfx_util.o
 .text.GFX_UtilGetXGivenYOnLine
                0x00000000       0x44 build/pic32mz_da_sk_intddr_meb2/production/_ext/1847583374/gfx_util.o
 .text.GFX_UtilGetYGivenXOnLine
                0x00000000       0x44 build/pic32mz_da_sk_intddr_meb2/production/_ext/1847583374/gfx_util.o
 .text          0x00000000        0x0 build/pic32mz_da_sk_intddr_meb2/production/_ext/1847583374/gfx_set.o
 .data          0x00000000        0x0 build/pic32mz_da_sk_intddr_meb2/production/_ext/1847583374/gfx_set.o
 .bss           0x00000000        0x0 build/pic32mz_da_sk_intddr_meb2/production/_ext/1847583374/gfx_set.o
 .reginfo       0x00000000       0x18 build/pic32mz_da_sk_intddr_meb2/production/_ext/1847583374/gfx_set.o
 .text.set_drawAntialias
                0x00000000       0x30 build/pic32mz_da_sk_intddr_meb2/production/_ext/1847583374/gfx_set.o
 .text          0x00000000        0x0 build/pic32mz_da_sk_intddr_meb2/production/_ext/1847583374/gfx_color_blend.o
 .data          0x00000000        0x0 build/pic32mz_da_sk_intddr_meb2/production/_ext/1847583374/gfx_color_blend.o
 .bss           0x00000000        0x0 build/pic32mz_da_sk_intddr_meb2/production/_ext/1847583374/gfx_color_blend.o
 .reginfo       0x00000000       0x18 build/pic32mz_da_sk_intddr_meb2/production/_ext/1847583374/gfx_color_blend.o
 .text          0x00000000        0x0 build/pic32mz_da_sk_intddr_meb2/production/_ext/1847583374/gfx_color_convert.o
 .bss           0x00000000        0x0 build/pic32mz_da_sk_intddr_meb2/production/_ext/1847583374/gfx_color_convert.o
 .reginfo       0x00000000       0x18 build/pic32mz_da_sk_intddr_meb2/production/_ext/1847583374/gfx_color_convert.o
 .text          0x00000000        0x0 build/pic32mz_da_sk_intddr_meb2/production/_ext/1847583374/gfx_color_lerp.o
 .bss           0x00000000        0x0 build/pic32mz_da_sk_intddr_meb2/production/_ext/1847583374/gfx_color_lerp.o
 .reginfo       0x00000000       0x18 build/pic32mz_da_sk_intddr_meb2/production/_ext/1847583374/gfx_color_lerp.o
 .text          0x00000000        0x0 build/pic32mz_da_sk_intddr_meb2/production/_ext/1847583374/gfx_color_value.o
 .data          0x00000000        0x0 build/pic32mz_da_sk_intddr_meb2/production/_ext/1847583374/gfx_color_value.o
 .bss           0x00000000        0x0 build/pic32mz_da_sk_intddr_meb2/production/_ext/1847583374/gfx_color_value.o
 .reginfo       0x00000000       0x18 build/pic32mz_da_sk_intddr_meb2/production/_ext/1847583374/gfx_color_value.o
 .text.GFX_ColorValue
                0x00000000       0x44 build/pic32mz_da_sk_intddr_meb2/production/_ext/1847583374/gfx_color_value.o
 .rodata        0x00000000       0x48 build/pic32mz_da_sk_intddr_meb2/production/_ext/1847583374/gfx_color_value.o
 .text          0x00000000        0x0 build/pic32mz_da_sk_intddr_meb2/production/_ext/1847583374/gfx_draw_blit.o
 .data          0x00000000        0x0 build/pic32mz_da_sk_intddr_meb2/production/_ext/1847583374/gfx_draw_blit.o
 .bss           0x00000000        0x0 build/pic32mz_da_sk_intddr_meb2/production/_ext/1847583374/gfx_draw_blit.o
 .reginfo       0x00000000       0x18 build/pic32mz_da_sk_intddr_meb2/production/_ext/1847583374/gfx_draw_blit.o
 .text          0x00000000        0x0 build/pic32mz_da_sk_intddr_meb2/production/_ext/1847583374/gfx_draw_circle.o
 .data          0x00000000        0x0 build/pic32mz_da_sk_intddr_meb2/production/_ext/1847583374/gfx_draw_circle.o
 .bss           0x00000000        0x0 build/pic32mz_da_sk_intddr_meb2/production/_ext/1847583374/gfx_draw_circle.o
 .reginfo       0x00000000       0x18 build/pic32mz_da_sk_intddr_meb2/production/_ext/1847583374/gfx_draw_circle.o
 .text.GFX_DrawCircle
                0x00000000      0x1bc build/pic32mz_da_sk_intddr_meb2/production/_ext/1847583374/gfx_draw_circle.o
 .text          0x00000000        0x0 build/pic32mz_da_sk_intddr_meb2/production/_ext/1847583374/gfx_draw_line.o
 .data          0x00000000        0x0 build/pic32mz_da_sk_intddr_meb2/production/_ext/1847583374/gfx_draw_line.o
 .bss           0x00000000        0x0 build/pic32mz_da_sk_intddr_meb2/production/_ext/1847583374/gfx_draw_line.o
 .reginfo       0x00000000       0x18 build/pic32mz_da_sk_intddr_meb2/production/_ext/1847583374/gfx_draw_line.o
 .text.cpuDrawLine_Gradient
                0x00000000        0x8 build/pic32mz_da_sk_intddr_meb2/production/_ext/1847583374/gfx_draw_line.o
 .text.cpuDrawLine_Gradient_AA
                0x00000000        0x8 build/pic32mz_da_sk_intddr_meb2/production/_ext/1847583374/gfx_draw_line.o
 .text          0x00000000        0x0 build/pic32mz_da_sk_intddr_meb2/production/_ext/1847583374/gfx_draw_pixel.o
 .data          0x00000000        0x0 build/pic32mz_da_sk_intddr_meb2/production/_ext/1847583374/gfx_draw_pixel.o
 .bss           0x00000000        0x0 build/pic32mz_da_sk_intddr_meb2/production/_ext/1847583374/gfx_draw_pixel.o
 .reginfo       0x00000000       0x18 build/pic32mz_da_sk_intddr_meb2/production/_ext/1847583374/gfx_draw_pixel.o
 .text          0x00000000        0x0 build/pic32mz_da_sk_intddr_meb2/production/_ext/1847583374/gfx_draw_rect.o
 .data          0x00000000        0x0 build/pic32mz_da_sk_intddr_meb2/production/_ext/1847583374/gfx_draw_rect.o
 .bss           0x00000000        0x0 build/pic32mz_da_sk_intddr_meb2/production/_ext/1847583374/gfx_draw_rect.o
 .reginfo       0x00000000       0x18 build/pic32mz_da_sk_intddr_meb2/production/_ext/1847583374/gfx_draw_rect.o
 .text.cpuDrawRect_Gradient_Quad
                0x00000000        0x8 build/pic32mz_da_sk_intddr_meb2/production/_ext/1847583374/gfx_draw_rect.o
 .text.cpuDrawRect_Gradient_Bi_AA
                0x00000000        0x8 build/pic32mz_da_sk_intddr_meb2/production/_ext/1847583374/gfx_draw_rect.o
 .text.cpuDrawRect_Gradient_Quad_AA
                0x00000000        0x8 build/pic32mz_da_sk_intddr_meb2/production/_ext/1847583374/gfx_draw_rect.o
 .text          0x00000000        0x0 build/pic32mz_da_sk_intddr_meb2/production/_ext/1847583374/gfx_math.o
 .data          0x00000000        0x0 build/pic32mz_da_sk_intddr_meb2/production/_ext/1847583374/gfx_math.o
 .bss           0x00000000        0x0 build/pic32mz_da_sk_intddr_meb2/production/_ext/1847583374/gfx_math.o
 .reginfo       0x00000000       0x18 build/pic32mz_da_sk_intddr_meb2/production/_ext/1847583374/gfx_math.o
 .text.GFX_Normalize360
                0x00000000       0x2c build/pic32mz_da_sk_intddr_meb2/production/_ext/1847583374/gfx_math.o
 .text.GFX_Atan
                0x00000000       0x1c build/pic32mz_da_sk_intddr_meb2/production/_ext/1847583374/gfx_math.o
 .text.GFX_Minf
                0x00000000       0x40 build/pic32mz_da_sk_intddr_meb2/production/_ext/1847583374/gfx_math.o
 .text.GFX_Maxf
                0x00000000       0x44 build/pic32mz_da_sk_intddr_meb2/production/_ext/1847583374/gfx_math.o
 .text.GFX_Clampi
                0x00000000       0x20 build/pic32mz_da_sk_intddr_meb2/production/_ext/1847583374/gfx_math.o
 .text.GFX_Clampf
                0x00000000       0x64 build/pic32mz_da_sk_intddr_meb2/production/_ext/1847583374/gfx_math.o
 .text.GFX_PercentOfDec
                0x00000000       0x88 build/pic32mz_da_sk_intddr_meb2/production/_ext/1847583374/gfx_math.o
 .text.GFX_ScaleIntegerSigned
                0x00000000       0x70 build/pic32mz_da_sk_intddr_meb2/production/_ext/1847583374/gfx_math.o
 .text.GFX_AbsoluteValue
                0x00000000       0x14 build/pic32mz_da_sk_intddr_meb2/production/_ext/1847583374/gfx_math.o
 .text.GFX_DivideRounding
                0x00000000       0x90 build/pic32mz_da_sk_intddr_meb2/production/_ext/1847583374/gfx_math.o
 .text          0x00000000        0x0 build/pic32mz_da_sk_intddr_meb2/production/_ext/1847583374/gfx_draw_stretchblit.o
 .data          0x00000000        0x0 build/pic32mz_da_sk_intddr_meb2/production/_ext/1847583374/gfx_draw_stretchblit.o
 .bss           0x00000000        0x0 build/pic32mz_da_sk_intddr_meb2/production/_ext/1847583374/gfx_draw_stretchblit.o
 .reginfo       0x00000000       0x18 build/pic32mz_da_sk_intddr_meb2/production/_ext/1847583374/gfx_draw_stretchblit.o
 .text.GFX_DrawStretchBlit
                0x00000000      0x1dc build/pic32mz_da_sk_intddr_meb2/production/_ext/1847583374/gfx_draw_stretchblit.o
 .text          0x00000000        0x0 build/pic32mz_da_sk_intddr_meb2/production/_ext/1847583374/gfx_processor_interface.o
 .data          0x00000000        0x0 build/pic32mz_da_sk_intddr_meb2/production/_ext/1847583374/gfx_processor_interface.o
 .bss           0x00000000        0x0 build/pic32mz_da_sk_intddr_meb2/production/_ext/1847583374/gfx_processor_interface.o
 .reginfo       0x00000000       0x18 build/pic32mz_da_sk_intddr_meb2/production/_ext/1847583374/gfx_processor_interface.o
 .text          0x00000000        0x0 build/pic32mz_da_sk_intddr_meb2/production/_ext/1847583374/gfx_draw_arc.o
 .data          0x00000000        0x0 build/pic32mz_da_sk_intddr_meb2/production/_ext/1847583374/gfx_draw_arc.o
 .bss           0x00000000        0x0 build/pic32mz_da_sk_intddr_meb2/production/_ext/1847583374/gfx_draw_arc.o
 .reginfo       0x00000000       0x18 build/pic32mz_da_sk_intddr_meb2/production/_ext/1847583374/gfx_draw_arc.o
 .text.cpuDrawArc_Line
                0x00000000       0xb8 build/pic32mz_da_sk_intddr_meb2/production/_ext/1847583374/gfx_draw_arc.o
 .text          0x00000000        0x0 build/pic32mz_da_sk_intddr_meb2/production/_ext/1847583374/gfx_draw_ellipse.o
 .data          0x00000000        0x0 build/pic32mz_da_sk_intddr_meb2/production/_ext/1847583374/gfx_draw_ellipse.o
 .bss           0x00000000        0x0 build/pic32mz_da_sk_intddr_meb2/production/_ext/1847583374/gfx_draw_ellipse.o
 .reginfo       0x00000000       0x18 build/pic32mz_da_sk_intddr_meb2/production/_ext/1847583374/gfx_draw_ellipse.o
 .text.GFX_DrawEllipse
                0x00000000      0x1e8 build/pic32mz_da_sk_intddr_meb2/production/_ext/1847583374/gfx_draw_ellipse.o
 .text          0x00000000        0x0 build/pic32mz_da_sk_intddr_meb2/production/_ext/1907747181/libaria.o
 .data          0x00000000        0x0 build/pic32mz_da_sk_intddr_meb2/production/_ext/1907747181/libaria.o
 .bss           0x00000000        0x0 build/pic32mz_da_sk_intddr_meb2/production/_ext/1907747181/libaria.o
 .reginfo       0x00000000       0x18 build/pic32mz_da_sk_intddr_meb2/production/_ext/1907747181/libaria.o
 .text.laShutdown
                0x00000000       0x44 build/pic32mz_da_sk_intddr_meb2/production/_ext/1907747181/libaria.o
 .text          0x00000000        0x0 build/pic32mz_da_sk_intddr_meb2/production/_ext/1907747181/libaria_context.o
 .data          0x00000000        0x0 build/pic32mz_da_sk_intddr_meb2/production/_ext/1907747181/libaria_context.o
 .bss           0x00000000        0x0 build/pic32mz_da_sk_intddr_meb2/production/_ext/1907747181/libaria_context.o
 .reginfo       0x00000000       0x18 build/pic32mz_da_sk_intddr_meb2/production/_ext/1907747181/libaria_context.o
 .text.signalLanguageChanging
                0x00000000       0x60 build/pic32mz_da_sk_intddr_meb2/production/_ext/1907747181/libaria_context.o
 .text.laContext_Destroy
                0x00000000       0x9c build/pic32mz_da_sk_intddr_meb2/production/_ext/1907747181/libaria_context.o
 .text.laContext_GetColorMode
                0x00000000       0x1c build/pic32mz_da_sk_intddr_meb2/production/_ext/1907747181/libaria_context.o
 .text.laContext_RemoveScreen
                0x00000000       0x44 build/pic32mz_da_sk_intddr_meb2/production/_ext/1907747181/libaria_context.o
 .text.laContext_GetActiveScreen
                0x00000000       0x1c build/pic32mz_da_sk_intddr_meb2/production/_ext/1907747181/libaria_context.o
 .text.laContext_HideActiveScreen
                0x00000000       0x3c build/pic32mz_da_sk_intddr_meb2/production/_ext/1907747181/libaria_context.o
 .text.laContext_GetPreemptionLevel
                0x00000000       0x1c build/pic32mz_da_sk_intddr_meb2/production/_ext/1907747181/libaria_context.o
 .text.laContext_SetPreemptionLevel
                0x00000000       0x20 build/pic32mz_da_sk_intddr_meb2/production/_ext/1907747181/libaria_context.o
 .text.laContext_SetStringLanguage
                0x00000000       0xe4 build/pic32mz_da_sk_intddr_meb2/production/_ext/1907747181/libaria_context.o
 .text.laContext_GetFocusWidget
                0x00000000       0x1c build/pic32mz_da_sk_intddr_meb2/production/_ext/1907747181/libaria_context.o
 .text.laContext_IsDrawing
                0x00000000       0x4c build/pic32mz_da_sk_intddr_meb2/production/_ext/1907747181/libaria_context.o
 .text.laContext_IsLayerDrawing
                0x00000000       0x44 build/pic32mz_da_sk_intddr_meb2/production/_ext/1907747181/libaria_context.o
 .text          0x00000000        0x0 build/pic32mz_da_sk_intddr_meb2/production/_ext/1907747181/libaria_context_paint.o
 .data          0x00000000        0x0 build/pic32mz_da_sk_intddr_meb2/production/_ext/1907747181/libaria_context_paint.o
 .bss           0x00000000        0x0 build/pic32mz_da_sk_intddr_meb2/production/_ext/1907747181/libaria_context_paint.o
 .reginfo       0x00000000       0x18 build/pic32mz_da_sk_intddr_meb2/production/_ext/1907747181/libaria_context_paint.o
 .text          0x00000000        0x0 build/pic32mz_da_sk_intddr_meb2/production/_ext/1907747181/libaria_draw.o
 .data          0x00000000        0x0 build/pic32mz_da_sk_intddr_meb2/production/_ext/1907747181/libaria_draw.o
 .bss           0x00000000        0x0 build/pic32mz_da_sk_intddr_meb2/production/_ext/1907747181/libaria_draw.o
 .reginfo       0x00000000       0x18 build/pic32mz_da_sk_intddr_meb2/production/_ext/1907747181/libaria_draw.o
 .text.laDraw_LineBorder
                0x00000000       0x58 build/pic32mz_da_sk_intddr_meb2/production/_ext/1907747181/libaria_draw.o
 .text.laDraw_2x1BevelBorder
                0x00000000      0x14c build/pic32mz_da_sk_intddr_meb2/production/_ext/1907747181/libaria_draw.o
 .text.laDraw_1x2BevelBorder
                0x00000000      0x158 build/pic32mz_da_sk_intddr_meb2/production/_ext/1907747181/libaria_draw.o
 .text.laDraw_2x2BevelBorder
                0x00000000      0x1ac build/pic32mz_da_sk_intddr_meb2/production/_ext/1907747181/libaria_draw.o
 .text          0x00000000        0x0 build/pic32mz_da_sk_intddr_meb2/production/_ext/1907747181/libaria_editwidget.o
 .data          0x00000000        0x0 build/pic32mz_da_sk_intddr_meb2/production/_ext/1907747181/libaria_editwidget.o
 .bss           0x00000000        0x0 build/pic32mz_da_sk_intddr_meb2/production/_ext/1907747181/libaria_editwidget.o
 .reginfo       0x00000000       0x18 build/pic32mz_da_sk_intddr_meb2/production/_ext/1907747181/libaria_editwidget.o
 .text.startEdit
                0x00000000        0x8 build/pic32mz_da_sk_intddr_meb2/production/_ext/1907747181/libaria_editwidget.o
 .text.endEdit  0x00000000        0x8 build/pic32mz_da_sk_intddr_meb2/production/_ext/1907747181/libaria_editwidget.o
 .text.clear    0x00000000        0x8 build/pic32mz_da_sk_intddr_meb2/production/_ext/1907747181/libaria_editwidget.o
 .text.accept   0x00000000        0x8 build/pic32mz_da_sk_intddr_meb2/production/_ext/1907747181/libaria_editwidget.o
 .text.set      0x00000000       0x10 build/pic32mz_da_sk_intddr_meb2/production/_ext/1907747181/libaria_editwidget.o
 .text.append   0x00000000       0x10 build/pic32mz_da_sk_intddr_meb2/production/_ext/1907747181/libaria_editwidget.o
 .text.backspace
                0x00000000        0x8 build/pic32mz_da_sk_intddr_meb2/production/_ext/1907747181/libaria_editwidget.o
 .text._laEditWidget_Constructor
                0x00000000       0x80 build/pic32mz_da_sk_intddr_meb2/production/_ext/1907747181/libaria_editwidget.o
 .text._laEditWidget_Destructor
                0x00000000       0x28 build/pic32mz_da_sk_intddr_meb2/production/_ext/1907747181/libaria_editwidget.o
 .text.laEditWidget_Clear
                0x00000000       0x30 build/pic32mz_da_sk_intddr_meb2/production/_ext/1907747181/libaria_editwidget.o
 .text.laEditWidget_Accept
                0x00000000       0x30 build/pic32mz_da_sk_intddr_meb2/production/_ext/1907747181/libaria_editwidget.o
 .text.laEditWidget_Set
                0x00000000       0x54 build/pic32mz_da_sk_intddr_meb2/production/_ext/1907747181/libaria_editwidget.o
 .text.laEditWidget_Append
                0x00000000       0x54 build/pic32mz_da_sk_intddr_meb2/production/_ext/1907747181/libaria_editwidget.o
 .text.laEditWidget_Backspace
                0x00000000       0x30 build/pic32mz_da_sk_intddr_meb2/production/_ext/1907747181/libaria_editwidget.o
 .text          0x00000000        0x0 build/pic32mz_da_sk_intddr_meb2/production/_ext/1907747181/libaria_event.o
 .data          0x00000000        0x0 build/pic32mz_da_sk_intddr_meb2/production/_ext/1907747181/libaria_event.o
 .bss           0x00000000        0x0 build/pic32mz_da_sk_intddr_meb2/production/_ext/1907747181/libaria_event.o
 .reginfo       0x00000000       0x18 build/pic32mz_da_sk_intddr_meb2/production/_ext/1907747181/libaria_event.o
 .text.laEvent_GetCount
                0x00000000       0x28 build/pic32mz_da_sk_intddr_meb2/production/_ext/1907747181/libaria_event.o
 .text.laEvent_SetFilter
                0x00000000       0x34 build/pic32mz_da_sk_intddr_meb2/production/_ext/1907747181/libaria_event.o
 .text.laEvent_ClearList
                0x00000000       0x30 build/pic32mz_da_sk_intddr_meb2/production/_ext/1907747181/libaria_event.o
 .text          0x00000000        0x0 build/pic32mz_da_sk_intddr_meb2/production/_ext/1907747181/libaria_input.o
 .data          0x00000000        0x0 build/pic32mz_da_sk_intddr_meb2/production/_ext/1907747181/libaria_input.o
 .bss           0x00000000        0x0 build/pic32mz_da_sk_intddr_meb2/production/_ext/1907747181/libaria_input.o
 .reginfo       0x00000000       0x18 build/pic32mz_da_sk_intddr_meb2/production/_ext/1907747181/libaria_input.o
 .text.laInput_GetEnabled
                0x00000000       0x28 build/pic32mz_da_sk_intddr_meb2/production/_ext/1907747181/libaria_input.o
 .text          0x00000000        0x0 build/pic32mz_da_sk_intddr_meb2/production/_ext/1907747181/libaria_layer.o
 .data          0x00000000        0x0 build/pic32mz_da_sk_intddr_meb2/production/_ext/1907747181/libaria_layer.o
 .bss           0x00000000        0x0 build/pic32mz_da_sk_intddr_meb2/production/_ext/1907747181/libaria_layer.o
 .reginfo       0x00000000       0x18 build/pic32mz_da_sk_intddr_meb2/production/_ext/1907747181/libaria_layer.o
 .text.laLayer_GetEnabled
                0x00000000       0x18 build/pic32mz_da_sk_intddr_meb2/production/_ext/1907747181/libaria_layer.o
 .text.laLayer_SetEnabled
                0x00000000       0x78 build/pic32mz_da_sk_intddr_meb2/production/_ext/1907747181/libaria_layer.o
 .text.laLayer_GetAlphaEnable
                0x00000000       0x18 build/pic32mz_da_sk_intddr_meb2/production/_ext/1907747181/libaria_layer.o
 .text.laLayer_SetAlphaEnable
                0x00000000       0x7c build/pic32mz_da_sk_intddr_meb2/production/_ext/1907747181/libaria_layer.o
 .text.laLayer_SetAlphaAmount
                0x00000000       0x7c build/pic32mz_da_sk_intddr_meb2/production/_ext/1907747181/libaria_layer.o
 .text.laLayer_GetMaskEnable
                0x00000000       0x18 build/pic32mz_da_sk_intddr_meb2/production/_ext/1907747181/libaria_layer.o
 .text.laLayer_SetMaskEnable
                0x00000000       0x88 build/pic32mz_da_sk_intddr_meb2/production/_ext/1907747181/libaria_layer.o
 .text.laLayer_GetMaskColor
                0x00000000       0x18 build/pic32mz_da_sk_intddr_meb2/production/_ext/1907747181/libaria_layer.o
 .text.laLayer_SetMaskColor
                0x00000000       0x88 build/pic32mz_da_sk_intddr_meb2/production/_ext/1907747181/libaria_layer.o
 .text.laLayer_GetBufferCount
                0x00000000       0x18 build/pic32mz_da_sk_intddr_meb2/production/_ext/1907747181/libaria_layer.o
 .text.laLayer_GetVSync
                0x00000000       0x18 build/pic32mz_da_sk_intddr_meb2/production/_ext/1907747181/libaria_layer.o
 .text.laLayer_GetInputRect
                0x00000000       0x40 build/pic32mz_da_sk_intddr_meb2/production/_ext/1907747181/libaria_layer.o
 .text.laLayer_SetInputRect
                0x00000000       0x44 build/pic32mz_da_sk_intddr_meb2/production/_ext/1907747181/libaria_layer.o
 .text.laLayer_GetInputRectLocked
                0x00000000       0x18 build/pic32mz_da_sk_intddr_meb2/production/_ext/1907747181/libaria_layer.o
 .text.laLayer_SetInputRectLocked
                0x00000000       0x48 build/pic32mz_da_sk_intddr_meb2/production/_ext/1907747181/libaria_layer.o
 .text.laLayer_GetAllowInputPassThrough
                0x00000000       0x18 build/pic32mz_da_sk_intddr_meb2/production/_ext/1907747181/libaria_layer.o
 .text.laLayer_SetAllowInputPassthrough
                0x00000000       0x1c build/pic32mz_da_sk_intddr_meb2/production/_ext/1907747181/libaria_layer.o
 .text.laLayer_IsDrawing
                0x00000000       0x20 build/pic32mz_da_sk_intddr_meb2/production/_ext/1907747181/libaria_layer.o
 .text          0x00000000        0x0 build/pic32mz_da_sk_intddr_meb2/production/_ext/1907747181/libaria_list.o
 .data          0x00000000        0x0 build/pic32mz_da_sk_intddr_meb2/production/_ext/1907747181/libaria_list.o
 .bss           0x00000000        0x0 build/pic32mz_da_sk_intddr_meb2/production/_ext/1907747181/libaria_list.o
 .reginfo       0x00000000       0x18 build/pic32mz_da_sk_intddr_meb2/production/_ext/1907747181/libaria_list.o
 .text.laList_Create
                0x00000000       0x24 build/pic32mz_da_sk_intddr_meb2/production/_ext/1907747181/libaria_list.o
 .text.laList_Assign
                0x00000000       0x5c build/pic32mz_da_sk_intddr_meb2/production/_ext/1907747181/libaria_list.o
 .text.laList_PushFront
                0x00000000       0x9c build/pic32mz_da_sk_intddr_meb2/production/_ext/1907747181/libaria_list.o
 .text.laList_PopFront
                0x00000000       0x98 build/pic32mz_da_sk_intddr_meb2/production/_ext/1907747181/libaria_list.o
 .text.laList_Get
                0x00000000       0x48 build/pic32mz_da_sk_intddr_meb2/production/_ext/1907747181/libaria_list.o
 .text.laList_Find
                0x00000000       0x70 build/pic32mz_da_sk_intddr_meb2/production/_ext/1907747181/libaria_list.o
 .text.laList_InsertAt
                0x00000000      0x114 build/pic32mz_da_sk_intddr_meb2/production/_ext/1907747181/libaria_list.o
 .text.laList_RemoveAt
                0x00000000       0xdc build/pic32mz_da_sk_intddr_meb2/production/_ext/1907747181/libaria_list.o
 .text.laList_Clear
                0x00000000       0x78 build/pic32mz_da_sk_intddr_meb2/production/_ext/1907747181/libaria_list.o
 .text.laList_Copy
                0x00000000       0xc4 build/pic32mz_da_sk_intddr_meb2/production/_ext/1907747181/libaria_list.o
 .text          0x00000000        0x0 build/pic32mz_da_sk_intddr_meb2/production/_ext/1907747181/libaria_scheme.o
 .data          0x00000000        0x0 build/pic32mz_da_sk_intddr_meb2/production/_ext/1907747181/libaria_scheme.o
 .bss           0x00000000        0x0 build/pic32mz_da_sk_intddr_meb2/production/_ext/1907747181/libaria_scheme.o
 .reginfo       0x00000000       0x18 build/pic32mz_da_sk_intddr_meb2/production/_ext/1907747181/libaria_scheme.o
 .text          0x00000000        0x0 build/pic32mz_da_sk_intddr_meb2/production/_ext/1907747181/libaria_screen.o
 .data          0x00000000        0x0 build/pic32mz_da_sk_intddr_meb2/production/_ext/1907747181/libaria_screen.o
 .bss           0x00000000        0x0 build/pic32mz_da_sk_intddr_meb2/production/_ext/1907747181/libaria_screen.o
 .reginfo       0x00000000       0x18 build/pic32mz_da_sk_intddr_meb2/production/_ext/1907747181/libaria_screen.o
 .text.laScreen_Delete
                0x00000000       0xa4 build/pic32mz_da_sk_intddr_meb2/production/_ext/1907747181/libaria_screen.o
 .text.laScreen_Show
                0x00000000      0x108 build/pic32mz_da_sk_intddr_meb2/production/_ext/1907747181/libaria_screen.o
 .text.laScreen_Hide
                0x00000000       0xe4 build/pic32mz_da_sk_intddr_meb2/production/_ext/1907747181/libaria_screen.o
 .text.laScreen_GetOrientation
                0x00000000       0x18 build/pic32mz_da_sk_intddr_meb2/production/_ext/1907747181/libaria_screen.o
 .text.laScreen_SetOrientation
                0x00000000       0x1c build/pic32mz_da_sk_intddr_meb2/production/_ext/1907747181/libaria_screen.o
 .text.laScreen_GetMirrored
                0x00000000       0x18 build/pic32mz_da_sk_intddr_meb2/production/_ext/1907747181/libaria_screen.o
 .text.laScreen_SetMirrored
                0x00000000       0x1c build/pic32mz_da_sk_intddr_meb2/production/_ext/1907747181/libaria_screen.o
 .text.laScreen_GetLayerSwapSync
                0x00000000       0x18 build/pic32mz_da_sk_intddr_meb2/production/_ext/1907747181/libaria_screen.o
 .text.laScreen_SetLayerSwapSync
                0x00000000       0x1c build/pic32mz_da_sk_intddr_meb2/production/_ext/1907747181/libaria_screen.o
 .text.laScreen_GetShowEventCallback
                0x00000000       0x18 build/pic32mz_da_sk_intddr_meb2/production/_ext/1907747181/libaria_screen.o
 .text.laScreen_SetShowEventCallback
                0x00000000       0x1c build/pic32mz_da_sk_intddr_meb2/production/_ext/1907747181/libaria_screen.o
 .text.laScreen_GetHideEventCallback
                0x00000000       0x18 build/pic32mz_da_sk_intddr_meb2/production/_ext/1907747181/libaria_screen.o
 .text.laScreen_SetHideEventCallback
                0x00000000       0x1c build/pic32mz_da_sk_intddr_meb2/production/_ext/1907747181/libaria_screen.o
 .text          0x00000000        0x0 build/pic32mz_da_sk_intddr_meb2/production/_ext/1907747181/libaria_string.o
 .data          0x00000000        0x0 build/pic32mz_da_sk_intddr_meb2/production/_ext/1907747181/libaria_string.o
 .bss           0x00000000        0x0 build/pic32mz_da_sk_intddr_meb2/production/_ext/1907747181/libaria_string.o
 .reginfo       0x00000000       0x18 build/pic32mz_da_sk_intddr_meb2/production/_ext/1907747181/libaria_string.o
 .text.laString_Delete
                0x00000000       0x7c build/pic32mz_da_sk_intddr_meb2/production/_ext/1907747181/libaria_string.o
 .text.laString_Allocate
                0x00000000       0xb4 build/pic32mz_da_sk_intddr_meb2/production/_ext/1907747181/libaria_string.o
 .text.laString_CreateFromCharBuffer
                0x00000000      0x174 build/pic32mz_da_sk_intddr_meb2/production/_ext/1907747181/libaria_string.o
 .text.laString_Set
                0x00000000       0xc8 build/pic32mz_da_sk_intddr_meb2/production/_ext/1907747181/libaria_string.o
 .text.laString_CreateFromBuffer
                0x00000000       0xc4 build/pic32mz_da_sk_intddr_meb2/production/_ext/1907747181/libaria_string.o
 .text.laString_New
                0x00000000       0x6c build/pic32mz_da_sk_intddr_meb2/production/_ext/1907747181/libaria_string.o
 .text.laString_ExtractFromTable
                0x00000000       0xe0 build/pic32mz_da_sk_intddr_meb2/production/_ext/1907747181/libaria_string.o
 .text.laString_CharAt
                0x00000000       0x88 build/pic32mz_da_sk_intddr_meb2/production/_ext/1907747181/libaria_string.o
 .text.laString_Length
                0x00000000       0x6c build/pic32mz_da_sk_intddr_meb2/production/_ext/1907747181/libaria_string.o
 .text.laString_ReduceLength
                0x00000000       0x3c build/pic32mz_da_sk_intddr_meb2/production/_ext/1907747181/libaria_string.o
 .text.laString_Capacity
                0x00000000       0x18 build/pic32mz_da_sk_intddr_meb2/production/_ext/1907747181/libaria_string.o
 .text.laString_SetCapacity
                0x00000000      0x124 build/pic32mz_da_sk_intddr_meb2/production/_ext/1907747181/libaria_string.o
 .text.laString_CompareBuffer
                0x00000000       0x40 build/pic32mz_da_sk_intddr_meb2/production/_ext/1907747181/libaria_string.o
 .text.laString_Append
                0x00000000      0x1fc build/pic32mz_da_sk_intddr_meb2/production/_ext/1907747181/libaria_string.o
 .text.laString_Insert
                0x00000000      0x198 build/pic32mz_da_sk_intddr_meb2/production/_ext/1907747181/libaria_string.o
 .text.laString_Remove
                0x00000000       0x68 build/pic32mz_da_sk_intddr_meb2/production/_ext/1907747181/libaria_string.o
 .text.laString_Clear
                0x00000000       0x2c build/pic32mz_da_sk_intddr_meb2/production/_ext/1907747181/libaria_string.o
 .text.laString_ToCharBuffer
                0x00000000       0x70 build/pic32mz_da_sk_intddr_meb2/production/_ext/1907747181/libaria_string.o
 .text.laString_GetRect
                0x00000000       0xac build/pic32mz_da_sk_intddr_meb2/production/_ext/1907747181/libaria_string.o
 .text.laString_GetCharOffset
                0x00000000       0x90 build/pic32mz_da_sk_intddr_meb2/production/_ext/1907747181/libaria_string.o
 .text.laString_GetCharWidth
                0x00000000       0xbc build/pic32mz_da_sk_intddr_meb2/production/_ext/1907747181/libaria_string.o
 .text.laString_GetCharIndexAtPoint
                0x00000000       0xcc build/pic32mz_da_sk_intddr_meb2/production/_ext/1907747181/libaria_string.o
 .text.laString_Draw
                0x00000000       0xe4 build/pic32mz_da_sk_intddr_meb2/production/_ext/1907747181/libaria_string.o
 .text.laString_DrawClipped
                0x00000000      0x124 build/pic32mz_da_sk_intddr_meb2/production/_ext/1907747181/libaria_string.o
 .text          0x00000000        0x0 build/pic32mz_da_sk_intddr_meb2/production/_ext/1907747181/libaria_utils.o
 .data          0x00000000        0x0 build/pic32mz_da_sk_intddr_meb2/production/_ext/1907747181/libaria_utils.o
 .bss           0x00000000        0x0 build/pic32mz_da_sk_intddr_meb2/production/_ext/1907747181/libaria_utils.o
 .reginfo       0x00000000       0x18 build/pic32mz_da_sk_intddr_meb2/production/_ext/1907747181/libaria_utils.o
 .text.laUtils_Pick
                0x00000000       0xe4 build/pic32mz_da_sk_intddr_meb2/production/_ext/1907747181/libaria_utils.o
 .text.laUtils_PointToLayerSpace
                0x00000000       0x5c build/pic32mz_da_sk_intddr_meb2/production/_ext/1907747181/libaria_utils.o
 .text.laUtils_PointScreenToLocalSpace
                0x00000000       0x70 build/pic32mz_da_sk_intddr_meb2/production/_ext/1907747181/libaria_utils.o
 .text.laUtils_RectToParentSpace
                0x00000000       0x48 build/pic32mz_da_sk_intddr_meb2/production/_ext/1907747181/libaria_utils.o
 .text.laUtils_RectFromParentSpace
                0x00000000       0x48 build/pic32mz_da_sk_intddr_meb2/production/_ext/1907747181/libaria_utils.o
 .text.laUtils_RectFromLayerSpace
                0x00000000       0x70 build/pic32mz_da_sk_intddr_meb2/production/_ext/1907747181/libaria_utils.o
 .text.laUtils_RectToScreenSpace
                0x00000000       0x44 build/pic32mz_da_sk_intddr_meb2/production/_ext/1907747181/libaria_utils.o
 .text._occlusionCullTestAscending
                0x00000000      0x108 build/pic32mz_da_sk_intddr_meb2/production/_ext/1907747181/libaria_utils.o
 .text.laUtils_OcclusionCullTest
                0x00000000       0xe0 build/pic32mz_da_sk_intddr_meb2/production/_ext/1907747181/libaria_utils.o
 .text.laUtils_ListOcclusionCullTest
                0x00000000      0x174 build/pic32mz_da_sk_intddr_meb2/production/_ext/1907747181/libaria_utils.o
 .text          0x00000000        0x0 build/pic32mz_da_sk_intddr_meb2/production/_ext/1907747181/libaria_widget.o
 .data          0x00000000        0x0 build/pic32mz_da_sk_intddr_meb2/production/_ext/1907747181/libaria_widget.o
 .bss           0x00000000        0x0 build/pic32mz_da_sk_intddr_meb2/production/_ext/1907747181/libaria_widget.o
 .reginfo       0x00000000       0x18 build/pic32mz_da_sk_intddr_meb2/production/_ext/1907747181/libaria_widget.o
 .text.laWidget_New
                0x00000000       0x58 build/pic32mz_da_sk_intddr_meb2/production/_ext/1907747181/libaria_widget.o
 .text.laWidget_Delete
                0x00000000       0x54 build/pic32mz_da_sk_intddr_meb2/production/_ext/1907747181/libaria_widget.o
 .text._laWidget_Update
                0x00000000        0x8 build/pic32mz_da_sk_intddr_meb2/production/_ext/1907747181/libaria_widget.o
 .text.laWidget_GetEnabled
                0x00000000       0x18 build/pic32mz_da_sk_intddr_meb2/production/_ext/1907747181/libaria_widget.o
 .text.laWidget_GetVisible
                0x00000000       0x18 build/pic32mz_da_sk_intddr_meb2/production/_ext/1907747181/libaria_widget.o
 .text.laWidget_GetX
                0x00000000       0x18 build/pic32mz_da_sk_intddr_meb2/production/_ext/1907747181/libaria_widget.o
 .text.laWidget_GetY
                0x00000000       0x18 build/pic32mz_da_sk_intddr_meb2/production/_ext/1907747181/libaria_widget.o
 .text.laWidget_GetWidth
                0x00000000       0x18 build/pic32mz_da_sk_intddr_meb2/production/_ext/1907747181/libaria_widget.o
 .text.laWidget_GetHeight
                0x00000000       0x18 build/pic32mz_da_sk_intddr_meb2/production/_ext/1907747181/libaria_widget.o
 .text.laWidget_GetAlphaEnable
                0x00000000       0x18 build/pic32mz_da_sk_intddr_meb2/production/_ext/1907747181/libaria_widget.o
 .text.laWidget_GetAlphaAmount
                0x00000000       0x18 build/pic32mz_da_sk_intddr_meb2/production/_ext/1907747181/libaria_widget.o
 .text.laWidget_isOpaque
                0x00000000       0x58 build/pic32mz_da_sk_intddr_meb2/production/_ext/1907747181/libaria_widget.o
 .text.laWidget_RectToParentSpace
                0x00000000       0x6c build/pic32mz_da_sk_intddr_meb2/production/_ext/1907747181/libaria_widget.o
 .text.laWidget_SetX
                0x00000000       0xd8 build/pic32mz_da_sk_intddr_meb2/production/_ext/1907747181/libaria_widget.o
 .text.laWidget_SetY
                0x00000000       0xd8 build/pic32mz_da_sk_intddr_meb2/production/_ext/1907747181/libaria_widget.o
 .text.laWidget_Translate
                0x00000000      0x108 build/pic32mz_da_sk_intddr_meb2/production/_ext/1907747181/libaria_widget.o
 .text.laWidget_SetWidth
                0x00000000       0xd8 build/pic32mz_da_sk_intddr_meb2/production/_ext/1907747181/libaria_widget.o
 .text.laWidget_SetHeight
                0x00000000       0xd8 build/pic32mz_da_sk_intddr_meb2/production/_ext/1907747181/libaria_widget.o
 .text.laWidget_RectToScreenSpace
                0x00000000       0x8c build/pic32mz_da_sk_intddr_meb2/production/_ext/1907747181/libaria_widget.o
 .text.laWidget_Resize
                0x00000000      0x124 build/pic32mz_da_sk_intddr_meb2/production/_ext/1907747181/libaria_widget.o
 .text.laWidget_GetBorderType
                0x00000000       0x18 build/pic32mz_da_sk_intddr_meb2/production/_ext/1907747181/libaria_widget.o
 .text.laWidget_GetBackgroundType
                0x00000000       0x18 build/pic32mz_da_sk_intddr_meb2/production/_ext/1907747181/libaria_widget.o
 .text.laWidget_GetOptimizationFlags
                0x00000000       0x18 build/pic32mz_da_sk_intddr_meb2/production/_ext/1907747181/libaria_widget.o
 .text.laWidget_SetOptimizationFlags
                0x00000000       0x1c build/pic32mz_da_sk_intddr_meb2/production/_ext/1907747181/libaria_widget.o
 .text.laWidget_GetMargins
                0x00000000       0x24 build/pic32mz_da_sk_intddr_meb2/production/_ext/1907747181/libaria_widget.o
 .text.laWidget_GetCornerRadius
                0x00000000       0x18 build/pic32mz_da_sk_intddr_meb2/production/_ext/1907747181/libaria_widget.o
 .text.laWidget_HasFocus
                0x00000000       0x40 build/pic32mz_da_sk_intddr_meb2/production/_ext/1907747181/libaria_widget.o
 .text.laWidget_SetFocus
                0x00000000       0x1c build/pic32mz_da_sk_intddr_meb2/production/_ext/1907747181/libaria_widget.o
 .text.laWidget_OverrideTouchDownEvent
                0x00000000       0x2c build/pic32mz_da_sk_intddr_meb2/production/_ext/1907747181/libaria_widget.o
 .text.laWidget_OverrideTouchUpEvent
                0x00000000       0x2c build/pic32mz_da_sk_intddr_meb2/production/_ext/1907747181/libaria_widget.o
 .text.laWidget_OverrideTouchMovedEvent
                0x00000000       0x2c build/pic32mz_da_sk_intddr_meb2/production/_ext/1907747181/libaria_widget.o
 .text.laWidget_GetChildCount
                0x00000000       0x18 build/pic32mz_da_sk_intddr_meb2/production/_ext/1907747181/libaria_widget.o
 .text.laWidget_GetScheme
                0x00000000       0x18 build/pic32mz_da_sk_intddr_meb2/production/_ext/1907747181/libaria_widget.o
 .text.laWidget_SetEnabled
                0x00000000       0x60 build/pic32mz_da_sk_intddr_meb2/production/_ext/1907747181/libaria_widget.o
 .text.laWidget_SetVisible
                0x00000000       0x48 build/pic32mz_da_sk_intddr_meb2/production/_ext/1907747181/libaria_widget.o
 .text.laWidget_SetAlphaEnable
                0x00000000       0x60 build/pic32mz_da_sk_intddr_meb2/production/_ext/1907747181/libaria_widget.o
 .text.laWidget_SetAlphaAmount
                0x00000000       0x68 build/pic32mz_da_sk_intddr_meb2/production/_ext/1907747181/libaria_widget.o
 .text.laWidget_SetMargins
                0x00000000       0x6c build/pic32mz_da_sk_intddr_meb2/production/_ext/1907747181/libaria_widget.o
 .text.laWidget_SetCornerRadius
                0x00000000       0x60 build/pic32mz_da_sk_intddr_meb2/production/_ext/1907747181/libaria_widget.o
 .text.laWidget_SetParent
                0x00000000       0x68 build/pic32mz_da_sk_intddr_meb2/production/_ext/1907747181/libaria_widget.o
 .text.laWidget_SetScheme
                0x00000000       0x48 build/pic32mz_da_sk_intddr_meb2/production/_ext/1907747181/libaria_widget.o
 .text          0x00000000        0x0 build/pic32mz_da_sk_intddr_meb2/production/_ext/1907747181/libaria_widget_skin_classic.o
 .data          0x00000000        0x0 build/pic32mz_da_sk_intddr_meb2/production/_ext/1907747181/libaria_widget_skin_classic.o
 .bss           0x00000000        0x0 build/pic32mz_da_sk_intddr_meb2/production/_ext/1907747181/libaria_widget_skin_classic.o
 .reginfo       0x00000000       0x18 build/pic32mz_da_sk_intddr_meb2/production/_ext/1907747181/libaria_widget_skin_classic.o
 .text          0x00000000        0x0 build/pic32mz_da_sk_intddr_meb2/production/_ext/1907747181/libaria_widget_button.o
 .data          0x00000000        0x0 build/pic32mz_da_sk_intddr_meb2/production/_ext/1907747181/libaria_widget_button.o
 .bss           0x00000000        0x0 build/pic32mz_da_sk_intddr_meb2/production/_ext/1907747181/libaria_widget_button.o
 .reginfo       0x00000000       0x18 build/pic32mz_da_sk_intddr_meb2/production/_ext/1907747181/libaria_widget_button.o
 .text.laButtonWidget_GetToggleable
                0x00000000       0x18 build/pic32mz_da_sk_intddr_meb2/production/_ext/1907747181/libaria_widget_button.o
 .text.laButtonWidget_SetToggleable
                0x00000000       0x1c build/pic32mz_da_sk_intddr_meb2/production/_ext/1907747181/libaria_widget_button.o
 .text.laButtonWidget_GetPressed
                0x00000000       0x20 build/pic32mz_da_sk_intddr_meb2/production/_ext/1907747181/libaria_widget_button.o
 .text.laButtonWidget_SetPressed
                0x00000000      0x10c build/pic32mz_da_sk_intddr_meb2/production/_ext/1907747181/libaria_widget_button.o
 .text.laButtonWidget_GetHAlignment
                0x00000000       0x18 build/pic32mz_da_sk_intddr_meb2/production/_ext/1907747181/libaria_widget_button.o
 .text.laButtonWidget_SetHAlignment
                0x00000000       0x5c build/pic32mz_da_sk_intddr_meb2/production/_ext/1907747181/libaria_widget_button.o
 .text.laButtonWidget_GetVAlignment
                0x00000000       0x18 build/pic32mz_da_sk_intddr_meb2/production/_ext/1907747181/libaria_widget_button.o
 .text.laButtonWidget_SetVAlignment
                0x00000000       0x5c build/pic32mz_da_sk_intddr_meb2/production/_ext/1907747181/libaria_widget_button.o
 .text.laButtonWidget_GetText
                0x00000000       0x34 build/pic32mz_da_sk_intddr_meb2/production/_ext/1907747181/libaria_widget_button.o
 .text.laButtonWidget_GetPressedImage
                0x00000000       0x18 build/pic32mz_da_sk_intddr_meb2/production/_ext/1907747181/libaria_widget_button.o
 .text.laButtonWidget_SetPressedImage
                0x00000000       0x60 build/pic32mz_da_sk_intddr_meb2/production/_ext/1907747181/libaria_widget_button.o
 .text.laButtonWidget_GetReleasedImage
                0x00000000       0x18 build/pic32mz_da_sk_intddr_meb2/production/_ext/1907747181/libaria_widget_button.o
 .text.laButtonWidget_SetReleasedImage
                0x00000000       0x60 build/pic32mz_da_sk_intddr_meb2/production/_ext/1907747181/libaria_widget_button.o
 .text.laButtonWidget_GetImagePosition
                0x00000000       0x18 build/pic32mz_da_sk_intddr_meb2/production/_ext/1907747181/libaria_widget_button.o
 .text.laButtonWidget_SetImagePosition
                0x00000000       0x60 build/pic32mz_da_sk_intddr_meb2/production/_ext/1907747181/libaria_widget_button.o
 .text.laButtonWidget_GetImageMargin
                0x00000000       0x18 build/pic32mz_da_sk_intddr_meb2/production/_ext/1907747181/libaria_widget_button.o
 .text.laButtonWidget_SetImageMargin
                0x00000000       0x5c build/pic32mz_da_sk_intddr_meb2/production/_ext/1907747181/libaria_widget_button.o
 .text.laButtonWidget_GetPressedOffset
                0x00000000       0x18 build/pic32mz_da_sk_intddr_meb2/production/_ext/1907747181/libaria_widget_button.o
 .text.laButtonWidget_SetPressedOffset
                0x00000000       0x78 build/pic32mz_da_sk_intddr_meb2/production/_ext/1907747181/libaria_widget_button.o
 .text.laButtonWidget_GetPressedEventCallback
                0x00000000       0x18 build/pic32mz_da_sk_intddr_meb2/production/_ext/1907747181/libaria_widget_button.o
 .text.laButtonWidget_SetPressedEventCallback
                0x00000000       0x30 build/pic32mz_da_sk_intddr_meb2/production/_ext/1907747181/libaria_widget_button.o
 .text.laButtonWidget_GetReleasedEventCallback
                0x00000000       0x18 build/pic32mz_da_sk_intddr_meb2/production/_ext/1907747181/libaria_widget_button.o
 .text.laButtonWidget_SetReleasedEventCallback
                0x00000000       0x30 build/pic32mz_da_sk_intddr_meb2/production/_ext/1907747181/libaria_widget_button.o
 .text          0x00000000        0x0 build/pic32mz_da_sk_intddr_meb2/production/_ext/1907747181/libaria_widget_button_skin_classic.o
 .data          0x00000000        0x0 build/pic32mz_da_sk_intddr_meb2/production/_ext/1907747181/libaria_widget_button_skin_classic.o
 .bss           0x00000000        0x0 build/pic32mz_da_sk_intddr_meb2/production/_ext/1907747181/libaria_widget_button_skin_classic.o
 .reginfo       0x00000000       0x18 build/pic32mz_da_sk_intddr_meb2/production/_ext/1907747181/libaria_widget_button_skin_classic.o
 .text          0x00000000        0x0 build/pic32mz_da_sk_intddr_meb2/production/_ext/1907747181/libaria_widget_checkbox.o
 .data          0x00000000        0x0 build/pic32mz_da_sk_intddr_meb2/production/_ext/1907747181/libaria_widget_checkbox.o
 .bss           0x00000000        0x0 build/pic32mz_da_sk_intddr_meb2/production/_ext/1907747181/libaria_widget_checkbox.o
 .reginfo       0x00000000       0x18 build/pic32mz_da_sk_intddr_meb2/production/_ext/1907747181/libaria_widget_checkbox.o
 .text._laCheckBoxWidget_TouchMovedEvent
                0x00000000        0xc build/pic32mz_da_sk_intddr_meb2/production/_ext/1907747181/libaria_widget_checkbox.o
 .text.invalidateTextRect
                0x00000000       0x44 build/pic32mz_da_sk_intddr_meb2/production/_ext/1907747181/libaria_widget_checkbox.o
 .text.languageChanging
                0x00000000       0x38 build/pic32mz_da_sk_intddr_meb2/production/_ext/1907747181/libaria_widget_checkbox.o
 .text._laCheckBoxWidget_Destructor
                0x00000000       0x54 build/pic32mz_da_sk_intddr_meb2/production/_ext/1907747181/libaria_widget_checkbox.o
 .text.invalidateImageRect
                0x00000000       0x44 build/pic32mz_da_sk_intddr_meb2/production/_ext/1907747181/libaria_widget_checkbox.o
 .text.invalidateContents
                0x00000000       0x40 build/pic32mz_da_sk_intddr_meb2/production/_ext/1907747181/libaria_widget_checkbox.o
 .text._laCheckBoxWidget_TouchDownEvent
                0x00000000       0x5c build/pic32mz_da_sk_intddr_meb2/production/_ext/1907747181/libaria_widget_checkbox.o
 .text._laCheckBoxWidget_TouchUpEvent
                0x00000000       0xc0 build/pic32mz_da_sk_intddr_meb2/production/_ext/1907747181/libaria_widget_checkbox.o
 .text._laCheckBoxWidget_Constructor
                0x00000000       0xb0 build/pic32mz_da_sk_intddr_meb2/production/_ext/1907747181/libaria_widget_checkbox.o
 .text.laCheckBoxWidget_New
                0x00000000       0x58 build/pic32mz_da_sk_intddr_meb2/production/_ext/1907747181/libaria_widget_checkbox.o
 .text.laButtonWidget_GetChecked
                0x00000000       0x18 build/pic32mz_da_sk_intddr_meb2/production/_ext/1907747181/libaria_widget_checkbox.o
 .text.laCheckBoxWidget_SetChecked
                0x00000000       0x8c build/pic32mz_da_sk_intddr_meb2/production/_ext/1907747181/libaria_widget_checkbox.o
 .text.laCheckBoxWidget_GetHAlignment
                0x00000000       0x18 build/pic32mz_da_sk_intddr_meb2/production/_ext/1907747181/libaria_widget_checkbox.o
 .text.laCheckBoxWidget_SetHAlignment
                0x00000000       0x5c build/pic32mz_da_sk_intddr_meb2/production/_ext/1907747181/libaria_widget_checkbox.o
 .text.laCheckBoxWidget_GetVAlignment
                0x00000000       0x18 build/pic32mz_da_sk_intddr_meb2/production/_ext/1907747181/libaria_widget_checkbox.o
 .text.laCheckBoxWidget_SetVAlignment
                0x00000000       0x60 build/pic32mz_da_sk_intddr_meb2/production/_ext/1907747181/libaria_widget_checkbox.o
 .text.laCheckBoxWidget_GetText
                0x00000000       0x34 build/pic32mz_da_sk_intddr_meb2/production/_ext/1907747181/libaria_widget_checkbox.o
 .text.laCheckBoxWidget_SetText
                0x00000000       0x7c build/pic32mz_da_sk_intddr_meb2/production/_ext/1907747181/libaria_widget_checkbox.o
 .text.laCheckBoxWidget_GetCheckedImage
                0x00000000       0x18 build/pic32mz_da_sk_intddr_meb2/production/_ext/1907747181/libaria_widget_checkbox.o
 .text.laCheckBoxWidget_SetCheckedImage
                0x00000000       0x60 build/pic32mz_da_sk_intddr_meb2/production/_ext/1907747181/libaria_widget_checkbox.o
 .text.laCheckBoxWidget_GetUncheckedImage
                0x00000000       0x18 build/pic32mz_da_sk_intddr_meb2/production/_ext/1907747181/libaria_widget_checkbox.o
 .text.laCheckBoxWidget_SetUncheckedImage
                0x00000000       0x60 build/pic32mz_da_sk_intddr_meb2/production/_ext/1907747181/libaria_widget_checkbox.o
 .text.laCheckBoxWidget_GetImagePosition
                0x00000000       0x18 build/pic32mz_da_sk_intddr_meb2/production/_ext/1907747181/libaria_widget_checkbox.o
 .text.laCheckBoxWidget_SetImagePosition
                0x00000000       0x60 build/pic32mz_da_sk_intddr_meb2/production/_ext/1907747181/libaria_widget_checkbox.o
 .text.laCheckBoxWidget_GetImageMargin
                0x00000000       0x18 build/pic32mz_da_sk_intddr_meb2/production/_ext/1907747181/libaria_widget_checkbox.o
 .text.laCheckBoxWidget_SetImageMargin
                0x00000000       0x60 build/pic32mz_da_sk_intddr_meb2/production/_ext/1907747181/libaria_widget_checkbox.o
 .text.laCheckBoxWidget_GetCheckedEventCallback
                0x00000000       0x18 build/pic32mz_da_sk_intddr_meb2/production/_ext/1907747181/libaria_widget_checkbox.o
 .text.laCheckBoxWidget_SetCheckedEventCallback
                0x00000000       0x1c build/pic32mz_da_sk_intddr_meb2/production/_ext/1907747181/libaria_widget_checkbox.o
 .text.laCheckBoxWidget_GetUncheckedEventCallback
                0x00000000       0x18 build/pic32mz_da_sk_intddr_meb2/production/_ext/1907747181/libaria_widget_checkbox.o
 .text.laCheckBoxWidget_SetUncheckedEventCallback
                0x00000000       0x1c build/pic32mz_da_sk_intddr_meb2/production/_ext/1907747181/libaria_widget_checkbox.o
 .text          0x00000000        0x0 build/pic32mz_da_sk_intddr_meb2/production/_ext/1907747181/libaria_widget_checkbox_skin_classic.o
 .data          0x00000000        0x0 build/pic32mz_da_sk_intddr_meb2/production/_ext/1907747181/libaria_widget_checkbox_skin_classic.o
 .bss           0x00000000        0x0 build/pic32mz_da_sk_intddr_meb2/production/_ext/1907747181/libaria_widget_checkbox_skin_classic.o
 .reginfo       0x00000000       0x18 build/pic32mz_da_sk_intddr_meb2/production/_ext/1907747181/libaria_widget_checkbox_skin_classic.o
 .text.nextState
                0x00000000       0xfc build/pic32mz_da_sk_intddr_meb2/production/_ext/1907747181/libaria_widget_checkbox_skin_classic.o
 .text.waitString
                0x00000000       0x68 build/pic32mz_da_sk_intddr_meb2/production/_ext/1907747181/libaria_widget_checkbox_skin_classic.o
 .text.waitImage
                0x00000000       0x68 build/pic32mz_da_sk_intddr_meb2/production/_ext/1907747181/libaria_widget_checkbox_skin_classic.o
 .text.drawBorder
                0x00000000       0x58 build/pic32mz_da_sk_intddr_meb2/production/_ext/1907747181/libaria_widget_checkbox_skin_classic.o
 .text.drawBackground
                0x00000000       0x2c build/pic32mz_da_sk_intddr_meb2/production/_ext/1907747181/libaria_widget_checkbox_skin_classic.o
 .text._laCheckBoxWidget_GetImageRect
                0x00000000      0x198 build/pic32mz_da_sk_intddr_meb2/production/_ext/1907747181/libaria_widget_checkbox_skin_classic.o
 .text.drawImage
                0x00000000      0x2ac build/pic32mz_da_sk_intddr_meb2/production/_ext/1907747181/libaria_widget_checkbox_skin_classic.o
 .text._laCheckBoxWidget_GetTextRect
                0x00000000      0x184 build/pic32mz_da_sk_intddr_meb2/production/_ext/1907747181/libaria_widget_checkbox_skin_classic.o
 .text.drawString
                0x00000000       0xe0 build/pic32mz_da_sk_intddr_meb2/production/_ext/1907747181/libaria_widget_checkbox_skin_classic.o
 .text._laCheckBoxWidget_Paint
                0x00000000       0xb8 build/pic32mz_da_sk_intddr_meb2/production/_ext/1907747181/libaria_widget_checkbox_skin_classic.o
 .text          0x00000000        0x0 build/pic32mz_da_sk_intddr_meb2/production/_ext/1907747181/libaria_widget_circle.o
 .data          0x00000000        0x0 build/pic32mz_da_sk_intddr_meb2/production/_ext/1907747181/libaria_widget_circle.o
 .bss           0x00000000        0x0 build/pic32mz_da_sk_intddr_meb2/production/_ext/1907747181/libaria_widget_circle.o
 .reginfo       0x00000000       0x18 build/pic32mz_da_sk_intddr_meb2/production/_ext/1907747181/libaria_widget_circle.o
 .text._laCircleWidget_Destructor
                0x00000000       0x1c build/pic32mz_da_sk_intddr_meb2/production/_ext/1907747181/libaria_widget_circle.o
 .text._laCircleWidget_Constructor
                0x00000000       0x68 build/pic32mz_da_sk_intddr_meb2/production/_ext/1907747181/libaria_widget_circle.o
 .text.laCircleWidget_New
                0x00000000       0x58 build/pic32mz_da_sk_intddr_meb2/production/_ext/1907747181/libaria_widget_circle.o
 .text.laCircleWidget_GetOrigin
                0x00000000       0x48 build/pic32mz_da_sk_intddr_meb2/production/_ext/1907747181/libaria_widget_circle.o
 .text.laCircleWidget_SetOrigin
                0x00000000       0x48 build/pic32mz_da_sk_intddr_meb2/production/_ext/1907747181/libaria_widget_circle.o
 .text.laCircleWidget_GetRadius
                0x00000000       0x18 build/pic32mz_da_sk_intddr_meb2/production/_ext/1907747181/libaria_widget_circle.o
 .text.laCircleWidget_SetRadius
                0x00000000       0x44 build/pic32mz_da_sk_intddr_meb2/production/_ext/1907747181/libaria_widget_circle.o
 .text          0x00000000        0x0 build/pic32mz_da_sk_intddr_meb2/production/_ext/1907747181/libaria_widget_circle_skin_classic.o
 .data          0x00000000        0x0 build/pic32mz_da_sk_intddr_meb2/production/_ext/1907747181/libaria_widget_circle_skin_classic.o
 .bss           0x00000000        0x0 build/pic32mz_da_sk_intddr_meb2/production/_ext/1907747181/libaria_widget_circle_skin_classic.o
 .reginfo       0x00000000       0x18 build/pic32mz_da_sk_intddr_meb2/production/_ext/1907747181/libaria_widget_circle_skin_classic.o
 .text.nextState
                0x00000000       0xa8 build/pic32mz_da_sk_intddr_meb2/production/_ext/1907747181/libaria_widget_circle_skin_classic.o
 .text.drawBorder
                0x00000000       0x58 build/pic32mz_da_sk_intddr_meb2/production/_ext/1907747181/libaria_widget_circle_skin_classic.o
 .text.drawCircle
                0x00000000       0xe8 build/pic32mz_da_sk_intddr_meb2/production/_ext/1907747181/libaria_widget_circle_skin_classic.o
 .text.drawBackground
                0x00000000       0x2c build/pic32mz_da_sk_intddr_meb2/production/_ext/1907747181/libaria_widget_circle_skin_classic.o
 .text._laCircleWidget_Paint
                0x00000000       0x9c build/pic32mz_da_sk_intddr_meb2/production/_ext/1907747181/libaria_widget_circle_skin_classic.o
 .text          0x00000000        0x0 build/pic32mz_da_sk_intddr_meb2/production/_ext/1907747181/libaria_widget_drawsurface.o
 .data          0x00000000        0x0 build/pic32mz_da_sk_intddr_meb2/production/_ext/1907747181/libaria_widget_drawsurface.o
 .bss           0x00000000        0x0 build/pic32mz_da_sk_intddr_meb2/production/_ext/1907747181/libaria_widget_drawsurface.o
 .reginfo       0x00000000       0x18 build/pic32mz_da_sk_intddr_meb2/production/_ext/1907747181/libaria_widget_drawsurface.o
 .text._laDrawSurfaceWidget_Destructor
                0x00000000       0x1c build/pic32mz_da_sk_intddr_meb2/production/_ext/1907747181/libaria_widget_drawsurface.o
 .text._laDrawSurfaceWidget_Constructor
                0x00000000       0x60 build/pic32mz_da_sk_intddr_meb2/production/_ext/1907747181/libaria_widget_drawsurface.o
 .text.laDrawSurfaceWidget_New
                0x00000000       0x58 build/pic32mz_da_sk_intddr_meb2/production/_ext/1907747181/libaria_widget_drawsurface.o
 .text.laDrawSurfaceWidget_GetDrawCallback
                0x00000000       0x18 build/pic32mz_da_sk_intddr_meb2/production/_ext/1907747181/libaria_widget_drawsurface.o
 .text.laDrawSurfaceWidget_SetDrawCallback
                0x00000000       0x48 build/pic32mz_da_sk_intddr_meb2/production/_ext/1907747181/libaria_widget_drawsurface.o
 .text          0x00000000        0x0 build/pic32mz_da_sk_intddr_meb2/production/_ext/1907747181/libaria_widget_drawsurface_skin_classic.o
 .data          0x00000000        0x0 build/pic32mz_da_sk_intddr_meb2/production/_ext/1907747181/libaria_widget_drawsurface_skin_classic.o
 .bss           0x00000000        0x0 build/pic32mz_da_sk_intddr_meb2/production/_ext/1907747181/libaria_widget_drawsurface_skin_classic.o
 .reginfo       0x00000000       0x18 build/pic32mz_da_sk_intddr_meb2/production/_ext/1907747181/libaria_widget_drawsurface_skin_classic.o
 .text.nextState
                0x00000000       0xa8 build/pic32mz_da_sk_intddr_meb2/production/_ext/1907747181/libaria_widget_drawsurface_skin_classic.o
 .text.drawBorder
                0x00000000       0x58 build/pic32mz_da_sk_intddr_meb2/production/_ext/1907747181/libaria_widget_drawsurface_skin_classic.o
 .text.drawCallback
                0x00000000       0x74 build/pic32mz_da_sk_intddr_meb2/production/_ext/1907747181/libaria_widget_drawsurface_skin_classic.o
 .text.drawBackground
                0x00000000       0x2c build/pic32mz_da_sk_intddr_meb2/production/_ext/1907747181/libaria_widget_drawsurface_skin_classic.o
 .text._laDrawSurfaceWidget_Paint
                0x00000000       0x9c build/pic32mz_da_sk_intddr_meb2/production/_ext/1907747181/libaria_widget_drawsurface_skin_classic.o
 .text          0x00000000        0x0 build/pic32mz_da_sk_intddr_meb2/production/_ext/1907747181/libaria_widget_gradient.o
 .data          0x00000000        0x0 build/pic32mz_da_sk_intddr_meb2/production/_ext/1907747181/libaria_widget_gradient.o
 .bss           0x00000000        0x0 build/pic32mz_da_sk_intddr_meb2/production/_ext/1907747181/libaria_widget_gradient.o
 .reginfo       0x00000000       0x18 build/pic32mz_da_sk_intddr_meb2/production/_ext/1907747181/libaria_widget_gradient.o
 .text._laGradientWidget_Destructor
                0x00000000       0x1c build/pic32mz_da_sk_intddr_meb2/production/_ext/1907747181/libaria_widget_gradient.o
 .text._laGradientWidget_Constructor
                0x00000000       0x60 build/pic32mz_da_sk_intddr_meb2/production/_ext/1907747181/libaria_widget_gradient.o
 .text.laGradientWidget_New
                0x00000000       0x58 build/pic32mz_da_sk_intddr_meb2/production/_ext/1907747181/libaria_widget_gradient.o
 .text.laGradientWidget_GetDirection
                0x00000000       0x18 build/pic32mz_da_sk_intddr_meb2/production/_ext/1907747181/libaria_widget_gradient.o
 .text.laGradientWidget_SetDirection
                0x00000000       0x44 build/pic32mz_da_sk_intddr_meb2/production/_ext/1907747181/libaria_widget_gradient.o
 .text          0x00000000        0x0 build/pic32mz_da_sk_intddr_meb2/production/_ext/1907747181/libaria_widget_gradient_skin_classic.o
 .data          0x00000000        0x0 build/pic32mz_da_sk_intddr_meb2/production/_ext/1907747181/libaria_widget_gradient_skin_classic.o
 .bss           0x00000000        0x0 build/pic32mz_da_sk_intddr_meb2/production/_ext/1907747181/libaria_widget_gradient_skin_classic.o
 .reginfo       0x00000000       0x18 build/pic32mz_da_sk_intddr_meb2/production/_ext/1907747181/libaria_widget_gradient_skin_classic.o
 .text.nextState
                0x00000000       0x78 build/pic32mz_da_sk_intddr_meb2/production/_ext/1907747181/libaria_widget_gradient_skin_classic.o
 .text.drawBorder
                0x00000000       0x58 build/pic32mz_da_sk_intddr_meb2/production/_ext/1907747181/libaria_widget_gradient_skin_classic.o
 .text.drawBackground
                0x00000000      0x158 build/pic32mz_da_sk_intddr_meb2/production/_ext/1907747181/libaria_widget_gradient_skin_classic.o
 .text._laGradientWidget_Paint
                0x00000000       0x9c build/pic32mz_da_sk_intddr_meb2/production/_ext/1907747181/libaria_widget_gradient_skin_classic.o
 .text          0x00000000        0x0 build/pic32mz_da_sk_intddr_meb2/production/_ext/1907747181/libaria_widget_groupbox.o
 .data          0x00000000        0x0 build/pic32mz_da_sk_intddr_meb2/production/_ext/1907747181/libaria_widget_groupbox.o
 .bss           0x00000000        0x0 build/pic32mz_da_sk_intddr_meb2/production/_ext/1907747181/libaria_widget_groupbox.o
 .reginfo       0x00000000       0x18 build/pic32mz_da_sk_intddr_meb2/production/_ext/1907747181/libaria_widget_groupbox.o
 .text.languageChanging
                0x00000000       0x58 build/pic32mz_da_sk_intddr_meb2/production/_ext/1907747181/libaria_widget_groupbox.o
 .text._laGroupBoxWidget_Destructor
                0x00000000       0x30 build/pic32mz_da_sk_intddr_meb2/production/_ext/1907747181/libaria_widget_groupbox.o
 .text._laGroupBoxWidget_Constructor
                0x00000000       0x6c build/pic32mz_da_sk_intddr_meb2/production/_ext/1907747181/libaria_widget_groupbox.o
 .text.laGroupBoxWidget_New
                0x00000000       0x50 build/pic32mz_da_sk_intddr_meb2/production/_ext/1907747181/libaria_widget_groupbox.o
 .text.laGroupBoxWidget_GetAlignment
                0x00000000       0x18 build/pic32mz_da_sk_intddr_meb2/production/_ext/1907747181/libaria_widget_groupbox.o
 .text.laGroupBoxWidget_SetAlignment
                0x00000000       0x44 build/pic32mz_da_sk_intddr_meb2/production/_ext/1907747181/libaria_widget_groupbox.o
 .text.laGroupBoxWidget_GetText
                0x00000000       0x34 build/pic32mz_da_sk_intddr_meb2/production/_ext/1907747181/libaria_widget_groupbox.o
 .text.laGroupBoxWidget_SetText
                0x00000000       0x84 build/pic32mz_da_sk_intddr_meb2/production/_ext/1907747181/libaria_widget_groupbox.o
 .text          0x00000000        0x0 build/pic32mz_da_sk_intddr_meb2/production/_ext/1907747181/libaria_widget_groupbox_skin_classic.o
 .data          0x00000000        0x0 build/pic32mz_da_sk_intddr_meb2/production/_ext/1907747181/libaria_widget_groupbox_skin_classic.o
 .bss           0x00000000        0x0 build/pic32mz_da_sk_intddr_meb2/production/_ext/1907747181/libaria_widget_groupbox_skin_classic.o
 .reginfo       0x00000000       0x18 build/pic32mz_da_sk_intddr_meb2/production/_ext/1907747181/libaria_widget_groupbox_skin_classic.o
 .text.nextState
                0x00000000       0xf8 build/pic32mz_da_sk_intddr_meb2/production/_ext/1907747181/libaria_widget_groupbox_skin_classic.o
 .text.waitString
                0x00000000       0x68 build/pic32mz_da_sk_intddr_meb2/production/_ext/1907747181/libaria_widget_groupbox_skin_classic.o
 .text.drawBorder
                0x00000000       0x58 build/pic32mz_da_sk_intddr_meb2/production/_ext/1907747181/libaria_widget_groupbox_skin_classic.o
 .text.drawLine
                0x00000000       0x84 build/pic32mz_da_sk_intddr_meb2/production/_ext/1907747181/libaria_widget_groupbox_skin_classic.o
 .text.drawOutline
                0x00000000      0x2e0 build/pic32mz_da_sk_intddr_meb2/production/_ext/1907747181/libaria_widget_groupbox_skin_classic.o
 .text.drawBackground
                0x00000000       0x2c build/pic32mz_da_sk_intddr_meb2/production/_ext/1907747181/libaria_widget_groupbox_skin_classic.o
 .text._laGroupBoxWidget_GetTextRect
                0x00000000      0x100 build/pic32mz_da_sk_intddr_meb2/production/_ext/1907747181/libaria_widget_groupbox_skin_classic.o
 .text.drawString
                0x00000000       0xe0 build/pic32mz_da_sk_intddr_meb2/production/_ext/1907747181/libaria_widget_groupbox_skin_classic.o
 .text._laGroupBoxWidget_Paint
                0x00000000       0xb4 build/pic32mz_da_sk_intddr_meb2/production/_ext/1907747181/libaria_widget_groupbox_skin_classic.o
 .rodata        0x00000000       0x10 build/pic32mz_da_sk_intddr_meb2/production/_ext/1907747181/libaria_widget_groupbox_skin_classic.o
 .text          0x00000000        0x0 build/pic32mz_da_sk_intddr_meb2/production/_ext/1907747181/libaria_widget_image.o
 .data          0x00000000        0x0 build/pic32mz_da_sk_intddr_meb2/production/_ext/1907747181/libaria_widget_image.o
 .bss           0x00000000        0x0 build/pic32mz_da_sk_intddr_meb2/production/_ext/1907747181/libaria_widget_image.o
 .reginfo       0x00000000       0x18 build/pic32mz_da_sk_intddr_meb2/production/_ext/1907747181/libaria_widget_image.o
 .text.laImageWidget_GetHAlignment
                0x00000000       0x18 build/pic32mz_da_sk_intddr_meb2/production/_ext/1907747181/libaria_widget_image.o
 .text.laImageWidget_SetHAlignment
                0x00000000       0x5c build/pic32mz_da_sk_intddr_meb2/production/_ext/1907747181/libaria_widget_image.o
 .text.laImageWidget_GetVAlignment
                0x00000000       0x18 build/pic32mz_da_sk_intddr_meb2/production/_ext/1907747181/libaria_widget_image.o
 .text.laImageWidget_SetVAlignment
                0x00000000       0x5c build/pic32mz_da_sk_intddr_meb2/production/_ext/1907747181/libaria_widget_image.o
 .text.laImageWidget_GetImage
                0x00000000       0x18 build/pic32mz_da_sk_intddr_meb2/production/_ext/1907747181/libaria_widget_image.o
 .text.laImageWidget_SetCallBackStart
                0x00000000        0x8 build/pic32mz_da_sk_intddr_meb2/production/_ext/1907747181/libaria_widget_image.o
 .text.laImageWidget_SetCallBackEnd
                0x00000000        0x8 build/pic32mz_da_sk_intddr_meb2/production/_ext/1907747181/libaria_widget_image.o
 .text          0x00000000        0x0 build/pic32mz_da_sk_intddr_meb2/production/_ext/1907747181/libaria_widget_image_skin_classic.o
 .data          0x00000000        0x0 build/pic32mz_da_sk_intddr_meb2/production/_ext/1907747181/libaria_widget_image_skin_classic.o
 .bss           0x00000000        0x0 build/pic32mz_da_sk_intddr_meb2/production/_ext/1907747181/libaria_widget_image_skin_classic.o
 .reginfo       0x00000000       0x18 build/pic32mz_da_sk_intddr_meb2/production/_ext/1907747181/libaria_widget_image_skin_classic.o
 .text          0x00000000        0x0 build/pic32mz_da_sk_intddr_meb2/production/_ext/1907747181/libaria_widget_imagesequence.o
 .data          0x00000000        0x0 build/pic32mz_da_sk_intddr_meb2/production/_ext/1907747181/libaria_widget_imagesequence.o
 .bss           0x00000000        0x0 build/pic32mz_da_sk_intddr_meb2/production/_ext/1907747181/libaria_widget_imagesequence.o
 .reginfo       0x00000000       0x18 build/pic32mz_da_sk_intddr_meb2/production/_ext/1907747181/libaria_widget_imagesequence.o
 .text._laImageSequenceWidget_Destructor
                0x00000000       0x48 build/pic32mz_da_sk_intddr_meb2/production/_ext/1907747181/libaria_widget_imagesequence.o
 .text._laImageSequenceWidget_Update
                0x00000000       0xec build/pic32mz_da_sk_intddr_meb2/production/_ext/1907747181/libaria_widget_imagesequence.o
 .text._laImageSequenceWidget_Constructor
                0x00000000       0x80 build/pic32mz_da_sk_intddr_meb2/production/_ext/1907747181/libaria_widget_imagesequence.o
 .text.laImageSequenceWidget_New
                0x00000000       0x44 build/pic32mz_da_sk_intddr_meb2/production/_ext/1907747181/libaria_widget_imagesequence.o
 .text.laImageSequenceWidget_GetImageCount
                0x00000000       0x18 build/pic32mz_da_sk_intddr_meb2/production/_ext/1907747181/libaria_widget_imagesequence.o
 .text.laImageSequenceWidget_SetImageCount
                0x00000000       0xc4 build/pic32mz_da_sk_intddr_meb2/production/_ext/1907747181/libaria_widget_imagesequence.o
 .text.laImageSequenceWidget_GetImage
                0x00000000       0x34 build/pic32mz_da_sk_intddr_meb2/production/_ext/1907747181/libaria_widget_imagesequence.o
 .text.laImageSequenceWidget_SetImage
                0x00000000       0x80 build/pic32mz_da_sk_intddr_meb2/production/_ext/1907747181/libaria_widget_imagesequence.o
 .text.laImageSequenceWidget_GetImageDelay
                0x00000000       0x30 build/pic32mz_da_sk_intddr_meb2/production/_ext/1907747181/libaria_widget_imagesequence.o
 .text.laImageSequenceWidget_SetImageDelay
                0x00000000       0x3c build/pic32mz_da_sk_intddr_meb2/production/_ext/1907747181/libaria_widget_imagesequence.o
 .text.laImageSequenceWidget_GetImageHAlignment
                0x00000000       0x30 build/pic32mz_da_sk_intddr_meb2/production/_ext/1907747181/libaria_widget_imagesequence.o
 .text.laImageSequenceWidget_SetImageHAlignment
                0x00000000       0x80 build/pic32mz_da_sk_intddr_meb2/production/_ext/1907747181/libaria_widget_imagesequence.o
 .text.laImageSequenceWidget_GetImageVAlignment
                0x00000000       0x30 build/pic32mz_da_sk_intddr_meb2/production/_ext/1907747181/libaria_widget_imagesequence.o
 .text.laImageSequenceWidget_SetImageVAlignment
                0x00000000       0x80 build/pic32mz_da_sk_intddr_meb2/production/_ext/1907747181/libaria_widget_imagesequence.o
 .text.laImageSequenceWidget_Stop
                0x00000000       0x1c build/pic32mz_da_sk_intddr_meb2/production/_ext/1907747181/libaria_widget_imagesequence.o
 .text.laImageSequenceWidget_Play
                0x00000000       0x20 build/pic32mz_da_sk_intddr_meb2/production/_ext/1907747181/libaria_widget_imagesequence.o
 .text.laImageSequenceWidget_Rewind
                0x00000000       0x24 build/pic32mz_da_sk_intddr_meb2/production/_ext/1907747181/libaria_widget_imagesequence.o
 .text.laImageSequenceWidget_IsPlaying
                0x00000000       0x18 build/pic32mz_da_sk_intddr_meb2/production/_ext/1907747181/libaria_widget_imagesequence.o
 .text.laImageSequenceWidget_GetRepeat
                0x00000000       0x18 build/pic32mz_da_sk_intddr_meb2/production/_ext/1907747181/libaria_widget_imagesequence.o
 .text.laImageSequenceWidget_SetRepeat
                0x00000000       0x1c build/pic32mz_da_sk_intddr_meb2/production/_ext/1907747181/libaria_widget_imagesequence.o
 .text.laImageSequenceWidget_ShowImage
                0x00000000       0x64 build/pic32mz_da_sk_intddr_meb2/production/_ext/1907747181/libaria_widget_imagesequence.o
 .text.laImageSequenceWidget_ShowNextImage
                0x00000000       0x5c build/pic32mz_da_sk_intddr_meb2/production/_ext/1907747181/libaria_widget_imagesequence.o
 .text.laImageSequenceWidget_ShowPreviousImage
                0x00000000       0x58 build/pic32mz_da_sk_intddr_meb2/production/_ext/1907747181/libaria_widget_imagesequence.o
 .text.laImageSequenceWidget_GetImageChangedEventCallback
                0x00000000       0x18 build/pic32mz_da_sk_intddr_meb2/production/_ext/1907747181/libaria_widget_imagesequence.o
 .text.laImageSequenceWidget_SetImageChangedEventCallback
                0x00000000       0x1c build/pic32mz_da_sk_intddr_meb2/production/_ext/1907747181/libaria_widget_imagesequence.o
 .text          0x00000000        0x0 build/pic32mz_da_sk_intddr_meb2/production/_ext/1907747181/libaria_widget_imagesequence_skin_classic.o
 .data          0x00000000        0x0 build/pic32mz_da_sk_intddr_meb2/production/_ext/1907747181/libaria_widget_imagesequence_skin_classic.o
 .bss           0x00000000        0x0 build/pic32mz_da_sk_intddr_meb2/production/_ext/1907747181/libaria_widget_imagesequence_skin_classic.o
 .reginfo       0x00000000       0x18 build/pic32mz_da_sk_intddr_meb2/production/_ext/1907747181/libaria_widget_imagesequence_skin_classic.o
 .text.nextState
                0x00000000       0xd4 build/pic32mz_da_sk_intddr_meb2/production/_ext/1907747181/libaria_widget_imagesequence_skin_classic.o
 .text.waitImage
                0x00000000       0x68 build/pic32mz_da_sk_intddr_meb2/production/_ext/1907747181/libaria_widget_imagesequence_skin_classic.o
 .text.drawBorder
                0x00000000       0x58 build/pic32mz_da_sk_intddr_meb2/production/_ext/1907747181/libaria_widget_imagesequence_skin_classic.o
 .text.drawBackground
                0x00000000       0x2c build/pic32mz_da_sk_intddr_meb2/production/_ext/1907747181/libaria_widget_imagesequence_skin_classic.o
 .text._laImageSequenceWidget_GetImageRect
                0x00000000      0x178 build/pic32mz_da_sk_intddr_meb2/production/_ext/1907747181/libaria_widget_imagesequence_skin_classic.o
 .text.drawImage
                0x00000000      0x120 build/pic32mz_da_sk_intddr_meb2/production/_ext/1907747181/libaria_widget_imagesequence_skin_classic.o
 .text._laImageSequenceWidget_Paint
                0x00000000       0xb4 build/pic32mz_da_sk_intddr_meb2/production/_ext/1907747181/libaria_widget_imagesequence_skin_classic.o
 .rodata        0x00000000       0x10 build/pic32mz_da_sk_intddr_meb2/production/_ext/1907747181/libaria_widget_imagesequence_skin_classic.o
 .text          0x00000000        0x0 build/pic32mz_da_sk_intddr_meb2/production/_ext/1907747181/libaria_widget_keypad.o
 .data          0x00000000        0x0 build/pic32mz_da_sk_intddr_meb2/production/_ext/1907747181/libaria_widget_keypad.o
 .bss           0x00000000        0x0 build/pic32mz_da_sk_intddr_meb2/production/_ext/1907747181/libaria_widget_keypad.o
 .reginfo       0x00000000       0x18 build/pic32mz_da_sk_intddr_meb2/production/_ext/1907747181/libaria_widget_keypad.o
 .text._buttonClicked
                0x00000000      0x158 build/pic32mz_da_sk_intddr_meb2/production/_ext/1907747181/libaria_widget_keypad.o
 .text.languageChanging
                0x00000000       0x84 build/pic32mz_da_sk_intddr_meb2/production/_ext/1907747181/libaria_widget_keypad.o
 .text._getButton
                0x00000000       0x60 build/pic32mz_da_sk_intddr_meb2/production/_ext/1907747181/libaria_widget_keypad.o
 .text._resizeCells
                0x00000000      0x154 build/pic32mz_da_sk_intddr_meb2/production/_ext/1907747181/libaria_widget_keypad.o
 .text._resized
                0x00000000       0x1c build/pic32mz_da_sk_intddr_meb2/production/_ext/1907747181/libaria_widget_keypad.o
 .text._laKeyPadWidget_Destructor
                0x00000000       0xa0 build/pic32mz_da_sk_intddr_meb2/production/_ext/1907747181/libaria_widget_keypad.o
 .text._laKeyPadWidget_Constructor
                0x00000000      0x138 build/pic32mz_da_sk_intddr_meb2/production/_ext/1907747181/libaria_widget_keypad.o
 .text.laKeyPadWidget_New
                0x00000000       0x70 build/pic32mz_da_sk_intddr_meb2/production/_ext/1907747181/libaria_widget_keypad.o
 .text.laKeyPadWidget_GetKeyPadActionTrigger
                0x00000000       0x18 build/pic32mz_da_sk_intddr_meb2/production/_ext/1907747181/libaria_widget_keypad.o
 .text.laKeyPadWidget_SetKeyPadActionTrigger
                0x00000000       0x1c build/pic32mz_da_sk_intddr_meb2/production/_ext/1907747181/libaria_widget_keypad.o
 .text.laKeyPadWidget_GetKeyClickEventCallback
                0x00000000       0x18 build/pic32mz_da_sk_intddr_meb2/production/_ext/1907747181/libaria_widget_keypad.o
 .text.laKeyPadWidget_SetKeyClickEventCallback
                0x00000000       0x1c build/pic32mz_da_sk_intddr_meb2/production/_ext/1907747181/libaria_widget_keypad.o
 .text.laKeyPadWidget_GetKeyEnabled
                0x00000000       0x5c build/pic32mz_da_sk_intddr_meb2/production/_ext/1907747181/libaria_widget_keypad.o
 .text.laKeyPadWidget_SetKeyEnabled
                0x00000000       0x70 build/pic32mz_da_sk_intddr_meb2/production/_ext/1907747181/libaria_widget_keypad.o
 .text.laKeyPadWidget_GetKeyText
                0x00000000       0x70 build/pic32mz_da_sk_intddr_meb2/production/_ext/1907747181/libaria_widget_keypad.o
 .text.laKeyPadWidget_SetKeyText
                0x00000000       0x74 build/pic32mz_da_sk_intddr_meb2/production/_ext/1907747181/libaria_widget_keypad.o
 .text.laKeyPadWidget_GetKeyPressedImage
                0x00000000       0x60 build/pic32mz_da_sk_intddr_meb2/production/_ext/1907747181/libaria_widget_keypad.o
 .text.laKeyPadWidget_SetKeyPressedImage
                0x00000000       0x70 build/pic32mz_da_sk_intddr_meb2/production/_ext/1907747181/libaria_widget_keypad.o
 .text.laKeyPadWidget_GetKeyReleasedImage
                0x00000000       0x60 build/pic32mz_da_sk_intddr_meb2/production/_ext/1907747181/libaria_widget_keypad.o
 .text.laKeyPadWidget_SetKeyReleasedImage
                0x00000000       0x70 build/pic32mz_da_sk_intddr_meb2/production/_ext/1907747181/libaria_widget_keypad.o
 .text.laKeyPadWidget_GetKeyImagePosition
                0x00000000       0x5c build/pic32mz_da_sk_intddr_meb2/production/_ext/1907747181/libaria_widget_keypad.o
 .text.laKeyPadWidget_SetKeyImagePosition
                0x00000000       0x70 build/pic32mz_da_sk_intddr_meb2/production/_ext/1907747181/libaria_widget_keypad.o
 .text.laKeyPadWidget_GetKeyImageMargin
                0x00000000       0x5c build/pic32mz_da_sk_intddr_meb2/production/_ext/1907747181/libaria_widget_keypad.o
 .text.laKeyPadWidget_SetKeyImageMargin
                0x00000000       0x70 build/pic32mz_da_sk_intddr_meb2/production/_ext/1907747181/libaria_widget_keypad.o
 .text.laKeyPadWidget_GetKeyBackgroundType
                0x00000000       0x5c build/pic32mz_da_sk_intddr_meb2/production/_ext/1907747181/libaria_widget_keypad.o
 .text.laKeyPadWidget_SetKeyBackgroundType
                0x00000000       0x6c build/pic32mz_da_sk_intddr_meb2/production/_ext/1907747181/libaria_widget_keypad.o
 .text.laKeyPadWidget_GetKeyAction
                0x00000000       0x44 build/pic32mz_da_sk_intddr_meb2/production/_ext/1907747181/libaria_widget_keypad.o
 .text.laKeyPadWidget_SetKeyAction
                0x00000000       0x4c build/pic32mz_da_sk_intddr_meb2/production/_ext/1907747181/libaria_widget_keypad.o
 .text.laKeyPadWidget_GetKeyValue
                0x00000000       0x60 build/pic32mz_da_sk_intddr_meb2/production/_ext/1907747181/libaria_widget_keypad.o
 .text.laKeyPadWidget_SetKeyValue
                0x00000000       0xbc build/pic32mz_da_sk_intddr_meb2/production/_ext/1907747181/libaria_widget_keypad.o
 .text          0x00000000        0x0 build/pic32mz_da_sk_intddr_meb2/production/_ext/1907747181/libaria_widget_keypad_skin_classic.o
 .data          0x00000000        0x0 build/pic32mz_da_sk_intddr_meb2/production/_ext/1907747181/libaria_widget_keypad_skin_classic.o
 .bss           0x00000000        0x0 build/pic32mz_da_sk_intddr_meb2/production/_ext/1907747181/libaria_widget_keypad_skin_classic.o
 .reginfo       0x00000000       0x18 build/pic32mz_da_sk_intddr_meb2/production/_ext/1907747181/libaria_widget_keypad_skin_classic.o
 .text.nextState
                0x00000000       0x78 build/pic32mz_da_sk_intddr_meb2/production/_ext/1907747181/libaria_widget_keypad_skin_classic.o
 .text.drawBorder
                0x00000000       0x58 build/pic32mz_da_sk_intddr_meb2/production/_ext/1907747181/libaria_widget_keypad_skin_classic.o
 .text.drawBackground
                0x00000000       0x2c build/pic32mz_da_sk_intddr_meb2/production/_ext/1907747181/libaria_widget_keypad_skin_classic.o
 .text._laKeyPadWidget_InvalidateBorderAreas
                0x00000000       0x1c build/pic32mz_da_sk_intddr_meb2/production/_ext/1907747181/libaria_widget_keypad_skin_classic.o
 .text._laKeyPadWidget_Paint
                0x00000000       0xdc build/pic32mz_da_sk_intddr_meb2/production/_ext/1907747181/libaria_widget_keypad_skin_classic.o
 .text          0x00000000        0x0 build/pic32mz_da_sk_intddr_meb2/production/_ext/1907747181/libaria_widget_label.o
 .data          0x00000000        0x0 build/pic32mz_da_sk_intddr_meb2/production/_ext/1907747181/libaria_widget_label.o
 .bss           0x00000000        0x0 build/pic32mz_da_sk_intddr_meb2/production/_ext/1907747181/libaria_widget_label.o
 .reginfo       0x00000000       0x18 build/pic32mz_da_sk_intddr_meb2/production/_ext/1907747181/libaria_widget_label.o
 .text.laLabelWidget_GetHAlignment
                0x00000000       0x18 build/pic32mz_da_sk_intddr_meb2/production/_ext/1907747181/libaria_widget_label.o
 .text.laLabelWidget_SetHAlignment
                0x00000000       0x5c build/pic32mz_da_sk_intddr_meb2/production/_ext/1907747181/libaria_widget_label.o
 .text.laLabelWidget_GetVAlignment
                0x00000000       0x18 build/pic32mz_da_sk_intddr_meb2/production/_ext/1907747181/libaria_widget_label.o
 .text.laLabelWidget_SetVAlignment
                0x00000000       0x60 build/pic32mz_da_sk_intddr_meb2/production/_ext/1907747181/libaria_widget_label.o
 .text.laLabelWidget_GetText
                0x00000000       0x34 build/pic32mz_da_sk_intddr_meb2/production/_ext/1907747181/libaria_widget_label.o
 .text          0x00000000        0x0 build/pic32mz_da_sk_intddr_meb2/production/_ext/1907747181/libaria_widget_label_skin_classic.o
 .data          0x00000000        0x0 build/pic32mz_da_sk_intddr_meb2/production/_ext/1907747181/libaria_widget_label_skin_classic.o
 .bss           0x00000000        0x0 build/pic32mz_da_sk_intddr_meb2/production/_ext/1907747181/libaria_widget_label_skin_classic.o
 .reginfo       0x00000000       0x18 build/pic32mz_da_sk_intddr_meb2/production/_ext/1907747181/libaria_widget_label_skin_classic.o
 .text          0x00000000        0x0 build/pic32mz_da_sk_intddr_meb2/production/_ext/1907747181/libaria_widget_line.o
 .data          0x00000000        0x0 build/pic32mz_da_sk_intddr_meb2/production/_ext/1907747181/libaria_widget_line.o
 .bss           0x00000000        0x0 build/pic32mz_da_sk_intddr_meb2/production/_ext/1907747181/libaria_widget_line.o
 .reginfo       0x00000000       0x18 build/pic32mz_da_sk_intddr_meb2/production/_ext/1907747181/libaria_widget_line.o
 .text._laLineWidget_Destructor
                0x00000000       0x1c build/pic32mz_da_sk_intddr_meb2/production/_ext/1907747181/libaria_widget_line.o
 .text._laLineWidget_Constructor
                0x00000000       0x6c build/pic32mz_da_sk_intddr_meb2/production/_ext/1907747181/libaria_widget_line.o
 .text.laLineWidget_New
                0x00000000       0x58 build/pic32mz_da_sk_intddr_meb2/production/_ext/1907747181/libaria_widget_line.o
 .text.laLineWidget_GetStartPoint
                0x00000000       0x48 build/pic32mz_da_sk_intddr_meb2/production/_ext/1907747181/libaria_widget_line.o
 .text.laLineWidget_SetStartPoint
                0x00000000       0x48 build/pic32mz_da_sk_intddr_meb2/production/_ext/1907747181/libaria_widget_line.o
 .text.laLineWidget_GetEndPoint
                0x00000000       0x48 build/pic32mz_da_sk_intddr_meb2/production/_ext/1907747181/libaria_widget_line.o
 .text.laLineWidget_SetEndPoint
                0x00000000       0x48 build/pic32mz_da_sk_intddr_meb2/production/_ext/1907747181/libaria_widget_line.o
 .text          0x00000000        0x0 build/pic32mz_da_sk_intddr_meb2/production/_ext/1907747181/libaria_widget_line_skin_classic.o
 .data          0x00000000        0x0 build/pic32mz_da_sk_intddr_meb2/production/_ext/1907747181/libaria_widget_line_skin_classic.o
 .bss           0x00000000        0x0 build/pic32mz_da_sk_intddr_meb2/production/_ext/1907747181/libaria_widget_line_skin_classic.o
 .reginfo       0x00000000       0x18 build/pic32mz_da_sk_intddr_meb2/production/_ext/1907747181/libaria_widget_line_skin_classic.o
 .text.nextState
                0x00000000       0xa8 build/pic32mz_da_sk_intddr_meb2/production/_ext/1907747181/libaria_widget_line_skin_classic.o
 .text.drawBorder
                0x00000000       0x58 build/pic32mz_da_sk_intddr_meb2/production/_ext/1907747181/libaria_widget_line_skin_classic.o
 .text.drawLine
                0x00000000      0x138 build/pic32mz_da_sk_intddr_meb2/production/_ext/1907747181/libaria_widget_line_skin_classic.o
 .text.drawBackground
                0x00000000       0x2c build/pic32mz_da_sk_intddr_meb2/production/_ext/1907747181/libaria_widget_line_skin_classic.o
 .text._laLineWidget_Paint
                0x00000000       0x9c build/pic32mz_da_sk_intddr_meb2/production/_ext/1907747181/libaria_widget_line_skin_classic.o
 .text          0x00000000        0x0 build/pic32mz_da_sk_intddr_meb2/production/_ext/1907747181/libaria_widget_list.o
 .data          0x00000000        0x0 build/pic32mz_da_sk_intddr_meb2/production/_ext/1907747181/libaria_widget_list.o
 .bss           0x00000000        0x0 build/pic32mz_da_sk_intddr_meb2/production/_ext/1907747181/libaria_widget_list.o
 .reginfo       0x00000000       0x18 build/pic32mz_da_sk_intddr_meb2/production/_ext/1907747181/libaria_widget_list.o
 .text.resized  0x00000000       0x4c build/pic32mz_da_sk_intddr_meb2/production/_ext/1907747181/libaria_widget_list.o
 .text.invalidateListArea
                0x00000000       0x40 build/pic32mz_da_sk_intddr_meb2/production/_ext/1907747181/libaria_widget_list.o
 .text.scrollBarMoved
                0x00000000       0x1c build/pic32mz_da_sk_intddr_meb2/production/_ext/1907747181/libaria_widget_list.o
 .text.getRowAtPoint
                0x00000000       0x90 build/pic32mz_da_sk_intddr_meb2/production/_ext/1907747181/libaria_widget_list.o
 .text.invalidateRow
                0x00000000       0x74 build/pic32mz_da_sk_intddr_meb2/production/_ext/1907747181/libaria_widget_list.o
 .text.touchMoved
                0x00000000       0xb4 build/pic32mz_da_sk_intddr_meb2/production/_ext/1907747181/libaria_widget_list.o
 .text.touchDown
                0x00000000       0x8c build/pic32mz_da_sk_intddr_meb2/production/_ext/1907747181/libaria_widget_list.o
 .text.languageChanging
                0x00000000       0x6c build/pic32mz_da_sk_intddr_meb2/production/_ext/1907747181/libaria_widget_list.o
 .text.recalculateScrollBarValues
                0x00000000       0xa4 build/pic32mz_da_sk_intddr_meb2/production/_ext/1907747181/libaria_widget_list.o
 .text._laListWidget_Constructor
                0x00000000      0x11c build/pic32mz_da_sk_intddr_meb2/production/_ext/1907747181/libaria_widget_list.o
 .text.laListWidget_New
                0x00000000       0x50 build/pic32mz_da_sk_intddr_meb2/production/_ext/1907747181/libaria_widget_list.o
 .text.laListWidget_GetSelectionMode
                0x00000000       0x18 build/pic32mz_da_sk_intddr_meb2/production/_ext/1907747181/libaria_widget_list.o
 .text.laListWidget_GetAllowEmptySelection
                0x00000000       0x18 build/pic32mz_da_sk_intddr_meb2/production/_ext/1907747181/libaria_widget_list.o
 .text.laListWidget_GetAlignment
                0x00000000       0x18 build/pic32mz_da_sk_intddr_meb2/production/_ext/1907747181/libaria_widget_list.o
 .text.laListWidget_SetAlignment
                0x00000000       0x44 build/pic32mz_da_sk_intddr_meb2/production/_ext/1907747181/libaria_widget_list.o
 .text.laListWidget_GetIconPosition
                0x00000000       0x18 build/pic32mz_da_sk_intddr_meb2/production/_ext/1907747181/libaria_widget_list.o
 .text.laListWidget_SetIconPosition
                0x00000000       0x54 build/pic32mz_da_sk_intddr_meb2/production/_ext/1907747181/libaria_widget_list.o
 .text.laListWidget_GetIconMargin
                0x00000000       0x18 build/pic32mz_da_sk_intddr_meb2/production/_ext/1907747181/libaria_widget_list.o
 .text.laListWidget_SetIconMargin
                0x00000000       0x44 build/pic32mz_da_sk_intddr_meb2/production/_ext/1907747181/libaria_widget_list.o
 .text.laListWidget_GetItemCount
                0x00000000       0x18 build/pic32mz_da_sk_intddr_meb2/production/_ext/1907747181/libaria_widget_list.o
 .text.laListWidget_RemoveItem
                0x00000000       0x9c build/pic32mz_da_sk_intddr_meb2/production/_ext/1907747181/libaria_widget_list.o
 .text.laListWidget_RemoveAllItems
                0x00000000       0xa8 build/pic32mz_da_sk_intddr_meb2/production/_ext/1907747181/libaria_widget_list.o
 .text._laListWidget_Destructor
                0x00000000       0x58 build/pic32mz_da_sk_intddr_meb2/production/_ext/1907747181/libaria_widget_list.o
 .text.laListWidget_GetItemSelected
                0x00000000       0x30 build/pic32mz_da_sk_intddr_meb2/production/_ext/1907747181/libaria_widget_list.o
 .text.laListWidget_DeselectAll
                0x00000000       0xc0 build/pic32mz_da_sk_intddr_meb2/production/_ext/1907747181/libaria_widget_list.o
 .text.laListWidget_SetSelectionMode
                0x00000000       0x44 build/pic32mz_da_sk_intddr_meb2/production/_ext/1907747181/libaria_widget_list.o
 .text.laListWidget_GetFirstSelectedItem
                0x00000000       0x64 build/pic32mz_da_sk_intddr_meb2/production/_ext/1907747181/libaria_widget_list.o
 .text.laListWidget_GetLastSelectedItem
                0x00000000       0x44 build/pic32mz_da_sk_intddr_meb2/production/_ext/1907747181/libaria_widget_list.o
 .text.laListWidget_GetSelectionCount
                0x00000000       0x48 build/pic32mz_da_sk_intddr_meb2/production/_ext/1907747181/libaria_widget_list.o
 .text.laListWidget_SetItemSelected
                0x00000000      0x304 build/pic32mz_da_sk_intddr_meb2/production/_ext/1907747181/libaria_widget_list.o
 .text.laListWidget_ToggleItemSelected
                0x00000000       0x68 build/pic32mz_da_sk_intddr_meb2/production/_ext/1907747181/libaria_widget_list.o
 .text.touchUp  0x00000000       0x80 build/pic32mz_da_sk_intddr_meb2/production/_ext/1907747181/libaria_widget_list.o
 .text.laListWidget_SelectAll
                0x00000000       0xdc build/pic32mz_da_sk_intddr_meb2/production/_ext/1907747181/libaria_widget_list.o
 .text.laListWidget_SetAllowEmptySelection
                0x00000000       0x68 build/pic32mz_da_sk_intddr_meb2/production/_ext/1907747181/libaria_widget_list.o
 .text.laListWidget_AppendItem
                0x00000000       0xb4 build/pic32mz_da_sk_intddr_meb2/production/_ext/1907747181/libaria_widget_list.o
 .text.laListWidget_InsertItem
                0x00000000       0xb4 build/pic32mz_da_sk_intddr_meb2/production/_ext/1907747181/libaria_widget_list.o
 .text.laListWidget_GetItemText
                0x00000000       0x50 build/pic32mz_da_sk_intddr_meb2/production/_ext/1907747181/libaria_widget_list.o
 .text.laListWidget_SetItemText
                0x00000000       0x88 build/pic32mz_da_sk_intddr_meb2/production/_ext/1907747181/libaria_widget_list.o
 .text.laListWidget_GetItemIcon
                0x00000000       0x38 build/pic32mz_da_sk_intddr_meb2/production/_ext/1907747181/libaria_widget_list.o
 .text.laListWidget_SetItemIcon
                0x00000000       0x68 build/pic32mz_da_sk_intddr_meb2/production/_ext/1907747181/libaria_widget_list.o
 .text.laListWidget_SetItemVisible
                0x00000000      0x13c build/pic32mz_da_sk_intddr_meb2/production/_ext/1907747181/libaria_widget_list.o
 .text.laListWidget_GetSelectedItemChangedEventCallback
                0x00000000       0x18 build/pic32mz_da_sk_intddr_meb2/production/_ext/1907747181/libaria_widget_list.o
 .text.laListWidget_SetSelectedItemChangedEventCallback
                0x00000000       0x30 build/pic32mz_da_sk_intddr_meb2/production/_ext/1907747181/libaria_widget_list.o
 .text          0x00000000        0x0 build/pic32mz_da_sk_intddr_meb2/production/_ext/1907747181/libaria_widget_list_skin_classic.o
 .data          0x00000000        0x0 build/pic32mz_da_sk_intddr_meb2/production/_ext/1907747181/libaria_widget_list_skin_classic.o
 .bss           0x00000000        0x0 build/pic32mz_da_sk_intddr_meb2/production/_ext/1907747181/libaria_widget_list_skin_classic.o
 .reginfo       0x00000000       0x18 build/pic32mz_da_sk_intddr_meb2/production/_ext/1907747181/libaria_widget_list_skin_classic.o
 .text.nextState
                0x00000000       0xec build/pic32mz_da_sk_intddr_meb2/production/_ext/1907747181/libaria_widget_list_skin_classic.o
 .text.waitString
                0x00000000       0x78 build/pic32mz_da_sk_intddr_meb2/production/_ext/1907747181/libaria_widget_list_skin_classic.o
 .text.waitIcon
                0x00000000       0x78 build/pic32mz_da_sk_intddr_meb2/production/_ext/1907747181/libaria_widget_list_skin_classic.o
 .text.drawBorder
                0x00000000       0x64 build/pic32mz_da_sk_intddr_meb2/production/_ext/1907747181/libaria_widget_list_skin_classic.o
 .text._laListWidget_GetListRect
                0x00000000      0x118 build/pic32mz_da_sk_intddr_meb2/production/_ext/1907747181/libaria_widget_list_skin_classic.o
 .text._laListWidget_GetRowY
                0x00000000       0x44 build/pic32mz_da_sk_intddr_meb2/production/_ext/1907747181/libaria_widget_list_skin_classic.o
 .text._laListWidget_GetRowRect
                0x00000000       0xa4 build/pic32mz_da_sk_intddr_meb2/production/_ext/1907747181/libaria_widget_list_skin_classic.o
 .text.drawBackground
                0x00000000      0x1cc build/pic32mz_da_sk_intddr_meb2/production/_ext/1907747181/libaria_widget_list_skin_classic.o
 .text._laListWidget_GetTextRect
                0x00000000      0x190 build/pic32mz_da_sk_intddr_meb2/production/_ext/1907747181/libaria_widget_list_skin_classic.o
 .text.drawString
                0x00000000      0x1b8 build/pic32mz_da_sk_intddr_meb2/production/_ext/1907747181/libaria_widget_list_skin_classic.o
 .text._laListWidget_GetIconRect
                0x00000000      0x1c0 build/pic32mz_da_sk_intddr_meb2/production/_ext/1907747181/libaria_widget_list_skin_classic.o
 .text.drawIcon
                0x00000000      0x220 build/pic32mz_da_sk_intddr_meb2/production/_ext/1907747181/libaria_widget_list_skin_classic.o
 .text._laListWidget_recalculateRowRect
                0x00000000       0xdc build/pic32mz_da_sk_intddr_meb2/production/_ext/1907747181/libaria_widget_list_skin_classic.o
 .text._laListWidget_GetLogicalRect
                0x00000000       0x88 build/pic32mz_da_sk_intddr_meb2/production/_ext/1907747181/libaria_widget_list_skin_classic.o
 .text._laListWidget_Paint
                0x00000000       0xb8 build/pic32mz_da_sk_intddr_meb2/production/_ext/1907747181/libaria_widget_list_skin_classic.o
 .text          0x00000000        0x0 build/pic32mz_da_sk_intddr_meb2/production/_ext/1907747181/libaria_widget_listwheel.o
 .data          0x00000000        0x0 build/pic32mz_da_sk_intddr_meb2/production/_ext/1907747181/libaria_widget_listwheel.o
 .bss           0x00000000        0x0 build/pic32mz_da_sk_intddr_meb2/production/_ext/1907747181/libaria_widget_listwheel.o
 .reginfo       0x00000000       0x18 build/pic32mz_da_sk_intddr_meb2/production/_ext/1907747181/libaria_widget_listwheel.o
 .text.calculateTopItem
                0x00000000       0x54 build/pic32mz_da_sk_intddr_meb2/production/_ext/1907747181/libaria_widget_listwheel.o
 .text.resized  0x00000000       0x34 build/pic32mz_da_sk_intddr_meb2/production/_ext/1907747181/libaria_widget_listwheel.o
 .text.touchMoved
                0x00000000      0x128 build/pic32mz_da_sk_intddr_meb2/production/_ext/1907747181/libaria_widget_listwheel.o
 .text.touchDown
                0x00000000       0x78 build/pic32mz_da_sk_intddr_meb2/production/_ext/1907747181/libaria_widget_listwheel.o
 .text.touchUp  0x00000000       0xc4 build/pic32mz_da_sk_intddr_meb2/production/_ext/1907747181/libaria_widget_listwheel.o
 .text.languageChanging
                0x00000000       0x88 build/pic32mz_da_sk_intddr_meb2/production/_ext/1907747181/libaria_widget_listwheel.o
 .text.adjustRotation
                0x00000000       0xe0 build/pic32mz_da_sk_intddr_meb2/production/_ext/1907747181/libaria_widget_listwheel.o
 .text.update   0x00000000      0x260 build/pic32mz_da_sk_intddr_meb2/production/_ext/1907747181/libaria_widget_listwheel.o
 .text._laListWheelWidget_Constructor
                0x00000000      0x130 build/pic32mz_da_sk_intddr_meb2/production/_ext/1907747181/libaria_widget_listwheel.o
 .text.laListWheelWidget_New
                0x00000000       0x50 build/pic32mz_da_sk_intddr_meb2/production/_ext/1907747181/libaria_widget_listwheel.o
 .text.laListWheelWidget_GetAlignment
                0x00000000       0x18 build/pic32mz_da_sk_intddr_meb2/production/_ext/1907747181/libaria_widget_listwheel.o
 .text.laListWheelWidget_SetAlignment
                0x00000000       0x44 build/pic32mz_da_sk_intddr_meb2/production/_ext/1907747181/libaria_widget_listwheel.o
 .text.laListWheelWidget_GetVisibleItemCount
                0x00000000       0x18 build/pic32mz_da_sk_intddr_meb2/production/_ext/1907747181/libaria_widget_listwheel.o
 .text.laListWheelWidget_SetVisibleItemCount
                0x00000000       0x60 build/pic32mz_da_sk_intddr_meb2/production/_ext/1907747181/libaria_widget_listwheel.o
 .text.laListWheelWidget_GetIconPosition
                0x00000000       0x18 build/pic32mz_da_sk_intddr_meb2/production/_ext/1907747181/libaria_widget_listwheel.o
 .text.laListWheelWidget_SetIconPosition
                0x00000000       0x54 build/pic32mz_da_sk_intddr_meb2/production/_ext/1907747181/libaria_widget_listwheel.o
 .text.laListWheelWidget_GetIconMargin
                0x00000000       0x18 build/pic32mz_da_sk_intddr_meb2/production/_ext/1907747181/libaria_widget_listwheel.o
 .text.laListWheelWidget_SetIconMargin
                0x00000000       0x44 build/pic32mz_da_sk_intddr_meb2/production/_ext/1907747181/libaria_widget_listwheel.o
 .text.laListWheelWidget_GetShowIndicators
                0x00000000       0x18 build/pic32mz_da_sk_intddr_meb2/production/_ext/1907747181/libaria_widget_listwheel.o
 .text.laListWheelWidget_SetShowIndicators
                0x00000000       0x44 build/pic32mz_da_sk_intddr_meb2/production/_ext/1907747181/libaria_widget_listwheel.o
 .text.laListWheelWidget_GetIndicatorArea
                0x00000000       0x18 build/pic32mz_da_sk_intddr_meb2/production/_ext/1907747181/libaria_widget_listwheel.o
 .text.laListWheelWidget_SetIndicatorArea
                0x00000000       0x44 build/pic32mz_da_sk_intddr_meb2/production/_ext/1907747181/libaria_widget_listwheel.o
 .text.laListWheelWidget_GetShaded
                0x00000000       0x18 build/pic32mz_da_sk_intddr_meb2/production/_ext/1907747181/libaria_widget_listwheel.o
 .text.laListWheelWidget_SetShaded
                0x00000000       0x44 build/pic32mz_da_sk_intddr_meb2/production/_ext/1907747181/libaria_widget_listwheel.o
 .text.laListWheelWidget_GetFlickInitSpeed
                0x00000000       0x18 build/pic32mz_da_sk_intddr_meb2/production/_ext/1907747181/libaria_widget_listwheel.o
 .text.laListWheelWidget_SetFlickInitSpeed
                0x00000000       0x1c build/pic32mz_da_sk_intddr_meb2/production/_ext/1907747181/libaria_widget_listwheel.o
 .text.laListWheelWidget_GetMaxMomentum
                0x00000000       0x18 build/pic32mz_da_sk_intddr_meb2/production/_ext/1907747181/libaria_widget_listwheel.o
 .text.laListWheelWidget_SetMaxMomentum
                0x00000000       0x1c build/pic32mz_da_sk_intddr_meb2/production/_ext/1907747181/libaria_widget_listwheel.o
 .text.laListWheelWidget_GetMomentumFalloffRate
                0x00000000       0x18 build/pic32mz_da_sk_intddr_meb2/production/_ext/1907747181/libaria_widget_listwheel.o
 .text.laListWheelWidget_SetMomentumFalloffRate
                0x00000000       0x1c build/pic32mz_da_sk_intddr_meb2/production/_ext/1907747181/libaria_widget_listwheel.o
 .text.laListWheelWidget_GetRotationUpdateRate
                0x00000000       0x18 build/pic32mz_da_sk_intddr_meb2/production/_ext/1907747181/libaria_widget_listwheel.o
 .text.laListWheelWidget_SetRotationUpdateRate
                0x00000000       0x1c build/pic32mz_da_sk_intddr_meb2/production/_ext/1907747181/libaria_widget_listwheel.o
 .text.laListWheelWidget_GetItemCount
                0x00000000       0x18 build/pic32mz_da_sk_intddr_meb2/production/_ext/1907747181/libaria_widget_listwheel.o
 .text.laListWheelWidget_AppendItem
                0x00000000       0x90 build/pic32mz_da_sk_intddr_meb2/production/_ext/1907747181/libaria_widget_listwheel.o
 .text.laListWheelWidget_InsertItem
                0x00000000       0x98 build/pic32mz_da_sk_intddr_meb2/production/_ext/1907747181/libaria_widget_listwheel.o
 .text.laListWheelWidget_RemoveItem
                0x00000000       0xa0 build/pic32mz_da_sk_intddr_meb2/production/_ext/1907747181/libaria_widget_listwheel.o
 .text.laListWheelWidget_RemoveAllItems
                0x00000000       0xb0 build/pic32mz_da_sk_intddr_meb2/production/_ext/1907747181/libaria_widget_listwheel.o
 .text._laListWheelWidget_Destructor
                0x00000000       0x50 build/pic32mz_da_sk_intddr_meb2/production/_ext/1907747181/libaria_widget_listwheel.o
 .text.laListWheelWidget_GetSelectedItem
                0x00000000       0x18 build/pic32mz_da_sk_intddr_meb2/production/_ext/1907747181/libaria_widget_listwheel.o
 .text.laListWheelWidget_SetSelectedItem
                0x00000000       0x74 build/pic32mz_da_sk_intddr_meb2/production/_ext/1907747181/libaria_widget_listwheel.o
 .text.laListWheelWidget_SelectPreviousItem
                0x00000000       0x80 build/pic32mz_da_sk_intddr_meb2/production/_ext/1907747181/libaria_widget_listwheel.o
 .text.laListWheelWidget_SelectNextItem
                0x00000000       0x8c build/pic32mz_da_sk_intddr_meb2/production/_ext/1907747181/libaria_widget_listwheel.o
 .text.laListWheelWidget_GetItemText
                0x00000000       0x54 build/pic32mz_da_sk_intddr_meb2/production/_ext/1907747181/libaria_widget_listwheel.o
 .text.laListWheelWidget_SetItemText
                0x00000000       0x68 build/pic32mz_da_sk_intddr_meb2/production/_ext/1907747181/libaria_widget_listwheel.o
 .text.laListWheelWidget_GetItemIcon
                0x00000000       0x38 build/pic32mz_da_sk_intddr_meb2/production/_ext/1907747181/libaria_widget_listwheel.o
 .text.laListWheelWidget_SetItemIcon
                0x00000000       0x54 build/pic32mz_da_sk_intddr_meb2/production/_ext/1907747181/libaria_widget_listwheel.o
 .text.laListWheelWidget_GetSelectedItemChangedEventCallback
                0x00000000       0x18 build/pic32mz_da_sk_intddr_meb2/production/_ext/1907747181/libaria_widget_listwheel.o
 .text.laListWheelWidget_SetSelectedItemChangedEventCallback
                0x00000000       0x30 build/pic32mz_da_sk_intddr_meb2/production/_ext/1907747181/libaria_widget_listwheel.o
 .text.laListWheelWidget_GetIndicatorFill
                0x00000000       0x18 build/pic32mz_da_sk_intddr_meb2/production/_ext/1907747181/libaria_widget_listwheel.o
 .text.laListWheelWidget_SetIndicatorFill
                0x00000000       0x58 build/pic32mz_da_sk_intddr_meb2/production/_ext/1907747181/libaria_widget_listwheel.o
 .text.laListWheelWidget_GetZoomEffects
                0x00000000       0x18 build/pic32mz_da_sk_intddr_meb2/production/_ext/1907747181/libaria_widget_listwheel.o
 .text.laListWheelWidget_SetZoomEffects
                0x00000000       0x58 build/pic32mz_da_sk_intddr_meb2/production/_ext/1907747181/libaria_widget_listwheel.o
 .text.laListWheelWidget_GetAutoHideWheel
                0x00000000       0x18 build/pic32mz_da_sk_intddr_meb2/production/_ext/1907747181/libaria_widget_listwheel.o
 .text.laListWheelWidget_SetAutoHideWheel
                0x00000000       0x84 build/pic32mz_da_sk_intddr_meb2/production/_ext/1907747181/libaria_widget_listwheel.o
 .text          0x00000000        0x0 build/pic32mz_da_sk_intddr_meb2/production/_ext/1907747181/libaria_widget_listwheel_skin_classic.o
 .data          0x00000000        0x0 build/pic32mz_da_sk_intddr_meb2/production/_ext/1907747181/libaria_widget_listwheel_skin_classic.o
 .bss           0x00000000        0x0 build/pic32mz_da_sk_intddr_meb2/production/_ext/1907747181/libaria_widget_listwheel_skin_classic.o
 .reginfo       0x00000000       0x18 build/pic32mz_da_sk_intddr_meb2/production/_ext/1907747181/libaria_widget_listwheel_skin_classic.o
 .text.nextItem
                0x00000000       0x30 build/pic32mz_da_sk_intddr_meb2/production/_ext/1907747181/libaria_widget_listwheel_skin_classic.o
 .text.waitString
                0x00000000       0x74 build/pic32mz_da_sk_intddr_meb2/production/_ext/1907747181/libaria_widget_listwheel_skin_classic.o
 .text.waitIcon
                0x00000000       0x74 build/pic32mz_da_sk_intddr_meb2/production/_ext/1907747181/libaria_widget_listwheel_skin_classic.o
 .text.nextState
                0x00000000      0x158 build/pic32mz_da_sk_intddr_meb2/production/_ext/1907747181/libaria_widget_listwheel_skin_classic.o
 .text.drawBorder
                0x00000000       0x58 build/pic32mz_da_sk_intddr_meb2/production/_ext/1907747181/libaria_widget_listwheel_skin_classic.o
 .text.drawIndicators
                0x00000000      0x2a8 build/pic32mz_da_sk_intddr_meb2/production/_ext/1907747181/libaria_widget_listwheel_skin_classic.o
 .text._laListWheelWidget_GetItemTextRect
                0x00000000      0x194 build/pic32mz_da_sk_intddr_meb2/production/_ext/1907747181/libaria_widget_listwheel_skin_classic.o
 .text._laListWheelWidget_GetIndicatorRect
                0x00000000       0x74 build/pic32mz_da_sk_intddr_meb2/production/_ext/1907747181/libaria_widget_listwheel_skin_classic.o
 .text.drawBackground
                0x00000000      0x378 build/pic32mz_da_sk_intddr_meb2/production/_ext/1907747181/libaria_widget_listwheel_skin_classic.o
 .text._laListWheelWidget_ItemRectApplyEffects
                0x00000000      0x188 build/pic32mz_da_sk_intddr_meb2/production/_ext/1907747181/libaria_widget_listwheel_skin_classic.o
 .text._laListWheelWidget_GetItemIconRect
                0x00000000      0x1f4 build/pic32mz_da_sk_intddr_meb2/production/_ext/1907747181/libaria_widget_listwheel_skin_classic.o
 .text._laListWheelWidget_GetItemRect
                0x00000000       0xe4 build/pic32mz_da_sk_intddr_meb2/production/_ext/1907747181/libaria_widget_listwheel_skin_classic.o
 .text.drawIcon
                0x00000000      0x5bc build/pic32mz_da_sk_intddr_meb2/production/_ext/1907747181/libaria_widget_listwheel_skin_classic.o
 .text.drawString
                0x00000000      0x5a8 build/pic32mz_da_sk_intddr_meb2/production/_ext/1907747181/libaria_widget_listwheel_skin_classic.o
 .text._laListWheelWidget_Paint
                0x00000000       0xb8 build/pic32mz_da_sk_intddr_meb2/production/_ext/1907747181/libaria_widget_listwheel_skin_classic.o
 .text          0x00000000        0x0 build/pic32mz_da_sk_intddr_meb2/production/_ext/1907747181/libaria_widget_progressbar.o
 .data          0x00000000        0x0 build/pic32mz_da_sk_intddr_meb2/production/_ext/1907747181/libaria_widget_progressbar.o
 .bss           0x00000000        0x0 build/pic32mz_da_sk_intddr_meb2/production/_ext/1907747181/libaria_widget_progressbar.o
 .reginfo       0x00000000       0x18 build/pic32mz_da_sk_intddr_meb2/production/_ext/1907747181/libaria_widget_progressbar.o
 .text._laProgressBarWidget_Destructor
                0x00000000       0x1c build/pic32mz_da_sk_intddr_meb2/production/_ext/1907747181/libaria_widget_progressbar.o
 .text._laProgressBarWidget_Constructor
                0x00000000       0x64 build/pic32mz_da_sk_intddr_meb2/production/_ext/1907747181/libaria_widget_progressbar.o
 .text.laProgressBarWidget_New
                0x00000000       0x58 build/pic32mz_da_sk_intddr_meb2/production/_ext/1907747181/libaria_widget_progressbar.o
 .text.laProgressBarWidget_GetDirection
                0x00000000       0x18 build/pic32mz_da_sk_intddr_meb2/production/_ext/1907747181/libaria_widget_progressbar.o
 .text.laProgressBarWidget_SetDirection
                0x00000000       0x44 build/pic32mz_da_sk_intddr_meb2/production/_ext/1907747181/libaria_widget_progressbar.o
 .text.laProgressBarWidget_GetValue
                0x00000000       0x18 build/pic32mz_da_sk_intddr_meb2/production/_ext/1907747181/libaria_widget_progressbar.o
 .text.laProgressBarWidget_SetValue
                0x00000000       0x98 build/pic32mz_da_sk_intddr_meb2/production/_ext/1907747181/libaria_widget_progressbar.o
 .text.laProgressBarWidget_GetValueChangedEventCallback
                0x00000000       0x18 build/pic32mz_da_sk_intddr_meb2/production/_ext/1907747181/libaria_widget_progressbar.o
 .text.laProgressBarWidget_SetValueChangedCallback
                0x00000000       0x1c build/pic32mz_da_sk_intddr_meb2/production/_ext/1907747181/libaria_widget_progressbar.o
 .text          0x00000000        0x0 build/pic32mz_da_sk_intddr_meb2/production/_ext/1907747181/libaria_widget_progressbar_skin_classic.o
 .data          0x00000000        0x0 build/pic32mz_da_sk_intddr_meb2/production/_ext/1907747181/libaria_widget_progressbar_skin_classic.o
 .bss           0x00000000        0x0 build/pic32mz_da_sk_intddr_meb2/production/_ext/1907747181/libaria_widget_progressbar_skin_classic.o
 .reginfo       0x00000000       0x18 build/pic32mz_da_sk_intddr_meb2/production/_ext/1907747181/libaria_widget_progressbar_skin_classic.o
 .text.nextState
                0x00000000       0xb4 build/pic32mz_da_sk_intddr_meb2/production/_ext/1907747181/libaria_widget_progressbar_skin_classic.o
 .text.drawBorder
                0x00000000       0x58 build/pic32mz_da_sk_intddr_meb2/production/_ext/1907747181/libaria_widget_progressbar_skin_classic.o
 .text.drawBackground
                0x00000000       0x5c build/pic32mz_da_sk_intddr_meb2/production/_ext/1907747181/libaria_widget_progressbar_skin_classic.o
 .text._laProgressBarWidget_GetBarRect
                0x00000000      0x17c build/pic32mz_da_sk_intddr_meb2/production/_ext/1907747181/libaria_widget_progressbar_skin_classic.o
 .text.drawFill
                0x00000000       0xa4 build/pic32mz_da_sk_intddr_meb2/production/_ext/1907747181/libaria_widget_progressbar_skin_classic.o
 .text._laProgressBarWidget_Paint
                0x00000000       0x9c build/pic32mz_da_sk_intddr_meb2/production/_ext/1907747181/libaria_widget_progressbar_skin_classic.o
 .text          0x00000000        0x0 build/pic32mz_da_sk_intddr_meb2/production/_ext/1907747181/libaria_widget_radiobutton.o
 .data          0x00000000        0x0 build/pic32mz_da_sk_intddr_meb2/production/_ext/1907747181/libaria_widget_radiobutton.o
 .bss           0x00000000        0x0 build/pic32mz_da_sk_intddr_meb2/production/_ext/1907747181/libaria_widget_radiobutton.o
 .reginfo       0x00000000       0x18 build/pic32mz_da_sk_intddr_meb2/production/_ext/1907747181/libaria_widget_radiobutton.o
 .text.touchMoved
                0x00000000        0xc build/pic32mz_da_sk_intddr_meb2/production/_ext/1907747181/libaria_widget_radiobutton.o
 .text.touchDown
                0x00000000       0xac build/pic32mz_da_sk_intddr_meb2/production/_ext/1907747181/libaria_widget_radiobutton.o
 .text.touchUp  0x00000000       0xb4 build/pic32mz_da_sk_intddr_meb2/production/_ext/1907747181/libaria_widget_radiobutton.o
 .text.invalidateContents
                0x00000000       0x7c build/pic32mz_da_sk_intddr_meb2/production/_ext/1907747181/libaria_widget_radiobutton.o
 .text.languageChanging
                0x00000000       0x38 build/pic32mz_da_sk_intddr_meb2/production/_ext/1907747181/libaria_widget_radiobutton.o
 .text._laRadioButtonWidget_Destructor
                0x00000000       0x68 build/pic32mz_da_sk_intddr_meb2/production/_ext/1907747181/libaria_widget_radiobutton.o
 .text.laRadioButtonWidget_New
                0x00000000       0xf4 build/pic32mz_da_sk_intddr_meb2/production/_ext/1907747181/libaria_widget_radiobutton.o
 .text.laRadioButtonWidget_GetGroup
                0x00000000       0x18 build/pic32mz_da_sk_intddr_meb2/production/_ext/1907747181/libaria_widget_radiobutton.o
 .text.laRadioButtonWidget_GetSelected
                0x00000000       0x34 build/pic32mz_da_sk_intddr_meb2/production/_ext/1907747181/libaria_widget_radiobutton.o
 .text.laRadioButtonWidget_SetSelected
                0x00000000       0x80 build/pic32mz_da_sk_intddr_meb2/production/_ext/1907747181/libaria_widget_radiobutton.o
 .text._laRadioButtonWidget_Select
                0x00000000       0x58 build/pic32mz_da_sk_intddr_meb2/production/_ext/1907747181/libaria_widget_radiobutton.o
 .text._laRadioButtonWidget_Deselect
                0x00000000       0x50 build/pic32mz_da_sk_intddr_meb2/production/_ext/1907747181/libaria_widget_radiobutton.o
 .text.laRadioButtonWidget_GetHAlignment
                0x00000000       0x18 build/pic32mz_da_sk_intddr_meb2/production/_ext/1907747181/libaria_widget_radiobutton.o
 .text.laRadioButtonWidget_SetHAlignment
                0x00000000       0x5c build/pic32mz_da_sk_intddr_meb2/production/_ext/1907747181/libaria_widget_radiobutton.o
 .text.laRadioButtonWidget_GetVAlignment
                0x00000000       0x18 build/pic32mz_da_sk_intddr_meb2/production/_ext/1907747181/libaria_widget_radiobutton.o
 .text.laRadioButtonWidget_SetVAlignment
                0x00000000       0x60 build/pic32mz_da_sk_intddr_meb2/production/_ext/1907747181/libaria_widget_radiobutton.o
 .text.laRadioButtonWidget_GetText
                0x00000000       0x38 build/pic32mz_da_sk_intddr_meb2/production/_ext/1907747181/libaria_widget_radiobutton.o
 .text.laRadioButtonWidget_SetText
                0x00000000       0x7c build/pic32mz_da_sk_intddr_meb2/production/_ext/1907747181/libaria_widget_radiobutton.o
 .text.laRadioButtonWidget_GetSelectedImage
                0x00000000       0x18 build/pic32mz_da_sk_intddr_meb2/production/_ext/1907747181/libaria_widget_radiobutton.o
 .text.laRadioButtonWidget_SetSelectedImage
                0x00000000       0x60 build/pic32mz_da_sk_intddr_meb2/production/_ext/1907747181/libaria_widget_radiobutton.o
 .text.laRadioButtonWidget_GetUnselectedImage
                0x00000000       0x18 build/pic32mz_da_sk_intddr_meb2/production/_ext/1907747181/libaria_widget_radiobutton.o
 .text.laRadioButtonWidget_SetUnselectedImage
                0x00000000       0x60 build/pic32mz_da_sk_intddr_meb2/production/_ext/1907747181/libaria_widget_radiobutton.o
 .text.laRadioButtonWidget_GetImagePosition
                0x00000000       0x18 build/pic32mz_da_sk_intddr_meb2/production/_ext/1907747181/libaria_widget_radiobutton.o
 .text.laRadioButtonWidget_SetImagePosition
                0x00000000       0x5c build/pic32mz_da_sk_intddr_meb2/production/_ext/1907747181/libaria_widget_radiobutton.o
 .text.laRadioButtonWidget_GetImageMargin
                0x00000000       0x18 build/pic32mz_da_sk_intddr_meb2/production/_ext/1907747181/libaria_widget_radiobutton.o
 .text.laRadioButtonWidget_SetImageMargin
                0x00000000       0x5c build/pic32mz_da_sk_intddr_meb2/production/_ext/1907747181/libaria_widget_radiobutton.o
 .text.laRadioButtonWidget_GetSelectedEventCallback
                0x00000000       0x18 build/pic32mz_da_sk_intddr_meb2/production/_ext/1907747181/libaria_widget_radiobutton.o
 .text.laRadioButtonWidget_SetSelectedEventCallback
                0x00000000       0x30 build/pic32mz_da_sk_intddr_meb2/production/_ext/1907747181/libaria_widget_radiobutton.o
 .text.laRadioButtonWidget_GetDeselectedEventCallback
                0x00000000       0x18 build/pic32mz_da_sk_intddr_meb2/production/_ext/1907747181/libaria_widget_radiobutton.o
 .text.laRadioButtonWidget_SetDeselectedEventCallback
                0x00000000       0x30 build/pic32mz_da_sk_intddr_meb2/production/_ext/1907747181/libaria_widget_radiobutton.o
 .text.laRadioButtonWidget_GetCircleButtonSize
                0x00000000       0x18 build/pic32mz_da_sk_intddr_meb2/production/_ext/1907747181/libaria_widget_radiobutton.o
 .text.laRadioButtonWidget_SetCircleButtonSize
                0x00000000       0x88 build/pic32mz_da_sk_intddr_meb2/production/_ext/1907747181/libaria_widget_radiobutton.o
 .text          0x00000000        0x0 build/pic32mz_da_sk_intddr_meb2/production/_ext/1907747181/libaria_widget_radiobutton_skin_classic.o
 .data          0x00000000        0x0 build/pic32mz_da_sk_intddr_meb2/production/_ext/1907747181/libaria_widget_radiobutton_skin_classic.o
 .bss           0x00000000        0x0 build/pic32mz_da_sk_intddr_meb2/production/_ext/1907747181/libaria_widget_radiobutton_skin_classic.o
 .reginfo       0x00000000       0x18 build/pic32mz_da_sk_intddr_meb2/production/_ext/1907747181/libaria_widget_radiobutton_skin_classic.o
 .text.nextState
                0x00000000       0xfc build/pic32mz_da_sk_intddr_meb2/production/_ext/1907747181/libaria_widget_radiobutton_skin_classic.o
 .text.waitString
                0x00000000       0x68 build/pic32mz_da_sk_intddr_meb2/production/_ext/1907747181/libaria_widget_radiobutton_skin_classic.o
 .text.waitImage
                0x00000000       0x68 build/pic32mz_da_sk_intddr_meb2/production/_ext/1907747181/libaria_widget_radiobutton_skin_classic.o
 .text.drawBorder
                0x00000000       0x58 build/pic32mz_da_sk_intddr_meb2/production/_ext/1907747181/libaria_widget_radiobutton_skin_classic.o
 .text.drawBackground
                0x00000000       0x2c build/pic32mz_da_sk_intddr_meb2/production/_ext/1907747181/libaria_widget_radiobutton_skin_classic.o
 .text._laRadioButtonWidget_GetImageRect
                0x00000000      0x1a4 build/pic32mz_da_sk_intddr_meb2/production/_ext/1907747181/libaria_widget_radiobutton_skin_classic.o
 .text.drawImage
                0x00000000      0x7cc build/pic32mz_da_sk_intddr_meb2/production/_ext/1907747181/libaria_widget_radiobutton_skin_classic.o
 .text._laRadioButtonWidget_GetTextRect
                0x00000000      0x184 build/pic32mz_da_sk_intddr_meb2/production/_ext/1907747181/libaria_widget_radiobutton_skin_classic.o
 .text.drawString
                0x00000000       0xe0 build/pic32mz_da_sk_intddr_meb2/production/_ext/1907747181/libaria_widget_radiobutton_skin_classic.o
 .text._laRadioButtonWidget_Paint
                0x00000000       0xb8 build/pic32mz_da_sk_intddr_meb2/production/_ext/1907747181/libaria_widget_radiobutton_skin_classic.o
 .text          0x00000000        0x0 build/pic32mz_da_sk_intddr_meb2/production/_ext/1907747181/libaria_radiobutton_group.o
 .data          0x00000000        0x0 build/pic32mz_da_sk_intddr_meb2/production/_ext/1907747181/libaria_radiobutton_group.o
 .bss           0x00000000        0x0 build/pic32mz_da_sk_intddr_meb2/production/_ext/1907747181/libaria_radiobutton_group.o
 .reginfo       0x00000000       0x18 build/pic32mz_da_sk_intddr_meb2/production/_ext/1907747181/libaria_radiobutton_group.o
 .text.laRadioButtonGroup_Create
                0x00000000       0x8c build/pic32mz_da_sk_intddr_meb2/production/_ext/1907747181/libaria_radiobutton_group.o
 .text.laRadioButtonGroup_Destroy
                0x00000000       0x40 build/pic32mz_da_sk_intddr_meb2/production/_ext/1907747181/libaria_radiobutton_group.o
 .text.laRadioButtonGroup_AddButton
                0x00000000       0x88 build/pic32mz_da_sk_intddr_meb2/production/_ext/1907747181/libaria_radiobutton_group.o
 .text.laRadioButtonGroup_RemoveButton
                0x00000000       0x8c build/pic32mz_da_sk_intddr_meb2/production/_ext/1907747181/libaria_radiobutton_group.o
 .text.laRadioButtonGroup_SelectButton
                0x00000000       0x84 build/pic32mz_da_sk_intddr_meb2/production/_ext/1907747181/libaria_radiobutton_group.o
 .text          0x00000000        0x0 build/pic32mz_da_sk_intddr_meb2/production/_ext/1907747181/libaria_widget_rectangle.o
 .data          0x00000000        0x0 build/pic32mz_da_sk_intddr_meb2/production/_ext/1907747181/libaria_widget_rectangle.o
 .bss           0x00000000        0x0 build/pic32mz_da_sk_intddr_meb2/production/_ext/1907747181/libaria_widget_rectangle.o
 .reginfo       0x00000000       0x18 build/pic32mz_da_sk_intddr_meb2/production/_ext/1907747181/libaria_widget_rectangle.o
 .text._laRectangleWidget_Destructor
                0x00000000       0x1c build/pic32mz_da_sk_intddr_meb2/production/_ext/1907747181/libaria_widget_rectangle.o
 .text.laRectangleWidget_New
                0x00000000       0x98 build/pic32mz_da_sk_intddr_meb2/production/_ext/1907747181/libaria_widget_rectangle.o
 .text.laRectangleWidget_GetThickness
                0x00000000       0x18 build/pic32mz_da_sk_intddr_meb2/production/_ext/1907747181/libaria_widget_rectangle.o
 .text.laRectangleWidget_SetThickness
                0x00000000       0x68 build/pic32mz_da_sk_intddr_meb2/production/_ext/1907747181/libaria_widget_rectangle.o
 .text          0x00000000        0x0 build/pic32mz_da_sk_intddr_meb2/production/_ext/1907747181/libaria_widget_rectangle_skin_classic.o
 .data          0x00000000        0x0 build/pic32mz_da_sk_intddr_meb2/production/_ext/1907747181/libaria_widget_rectangle_skin_classic.o
 .bss           0x00000000        0x0 build/pic32mz_da_sk_intddr_meb2/production/_ext/1907747181/libaria_widget_rectangle_skin_classic.o
 .reginfo       0x00000000       0x18 build/pic32mz_da_sk_intddr_meb2/production/_ext/1907747181/libaria_widget_rectangle_skin_classic.o
 .text.nextState
                0x00000000       0xb0 build/pic32mz_da_sk_intddr_meb2/production/_ext/1907747181/libaria_widget_rectangle_skin_classic.o
 .text.drawBorder
                0x00000000       0x58 build/pic32mz_da_sk_intddr_meb2/production/_ext/1907747181/libaria_widget_rectangle_skin_classic.o
 .text.drawEdge
                0x00000000      0x21c build/pic32mz_da_sk_intddr_meb2/production/_ext/1907747181/libaria_widget_rectangle_skin_classic.o
 .text.drawBackground
                0x00000000       0x2c build/pic32mz_da_sk_intddr_meb2/production/_ext/1907747181/libaria_widget_rectangle_skin_classic.o
 .text._laRectangleWidget_InvalidateRect
                0x00000000      0x13c build/pic32mz_da_sk_intddr_meb2/production/_ext/1907747181/libaria_widget_rectangle_skin_classic.o
 .text._laRectangleWidget_Paint
                0x00000000       0x9c build/pic32mz_da_sk_intddr_meb2/production/_ext/1907747181/libaria_widget_rectangle_skin_classic.o
 .text          0x00000000        0x0 build/pic32mz_da_sk_intddr_meb2/production/_ext/1907747181/libaria_widget_scrollbar.o
 .data          0x00000000        0x0 build/pic32mz_da_sk_intddr_meb2/production/_ext/1907747181/libaria_widget_scrollbar.o
 .bss           0x00000000        0x0 build/pic32mz_da_sk_intddr_meb2/production/_ext/1907747181/libaria_widget_scrollbar.o
 .reginfo       0x00000000       0x18 build/pic32mz_da_sk_intddr_meb2/production/_ext/1907747181/libaria_widget_scrollbar.o
 .text._laScrollBarWidget_Destructor
                0x00000000       0x1c build/pic32mz_da_sk_intddr_meb2/production/_ext/1907747181/libaria_widget_scrollbar.o
 .text.invalidateHandleRect
                0x00000000       0x40 build/pic32mz_da_sk_intddr_meb2/production/_ext/1907747181/libaria_widget_scrollbar.o
 .text.invalidateScrollArea
                0x00000000       0x40 build/pic32mz_da_sk_intddr_meb2/production/_ext/1907747181/libaria_widget_scrollbar.o
 .text.invalidateUpLeftButton
                0x00000000       0x40 build/pic32mz_da_sk_intddr_meb2/production/_ext/1907747181/libaria_widget_scrollbar.o
 .text.invalidateDownRightButton
                0x00000000       0x40 build/pic32mz_da_sk_intddr_meb2/production/_ext/1907747181/libaria_widget_scrollbar.o
 .text._laScrollBarWidget_TouchDownEvent
                0x00000000      0x100 build/pic32mz_da_sk_intddr_meb2/production/_ext/1907747181/libaria_widget_scrollbar.o
 .text._laScrollWidget_GetExtent
                0x00000000       0x1c build/pic32mz_da_sk_intddr_meb2/production/_ext/1907747181/libaria_widget_scrollbar.o
 .text._laScrollBar_GetPercentFromPoint
                0x00000000       0xcc build/pic32mz_da_sk_intddr_meb2/production/_ext/1907747181/libaria_widget_scrollbar.o
 .text._laScrollBar_GetValueFromPercent
                0x00000000       0x38 build/pic32mz_da_sk_intddr_meb2/production/_ext/1907747181/libaria_widget_scrollbar.o
 .text._laScrollBarWidget_Constructor
                0x00000000       0xa8 build/pic32mz_da_sk_intddr_meb2/production/_ext/1907747181/libaria_widget_scrollbar.o
 .text.laScrollBarWidget_New
                0x00000000       0x50 build/pic32mz_da_sk_intddr_meb2/production/_ext/1907747181/libaria_widget_scrollbar.o
 .text.laScrollBarWidget_GetOrientation
                0x00000000       0x18 build/pic32mz_da_sk_intddr_meb2/production/_ext/1907747181/libaria_widget_scrollbar.o
 .text.laScrollBarWidget_SetOrientation
                0x00000000       0x64 build/pic32mz_da_sk_intddr_meb2/production/_ext/1907747181/libaria_widget_scrollbar.o
 .text.laScrollBarWidget_GetValueChangedEventCallback
                0x00000000       0x18 build/pic32mz_da_sk_intddr_meb2/production/_ext/1907747181/libaria_widget_scrollbar.o
 .text.laScrollBarWidget_GetMaxinumValue
                0x00000000       0x18 build/pic32mz_da_sk_intddr_meb2/production/_ext/1907747181/libaria_widget_scrollbar.o
 .text.laScrollBarWidget_SetMaximumValue
                0x00000000       0x44 build/pic32mz_da_sk_intddr_meb2/production/_ext/1907747181/libaria_widget_scrollbar.o
 .text.laScrollBarWidget_GetExtentValue
                0x00000000       0x18 build/pic32mz_da_sk_intddr_meb2/production/_ext/1907747181/libaria_widget_scrollbar.o
 .text.laScrollBarWidget_SetExtentValue
                0x00000000       0x44 build/pic32mz_da_sk_intddr_meb2/production/_ext/1907747181/libaria_widget_scrollbar.o
 .text.laScrollBarWidget_GetScrollPercentage
                0x00000000       0x34 build/pic32mz_da_sk_intddr_meb2/production/_ext/1907747181/libaria_widget_scrollbar.o
 .text.laScrollBarWidget_SetScrollPercentage
                0x00000000       0x5c build/pic32mz_da_sk_intddr_meb2/production/_ext/1907747181/libaria_widget_scrollbar.o
 .text.laScrollBarWidget_GetScrollValue
                0x00000000       0x18 build/pic32mz_da_sk_intddr_meb2/production/_ext/1907747181/libaria_widget_scrollbar.o
 .text.laScrollBarWidget_SetScrollValue
                0x00000000       0x78 build/pic32mz_da_sk_intddr_meb2/production/_ext/1907747181/libaria_widget_scrollbar.o
 .text._laScrollBarWidget_TouchMovedEvent
                0x00000000      0x1cc build/pic32mz_da_sk_intddr_meb2/production/_ext/1907747181/libaria_widget_scrollbar.o
 .text.laScrollBarWidget_GetStepSize
                0x00000000       0x18 build/pic32mz_da_sk_intddr_meb2/production/_ext/1907747181/libaria_widget_scrollbar.o
 .text.laScrollBarWidget_SetStepSize
                0x00000000       0x1c build/pic32mz_da_sk_intddr_meb2/production/_ext/1907747181/libaria_widget_scrollbar.o
 .text.laScrollBarWidget_StepBackward
                0x00000000       0x7c build/pic32mz_da_sk_intddr_meb2/production/_ext/1907747181/libaria_widget_scrollbar.o
 .text.laScrollBarWidget_StepForward
                0x00000000       0x80 build/pic32mz_da_sk_intddr_meb2/production/_ext/1907747181/libaria_widget_scrollbar.o
 .text._laScrollBarWidget_TouchUpEvent
                0x00000000       0xec build/pic32mz_da_sk_intddr_meb2/production/_ext/1907747181/libaria_widget_scrollbar.o
 .text.laScrollBarWidget_SetValueChangedEventCallback
                0x00000000       0x30 build/pic32mz_da_sk_intddr_meb2/production/_ext/1907747181/libaria_widget_scrollbar.o
 .text          0x00000000        0x0 build/pic32mz_da_sk_intddr_meb2/production/_ext/1907747181/libaria_widget_scrollbar_skin_classic.o
 .data          0x00000000        0x0 build/pic32mz_da_sk_intddr_meb2/production/_ext/1907747181/libaria_widget_scrollbar_skin_classic.o
 .bss           0x00000000        0x0 build/pic32mz_da_sk_intddr_meb2/production/_ext/1907747181/libaria_widget_scrollbar_skin_classic.o
 .reginfo       0x00000000       0x18 build/pic32mz_da_sk_intddr_meb2/production/_ext/1907747181/libaria_widget_scrollbar_skin_classic.o
 .text.nextState
                0x00000000       0xb4 build/pic32mz_da_sk_intddr_meb2/production/_ext/1907747181/libaria_widget_scrollbar_skin_classic.o
 .text._laScrollBar_GetUpLeftButtonRect
                0x00000000       0x48 build/pic32mz_da_sk_intddr_meb2/production/_ext/1907747181/libaria_widget_scrollbar_skin_classic.o
 .text.drawUpButton
                0x00000000      0x2a0 build/pic32mz_da_sk_intddr_meb2/production/_ext/1907747181/libaria_widget_scrollbar_skin_classic.o
 .text._laScrollBar_GetDownRightButtonRect
                0x00000000       0x60 build/pic32mz_da_sk_intddr_meb2/production/_ext/1907747181/libaria_widget_scrollbar_skin_classic.o
 .text.drawDownButton
                0x00000000      0x2cc build/pic32mz_da_sk_intddr_meb2/production/_ext/1907747181/libaria_widget_scrollbar_skin_classic.o
 .text._laScrollBar_GetScrollAreaRect
                0x00000000       0x64 build/pic32mz_da_sk_intddr_meb2/production/_ext/1907747181/libaria_widget_scrollbar_skin_classic.o
 .text.drawBackground
                0x00000000       0x84 build/pic32mz_da_sk_intddr_meb2/production/_ext/1907747181/libaria_widget_scrollbar_skin_classic.o
 .text._laScrollBar_GetHandleRect
                0x00000000       0xf8 build/pic32mz_da_sk_intddr_meb2/production/_ext/1907747181/libaria_widget_scrollbar_skin_classic.o
 .text.drawHandle
                0x00000000       0xac build/pic32mz_da_sk_intddr_meb2/production/_ext/1907747181/libaria_widget_scrollbar_skin_classic.o
 .text._laScrollBarWidget_InvalidateBorderAreas
                0x00000000       0x1c build/pic32mz_da_sk_intddr_meb2/production/_ext/1907747181/libaria_widget_scrollbar_skin_classic.o
 .text._laScrollBarWidget_Paint
                0x00000000       0x9c build/pic32mz_da_sk_intddr_meb2/production/_ext/1907747181/libaria_widget_scrollbar_skin_classic.o
 .text          0x00000000        0x0 build/pic32mz_da_sk_intddr_meb2/production/_ext/1907747181/libaria_widget_slider.o
 .data          0x00000000        0x0 build/pic32mz_da_sk_intddr_meb2/production/_ext/1907747181/libaria_widget_slider.o
 .bss           0x00000000        0x0 build/pic32mz_da_sk_intddr_meb2/production/_ext/1907747181/libaria_widget_slider.o
 .reginfo       0x00000000       0x18 build/pic32mz_da_sk_intddr_meb2/production/_ext/1907747181/libaria_widget_slider.o
 .text._laSliderWidget_Update
                0x00000000        0x8 build/pic32mz_da_sk_intddr_meb2/production/_ext/1907747181/libaria_widget_slider.o
 .text._laSliderWidget_TouchUpEvent
                0x00000000       0x10 build/pic32mz_da_sk_intddr_meb2/production/_ext/1907747181/libaria_widget_slider.o
 .text._laSliderWidget_Destructor
                0x00000000       0x1c build/pic32mz_da_sk_intddr_meb2/production/_ext/1907747181/libaria_widget_slider.o
 .text.invalidateHandle
                0x00000000       0x40 build/pic32mz_da_sk_intddr_meb2/production/_ext/1907747181/libaria_widget_slider.o
 .text._laSliderWidget_GetPercentFromPoint
                0x00000000       0xb4 build/pic32mz_da_sk_intddr_meb2/production/_ext/1907747181/libaria_widget_slider.o
 .text._laSliderWidget_GetValueFromPercent
                0x00000000       0x54 build/pic32mz_da_sk_intddr_meb2/production/_ext/1907747181/libaria_widget_slider.o
 .text._laSliderWidget_TouchDownEvent
                0x00000000      0x128 build/pic32mz_da_sk_intddr_meb2/production/_ext/1907747181/libaria_widget_slider.o
 .text._laSliderWidget_TouchMovedEvent
                0x00000000       0xac build/pic32mz_da_sk_intddr_meb2/production/_ext/1907747181/libaria_widget_slider.o
 .text._laSliderWidget_Constructor
                0x00000000       0xb8 build/pic32mz_da_sk_intddr_meb2/production/_ext/1907747181/libaria_widget_slider.o
 .text.laSliderWidget_New
                0x00000000       0x50 build/pic32mz_da_sk_intddr_meb2/production/_ext/1907747181/libaria_widget_slider.o
 .text.laSliderWidget_GetOrientation
                0x00000000       0x18 build/pic32mz_da_sk_intddr_meb2/production/_ext/1907747181/libaria_widget_slider.o
 .text.laSliderWidget_SetOrientation
                0x00000000       0x64 build/pic32mz_da_sk_intddr_meb2/production/_ext/1907747181/libaria_widget_slider.o
 .text.laSliderWidget_GetGripSize
                0x00000000       0x18 build/pic32mz_da_sk_intddr_meb2/production/_ext/1907747181/libaria_widget_slider.o
 .text.laSliderWidget_SetGripSize
                0x00000000       0x5c build/pic32mz_da_sk_intddr_meb2/production/_ext/1907747181/libaria_widget_slider.o
 .text.laSliderWidget_GetMininumValue
                0x00000000       0x18 build/pic32mz_da_sk_intddr_meb2/production/_ext/1907747181/libaria_widget_slider.o
 .text.laSliderWidget_SetMinimumValue
                0x00000000       0x70 build/pic32mz_da_sk_intddr_meb2/production/_ext/1907747181/libaria_widget_slider.o
 .text.laSliderWidget_GetMaxinumValue
                0x00000000       0x18 build/pic32mz_da_sk_intddr_meb2/production/_ext/1907747181/libaria_widget_slider.o
 .text.laSliderWidget_SetMaximumValue
                0x00000000       0x70 build/pic32mz_da_sk_intddr_meb2/production/_ext/1907747181/libaria_widget_slider.o
 .text.laSliderWidget_GetSliderPercentage
                0x00000000       0x3c build/pic32mz_da_sk_intddr_meb2/production/_ext/1907747181/libaria_widget_slider.o
 .text.laSliderWidget_SetSliderPercentage
                0x00000000       0x84 build/pic32mz_da_sk_intddr_meb2/production/_ext/1907747181/libaria_widget_slider.o
 .text.laSliderWidget_GetSliderValue
                0x00000000       0x18 build/pic32mz_da_sk_intddr_meb2/production/_ext/1907747181/libaria_widget_slider.o
 .text.laSliderWidget_SetSliderValue
                0x00000000       0x84 build/pic32mz_da_sk_intddr_meb2/production/_ext/1907747181/libaria_widget_slider.o
 .text.laSliderWidget_Step
                0x00000000       0xac build/pic32mz_da_sk_intddr_meb2/production/_ext/1907747181/libaria_widget_slider.o
 .text.laSliderWidget_GetValueChangedEventCallback
                0x00000000       0x18 build/pic32mz_da_sk_intddr_meb2/production/_ext/1907747181/libaria_widget_slider.o
 .text.laSliderWidget_SetValueChangedEventCallback
                0x00000000       0x30 build/pic32mz_da_sk_intddr_meb2/production/_ext/1907747181/libaria_widget_slider.o
 .text          0x00000000        0x0 build/pic32mz_da_sk_intddr_meb2/production/_ext/1907747181/libaria_widget_slider_skin_classic.o
 .data          0x00000000        0x0 build/pic32mz_da_sk_intddr_meb2/production/_ext/1907747181/libaria_widget_slider_skin_classic.o
 .bss           0x00000000        0x0 build/pic32mz_da_sk_intddr_meb2/production/_ext/1907747181/libaria_widget_slider_skin_classic.o
 .reginfo       0x00000000       0x18 build/pic32mz_da_sk_intddr_meb2/production/_ext/1907747181/libaria_widget_slider_skin_classic.o
 .text.nextState
                0x00000000       0x9c build/pic32mz_da_sk_intddr_meb2/production/_ext/1907747181/libaria_widget_slider_skin_classic.o
 .text.drawBackground
                0x00000000       0x2c build/pic32mz_da_sk_intddr_meb2/production/_ext/1907747181/libaria_widget_slider_skin_classic.o
 .text._laSliderWidget_GetSlideAreaRect
                0x00000000       0xe4 build/pic32mz_da_sk_intddr_meb2/production/_ext/1907747181/libaria_widget_slider_skin_classic.o
 .text.drawBar  0x00000000       0xb0 build/pic32mz_da_sk_intddr_meb2/production/_ext/1907747181/libaria_widget_slider_skin_classic.o
 .text._laSliderWidget_GetHandleRect
                0x00000000       0xf4 build/pic32mz_da_sk_intddr_meb2/production/_ext/1907747181/libaria_widget_slider_skin_classic.o
 .text.drawHandle
                0x00000000       0xac build/pic32mz_da_sk_intddr_meb2/production/_ext/1907747181/libaria_widget_slider_skin_classic.o
 .text._laSliderWidget_InvalidateBorderAreas
                0x00000000       0x1c build/pic32mz_da_sk_intddr_meb2/production/_ext/1907747181/libaria_widget_slider_skin_classic.o
 .text._laSliderWidget_Paint
                0x00000000       0x9c build/pic32mz_da_sk_intddr_meb2/production/_ext/1907747181/libaria_widget_slider_skin_classic.o
 .text          0x00000000        0x0 build/pic32mz_da_sk_intddr_meb2/production/_ext/1907747181/libaria_widget_textfield.o
 .data          0x00000000        0x0 build/pic32mz_da_sk_intddr_meb2/production/_ext/1907747181/libaria_widget_textfield.o
 .bss           0x00000000        0x0 build/pic32mz_da_sk_intddr_meb2/production/_ext/1907747181/libaria_widget_textfield.o
 .reginfo       0x00000000       0x18 build/pic32mz_da_sk_intddr_meb2/production/_ext/1907747181/libaria_widget_textfield.o
 .text._laTextFieldWidget_FocusLost
                0x00000000        0x8 build/pic32mz_da_sk_intddr_meb2/production/_ext/1907747181/libaria_widget_textfield.o
 .text._laTextFieldWidget_TouchUpEvent
                0x00000000        0xc build/pic32mz_da_sk_intddr_meb2/production/_ext/1907747181/libaria_widget_textfield.o
 .text._laTextFieldWidget_TouchMovedEvent
                0x00000000        0xc build/pic32mz_da_sk_intddr_meb2/production/_ext/1907747181/libaria_widget_textfield.o
 .text.invalidateText
                0x00000000       0x44 build/pic32mz_da_sk_intddr_meb2/production/_ext/1907747181/libaria_widget_textfield.o
 .text.invalidateCursor
                0x00000000       0x40 build/pic32mz_da_sk_intddr_meb2/production/_ext/1907747181/libaria_widget_textfield.o
 .text.backspace
                0x00000000       0xa8 build/pic32mz_da_sk_intddr_meb2/production/_ext/1907747181/libaria_widget_textfield.o
 .text.endEdit  0x00000000       0x20 build/pic32mz_da_sk_intddr_meb2/production/_ext/1907747181/libaria_widget_textfield.o
 .text.set      0x00000000       0x88 build/pic32mz_da_sk_intddr_meb2/production/_ext/1907747181/libaria_widget_textfield.o
 .text.append   0x00000000       0xb8 build/pic32mz_da_sk_intddr_meb2/production/_ext/1907747181/libaria_widget_textfield.o
 .text.accept   0x00000000       0x1c build/pic32mz_da_sk_intddr_meb2/production/_ext/1907747181/libaria_widget_textfield.o
 .text._laTextFieldWidget_FocusGained
                0x00000000       0x1c build/pic32mz_da_sk_intddr_meb2/production/_ext/1907747181/libaria_widget_textfield.o
 .text.clear    0x00000000       0x48 build/pic32mz_da_sk_intddr_meb2/production/_ext/1907747181/libaria_widget_textfield.o
 .text.startEdit
                0x00000000       0x58 build/pic32mz_da_sk_intddr_meb2/production/_ext/1907747181/libaria_widget_textfield.o
 .text._laTextFieldWidget_Update
                0x00000000       0x70 build/pic32mz_da_sk_intddr_meb2/production/_ext/1907747181/libaria_widget_textfield.o
 .text._laTextFieldWidget_Destructor
                0x00000000       0x54 build/pic32mz_da_sk_intddr_meb2/production/_ext/1907747181/libaria_widget_textfield.o
 .text._laTextFieldWidget_Constructor
                0x00000000      0x118 build/pic32mz_da_sk_intddr_meb2/production/_ext/1907747181/libaria_widget_textfield.o
 .text.laTextFieldWidget_New
                0x00000000       0x50 build/pic32mz_da_sk_intddr_meb2/production/_ext/1907747181/libaria_widget_textfield.o
 .text.laTextFieldWidget_GetAlignment
                0x00000000       0x18 build/pic32mz_da_sk_intddr_meb2/production/_ext/1907747181/libaria_widget_textfield.o
 .text.laTextFieldWidget_SetAlignment
                0x00000000       0x44 build/pic32mz_da_sk_intddr_meb2/production/_ext/1907747181/libaria_widget_textfield.o
 .text.laTextFieldWidget_GetCursorDelay
                0x00000000       0x18 build/pic32mz_da_sk_intddr_meb2/production/_ext/1907747181/libaria_widget_textfield.o
 .text.laTextFieldWidget_SetCursorDelay
                0x00000000       0x68 build/pic32mz_da_sk_intddr_meb2/production/_ext/1907747181/libaria_widget_textfield.o
 .text.laTextFieldWidget_GetCursorEnabled
                0x00000000       0x18 build/pic32mz_da_sk_intddr_meb2/production/_ext/1907747181/libaria_widget_textfield.o
 .text.laTextFieldWidget_SetCursorEnabled
                0x00000000       0x64 build/pic32mz_da_sk_intddr_meb2/production/_ext/1907747181/libaria_widget_textfield.o
 .text.laTextFieldWidget_GetCursorPosition
                0x00000000       0x18 build/pic32mz_da_sk_intddr_meb2/production/_ext/1907747181/libaria_widget_textfield.o
 .text.laTextFieldWidget_SetCursorPosition
                0x00000000       0x5c build/pic32mz_da_sk_intddr_meb2/production/_ext/1907747181/libaria_widget_textfield.o
 .text._laTextFieldWidget_TouchDownEvent
                0x00000000      0x100 build/pic32mz_da_sk_intddr_meb2/production/_ext/1907747181/libaria_widget_textfield.o
 .text.laTextFieldWidget_GetText
                0x00000000       0x38 build/pic32mz_da_sk_intddr_meb2/production/_ext/1907747181/libaria_widget_textfield.o
 .text.laTextFieldWidget_SetText
                0x00000000       0xa0 build/pic32mz_da_sk_intddr_meb2/production/_ext/1907747181/libaria_widget_textfield.o
 .text.laTextFieldWidget_SetClearOnFirstEdit
                0x00000000       0x30 build/pic32mz_da_sk_intddr_meb2/production/_ext/1907747181/libaria_widget_textfield.o
 .text.laTextFieldWidget_GetTextChangedEventCallback
                0x00000000       0x18 build/pic32mz_da_sk_intddr_meb2/production/_ext/1907747181/libaria_widget_textfield.o
 .text.laTextFieldWidget_SetTextChangedEventCallback
                0x00000000       0x30 build/pic32mz_da_sk_intddr_meb2/production/_ext/1907747181/libaria_widget_textfield.o
 .rodata        0x00000000       0x10 build/pic32mz_da_sk_intddr_meb2/production/_ext/1907747181/libaria_widget_textfield.o
 .text          0x00000000        0x0 build/pic32mz_da_sk_intddr_meb2/production/_ext/1907747181/libaria_widget_textfield_skin_classic.o
 .data          0x00000000        0x0 build/pic32mz_da_sk_intddr_meb2/production/_ext/1907747181/libaria_widget_textfield_skin_classic.o
 .bss           0x00000000        0x0 build/pic32mz_da_sk_intddr_meb2/production/_ext/1907747181/libaria_widget_textfield_skin_classic.o
 .reginfo       0x00000000       0x18 build/pic32mz_da_sk_intddr_meb2/production/_ext/1907747181/libaria_widget_textfield_skin_classic.o
 .text.nextState
                0x00000000      0x110 build/pic32mz_da_sk_intddr_meb2/production/_ext/1907747181/libaria_widget_textfield_skin_classic.o
 .text.waitString
                0x00000000       0x68 build/pic32mz_da_sk_intddr_meb2/production/_ext/1907747181/libaria_widget_textfield_skin_classic.o
 .text.drawBorder
                0x00000000       0x58 build/pic32mz_da_sk_intddr_meb2/production/_ext/1907747181/libaria_widget_textfield_skin_classic.o
 .text.drawBackground
                0x00000000       0x5c build/pic32mz_da_sk_intddr_meb2/production/_ext/1907747181/libaria_widget_textfield_skin_classic.o
 .text._laTextFieldWidget_GetTextRect
                0x00000000       0xf4 build/pic32mz_da_sk_intddr_meb2/production/_ext/1907747181/libaria_widget_textfield_skin_classic.o
 .text.drawString
                0x00000000       0xe0 build/pic32mz_da_sk_intddr_meb2/production/_ext/1907747181/libaria_widget_textfield_skin_classic.o
 .text._laTextFieldWidget_GetCursorRect
                0x00000000      0x144 build/pic32mz_da_sk_intddr_meb2/production/_ext/1907747181/libaria_widget_textfield_skin_classic.o
 .text.drawCursor
                0x00000000       0xa8 build/pic32mz_da_sk_intddr_meb2/production/_ext/1907747181/libaria_widget_textfield_skin_classic.o
 .text._laTextFieldWidget_Paint
                0x00000000       0xb4 build/pic32mz_da_sk_intddr_meb2/production/_ext/1907747181/libaria_widget_textfield_skin_classic.o
 .rodata        0x00000000       0x10 build/pic32mz_da_sk_intddr_meb2/production/_ext/1907747181/libaria_widget_textfield_skin_classic.o
 .text          0x00000000        0x0 build/pic32mz_da_sk_intddr_meb2/production/_ext/1907747181/libaria_widget_touchtest.o
 .data          0x00000000        0x0 build/pic32mz_da_sk_intddr_meb2/production/_ext/1907747181/libaria_widget_touchtest.o
 .bss           0x00000000        0x0 build/pic32mz_da_sk_intddr_meb2/production/_ext/1907747181/libaria_widget_touchtest.o
 .reginfo       0x00000000       0x18 build/pic32mz_da_sk_intddr_meb2/production/_ext/1907747181/libaria_widget_touchtest.o
 .text._laTouchTestWidget_Destructor
                0x00000000       0x1c build/pic32mz_da_sk_intddr_meb2/production/_ext/1907747181/libaria_widget_touchtest.o
 .text.invalidateLineList
                0x00000000       0x8c build/pic32mz_da_sk_intddr_meb2/production/_ext/1907747181/libaria_widget_touchtest.o
 .text._laTouchTestWidget_Constructor
                0x00000000       0x90 build/pic32mz_da_sk_intddr_meb2/production/_ext/1907747181/libaria_widget_touchtest.o
 .text.laTouchTestWidget_New
                0x00000000       0x58 build/pic32mz_da_sk_intddr_meb2/production/_ext/1907747181/libaria_widget_touchtest.o
 .text.laTouchTest_AddPoint
                0x00000000       0xc4 build/pic32mz_da_sk_intddr_meb2/production/_ext/1907747181/libaria_widget_touchtest.o
 .text._laTouchTestWidget_TouchDownEvent
                0x00000000       0x50 build/pic32mz_da_sk_intddr_meb2/production/_ext/1907747181/libaria_widget_touchtest.o
 .text._laTouchTestWidget_TouchMovedEvent
                0x00000000       0x84 build/pic32mz_da_sk_intddr_meb2/production/_ext/1907747181/libaria_widget_touchtest.o
 .text.laTouchTest_ClearPoints
                0x00000000       0x4c build/pic32mz_da_sk_intddr_meb2/production/_ext/1907747181/libaria_widget_touchtest.o
 .text._laTouchTestWidget_TouchUpEvent
                0x00000000       0x24 build/pic32mz_da_sk_intddr_meb2/production/_ext/1907747181/libaria_widget_touchtest.o
 .text.laTouchTestWidget_GetPointAddedEventCallback
                0x00000000       0x18 build/pic32mz_da_sk_intddr_meb2/production/_ext/1907747181/libaria_widget_touchtest.o
 .text.laTouchTestWidget_SetPointAddedEventCallback
                0x00000000       0x1c build/pic32mz_da_sk_intddr_meb2/production/_ext/1907747181/libaria_widget_touchtest.o
 .text          0x00000000        0x0 build/pic32mz_da_sk_intddr_meb2/production/_ext/1907747181/libaria_widget_touchtest_skin_classic.o
 .data          0x00000000        0x0 build/pic32mz_da_sk_intddr_meb2/production/_ext/1907747181/libaria_widget_touchtest_skin_classic.o
 .bss           0x00000000        0x0 build/pic32mz_da_sk_intddr_meb2/production/_ext/1907747181/libaria_widget_touchtest_skin_classic.o
 .reginfo       0x00000000       0x18 build/pic32mz_da_sk_intddr_meb2/production/_ext/1907747181/libaria_widget_touchtest_skin_classic.o
 .text.nextState
                0x00000000       0xb4 build/pic32mz_da_sk_intddr_meb2/production/_ext/1907747181/libaria_widget_touchtest_skin_classic.o
 .text.drawBorder
                0x00000000       0x58 build/pic32mz_da_sk_intddr_meb2/production/_ext/1907747181/libaria_widget_touchtest_skin_classic.o
 .text.drawBackground
                0x00000000       0x2c build/pic32mz_da_sk_intddr_meb2/production/_ext/1907747181/libaria_widget_touchtest_skin_classic.o
 .text._laTouchTestWidget_GetLineRects
                0x00000000       0x9c build/pic32mz_da_sk_intddr_meb2/production/_ext/1907747181/libaria_widget_touchtest_skin_classic.o
 .text.drawLines
                0x00000000      0x1dc build/pic32mz_da_sk_intddr_meb2/production/_ext/1907747181/libaria_widget_touchtest_skin_classic.o
 .text._laTouchTestWidget_Paint
                0x00000000       0x9c build/pic32mz_da_sk_intddr_meb2/production/_ext/1907747181/libaria_widget_touchtest_skin_classic.o
 .text          0x00000000        0x0 build/pic32mz_da_sk_intddr_meb2/production/_ext/1907747181/libaria_widget_window.o
 .data          0x00000000        0x0 build/pic32mz_da_sk_intddr_meb2/production/_ext/1907747181/libaria_widget_window.o
 .bss           0x00000000        0x0 build/pic32mz_da_sk_intddr_meb2/production/_ext/1907747181/libaria_widget_window.o
 .reginfo       0x00000000       0x18 build/pic32mz_da_sk_intddr_meb2/production/_ext/1907747181/libaria_widget_window.o
 .text.invalidateTitleText
                0x00000000       0x44 build/pic32mz_da_sk_intddr_meb2/production/_ext/1907747181/libaria_widget_window.o
 .text.languageChanging
                0x00000000       0x38 build/pic32mz_da_sk_intddr_meb2/production/_ext/1907747181/libaria_widget_window.o
 .text._laWindowWidget_Destructor
                0x00000000       0x54 build/pic32mz_da_sk_intddr_meb2/production/_ext/1907747181/libaria_widget_window.o
 .text.invalidateTitleBar
                0x00000000       0x40 build/pic32mz_da_sk_intddr_meb2/production/_ext/1907747181/libaria_widget_window.o
 .text._laWindowWidget_Constructor
                0x00000000       0x74 build/pic32mz_da_sk_intddr_meb2/production/_ext/1907747181/libaria_widget_window.o
 .text.laWindowWidget_New
                0x00000000       0x50 build/pic32mz_da_sk_intddr_meb2/production/_ext/1907747181/libaria_widget_window.o
 .text.laWindowWidget_GetTitle
                0x00000000       0x34 build/pic32mz_da_sk_intddr_meb2/production/_ext/1907747181/libaria_widget_window.o
 .text.laWindowWidget_SetTitle
                0x00000000       0x78 build/pic32mz_da_sk_intddr_meb2/production/_ext/1907747181/libaria_widget_window.o
 .text.laWindowWidget_GetIcon
                0x00000000       0x18 build/pic32mz_da_sk_intddr_meb2/production/_ext/1907747181/libaria_widget_window.o
 .text.laWindowWidget_SetIcon
                0x00000000       0x48 build/pic32mz_da_sk_intddr_meb2/production/_ext/1907747181/libaria_widget_window.o
 .text.laWindowWidget_GetIconMargin
                0x00000000       0x18 build/pic32mz_da_sk_intddr_meb2/production/_ext/1907747181/libaria_widget_window.o
 .text.laWindowWidget_SetIconMargin
                0x00000000       0x44 build/pic32mz_da_sk_intddr_meb2/production/_ext/1907747181/libaria_widget_window.o
 .text          0x00000000        0x0 build/pic32mz_da_sk_intddr_meb2/production/_ext/1907747181/libaria_widget_window_skin_classic.o
 .data          0x00000000        0x0 build/pic32mz_da_sk_intddr_meb2/production/_ext/1907747181/libaria_widget_window_skin_classic.o
 .bss           0x00000000        0x0 build/pic32mz_da_sk_intddr_meb2/production/_ext/1907747181/libaria_widget_window_skin_classic.o
 .reginfo       0x00000000       0x18 build/pic32mz_da_sk_intddr_meb2/production/_ext/1907747181/libaria_widget_window_skin_classic.o
 .text.nextState
                0x00000000      0x120 build/pic32mz_da_sk_intddr_meb2/production/_ext/1907747181/libaria_widget_window_skin_classic.o
 .text.waitString
                0x00000000       0x68 build/pic32mz_da_sk_intddr_meb2/production/_ext/1907747181/libaria_widget_window_skin_classic.o
 .text.waitIcon
                0x00000000       0x68 build/pic32mz_da_sk_intddr_meb2/production/_ext/1907747181/libaria_widget_window_skin_classic.o
 .text.drawBorder
                0x00000000       0xc0 build/pic32mz_da_sk_intddr_meb2/production/_ext/1907747181/libaria_widget_window_skin_classic.o
 .text.drawBackground
                0x00000000       0x2c build/pic32mz_da_sk_intddr_meb2/production/_ext/1907747181/libaria_widget_window_skin_classic.o
 .text.laWindowWidget_GetTitleBarRect
                0x00000000       0x80 build/pic32mz_da_sk_intddr_meb2/production/_ext/1907747181/libaria_widget_window_skin_classic.o
 .text.drawTitleBar
                0x00000000       0x64 build/pic32mz_da_sk_intddr_meb2/production/_ext/1907747181/libaria_widget_window_skin_classic.o
 .text.laWindowWidget_GetIconRect
                0x00000000      0x160 build/pic32mz_da_sk_intddr_meb2/production/_ext/1907747181/libaria_widget_window_skin_classic.o
 .text.drawIcon
                0x00000000      0x114 build/pic32mz_da_sk_intddr_meb2/production/_ext/1907747181/libaria_widget_window_skin_classic.o
 .text.laWindowWidget_GetTextRect
                0x00000000      0x114 build/pic32mz_da_sk_intddr_meb2/production/_ext/1907747181/libaria_widget_window_skin_classic.o
 .text.drawString
                0x00000000       0xe0 build/pic32mz_da_sk_intddr_meb2/production/_ext/1907747181/libaria_widget_window_skin_classic.o
 .text._laWindowWidget_Paint
                0x00000000       0xb8 build/pic32mz_da_sk_intddr_meb2/production/_ext/1907747181/libaria_widget_window_skin_classic.o
 .rodata        0x00000000       0x10 build/pic32mz_da_sk_intddr_meb2/production/_ext/1907747181/libaria_widget_window_skin_classic.o
 .text          0x00000000        0x0 build/pic32mz_da_sk_intddr_meb2/production/_ext/1907747181/libaria_array.o
 .data          0x00000000        0x0 build/pic32mz_da_sk_intddr_meb2/production/_ext/1907747181/libaria_array.o
 .bss           0x00000000        0x0 build/pic32mz_da_sk_intddr_meb2/production/_ext/1907747181/libaria_array.o
 .reginfo       0x00000000       0x18 build/pic32mz_da_sk_intddr_meb2/production/_ext/1907747181/libaria_array.o
 .text._shuffleRight
                0x00000000       0x70 build/pic32mz_da_sk_intddr_meb2/production/_ext/1907747181/libaria_array.o
 .text.laArray_PushFront
                0x00000000       0x90 build/pic32mz_da_sk_intddr_meb2/production/_ext/1907747181/libaria_array.o
 .text.laArray_PopFront
                0x00000000       0x48 build/pic32mz_da_sk_intddr_meb2/production/_ext/1907747181/libaria_array.o
 .text.laArray_PopBack
                0x00000000       0x34 build/pic32mz_da_sk_intddr_meb2/production/_ext/1907747181/libaria_array.o
 .text.laArray_InsertAt
                0x00000000       0xc0 build/pic32mz_da_sk_intddr_meb2/production/_ext/1907747181/libaria_array.o
 .text.laArray_RemoveAt
                0x00000000       0x6c build/pic32mz_da_sk_intddr_meb2/production/_ext/1907747181/libaria_array.o
 .text.laArray_Get
                0x00000000       0x24 build/pic32mz_da_sk_intddr_meb2/production/_ext/1907747181/libaria_array.o
 .text.laArray_Copy
                0x00000000       0xa4 build/pic32mz_da_sk_intddr_meb2/production/_ext/1907747181/libaria_array.o
 .text.laArray_Clear
                0x00000000       0x1c build/pic32mz_da_sk_intddr_meb2/production/_ext/1907747181/libaria_array.o
 .text          0x00000000        0x0 build/pic32mz_da_sk_intddr_meb2/production/_ext/1907747181/libaria_rectarray.o
 .data          0x00000000        0x0 build/pic32mz_da_sk_intddr_meb2/production/_ext/1907747181/libaria_rectarray.o
 .bss           0x00000000        0x0 build/pic32mz_da_sk_intddr_meb2/production/_ext/1907747181/libaria_rectarray.o
 .reginfo       0x00000000       0x18 build/pic32mz_da_sk_intddr_meb2/production/_ext/1907747181/libaria_rectarray.o
 .text._shuffleRight
                0x00000000       0xb4 build/pic32mz_da_sk_intddr_meb2/production/_ext/1907747181/libaria_rectarray.o
 .text.laRectArray_PushFront
                0x00000000       0xac build/pic32mz_da_sk_intddr_meb2/production/_ext/1907747181/libaria_rectarray.o
 .text.laRectArray_PopFront
                0x00000000       0x48 build/pic32mz_da_sk_intddr_meb2/production/_ext/1907747181/libaria_rectarray.o
 .text.laRectArray_PopBack
                0x00000000       0x34 build/pic32mz_da_sk_intddr_meb2/production/_ext/1907747181/libaria_rectarray.o
 .text.laRectArray_InsertAt
                0x00000000       0xdc build/pic32mz_da_sk_intddr_meb2/production/_ext/1907747181/libaria_rectarray.o
 .text          0x00000000        0x0 build/pic32mz_da_sk_intddr_meb2/production/_ext/1907747181/libaria_widget_skin_classic_common.o
 .data          0x00000000        0x0 build/pic32mz_da_sk_intddr_meb2/production/_ext/1907747181/libaria_widget_skin_classic_common.o
 .bss           0x00000000        0x0 build/pic32mz_da_sk_intddr_meb2/production/_ext/1907747181/libaria_widget_skin_classic_common.o
 .reginfo       0x00000000       0x18 build/pic32mz_da_sk_intddr_meb2/production/_ext/1907747181/libaria_widget_skin_classic_common.o
 .text.laWidget_SkinClassic_DrawStandardRoundCornerLineBorder
                0x00000000       0x64 build/pic32mz_da_sk_intddr_meb2/production/_ext/1907747181/libaria_widget_skin_classic_common.o
 .text          0x00000000        0x0 build/pic32mz_da_sk_intddr_meb2/production/_ext/1907747181/libaria_widget_arc.o
 .data          0x00000000        0x0 build/pic32mz_da_sk_intddr_meb2/production/_ext/1907747181/libaria_widget_arc.o
 .bss           0x00000000        0x0 build/pic32mz_da_sk_intddr_meb2/production/_ext/1907747181/libaria_widget_arc.o
 .reginfo       0x00000000       0x18 build/pic32mz_da_sk_intddr_meb2/production/_ext/1907747181/libaria_widget_arc.o
 .text._laArcWidget_Destructor
                0x00000000       0x1c build/pic32mz_da_sk_intddr_meb2/production/_ext/1907747181/libaria_widget_arc.o
 .text._laArcWidget_Constructor
                0x00000000       0x7c build/pic32mz_da_sk_intddr_meb2/production/_ext/1907747181/libaria_widget_arc.o
 .text.laArcWidget_New
                0x00000000       0x58 build/pic32mz_da_sk_intddr_meb2/production/_ext/1907747181/libaria_widget_arc.o
 .text.laArcWidget_GetRadius
                0x00000000       0x18 build/pic32mz_da_sk_intddr_meb2/production/_ext/1907747181/libaria_widget_arc.o
 .text.laArcWidget_SetRadius
                0x00000000       0x44 build/pic32mz_da_sk_intddr_meb2/production/_ext/1907747181/libaria_widget_arc.o
 .text.laArcWidget_GetStartAngle
                0x00000000       0x18 build/pic32mz_da_sk_intddr_meb2/production/_ext/1907747181/libaria_widget_arc.o
 .text.laArcWidget_SetStartAngle
                0x00000000       0x44 build/pic32mz_da_sk_intddr_meb2/production/_ext/1907747181/libaria_widget_arc.o
 .text.laArcWidget_GetThickness
                0x00000000       0x18 build/pic32mz_da_sk_intddr_meb2/production/_ext/1907747181/libaria_widget_arc.o
 .text.laArcWidget_SetThickness
                0x00000000       0x5c build/pic32mz_da_sk_intddr_meb2/production/_ext/1907747181/libaria_widget_arc.o
 .text.laArcWidget_GetCenterAngle
                0x00000000       0x18 build/pic32mz_da_sk_intddr_meb2/production/_ext/1907747181/libaria_widget_arc.o
 .text.laArcWidget_SetCenterAngle
                0x00000000       0x44 build/pic32mz_da_sk_intddr_meb2/production/_ext/1907747181/libaria_widget_arc.o
 .text.laArcWidget_GetRoundEdge
                0x00000000       0x18 build/pic32mz_da_sk_intddr_meb2/production/_ext/1907747181/libaria_widget_arc.o
 .text.laArcWidget_SetRoundEdge
                0x00000000       0x1c build/pic32mz_da_sk_intddr_meb2/production/_ext/1907747181/libaria_widget_arc.o
 .text          0x00000000        0x0 build/pic32mz_da_sk_intddr_meb2/production/_ext/1907747181/libaria_widget_arc_skin_classic.o
 .data          0x00000000        0x0 build/pic32mz_da_sk_intddr_meb2/production/_ext/1907747181/libaria_widget_arc_skin_classic.o
 .bss           0x00000000        0x0 build/pic32mz_da_sk_intddr_meb2/production/_ext/1907747181/libaria_widget_arc_skin_classic.o
 .reginfo       0x00000000       0x18 build/pic32mz_da_sk_intddr_meb2/production/_ext/1907747181/libaria_widget_arc_skin_classic.o
 .text.nextState
                0x00000000       0xa8 build/pic32mz_da_sk_intddr_meb2/production/_ext/1907747181/libaria_widget_arc_skin_classic.o
 .text.drawBorder
                0x00000000       0x58 build/pic32mz_da_sk_intddr_meb2/production/_ext/1907747181/libaria_widget_arc_skin_classic.o
 .text._laArcWidget_GetMidPointAtAngle
                0x00000000       0xd8 build/pic32mz_da_sk_intddr_meb2/production/_ext/1907747181/libaria_widget_arc_skin_classic.o
 .text.drawArc  0x00000000      0x1cc build/pic32mz_da_sk_intddr_meb2/production/_ext/1907747181/libaria_widget_arc_skin_classic.o
 .text.drawBackground
                0x00000000       0x2c build/pic32mz_da_sk_intddr_meb2/production/_ext/1907747181/libaria_widget_arc_skin_classic.o
 .text._laArcWidget_Paint
                0x00000000       0x9c build/pic32mz_da_sk_intddr_meb2/production/_ext/1907747181/libaria_widget_arc_skin_classic.o
 .text          0x00000000        0x0 build/pic32mz_da_sk_intddr_meb2/production/_ext/1907747181/libaria_widget_circular_gauge.o
 .data          0x00000000        0x0 build/pic32mz_da_sk_intddr_meb2/production/_ext/1907747181/libaria_widget_circular_gauge.o
 .bss           0x00000000        0x0 build/pic32mz_da_sk_intddr_meb2/production/_ext/1907747181/libaria_widget_circular_gauge.o
 .reginfo       0x00000000       0x18 build/pic32mz_da_sk_intddr_meb2/production/_ext/1907747181/libaria_widget_circular_gauge.o
 .text._laCircularGaugeWidget_Destructor
                0x00000000       0x40 build/pic32mz_da_sk_intddr_meb2/production/_ext/1907747181/libaria_widget_circular_gauge.o
 .text._laCircularGaugeWidget_Constructor
                0x00000000       0xd0 build/pic32mz_da_sk_intddr_meb2/production/_ext/1907747181/libaria_widget_circular_gauge.o
 .text.laCircularGaugeWidget_New
                0x00000000       0x58 build/pic32mz_da_sk_intddr_meb2/production/_ext/1907747181/libaria_widget_circular_gauge.o
 .text.laCircularGaugeWidget_GetRadius
                0x00000000       0x18 build/pic32mz_da_sk_intddr_meb2/production/_ext/1907747181/libaria_widget_circular_gauge.o
 .text.laCircularGaugeWidget_SetRadius
                0x00000000       0x44 build/pic32mz_da_sk_intddr_meb2/production/_ext/1907747181/libaria_widget_circular_gauge.o
 .text.laCircularGaugeWidget_GetStartAngle
                0x00000000       0x18 build/pic32mz_da_sk_intddr_meb2/production/_ext/1907747181/libaria_widget_circular_gauge.o
 .text.laCircularGaugeWidget_SetStartAngle
                0x00000000       0x44 build/pic32mz_da_sk_intddr_meb2/production/_ext/1907747181/libaria_widget_circular_gauge.o
 .text.laCircularGaugeWidget_GetCenterAngle
                0x00000000       0x18 build/pic32mz_da_sk_intddr_meb2/production/_ext/1907747181/libaria_widget_circular_gauge.o
 .text.laCircularGaugeWidget_SetCenterAngle
                0x00000000       0x70 build/pic32mz_da_sk_intddr_meb2/production/_ext/1907747181/libaria_widget_circular_gauge.o
 .text.laCircularGaugeWidget_GetDirection
                0x00000000       0x18 build/pic32mz_da_sk_intddr_meb2/production/_ext/1907747181/libaria_widget_circular_gauge.o
 .text.laCircularGaugeWidget_SetDirection
                0x00000000       0x44 build/pic32mz_da_sk_intddr_meb2/production/_ext/1907747181/libaria_widget_circular_gauge.o
 .text.laCircularGaugeWidget_AddValueArc
                0x00000000       0xfc build/pic32mz_da_sk_intddr_meb2/production/_ext/1907747181/libaria_widget_circular_gauge.o
 .text.laCircularGaugeWidget_AddAngularArc
                0x00000000       0xe8 build/pic32mz_da_sk_intddr_meb2/production/_ext/1907747181/libaria_widget_circular_gauge.o
 .text.laCircularGaugeWidget_DeleteArcs
                0x00000000       0x34 build/pic32mz_da_sk_intddr_meb2/production/_ext/1907747181/libaria_widget_circular_gauge.o
 .text.laCircularGaugeWidget_AddMinorTicks
                0x00000000      0x114 build/pic32mz_da_sk_intddr_meb2/production/_ext/1907747181/libaria_widget_circular_gauge.o
 .text.laCircularGaugeWidget_DeleteMinorTicks
                0x00000000       0x34 build/pic32mz_da_sk_intddr_meb2/production/_ext/1907747181/libaria_widget_circular_gauge.o
 .text.laCircularGaugeWidget_AddMinorTickLabels
                0x00000000      0x114 build/pic32mz_da_sk_intddr_meb2/production/_ext/1907747181/libaria_widget_circular_gauge.o
 .text.laCircularGaugeWidget_DeleteMinorTickLabels
                0x00000000       0x34 build/pic32mz_da_sk_intddr_meb2/production/_ext/1907747181/libaria_widget_circular_gauge.o
 .text.laCircularGaugeWidget_GetValue
                0x00000000       0x18 build/pic32mz_da_sk_intddr_meb2/production/_ext/1907747181/libaria_widget_circular_gauge.o
 .text.laCircularGaugeWidget_SetValue
                0x00000000       0x78 build/pic32mz_da_sk_intddr_meb2/production/_ext/1907747181/libaria_widget_circular_gauge.o
 .text.laCircularGaugeWidget_GetStartValue
                0x00000000       0x18 build/pic32mz_da_sk_intddr_meb2/production/_ext/1907747181/libaria_widget_circular_gauge.o
 .text.laCircularGaugeWidget_SetStartValue
                0x00000000       0x44 build/pic32mz_da_sk_intddr_meb2/production/_ext/1907747181/libaria_widget_circular_gauge.o
 .text.laCircularGaugeWidget_GetEndValue
                0x00000000       0x18 build/pic32mz_da_sk_intddr_meb2/production/_ext/1907747181/libaria_widget_circular_gauge.o
 .text.laCircularGaugeWidget_SetEndValue
                0x00000000       0x44 build/pic32mz_da_sk_intddr_meb2/production/_ext/1907747181/libaria_widget_circular_gauge.o
 .text.laCircularGaugeWidget_GetTicksVisible
                0x00000000       0x18 build/pic32mz_da_sk_intddr_meb2/production/_ext/1907747181/libaria_widget_circular_gauge.o
 .text.laCircularGaugeWidget_SetTicksVisible
                0x00000000       0x44 build/pic32mz_da_sk_intddr_meb2/production/_ext/1907747181/libaria_widget_circular_gauge.o
 .text.laCircularGaugeWidget_GetTickValue
                0x00000000       0x18 build/pic32mz_da_sk_intddr_meb2/production/_ext/1907747181/libaria_widget_circular_gauge.o
 .text.laCircularGaugeWidget_SetTickValue
                0x00000000       0x44 build/pic32mz_da_sk_intddr_meb2/production/_ext/1907747181/libaria_widget_circular_gauge.o
 .text.laCircularGaugeWidget_GetTickLength
                0x00000000       0x18 build/pic32mz_da_sk_intddr_meb2/production/_ext/1907747181/libaria_widget_circular_gauge.o
 .text.laCircularGaugeWidget_SetTickLength
                0x00000000       0x60 build/pic32mz_da_sk_intddr_meb2/production/_ext/1907747181/libaria_widget_circular_gauge.o
 .text.laCircularGaugeWidget_GetTickLabelsVisible
                0x00000000       0x18 build/pic32mz_da_sk_intddr_meb2/production/_ext/1907747181/libaria_widget_circular_gauge.o
 .text.laCircularGaugeWidget_SetTickLabelsVisible
                0x00000000       0x44 build/pic32mz_da_sk_intddr_meb2/production/_ext/1907747181/libaria_widget_circular_gauge.o
 .text.laCircularGaugeWidget_GetHandVisible
                0x00000000       0x18 build/pic32mz_da_sk_intddr_meb2/production/_ext/1907747181/libaria_widget_circular_gauge.o
 .text.laCircularGaugeWidget_SetHandVisible
                0x00000000       0x44 build/pic32mz_da_sk_intddr_meb2/production/_ext/1907747181/libaria_widget_circular_gauge.o
 .text.laCircularGaugeWidget_GetHandRadius
                0x00000000       0x18 build/pic32mz_da_sk_intddr_meb2/production/_ext/1907747181/libaria_widget_circular_gauge.o
 .text.laCircularGaugeWidget_SetHandRadius
                0x00000000       0x60 build/pic32mz_da_sk_intddr_meb2/production/_ext/1907747181/libaria_widget_circular_gauge.o
 .text.laCircularGaugeWidget_GetCenterCircleVisible
                0x00000000       0x18 build/pic32mz_da_sk_intddr_meb2/production/_ext/1907747181/libaria_widget_circular_gauge.o
 .text.laCircularGaugeWidget_SetCenterCircleVisible
                0x00000000       0x44 build/pic32mz_da_sk_intddr_meb2/production/_ext/1907747181/libaria_widget_circular_gauge.o
 .text.laCircularGaugeWidget_GetCenterCircleRadius
                0x00000000       0x18 build/pic32mz_da_sk_intddr_meb2/production/_ext/1907747181/libaria_widget_circular_gauge.o
 .text.laCircularGaugeWidget_SetCenterCircleRadius
                0x00000000       0x60 build/pic32mz_da_sk_intddr_meb2/production/_ext/1907747181/libaria_widget_circular_gauge.o
 .text.laCircularGaugeWidget_GetCenterCircleThickness
                0x00000000       0x18 build/pic32mz_da_sk_intddr_meb2/production/_ext/1907747181/libaria_widget_circular_gauge.o
 .text.laCircularGaugeWidget_SetCenterCircleThickness
                0x00000000       0x5c build/pic32mz_da_sk_intddr_meb2/production/_ext/1907747181/libaria_widget_circular_gauge.o
 .text.laCircularGaugeWidget_SetStringTable
                0x00000000       0x48 build/pic32mz_da_sk_intddr_meb2/production/_ext/1907747181/libaria_widget_circular_gauge.o
 .text.laCircularGaugeWidget_SetTicksLabelsStringID
                0x00000000       0x44 build/pic32mz_da_sk_intddr_meb2/production/_ext/1907747181/libaria_widget_circular_gauge.o
 .text.laCircularGaugeWidget_SetValueChangedEventCallback
                0x00000000       0x30 build/pic32mz_da_sk_intddr_meb2/production/_ext/1907747181/libaria_widget_circular_gauge.o
 .text          0x00000000        0x0 build/pic32mz_da_sk_intddr_meb2/production/_ext/1907747181/libaria_widget_circular_gauge_skin_classic.o
 .data          0x00000000        0x0 build/pic32mz_da_sk_intddr_meb2/production/_ext/1907747181/libaria_widget_circular_gauge_skin_classic.o
 .bss           0x00000000        0x0 build/pic32mz_da_sk_intddr_meb2/production/_ext/1907747181/libaria_widget_circular_gauge_skin_classic.o
 .reginfo       0x00000000       0x18 build/pic32mz_da_sk_intddr_meb2/production/_ext/1907747181/libaria_widget_circular_gauge_skin_classic.o
 .text.nextState
                0x00000000       0xa8 build/pic32mz_da_sk_intddr_meb2/production/_ext/1907747181/libaria_widget_circular_gauge_skin_classic.o
 .text.drawBorder
                0x00000000       0x58 build/pic32mz_da_sk_intddr_meb2/production/_ext/1907747181/libaria_widget_circular_gauge_skin_classic.o
 .text.drawTicksAtAngle
                0x00000000      0x11c build/pic32mz_da_sk_intddr_meb2/production/_ext/1907747181/libaria_widget_circular_gauge_skin_classic.o
 .text.drawBackground
                0x00000000       0x2c build/pic32mz_da_sk_intddr_meb2/production/_ext/1907747181/libaria_widget_circular_gauge_skin_classic.o
 .rodata        0x00000000        0x4 build/pic32mz_da_sk_intddr_meb2/production/_ext/1907747181/libaria_widget_circular_gauge_skin_classic.o
 .text.drawTickLabelsAtAngleWithValue
                0x00000000      0x62c build/pic32mz_da_sk_intddr_meb2/production/_ext/1907747181/libaria_widget_circular_gauge_skin_classic.o
 .text.drawCircularGauge
                0x00000000      0x898 build/pic32mz_da_sk_intddr_meb2/production/_ext/1907747181/libaria_widget_circular_gauge_skin_classic.o
 .text._laCircularGaugeWidget_Paint
                0x00000000       0x9c build/pic32mz_da_sk_intddr_meb2/production/_ext/1907747181/libaria_widget_circular_gauge_skin_classic.o
 .text          0x00000000        0x0 build/pic32mz_da_sk_intddr_meb2/production/_ext/1907747181/libaria_widget_circular_slider.o
 .data          0x00000000        0x0 build/pic32mz_da_sk_intddr_meb2/production/_ext/1907747181/libaria_widget_circular_slider.o
 .bss           0x00000000        0x0 build/pic32mz_da_sk_intddr_meb2/production/_ext/1907747181/libaria_widget_circular_slider.o
 .reginfo       0x00000000       0x18 build/pic32mz_da_sk_intddr_meb2/production/_ext/1907747181/libaria_widget_circular_slider.o
 .text.touchUp  0x00000000       0x48 build/pic32mz_da_sk_intddr_meb2/production/_ext/1907747181/libaria_widget_circular_slider.o
 .text.getSliderValueAtPoint
                0x00000000      0x308 build/pic32mz_da_sk_intddr_meb2/production/_ext/1907747181/libaria_widget_circular_slider.o
 .text._laCircularSliderWidget_Destructor
                0x00000000       0x1c build/pic32mz_da_sk_intddr_meb2/production/_ext/1907747181/libaria_widget_circular_slider.o
 .text._laCircularSliderWidget_GetCircleCenterPointAtValue
                0x00000000      0x188 build/pic32mz_da_sk_intddr_meb2/production/_ext/1907747181/libaria_widget_circular_slider.o
 .text._laCircularSliderWidget_Constructor
                0x00000000      0x14c build/pic32mz_da_sk_intddr_meb2/production/_ext/1907747181/libaria_widget_circular_slider.o
 .text.laCircularSliderWidget_New
                0x00000000       0x58 build/pic32mz_da_sk_intddr_meb2/production/_ext/1907747181/libaria_widget_circular_slider.o
 .text.laCircularSliderWidget_GetRadius
                0x00000000       0x18 build/pic32mz_da_sk_intddr_meb2/production/_ext/1907747181/libaria_widget_circular_slider.o
 .text.laCircularSliderWidget_SetRadius
                0x00000000       0x70 build/pic32mz_da_sk_intddr_meb2/production/_ext/1907747181/libaria_widget_circular_slider.o
 .text.laCircularSliderWidget_GetStartAngle
                0x00000000       0x18 build/pic32mz_da_sk_intddr_meb2/production/_ext/1907747181/libaria_widget_circular_slider.o
 .text.laCircularSliderWidget_SetStartAngle
                0x00000000       0x80 build/pic32mz_da_sk_intddr_meb2/production/_ext/1907747181/libaria_widget_circular_slider.o
 .text.laCircularSliderWidget_GetStartValue
                0x00000000       0x18 build/pic32mz_da_sk_intddr_meb2/production/_ext/1907747181/libaria_widget_circular_slider.o
 .text.laCircularSliderWidget_SetStartValue
                0x00000000       0x90 build/pic32mz_da_sk_intddr_meb2/production/_ext/1907747181/libaria_widget_circular_slider.o
 .text.laCircularSliderWidget_GetEndValue
                0x00000000       0x18 build/pic32mz_da_sk_intddr_meb2/production/_ext/1907747181/libaria_widget_circular_slider.o
 .text.laCircularSliderWidget_SetEndValue
                0x00000000       0x90 build/pic32mz_da_sk_intddr_meb2/production/_ext/1907747181/libaria_widget_circular_slider.o
 .text.laCircularSliderWidget_GetValue
                0x00000000       0x18 build/pic32mz_da_sk_intddr_meb2/production/_ext/1907747181/libaria_widget_circular_slider.o
 .text.laCircularSliderWidget_SetValue
                0x00000000       0x80 build/pic32mz_da_sk_intddr_meb2/production/_ext/1907747181/libaria_widget_circular_slider.o
 .text.touchMoved
                0x00000000      0x138 build/pic32mz_da_sk_intddr_meb2/production/_ext/1907747181/libaria_widget_circular_slider.o
 .text.touchDown
                0x00000000      0x1b0 build/pic32mz_da_sk_intddr_meb2/production/_ext/1907747181/libaria_widget_circular_slider.o
 .text.laCircularSliderWidget_GetRoundEdges
                0x00000000       0x18 build/pic32mz_da_sk_intddr_meb2/production/_ext/1907747181/libaria_widget_circular_slider.o
 .text.laCircularSliderWidget_SetRoundEdges
                0x00000000       0x44 build/pic32mz_da_sk_intddr_meb2/production/_ext/1907747181/libaria_widget_circular_slider.o
 .text.laCircularSliderWidget_GetStickyButton
                0x00000000       0x18 build/pic32mz_da_sk_intddr_meb2/production/_ext/1907747181/libaria_widget_circular_slider.o
 .text.laCircularSliderWidget_SetStickyButton
                0x00000000       0x30 build/pic32mz_da_sk_intddr_meb2/production/_ext/1907747181/libaria_widget_circular_slider.o
 .text.laCircularSliderWidget_GetTouchOnButtonOnly
                0x00000000       0x18 build/pic32mz_da_sk_intddr_meb2/production/_ext/1907747181/libaria_widget_circular_slider.o
 .text.laCircularSliderWidget_SetTouchOnButtonOnly
                0x00000000       0x30 build/pic32mz_da_sk_intddr_meb2/production/_ext/1907747181/libaria_widget_circular_slider.o
 .text.laCircularSliderWidget_GetArcThickness
                0x00000000       0x74 build/pic32mz_da_sk_intddr_meb2/production/_ext/1907747181/libaria_widget_circular_slider.o
 .text.laCircularSliderWidget_SetArcThickness
                0x00000000      0x110 build/pic32mz_da_sk_intddr_meb2/production/_ext/1907747181/libaria_widget_circular_slider.o
 .text.laCircularSliderWidget_GetArcRadius
                0x00000000       0x2c build/pic32mz_da_sk_intddr_meb2/production/_ext/1907747181/libaria_widget_circular_slider.o
 .text.laCircularSliderWidget_SetArcRadius
                0x00000000       0x74 build/pic32mz_da_sk_intddr_meb2/production/_ext/1907747181/libaria_widget_circular_slider.o
 .text.laCircularSliderWidget_GetArcScheme
                0x00000000       0x2c build/pic32mz_da_sk_intddr_meb2/production/_ext/1907747181/libaria_widget_circular_slider.o
 .text.laCircularSliderWidget_SetArcScheme
                0x00000000       0x48 build/pic32mz_da_sk_intddr_meb2/production/_ext/1907747181/libaria_widget_circular_slider.o
 .text.laCircularSliderWidget_GetArcVisible
                0x00000000       0x74 build/pic32mz_da_sk_intddr_meb2/production/_ext/1907747181/libaria_widget_circular_slider.o
 .text.laCircularSliderWidget_SetArcVisible
                0x00000000       0xc8 build/pic32mz_da_sk_intddr_meb2/production/_ext/1907747181/libaria_widget_circular_slider.o
 .text.laCircularSliderWidget_GetDirection
                0x00000000       0x18 build/pic32mz_da_sk_intddr_meb2/production/_ext/1907747181/libaria_widget_circular_slider.o
 .text.laCircularSliderWidget_SetDirection
                0x00000000       0x44 build/pic32mz_da_sk_intddr_meb2/production/_ext/1907747181/libaria_widget_circular_slider.o
 .text.laCircularSliderWidget_SetPressedEventCallback
                0x00000000       0x1c build/pic32mz_da_sk_intddr_meb2/production/_ext/1907747181/libaria_widget_circular_slider.o
 .text.laCircularSliderWidget_SetValueChangedEventCallback
                0x00000000       0x1c build/pic32mz_da_sk_intddr_meb2/production/_ext/1907747181/libaria_widget_circular_slider.o
 .text.laCircularSliderWidget_SetReleasedEventCallback
                0x00000000       0x1c build/pic32mz_da_sk_intddr_meb2/production/_ext/1907747181/libaria_widget_circular_slider.o
 .rodata        0x00000000        0xc build/pic32mz_da_sk_intddr_meb2/production/_ext/1907747181/libaria_widget_circular_slider.o
 .text          0x00000000        0x0 build/pic32mz_da_sk_intddr_meb2/production/_ext/1907747181/libaria_widget_circular_slider_skin_classic.o
 .data          0x00000000        0x0 build/pic32mz_da_sk_intddr_meb2/production/_ext/1907747181/libaria_widget_circular_slider_skin_classic.o
 .bss           0x00000000        0x0 build/pic32mz_da_sk_intddr_meb2/production/_ext/1907747181/libaria_widget_circular_slider_skin_classic.o
 .reginfo       0x00000000       0x18 build/pic32mz_da_sk_intddr_meb2/production/_ext/1907747181/libaria_widget_circular_slider_skin_classic.o
 .text.nextState
                0x00000000       0xa8 build/pic32mz_da_sk_intddr_meb2/production/_ext/1907747181/libaria_widget_circular_slider_skin_classic.o
 .text.drawBorder
                0x00000000       0x58 build/pic32mz_da_sk_intddr_meb2/production/_ext/1907747181/libaria_widget_circular_slider_skin_classic.o
 .text.drawCircularSlider
                0x00000000      0x584 build/pic32mz_da_sk_intddr_meb2/production/_ext/1907747181/libaria_widget_circular_slider_skin_classic.o
 .text.drawBackground
                0x00000000       0x50 build/pic32mz_da_sk_intddr_meb2/production/_ext/1907747181/libaria_widget_circular_slider_skin_classic.o
 .text._laCircularSliderWidget_Paint
                0x00000000       0x9c build/pic32mz_da_sk_intddr_meb2/production/_ext/1907747181/libaria_widget_circular_slider_skin_classic.o
 .text          0x00000000        0x0 build/pic32mz_da_sk_intddr_meb2/production/_ext/1907747181/libaria_widget_pie_chart.o
 .data          0x00000000        0x0 build/pic32mz_da_sk_intddr_meb2/production/_ext/1907747181/libaria_widget_pie_chart.o
 .bss           0x00000000        0x0 build/pic32mz_da_sk_intddr_meb2/production/_ext/1907747181/libaria_widget_pie_chart.o
 .reginfo       0x00000000       0x18 build/pic32mz_da_sk_intddr_meb2/production/_ext/1907747181/libaria_widget_pie_chart.o
 .text.touchUp  0x00000000        0x8 build/pic32mz_da_sk_intddr_meb2/production/_ext/1907747181/libaria_widget_pie_chart.o
 .text.touchMoved
                0x00000000        0x8 build/pic32mz_da_sk_intddr_meb2/production/_ext/1907747181/libaria_widget_pie_chart.o
 .text.touchDown
                0x00000000      0x5b0 build/pic32mz_da_sk_intddr_meb2/production/_ext/1907747181/libaria_widget_pie_chart.o
 .text._laPieChartWidget_Destructor
                0x00000000       0x30 build/pic32mz_da_sk_intddr_meb2/production/_ext/1907747181/libaria_widget_pie_chart.o
 .text._laPieChartWidget_Constructor
                0x00000000       0xa0 build/pic32mz_da_sk_intddr_meb2/production/_ext/1907747181/libaria_widget_pie_chart.o
 .text.laPieChartWidget_New
                0x00000000       0x58 build/pic32mz_da_sk_intddr_meb2/production/_ext/1907747181/libaria_widget_pie_chart.o
 .text.laPieChartWidget_GetStartAngle
                0x00000000       0x18 build/pic32mz_da_sk_intddr_meb2/production/_ext/1907747181/libaria_widget_pie_chart.o
 .text.laPieChartWidget_SetStartAngle
                0x00000000       0x44 build/pic32mz_da_sk_intddr_meb2/production/_ext/1907747181/libaria_widget_pie_chart.o
 .text.laPieChartWidget_GetCenterAngle
                0x00000000       0x18 build/pic32mz_da_sk_intddr_meb2/production/_ext/1907747181/libaria_widget_pie_chart.o
 .text.laPieChartWidget_SetCenterAngle
                0x00000000       0x44 build/pic32mz_da_sk_intddr_meb2/production/_ext/1907747181/libaria_widget_pie_chart.o
 .text.laPieChartWidget_AddEntry
                0x00000000       0xb8 build/pic32mz_da_sk_intddr_meb2/production/_ext/1907747181/libaria_widget_pie_chart.o
 .text.laPieChartWidget_DeletePies
                0x00000000       0x34 build/pic32mz_da_sk_intddr_meb2/production/_ext/1907747181/libaria_widget_pie_chart.o
 .text.laPieChartWidget_GetEntryValue
                0x00000000       0x3c build/pic32mz_da_sk_intddr_meb2/production/_ext/1907747181/libaria_widget_pie_chart.o
 .text.laPieChartWidget_SetEntryValue
                0x00000000       0x6c build/pic32mz_da_sk_intddr_meb2/production/_ext/1907747181/libaria_widget_pie_chart.o
 .text.laPieChartWidget_GetEntryRadius
                0x00000000       0x3c build/pic32mz_da_sk_intddr_meb2/production/_ext/1907747181/libaria_widget_pie_chart.o
 .text.laPieChartWidget_SetEntryRadius
                0x00000000       0x6c build/pic32mz_da_sk_intddr_meb2/production/_ext/1907747181/libaria_widget_pie_chart.o
 .text.laPieChartWidget_GetEntryOffset
                0x00000000       0x3c build/pic32mz_da_sk_intddr_meb2/production/_ext/1907747181/libaria_widget_pie_chart.o
 .text.laPieChartWidget_SetEntryOffset
                0x00000000       0x6c build/pic32mz_da_sk_intddr_meb2/production/_ext/1907747181/libaria_widget_pie_chart.o
 .text.laPieChartWidget_SetEntryScheme
                0x00000000       0x64 build/pic32mz_da_sk_intddr_meb2/production/_ext/1907747181/libaria_widget_pie_chart.o
 .text.laPieChartWidget_GetEntryScheme
                0x00000000       0x3c build/pic32mz_da_sk_intddr_meb2/production/_ext/1907747181/libaria_widget_pie_chart.o
 .text.laPieChartWidget_SetPressedEventCallback
                0x00000000       0x1c build/pic32mz_da_sk_intddr_meb2/production/_ext/1907747181/libaria_widget_pie_chart.o
 .text.laPieChartWidget_SetStringTable
                0x00000000       0x48 build/pic32mz_da_sk_intddr_meb2/production/_ext/1907747181/libaria_widget_pie_chart.o
 .text.laPieChartWidget_SetLabelsStringID
                0x00000000       0x44 build/pic32mz_da_sk_intddr_meb2/production/_ext/1907747181/libaria_widget_pie_chart.o
 .text.laPieChartWidget_GetLabelsVisible
                0x00000000       0x18 build/pic32mz_da_sk_intddr_meb2/production/_ext/1907747181/libaria_widget_pie_chart.o
 .text.laPieChartWidget_SetLabelsVisible
                0x00000000       0x44 build/pic32mz_da_sk_intddr_meb2/production/_ext/1907747181/libaria_widget_pie_chart.o
 .text.laPieChartWidget_GetLabelsOffset
                0x00000000       0x18 build/pic32mz_da_sk_intddr_meb2/production/_ext/1907747181/libaria_widget_pie_chart.o
 .text.laPieChartWidget_SetLabelsOffset
                0x00000000       0x44 build/pic32mz_da_sk_intddr_meb2/production/_ext/1907747181/libaria_widget_pie_chart.o
 .rodata        0x00000000        0x8 build/pic32mz_da_sk_intddr_meb2/production/_ext/1907747181/libaria_widget_pie_chart.o
 .text          0x00000000        0x0 build/pic32mz_da_sk_intddr_meb2/production/_ext/1907747181/libaria_widget_pie_chart_skin_classic.o
 .data          0x00000000        0x0 build/pic32mz_da_sk_intddr_meb2/production/_ext/1907747181/libaria_widget_pie_chart_skin_classic.o
 .bss           0x00000000        0x0 build/pic32mz_da_sk_intddr_meb2/production/_ext/1907747181/libaria_widget_pie_chart_skin_classic.o
 .reginfo       0x00000000       0x18 build/pic32mz_da_sk_intddr_meb2/production/_ext/1907747181/libaria_widget_pie_chart_skin_classic.o
 .text.nextState
                0x00000000       0xa8 build/pic32mz_da_sk_intddr_meb2/production/_ext/1907747181/libaria_widget_pie_chart_skin_classic.o
 .text.drawBorder
                0x00000000       0x58 build/pic32mz_da_sk_intddr_meb2/production/_ext/1907747181/libaria_widget_pie_chart_skin_classic.o
 .rodata        0x00000000        0x8 build/pic32mz_da_sk_intddr_meb2/production/_ext/1907747181/libaria_widget_pie_chart_skin_classic.o
 .text.drawPieChart
                0x00000000      0x774 build/pic32mz_da_sk_intddr_meb2/production/_ext/1907747181/libaria_widget_pie_chart_skin_classic.o
 .text.drawBackground
                0x00000000       0x2c build/pic32mz_da_sk_intddr_meb2/production/_ext/1907747181/libaria_widget_pie_chart_skin_classic.o
 .text._laPieChartWidget_Paint
                0x00000000       0x9c build/pic32mz_da_sk_intddr_meb2/production/_ext/1907747181/libaria_widget_pie_chart_skin_classic.o
 .text          0x00000000        0x0 build/pic32mz_da_sk_intddr_meb2/production/_ext/1907747181/libaria_widget_bar_graph.o
 .data          0x00000000        0x0 build/pic32mz_da_sk_intddr_meb2/production/_ext/1907747181/libaria_widget_bar_graph.o
 .bss           0x00000000        0x0 build/pic32mz_da_sk_intddr_meb2/production/_ext/1907747181/libaria_widget_bar_graph.o
 .reginfo       0x00000000       0x18 build/pic32mz_da_sk_intddr_meb2/production/_ext/1907747181/libaria_widget_bar_graph.o
 .text._laBarGraphWidget_Constructor
                0x00000000       0xb8 build/pic32mz_da_sk_intddr_meb2/production/_ext/1907747181/libaria_widget_bar_graph.o
 .text.laBarGraphWidget_New
                0x00000000       0x58 build/pic32mz_da_sk_intddr_meb2/production/_ext/1907747181/libaria_widget_bar_graph.o
 .text.laBarGraphWidget_GetTickLength
                0x00000000       0x18 build/pic32mz_da_sk_intddr_meb2/production/_ext/1907747181/libaria_widget_bar_graph.o
 .text.laBarGraphWidget_SetTickLength
                0x00000000       0x44 build/pic32mz_da_sk_intddr_meb2/production/_ext/1907747181/libaria_widget_bar_graph.o
 .text.laBarGraphWidget_GetStacked
                0x00000000       0x18 build/pic32mz_da_sk_intddr_meb2/production/_ext/1907747181/libaria_widget_bar_graph.o
 .text.laBarGraphWidget_SetStacked
                0x00000000       0x44 build/pic32mz_da_sk_intddr_meb2/production/_ext/1907747181/libaria_widget_bar_graph.o
 .text.laBarGraphWidget_GetMaxValue
                0x00000000       0x18 build/pic32mz_da_sk_intddr_meb2/production/_ext/1907747181/libaria_widget_bar_graph.o
 .text.laBarGraphWidget_SetMaxValue
                0x00000000       0x5c build/pic32mz_da_sk_intddr_meb2/production/_ext/1907747181/libaria_widget_bar_graph.o
 .text.laBarGraphWidget_GetMinValue
                0x00000000       0x18 build/pic32mz_da_sk_intddr_meb2/production/_ext/1907747181/libaria_widget_bar_graph.o
 .text.laBarGraphWidget_SetMinValue
                0x00000000       0x5c build/pic32mz_da_sk_intddr_meb2/production/_ext/1907747181/libaria_widget_bar_graph.o
 .text.laBarGraphWidget_GetValueAxisLabelsVisible
                0x00000000       0x18 build/pic32mz_da_sk_intddr_meb2/production/_ext/1907747181/libaria_widget_bar_graph.o
 .text.laBarGraphWidget_SetValueAxisLabelsVisible
                0x00000000       0x44 build/pic32mz_da_sk_intddr_meb2/production/_ext/1907747181/libaria_widget_bar_graph.o
 .text.laBarGraphWidget_GetFillGraphArea
                0x00000000       0x18 build/pic32mz_da_sk_intddr_meb2/production/_ext/1907747181/libaria_widget_bar_graph.o
 .text.laBarGraphWidget_SetFillGraphArea
                0x00000000       0x44 build/pic32mz_da_sk_intddr_meb2/production/_ext/1907747181/libaria_widget_bar_graph.o
 .text.laBarGraphWidget_GetGridlinesVisible
                0x00000000       0x18 build/pic32mz_da_sk_intddr_meb2/production/_ext/1907747181/libaria_widget_bar_graph.o
 .text.laBarGraphWidget_SetGridlinesVisible
                0x00000000       0x44 build/pic32mz_da_sk_intddr_meb2/production/_ext/1907747181/libaria_widget_bar_graph.o
 .text.laBarGraphWidget_GetValueAxisTicksVisible
                0x00000000       0x18 build/pic32mz_da_sk_intddr_meb2/production/_ext/1907747181/libaria_widget_bar_graph.o
 .text.laBarGraphWidget_SetValueAxisTicksVisible
                0x00000000       0x44 build/pic32mz_da_sk_intddr_meb2/production/_ext/1907747181/libaria_widget_bar_graph.o
 .text.laBarGraphWidget_GetValueAxisTickInterval
                0x00000000       0x18 build/pic32mz_da_sk_intddr_meb2/production/_ext/1907747181/libaria_widget_bar_graph.o
 .text.laBarGraphWidget_SetValueAxisTickInterval
                0x00000000       0x44 build/pic32mz_da_sk_intddr_meb2/production/_ext/1907747181/libaria_widget_bar_graph.o
 .text.laBarGraphWidget_GetValueAxisSubtickInterval
                0x00000000       0x18 build/pic32mz_da_sk_intddr_meb2/production/_ext/1907747181/libaria_widget_bar_graph.o
 .text.laBarGraphWidget_SetValueAxisSubtickInterval
                0x00000000       0x44 build/pic32mz_da_sk_intddr_meb2/production/_ext/1907747181/libaria_widget_bar_graph.o
 .text.laBarGraphWidget_GetValueAxisSubticksVisible
                0x00000000       0x18 build/pic32mz_da_sk_intddr_meb2/production/_ext/1907747181/libaria_widget_bar_graph.o
 .text.laBarGraphWidget_SetValueAxisSubticksVisible
                0x00000000       0x44 build/pic32mz_da_sk_intddr_meb2/production/_ext/1907747181/libaria_widget_bar_graph.o
 .text.laBarGraphWidget_GetCategoryAxisTicksVisible
                0x00000000       0x18 build/pic32mz_da_sk_intddr_meb2/production/_ext/1907747181/libaria_widget_bar_graph.o
 .text.laBarGraphWidget_SetCategoryAxisTicksVisible
                0x00000000       0x44 build/pic32mz_da_sk_intddr_meb2/production/_ext/1907747181/libaria_widget_bar_graph.o
 .text.laBarGraphWidget_AddCategory
                0x00000000       0x90 build/pic32mz_da_sk_intddr_meb2/production/_ext/1907747181/libaria_widget_bar_graph.o
 .text.laBarGraphWidget_GetCategoryText
                0x00000000       0x6c build/pic32mz_da_sk_intddr_meb2/production/_ext/1907747181/libaria_widget_bar_graph.o
 .text.laBarGraphWidget_SetCategoryText
                0x00000000       0x8c build/pic32mz_da_sk_intddr_meb2/production/_ext/1907747181/libaria_widget_bar_graph.o
 .text.laBarGraphWidget_AddSeries
                0x00000000       0x9c build/pic32mz_da_sk_intddr_meb2/production/_ext/1907747181/libaria_widget_bar_graph.o
 .text.laBarGraphWidget_AddDataToSeries
                0x00000000       0xc8 build/pic32mz_da_sk_intddr_meb2/production/_ext/1907747181/libaria_widget_bar_graph.o
 .text.laBarGraphWidget_SetDataInSeries
                0x00000000       0xa0 build/pic32mz_da_sk_intddr_meb2/production/_ext/1907747181/libaria_widget_bar_graph.o
 .text.laBarGraphWidget_GetSeriesScheme
                0x00000000       0x54 build/pic32mz_da_sk_intddr_meb2/production/_ext/1907747181/libaria_widget_bar_graph.o
 .text.laBarGraphWidget_SetSeriesScheme
                0x00000000       0x84 build/pic32mz_da_sk_intddr_meb2/production/_ext/1907747181/libaria_widget_bar_graph.o
 .text.laBarGraphWidget_DestroyAll
                0x00000000       0xe4 build/pic32mz_da_sk_intddr_meb2/production/_ext/1907747181/libaria_widget_bar_graph.o
 .text._laBarGraphWidget_Destructor
                0x00000000       0x2c build/pic32mz_da_sk_intddr_meb2/production/_ext/1907747181/libaria_widget_bar_graph.o
 .text.laBarGraphWidget_SetStringTable
                0x00000000       0x48 build/pic32mz_da_sk_intddr_meb2/production/_ext/1907747181/libaria_widget_bar_graph.o
 .text.laBarGraphWidget_SetTicksLabelsStringID
                0x00000000       0x44 build/pic32mz_da_sk_intddr_meb2/production/_ext/1907747181/libaria_widget_bar_graph.o
 .text.laBarGraphWidget_GetCategoryAxisLabelsVisible
                0x00000000       0x18 build/pic32mz_da_sk_intddr_meb2/production/_ext/1907747181/libaria_widget_bar_graph.o
 .text.laBarGraphWidget_SetCategoryAxisLabelsVisible
                0x00000000       0x44 build/pic32mz_da_sk_intddr_meb2/production/_ext/1907747181/libaria_widget_bar_graph.o
 .text.laBarGraphWidget_GetValueAxisTicksPosition
                0x00000000       0x18 build/pic32mz_da_sk_intddr_meb2/production/_ext/1907747181/libaria_widget_bar_graph.o
 .text.laBarGraphWidget_SetValueAxisTicksPosition
                0x00000000       0x44 build/pic32mz_da_sk_intddr_meb2/production/_ext/1907747181/libaria_widget_bar_graph.o
 .text.laBarGraphWidget_GetValueAxisSubticksPosition
                0x00000000       0x18 build/pic32mz_da_sk_intddr_meb2/production/_ext/1907747181/libaria_widget_bar_graph.o
 .text.laBarGraphWidget_SetValueAxisSubticksPosition
                0x00000000       0x44 build/pic32mz_da_sk_intddr_meb2/production/_ext/1907747181/libaria_widget_bar_graph.o
 .text.laBarGraphWidget_GetCategoryAxisTicksPosition
                0x00000000       0x18 build/pic32mz_da_sk_intddr_meb2/production/_ext/1907747181/libaria_widget_bar_graph.o
 .text.laBarGraphWidget_SetCategoryAxisTicksPosition
                0x00000000       0x44 build/pic32mz_da_sk_intddr_meb2/production/_ext/1907747181/libaria_widget_bar_graph.o
 .text          0x00000000        0x0 build/pic32mz_da_sk_intddr_meb2/production/_ext/1907747181/libaria_widget_bar_graph_skin_classic.o
 .data          0x00000000        0x0 build/pic32mz_da_sk_intddr_meb2/production/_ext/1907747181/libaria_widget_bar_graph_skin_classic.o
 .bss           0x00000000        0x0 build/pic32mz_da_sk_intddr_meb2/production/_ext/1907747181/libaria_widget_bar_graph_skin_classic.o
 .reginfo       0x00000000       0x18 build/pic32mz_da_sk_intddr_meb2/production/_ext/1907747181/libaria_widget_bar_graph_skin_classic.o
 .text.nextState
                0x00000000       0xd0 build/pic32mz_da_sk_intddr_meb2/production/_ext/1907747181/libaria_widget_bar_graph_skin_classic.o
 .text.waitString
                0x00000000       0x68 build/pic32mz_da_sk_intddr_meb2/production/_ext/1907747181/libaria_widget_bar_graph_skin_classic.o
 .text.drawBorder
                0x00000000       0x58 build/pic32mz_da_sk_intddr_meb2/production/_ext/1907747181/libaria_widget_bar_graph_skin_classic.o
 .rodata        0x00000000        0x4 build/pic32mz_da_sk_intddr_meb2/production/_ext/1907747181/libaria_widget_bar_graph_skin_classic.o
 .text._laBarGraphWidget_GetGraphRect
                0x00000000      0x458 build/pic32mz_da_sk_intddr_meb2/production/_ext/1907747181/libaria_widget_bar_graph_skin_classic.o
 .text.drawString
                0x00000000      0x27c build/pic32mz_da_sk_intddr_meb2/production/_ext/1907747181/libaria_widget_bar_graph_skin_classic.o
 .text.drawTickLabelWithValue
                0x00000000      0x208 build/pic32mz_da_sk_intddr_meb2/production/_ext/1907747181/libaria_widget_bar_graph_skin_classic.o
 .text.drawBarGraph
                0x00000000      0xdc0 build/pic32mz_da_sk_intddr_meb2/production/_ext/1907747181/libaria_widget_bar_graph_skin_classic.o
 .text.drawBackground
                0x00000000       0x2c build/pic32mz_da_sk_intddr_meb2/production/_ext/1907747181/libaria_widget_bar_graph_skin_classic.o
 .text._laBarGraphWidget_Paint
                0x00000000       0x9c build/pic32mz_da_sk_intddr_meb2/production/_ext/1907747181/libaria_widget_bar_graph_skin_classic.o
 .text          0x00000000        0x0 build/pic32mz_da_sk_intddr_meb2/production/_ext/1907747181/libaria_widget_line_graph.o
 .data          0x00000000        0x0 build/pic32mz_da_sk_intddr_meb2/production/_ext/1907747181/libaria_widget_line_graph.o
 .bss           0x00000000        0x0 build/pic32mz_da_sk_intddr_meb2/production/_ext/1907747181/libaria_widget_line_graph.o
 .reginfo       0x00000000       0x18 build/pic32mz_da_sk_intddr_meb2/production/_ext/1907747181/libaria_widget_line_graph.o
 .text._laLineGraphWidget_Constructor
                0x00000000       0xbc build/pic32mz_da_sk_intddr_meb2/production/_ext/1907747181/libaria_widget_line_graph.o
 .text.laLineGraphWidget_New
                0x00000000       0x58 build/pic32mz_da_sk_intddr_meb2/production/_ext/1907747181/libaria_widget_line_graph.o
 .text.laLineGraphWidget_GetTickLength
                0x00000000       0x18 build/pic32mz_da_sk_intddr_meb2/production/_ext/1907747181/libaria_widget_line_graph.o
 .text.laLineGraphWidget_SetTickLength
                0x00000000       0x44 build/pic32mz_da_sk_intddr_meb2/production/_ext/1907747181/libaria_widget_line_graph.o
 .text.laLineGraphWidget_GetStacked
                0x00000000       0x18 build/pic32mz_da_sk_intddr_meb2/production/_ext/1907747181/libaria_widget_line_graph.o
 .text.laLineGraphWidget_SetStacked
                0x00000000       0x44 build/pic32mz_da_sk_intddr_meb2/production/_ext/1907747181/libaria_widget_line_graph.o
 .text.laLineGraphWidget_GetMaxValue
                0x00000000       0x18 build/pic32mz_da_sk_intddr_meb2/production/_ext/1907747181/libaria_widget_line_graph.o
 .text.laLineGraphWidget_SetMaxValue
                0x00000000       0x5c build/pic32mz_da_sk_intddr_meb2/production/_ext/1907747181/libaria_widget_line_graph.o
 .text.laLineGraphWidget_GetMinValue
                0x00000000       0x18 build/pic32mz_da_sk_intddr_meb2/production/_ext/1907747181/libaria_widget_line_graph.o
 .text.laLineGraphWidget_SetMinValue
                0x00000000       0x5c build/pic32mz_da_sk_intddr_meb2/production/_ext/1907747181/libaria_widget_line_graph.o
 .text.laLineGraphWidget_GetValueAxisLabelsVisible
                0x00000000       0x18 build/pic32mz_da_sk_intddr_meb2/production/_ext/1907747181/libaria_widget_line_graph.o
 .text.laLineGraphWidget_SetValueAxisLabelsVisible
                0x00000000       0x44 build/pic32mz_da_sk_intddr_meb2/production/_ext/1907747181/libaria_widget_line_graph.o
 .text.laLineGraphWidget_GetFillGraphArea
                0x00000000       0x18 build/pic32mz_da_sk_intddr_meb2/production/_ext/1907747181/libaria_widget_line_graph.o
 .text.laLineGraphWidget_SetFillGraphArea
                0x00000000       0x44 build/pic32mz_da_sk_intddr_meb2/production/_ext/1907747181/libaria_widget_line_graph.o
 .text.laLineGraphWidget_GetFillSeriesArea
                0x00000000       0x18 build/pic32mz_da_sk_intddr_meb2/production/_ext/1907747181/libaria_widget_line_graph.o
 .text.laLineGraphWidget_SetFillSeriesArea
                0x00000000       0x44 build/pic32mz_da_sk_intddr_meb2/production/_ext/1907747181/libaria_widget_line_graph.o
 .text.laLineGraphWidget_GetGridlinesVisible
                0x00000000       0x18 build/pic32mz_da_sk_intddr_meb2/production/_ext/1907747181/libaria_widget_line_graph.o
 .text.laLineGraphWidget_SetGridlinesVisible
                0x00000000       0x44 build/pic32mz_da_sk_intddr_meb2/production/_ext/1907747181/libaria_widget_line_graph.o
 .text.laLineGraphWidget_GetValueAxisTicksVisible
                0x00000000       0x18 build/pic32mz_da_sk_intddr_meb2/production/_ext/1907747181/libaria_widget_line_graph.o
 .text.laLineGraphWidget_SetValueAxisTicksVisible
                0x00000000       0x44 build/pic32mz_da_sk_intddr_meb2/production/_ext/1907747181/libaria_widget_line_graph.o
 .text.laLineGraphWidget_GetValueAxisTickInterval
                0x00000000       0x18 build/pic32mz_da_sk_intddr_meb2/production/_ext/1907747181/libaria_widget_line_graph.o
 .text.laLineGraphWidget_SetValueAxisTickInterval
                0x00000000       0x44 build/pic32mz_da_sk_intddr_meb2/production/_ext/1907747181/libaria_widget_line_graph.o
 .text.laLineGraphWidget_GetValueAxisSubtickInterval
                0x00000000       0x18 build/pic32mz_da_sk_intddr_meb2/production/_ext/1907747181/libaria_widget_line_graph.o
 .text.laLineGraphWidget_SetValueAxisSubtickInterval
                0x00000000       0x44 build/pic32mz_da_sk_intddr_meb2/production/_ext/1907747181/libaria_widget_line_graph.o
 .text.laLineGraphWidget_GetValueAxisSubticksVisible
                0x00000000       0x18 build/pic32mz_da_sk_intddr_meb2/production/_ext/1907747181/libaria_widget_line_graph.o
 .text.laLineGraphWidget_SetValueAxisSubticksVisible
                0x00000000       0x44 build/pic32mz_da_sk_intddr_meb2/production/_ext/1907747181/libaria_widget_line_graph.o
 .text.laLineGraphWidget_GetCategoryAxisTicksVisible
                0x00000000       0x18 build/pic32mz_da_sk_intddr_meb2/production/_ext/1907747181/libaria_widget_line_graph.o
 .text.laLineGraphWidget_SetCategoryAxisTicksVisible
                0x00000000       0x44 build/pic32mz_da_sk_intddr_meb2/production/_ext/1907747181/libaria_widget_line_graph.o
 .text.laLineGraphWidget_AddCategory
                0x00000000       0x90 build/pic32mz_da_sk_intddr_meb2/production/_ext/1907747181/libaria_widget_line_graph.o
 .text.laLineGraphWidget_GetCategoryText
                0x00000000       0x6c build/pic32mz_da_sk_intddr_meb2/production/_ext/1907747181/libaria_widget_line_graph.o
 .text.laLineGraphWidget_SetCategoryText
                0x00000000       0x8c build/pic32mz_da_sk_intddr_meb2/production/_ext/1907747181/libaria_widget_line_graph.o
 .text.laLineGraphWidget_AddSeries
                0x00000000       0xb4 build/pic32mz_da_sk_intddr_meb2/production/_ext/1907747181/libaria_widget_line_graph.o
 .text.laLineGraphWidget_AddDataToSeries
                0x00000000       0xc0 build/pic32mz_da_sk_intddr_meb2/production/_ext/1907747181/libaria_widget_line_graph.o
 .text.laLineGraphWidget_SetDataInSeries
                0x00000000       0x90 build/pic32mz_da_sk_intddr_meb2/production/_ext/1907747181/libaria_widget_line_graph.o
 .text.laLineGraphWidget_GetSeriesScheme
                0x00000000       0x54 build/pic32mz_da_sk_intddr_meb2/production/_ext/1907747181/libaria_widget_line_graph.o
 .text.laLineGraphWidget_SetSeriesScheme
                0x00000000       0x84 build/pic32mz_da_sk_intddr_meb2/production/_ext/1907747181/libaria_widget_line_graph.o
 .text.laLineGraphWidget_GetSeriesFillPoints
                0x00000000       0x50 build/pic32mz_da_sk_intddr_meb2/production/_ext/1907747181/libaria_widget_line_graph.o
 .text.laLineGraphWidget_SetSeriesFillPoints
                0x00000000       0x78 build/pic32mz_da_sk_intddr_meb2/production/_ext/1907747181/libaria_widget_line_graph.o
 .text.laLineGraphWidget_GetSeriesLinesVisible
                0x00000000       0x50 build/pic32mz_da_sk_intddr_meb2/production/_ext/1907747181/libaria_widget_line_graph.o
 .text.laLineGraphWidget_SetSeriesLinesVisible
                0x00000000       0x78 build/pic32mz_da_sk_intddr_meb2/production/_ext/1907747181/libaria_widget_line_graph.o
 .text.laLineGraphWidget_GetSeriesPointType
                0x00000000       0x50 build/pic32mz_da_sk_intddr_meb2/production/_ext/1907747181/libaria_widget_line_graph.o
 .text.laLineGraphWidget_SetSeriesPointType
                0x00000000       0x78 build/pic32mz_da_sk_intddr_meb2/production/_ext/1907747181/libaria_widget_line_graph.o
 .text.laLineGraphWidget_GetSeriesPointSize
                0x00000000       0x50 build/pic32mz_da_sk_intddr_meb2/production/_ext/1907747181/libaria_widget_line_graph.o
 .text.laLineGraphWidget_SetSeriesPointSize
                0x00000000       0x78 build/pic32mz_da_sk_intddr_meb2/production/_ext/1907747181/libaria_widget_line_graph.o
 .text.laLineGraphWidget_DestroyAll
                0x00000000       0xe4 build/pic32mz_da_sk_intddr_meb2/production/_ext/1907747181/libaria_widget_line_graph.o
 .text._laLineGraphWidget_Destructor
                0x00000000       0x2c build/pic32mz_da_sk_intddr_meb2/production/_ext/1907747181/libaria_widget_line_graph.o
 .text.laLineGraphWidget_SetStringTable
                0x00000000       0x48 build/pic32mz_da_sk_intddr_meb2/production/_ext/1907747181/libaria_widget_line_graph.o
 .text.laLineGraphWidget_SetTicksLabelsStringID
                0x00000000       0x44 build/pic32mz_da_sk_intddr_meb2/production/_ext/1907747181/libaria_widget_line_graph.o
 .text.laLineGraphWidget_GetCategoryAxisLabelsVisible
                0x00000000       0x18 build/pic32mz_da_sk_intddr_meb2/production/_ext/1907747181/libaria_widget_line_graph.o
 .text.laLineGraphWidget_SetCategoryAxisLabelsVisible
                0x00000000       0x44 build/pic32mz_da_sk_intddr_meb2/production/_ext/1907747181/libaria_widget_line_graph.o
 .text.laLineGraphWidget_GetValueAxisTicksPosition
                0x00000000       0x18 build/pic32mz_da_sk_intddr_meb2/production/_ext/1907747181/libaria_widget_line_graph.o
 .text.laLineGraphWidget_SetValueAxisTicksPosition
                0x00000000       0x44 build/pic32mz_da_sk_intddr_meb2/production/_ext/1907747181/libaria_widget_line_graph.o
 .text.laLineGraphWidget_GetValueAxisSubticksPosition
                0x00000000       0x18 build/pic32mz_da_sk_intddr_meb2/production/_ext/1907747181/libaria_widget_line_graph.o
 .text.laLineGraphWidget_SetValueAxisSubticksPosition
                0x00000000       0x44 build/pic32mz_da_sk_intddr_meb2/production/_ext/1907747181/libaria_widget_line_graph.o
 .text.laLineGraphWidget_GetCategoryAxisTicksPosition
                0x00000000       0x18 build/pic32mz_da_sk_intddr_meb2/production/_ext/1907747181/libaria_widget_line_graph.o
 .text.laLineGraphWidget_SetCategoryAxisTicksPosition
                0x00000000       0x44 build/pic32mz_da_sk_intddr_meb2/production/_ext/1907747181/libaria_widget_line_graph.o
 .text          0x00000000        0x0 build/pic32mz_da_sk_intddr_meb2/production/_ext/1907747181/libaria_widget_line_graph_skin_classic.o
 .data          0x00000000        0x0 build/pic32mz_da_sk_intddr_meb2/production/_ext/1907747181/libaria_widget_line_graph_skin_classic.o
 .bss           0x00000000        0x0 build/pic32mz_da_sk_intddr_meb2/production/_ext/1907747181/libaria_widget_line_graph_skin_classic.o
 .reginfo       0x00000000       0x18 build/pic32mz_da_sk_intddr_meb2/production/_ext/1907747181/libaria_widget_line_graph_skin_classic.o
 .text.nextState
                0x00000000       0xd0 build/pic32mz_da_sk_intddr_meb2/production/_ext/1907747181/libaria_widget_line_graph_skin_classic.o
 .text.waitString
                0x00000000       0x68 build/pic32mz_da_sk_intddr_meb2/production/_ext/1907747181/libaria_widget_line_graph_skin_classic.o
 .text.drawBorder
                0x00000000       0x58 build/pic32mz_da_sk_intddr_meb2/production/_ext/1907747181/libaria_widget_line_graph_skin_classic.o
 .rodata        0x00000000        0x4 build/pic32mz_da_sk_intddr_meb2/production/_ext/1907747181/libaria_widget_line_graph_skin_classic.o
 .text._laLineGraphWidget_GetGraphRect
                0x00000000      0x530 build/pic32mz_da_sk_intddr_meb2/production/_ext/1907747181/libaria_widget_line_graph_skin_classic.o
 .text.drawString
                0x00000000      0x2cc build/pic32mz_da_sk_intddr_meb2/production/_ext/1907747181/libaria_widget_line_graph_skin_classic.o
 .text.drawTickLabelWithValue
                0x00000000      0x208 build/pic32mz_da_sk_intddr_meb2/production/_ext/1907747181/libaria_widget_line_graph_skin_classic.o
 .text.drawSeriesPoint
                0x00000000      0x100 build/pic32mz_da_sk_intddr_meb2/production/_ext/1907747181/libaria_widget_line_graph_skin_classic.o
 .text.drawLineGraph
                0x00000000     0x1680 build/pic32mz_da_sk_intddr_meb2/production/_ext/1907747181/libaria_widget_line_graph_skin_classic.o
 .text.drawBackground
                0x00000000       0x2c build/pic32mz_da_sk_intddr_meb2/production/_ext/1907747181/libaria_widget_line_graph_skin_classic.o
 .text._laLineGraphWidget_Paint
                0x00000000       0x9c build/pic32mz_da_sk_intddr_meb2/production/_ext/1907747181/libaria_widget_line_graph_skin_classic.o
 .text          0x00000000        0x0 build/pic32mz_da_sk_intddr_meb2/production/_ext/1907747181/libaria_widget_imageplus.o
 .data          0x00000000        0x0 build/pic32mz_da_sk_intddr_meb2/production/_ext/1907747181/libaria_widget_imageplus.o
 .bss           0x00000000        0x0 build/pic32mz_da_sk_intddr_meb2/production/_ext/1907747181/libaria_widget_imageplus.o
 .reginfo       0x00000000       0x18 build/pic32mz_da_sk_intddr_meb2/production/_ext/1907747181/libaria_widget_imageplus.o
 .text.touchDown
                0x00000000       0x60 build/pic32mz_da_sk_intddr_meb2/production/_ext/1907747181/libaria_widget_imageplus.o
 .text.touchUp  0x00000000       0x38 build/pic32mz_da_sk_intddr_meb2/production/_ext/1907747181/libaria_widget_imageplus.o
 .text.invalidateImageRect
                0x00000000       0x44 build/pic32mz_da_sk_intddr_meb2/production/_ext/1907747181/libaria_widget_imageplus.o
 .text.touchMoved
                0x00000000      0x138 build/pic32mz_da_sk_intddr_meb2/production/_ext/1907747181/libaria_widget_imageplus.o
 .text._laImagePlusWidget_Destructor
                0x00000000       0x1c build/pic32mz_da_sk_intddr_meb2/production/_ext/1907747181/libaria_widget_imageplus.o
 .text._laImagePlusWidget_Constructor
                0x00000000       0xb8 build/pic32mz_da_sk_intddr_meb2/production/_ext/1907747181/libaria_widget_imageplus.o
 .text.laImagePlusWidget_New
                0x00000000       0x58 build/pic32mz_da_sk_intddr_meb2/production/_ext/1907747181/libaria_widget_imageplus.o
 .text.laImagePlusWidget_GetImage
                0x00000000       0x18 build/pic32mz_da_sk_intddr_meb2/production/_ext/1907747181/libaria_widget_imageplus.o
 .text.laImagePlusWidget_SetImage
                0x00000000       0xa8 build/pic32mz_da_sk_intddr_meb2/production/_ext/1907747181/libaria_widget_imageplus.o
 .text.laImagePlusWidget_GetTransformX
                0x00000000       0x18 build/pic32mz_da_sk_intddr_meb2/production/_ext/1907747181/libaria_widget_imageplus.o
 .text.laImagePlusWidget_SetTransformX
                0x00000000       0x78 build/pic32mz_da_sk_intddr_meb2/production/_ext/1907747181/libaria_widget_imageplus.o
 .text.laImagePlusWidget_GetTransformY
                0x00000000       0x18 build/pic32mz_da_sk_intddr_meb2/production/_ext/1907747181/libaria_widget_imageplus.o
 .text.laImagePlusWidget_SetTransformY
                0x00000000       0x78 build/pic32mz_da_sk_intddr_meb2/production/_ext/1907747181/libaria_widget_imageplus.o
 .text.laImagePlusWidget_GetTransformWidth
                0x00000000       0x18 build/pic32mz_da_sk_intddr_meb2/production/_ext/1907747181/libaria_widget_imageplus.o
 .text.laImagePlusWidget_SetTransformWidth
                0x00000000       0x78 build/pic32mz_da_sk_intddr_meb2/production/_ext/1907747181/libaria_widget_imageplus.o
 .text.laImagePlusWidget_GetTransformHeight
                0x00000000       0x18 build/pic32mz_da_sk_intddr_meb2/production/_ext/1907747181/libaria_widget_imageplus.o
 .text.laImagePlusWidget_SetTransformHeight
                0x00000000       0x78 build/pic32mz_da_sk_intddr_meb2/production/_ext/1907747181/libaria_widget_imageplus.o
 .text.laImagePlusWidget_ResetTransform
                0x00000000       0x68 build/pic32mz_da_sk_intddr_meb2/production/_ext/1907747181/libaria_widget_imageplus.o
 .text.laImagePlusWidget_GetStretchEnabled
                0x00000000       0x18 build/pic32mz_da_sk_intddr_meb2/production/_ext/1907747181/libaria_widget_imageplus.o
 .text.laImagePlusWidget_SetStretchEnabled
                0x00000000       0x78 build/pic32mz_da_sk_intddr_meb2/production/_ext/1907747181/libaria_widget_imageplus.o
 .text.laImagePlusWidget_GetPreserveAspectEnabled
                0x00000000       0x18 build/pic32mz_da_sk_intddr_meb2/production/_ext/1907747181/libaria_widget_imageplus.o
 .text.laImagePlusWidget_SetPreserveAspectEnabled
                0x00000000       0x78 build/pic32mz_da_sk_intddr_meb2/production/_ext/1907747181/libaria_widget_imageplus.o
 .text.laImagePlusWidget_GetResizeFilter
                0x00000000       0x18 build/pic32mz_da_sk_intddr_meb2/production/_ext/1907747181/libaria_widget_imageplus.o
 .text.laImagePlusWidget_SetResizeFilter
                0x00000000       0x78 build/pic32mz_da_sk_intddr_meb2/production/_ext/1907747181/libaria_widget_imageplus.o
 .text.laImagePlusWidget_GetInteractive
                0x00000000       0x18 build/pic32mz_da_sk_intddr_meb2/production/_ext/1907747181/libaria_widget_imageplus.o
 .text.laImagePlusWidget_SetInteractive
                0x00000000       0x30 build/pic32mz_da_sk_intddr_meb2/production/_ext/1907747181/libaria_widget_imageplus.o
 .text          0x00000000        0x0 build/pic32mz_da_sk_intddr_meb2/production/_ext/1907747181/libaria_widget_imageplus_skin_classic.o
 .data          0x00000000        0x0 build/pic32mz_da_sk_intddr_meb2/production/_ext/1907747181/libaria_widget_imageplus_skin_classic.o
 .bss           0x00000000        0x0 build/pic32mz_da_sk_intddr_meb2/production/_ext/1907747181/libaria_widget_imageplus_skin_classic.o
 .reginfo       0x00000000       0x18 build/pic32mz_da_sk_intddr_meb2/production/_ext/1907747181/libaria_widget_imageplus_skin_classic.o
 .text.nextState
                0x00000000       0xb0 build/pic32mz_da_sk_intddr_meb2/production/_ext/1907747181/libaria_widget_imageplus_skin_classic.o
 .text.drawBorder
                0x00000000       0x58 build/pic32mz_da_sk_intddr_meb2/production/_ext/1907747181/libaria_widget_imageplus_skin_classic.o
 .text.drawBackground
                0x00000000       0x2c build/pic32mz_da_sk_intddr_meb2/production/_ext/1907747181/libaria_widget_imageplus_skin_classic.o
 .text._laImagePlusWidget_GetImageRect
                0x00000000      0x390 build/pic32mz_da_sk_intddr_meb2/production/_ext/1907747181/libaria_widget_imageplus_skin_classic.o
 .text.drawImage
                0x00000000       0x7c build/pic32mz_da_sk_intddr_meb2/production/_ext/1907747181/libaria_widget_imageplus_skin_classic.o
 .text._laImagePlusWidget_Paint
                0x00000000       0x9c build/pic32mz_da_sk_intddr_meb2/production/_ext/1907747181/libaria_widget_imageplus_skin_classic.o
 .text          0x00000000        0x0 build/pic32mz_da_sk_intddr_meb2/production/_ext/1907747181/libaria_widget_radial_menu.o
 .data          0x00000000        0x0 build/pic32mz_da_sk_intddr_meb2/production/_ext/1907747181/libaria_widget_radial_menu.o
 .bss           0x00000000        0x0 build/pic32mz_da_sk_intddr_meb2/production/_ext/1907747181/libaria_widget_radial_menu.o
 .reginfo       0x00000000       0x18 build/pic32mz_da_sk_intddr_meb2/production/_ext/1907747181/libaria_widget_radial_menu.o
 .text._laRadialMenuWidget_Resized
                0x00000000       0x14 build/pic32mz_da_sk_intddr_meb2/production/_ext/1907747181/libaria_widget_radial_menu.o
 .text._laRadialMenuWidget_GetWidgetItem
                0x00000000       0x94 build/pic32mz_da_sk_intddr_meb2/production/_ext/1907747181/libaria_widget_radial_menu.o
 .text._laRadialMenuWidget_DeriveWidestTallestItem
                0x00000000      0x1f0 build/pic32mz_da_sk_intddr_meb2/production/_ext/1907747181/libaria_widget_radial_menu.o
 .text._laRadialMenuWidget_RotateMenuItems
                0x00000000      0x1f0 build/pic32mz_da_sk_intddr_meb2/production/_ext/1907747181/libaria_widget_radial_menu.o
 .text._laRadialMenuWidget_RespaceItems
                0x00000000      0x188 build/pic32mz_da_sk_intddr_meb2/production/_ext/1907747181/libaria_widget_radial_menu.o
 .text.invalidateContents
                0x00000000       0x34 build/pic32mz_da_sk_intddr_meb2/production/_ext/1907747181/libaria_widget_radial_menu.o
 .text.languageChanging
                0x00000000       0x1c build/pic32mz_da_sk_intddr_meb2/production/_ext/1907747181/libaria_widget_radial_menu.o
 .text._laRadialMenuWidget_TouchMovedEvent
                0x00000000      0x1a0 build/pic32mz_da_sk_intddr_meb2/production/_ext/1907747181/libaria_widget_radial_menu.o
 .text._laRadialMenuWidget_Destructor
                0x00000000       0x58 build/pic32mz_da_sk_intddr_meb2/production/_ext/1907747181/libaria_widget_radial_menu.o
 .text.laRadialMenuWidget_New
                0x00000000      0x140 build/pic32mz_da_sk_intddr_meb2/production/_ext/1907747181/libaria_widget_radial_menu.o
 .text.laRadialMenuWidget_SetHighlightProminent
                0x00000000       0x30 build/pic32mz_da_sk_intddr_meb2/production/_ext/1907747181/libaria_widget_radial_menu.o
 .text.laRadialMenuWidget_IsProminent
                0x00000000       0x80 build/pic32mz_da_sk_intddr_meb2/production/_ext/1907747181/libaria_widget_radial_menu.o
 .text._laRadialMenuWidget_TouchUpEvent
                0x00000000      0x144 build/pic32mz_da_sk_intddr_meb2/production/_ext/1907747181/libaria_widget_radial_menu.o
 .text._laRadialMenuWidget_TouchDownEvent
                0x00000000      0x150 build/pic32mz_da_sk_intddr_meb2/production/_ext/1907747181/libaria_widget_radial_menu.o
 .text.laRadialMenuWidget_SetProminent
                0x00000000       0x64 build/pic32mz_da_sk_intddr_meb2/production/_ext/1907747181/libaria_widget_radial_menu.o
 .text.laRadialMenuWidget_GetProminentIndex
                0x00000000       0xa4 build/pic32mz_da_sk_intddr_meb2/production/_ext/1907747181/libaria_widget_radial_menu.o
 .text._laRadialMenuWidget_Update
                0x00000000      0x578 build/pic32mz_da_sk_intddr_meb2/production/_ext/1907747181/libaria_widget_radial_menu.o
 .text.laRadialMenuWidget_SetProminentIndex
                0x00000000       0x70 build/pic32mz_da_sk_intddr_meb2/production/_ext/1907747181/libaria_widget_radial_menu.o
 .text.laRadialMenuWidget_GetWidget
                0x00000000       0x5c build/pic32mz_da_sk_intddr_meb2/production/_ext/1907747181/libaria_widget_radial_menu.o
 .text.laRadialMenuWidget_SetNumberOfItemsShown
                0x00000000       0x60 build/pic32mz_da_sk_intddr_meb2/production/_ext/1907747181/libaria_widget_radial_menu.o
 .text.laRadialMenuWidget_SetWidgetAt
                0x00000000      0x178 build/pic32mz_da_sk_intddr_meb2/production/_ext/1907747181/libaria_widget_radial_menu.o
 .text.laRadialMenuWidget_AddWidget
                0x00000000      0x14c build/pic32mz_da_sk_intddr_meb2/production/_ext/1907747181/libaria_widget_radial_menu.o
 .text.laRadialMenuWidget_RemoveWidget
                0x00000000      0x104 build/pic32mz_da_sk_intddr_meb2/production/_ext/1907747181/libaria_widget_radial_menu.o
 .text.laRadialMenuWidget_ClearItems
                0x00000000       0xec build/pic32mz_da_sk_intddr_meb2/production/_ext/1907747181/libaria_widget_radial_menu.o
 .text.laRadialMenuWidget_SetSizeScaling
                0x00000000       0x48 build/pic32mz_da_sk_intddr_meb2/production/_ext/1907747181/libaria_widget_radial_menu.o
 .text.laRadialMenuWidget_SetAlphaScaling
                0x00000000       0xb8 build/pic32mz_da_sk_intddr_meb2/production/_ext/1907747181/libaria_widget_radial_menu.o
 .text.laRadialMenuWidget_SetSizeScaleMinMax
                0x00000000       0x70 build/pic32mz_da_sk_intddr_meb2/production/_ext/1907747181/libaria_widget_radial_menu.o
 .text.laRadialMenuWidget_SetAlphaScaleMinMax
                0x00000000       0x68 build/pic32mz_da_sk_intddr_meb2/production/_ext/1907747181/libaria_widget_radial_menu.o
 .text.laRadialMenuWidget_SetDrawEllipse
                0x00000000       0x34 build/pic32mz_da_sk_intddr_meb2/production/_ext/1907747181/libaria_widget_radial_menu.o
 .text.laRadialMenuWidget_SetTouchArea
                0x00000000       0x2c build/pic32mz_da_sk_intddr_meb2/production/_ext/1907747181/libaria_widget_radial_menu.o
 .text.laRadialMenuWidget_SetEllipseType
                0x00000000       0x34 build/pic32mz_da_sk_intddr_meb2/production/_ext/1907747181/libaria_widget_radial_menu.o
 .text.laRadialMenuWidget_GetTheta
                0x00000000       0x18 build/pic32mz_da_sk_intddr_meb2/production/_ext/1907747181/libaria_widget_radial_menu.o
 .text.laRadialMenuWidget_SetTheta
                0x00000000       0x54 build/pic32mz_da_sk_intddr_meb2/production/_ext/1907747181/libaria_widget_radial_menu.o
 .text.laRadialMenuWidget_GetItemSelectedEventCallback
                0x00000000       0x18 build/pic32mz_da_sk_intddr_meb2/production/_ext/1907747181/libaria_widget_radial_menu.o
 .text.laRadialMenuWidget_SetItemSelectedEventCallback
                0x00000000       0x30 build/pic32mz_da_sk_intddr_meb2/production/_ext/1907747181/libaria_widget_radial_menu.o
 .text.laRadialMenuWidget_SetItemProminenceChangedEventCallback
                0x00000000       0x30 build/pic32mz_da_sk_intddr_meb2/production/_ext/1907747181/libaria_widget_radial_menu.o
 .text.laRadialMenuWidget_GetItemProminenceChangeddEventCallback
                0x00000000       0x18 build/pic32mz_da_sk_intddr_meb2/production/_ext/1907747181/libaria_widget_radial_menu.o
 .text.laRadialMenuWidget_SetDeselectedEventCallback
                0x00000000       0x30 build/pic32mz_da_sk_intddr_meb2/production/_ext/1907747181/libaria_widget_radial_menu.o
 .text          0x00000000        0x0 build/pic32mz_da_sk_intddr_meb2/production/_ext/1907747181/libaria_widget_radial_menu_skin_classic.o
 .data          0x00000000        0x0 build/pic32mz_da_sk_intddr_meb2/production/_ext/1907747181/libaria_widget_radial_menu_skin_classic.o
 .bss           0x00000000        0x0 build/pic32mz_da_sk_intddr_meb2/production/_ext/1907747181/libaria_widget_radial_menu_skin_classic.o
 .reginfo       0x00000000       0x18 build/pic32mz_da_sk_intddr_meb2/production/_ext/1907747181/libaria_widget_radial_menu_skin_classic.o
 .text.nextState
                0x00000000       0xd8 build/pic32mz_da_sk_intddr_meb2/production/_ext/1907747181/libaria_widget_radial_menu_skin_classic.o
 .text.drawEllipse
                0x00000000       0xd4 build/pic32mz_da_sk_intddr_meb2/production/_ext/1907747181/libaria_widget_radial_menu_skin_classic.o
 .text.drawBackground
                0x00000000       0x34 build/pic32mz_da_sk_intddr_meb2/production/_ext/1907747181/libaria_widget_radial_menu_skin_classic.o
 .text._weighAngle
                0x00000000       0x50 build/pic32mz_da_sk_intddr_meb2/production/_ext/1907747181/libaria_widget_radial_menu_skin_classic.o
 .text.arrangeItems
                0x00000000      0x43c build/pic32mz_da_sk_intddr_meb2/production/_ext/1907747181/libaria_widget_radial_menu_skin_classic.o
 .text._laRadialMenuWidget_Paint
                0x00000000       0x9c build/pic32mz_da_sk_intddr_meb2/production/_ext/1907747181/libaria_widget_radial_menu_skin_classic.o
 .text          0x00000000        0x0 build/pic32mz_da_sk_intddr_meb2/production/_ext/1597685232/gfxu_image.o
 .data          0x00000000        0x0 build/pic32mz_da_sk_intddr_meb2/production/_ext/1597685232/gfxu_image.o
 .bss           0x00000000        0x0 build/pic32mz_da_sk_intddr_meb2/production/_ext/1597685232/gfxu_image.o
 .reginfo       0x00000000       0x18 build/pic32mz_da_sk_intddr_meb2/production/_ext/1597685232/gfxu_image.o
 .text.GFXU_PreprocessImage
                0x00000000      0x1ec build/pic32mz_da_sk_intddr_meb2/production/_ext/1597685232/gfxu_image.o
 .text          0x00000000        0x0 build/pic32mz_da_sk_intddr_meb2/production/_ext/1597685232/gfxu_image_png_external.o
 .data          0x00000000        0x0 build/pic32mz_da_sk_intddr_meb2/production/_ext/1597685232/gfxu_image_png_external.o
 .bss           0x00000000        0x0 build/pic32mz_da_sk_intddr_meb2/production/_ext/1597685232/gfxu_image_png_external.o
 .reginfo       0x00000000       0x18 build/pic32mz_da_sk_intddr_meb2/production/_ext/1597685232/gfxu_image_png_external.o
 .text          0x00000000        0x0 build/pic32mz_da_sk_intddr_meb2/production/_ext/1597685232/gfxu_image_png_internal.o
 .data          0x00000000        0x0 build/pic32mz_da_sk_intddr_meb2/production/_ext/1597685232/gfxu_image_png_internal.o
 .bss           0x00000000        0x0 build/pic32mz_da_sk_intddr_meb2/production/_ext/1597685232/gfxu_image_png_internal.o
 .reginfo       0x00000000       0x18 build/pic32mz_da_sk_intddr_meb2/production/_ext/1597685232/gfxu_image_png_internal.o
 .text          0x00000000        0x0 build/pic32mz_da_sk_intddr_meb2/production/_ext/1597685232/gfxu_image_jpg_internal.o
 .data          0x00000000        0x0 build/pic32mz_da_sk_intddr_meb2/production/_ext/1597685232/gfxu_image_jpg_internal.o
 .reginfo       0x00000000       0x18 build/pic32mz_da_sk_intddr_meb2/production/_ext/1597685232/gfxu_image_jpg_internal.o
 .text          0x00000000        0x0 build/pic32mz_da_sk_intddr_meb2/production/_ext/1597685232/gfxu_image_raw_external.o
 .data          0x00000000        0x0 build/pic32mz_da_sk_intddr_meb2/production/_ext/1597685232/gfxu_image_raw_external.o
 .bss           0x00000000        0x0 build/pic32mz_da_sk_intddr_meb2/production/_ext/1597685232/gfxu_image_raw_external.o
 .reginfo       0x00000000       0x18 build/pic32mz_da_sk_intddr_meb2/production/_ext/1597685232/gfxu_image_raw_external.o
 .text          0x00000000        0x0 build/pic32mz_da_sk_intddr_meb2/production/_ext/1597685232/gfxu_image_raw_internal.o
 .data          0x00000000        0x0 build/pic32mz_da_sk_intddr_meb2/production/_ext/1597685232/gfxu_image_raw_internal.o
 .bss           0x00000000        0x0 build/pic32mz_da_sk_intddr_meb2/production/_ext/1597685232/gfxu_image_raw_internal.o
 .reginfo       0x00000000       0x18 build/pic32mz_da_sk_intddr_meb2/production/_ext/1597685232/gfxu_image_raw_internal.o
 .text          0x00000000        0x0 build/pic32mz_da_sk_intddr_meb2/production/_ext/1597685232/gfxu_image_rle_external.o
 .data          0x00000000        0x0 build/pic32mz_da_sk_intddr_meb2/production/_ext/1597685232/gfxu_image_rle_external.o
 .bss           0x00000000        0x0 build/pic32mz_da_sk_intddr_meb2/production/_ext/1597685232/gfxu_image_rle_external.o
 .reginfo       0x00000000       0x18 build/pic32mz_da_sk_intddr_meb2/production/_ext/1597685232/gfxu_image_rle_external.o
 .text          0x00000000        0x0 build/pic32mz_da_sk_intddr_meb2/production/_ext/1597685232/gfxu_image_rle_internal.o
 .data          0x00000000        0x0 build/pic32mz_da_sk_intddr_meb2/production/_ext/1597685232/gfxu_image_rle_internal.o
 .bss           0x00000000        0x0 build/pic32mz_da_sk_intddr_meb2/production/_ext/1597685232/gfxu_image_rle_internal.o
 .reginfo       0x00000000       0x18 build/pic32mz_da_sk_intddr_meb2/production/_ext/1597685232/gfxu_image_rle_internal.o
 .text          0x00000000        0x0 build/pic32mz_da_sk_intddr_meb2/production/_ext/1597685232/gfxu_image_utils.o
 .bss           0x00000000        0x0 build/pic32mz_da_sk_intddr_meb2/production/_ext/1597685232/gfxu_image_utils.o
 .reginfo       0x00000000       0x18 build/pic32mz_da_sk_intddr_meb2/production/_ext/1597685232/gfxu_image_utils.o
 .text.convertColorAndSetDraw
                0x00000000       0x68 build/pic32mz_da_sk_intddr_meb2/production/_ext/1597685232/gfxu_image_utils.o
 .text          0x00000000        0x0 build/pic32mz_da_sk_intddr_meb2/production/_ext/1597685232/gfxu_palette.o
 .data          0x00000000        0x0 build/pic32mz_da_sk_intddr_meb2/production/_ext/1597685232/gfxu_palette.o
 .bss           0x00000000        0x0 build/pic32mz_da_sk_intddr_meb2/production/_ext/1597685232/gfxu_palette.o
 .reginfo       0x00000000       0x18 build/pic32mz_da_sk_intddr_meb2/production/_ext/1597685232/gfxu_palette.o
 .text.GFXU_PaletteGetColor
                0x00000000        0x8 build/pic32mz_da_sk_intddr_meb2/production/_ext/1597685232/gfxu_palette.o
 .text          0x00000000        0x0 build/pic32mz_da_sk_intddr_meb2/production/_ext/1597685232/gfxu_string.o
 .data          0x00000000        0x0 build/pic32mz_da_sk_intddr_meb2/production/_ext/1597685232/gfxu_string.o
 .bss           0x00000000        0x0 build/pic32mz_da_sk_intddr_meb2/production/_ext/1597685232/gfxu_string.o
 .reginfo       0x00000000       0x18 build/pic32mz_da_sk_intddr_meb2/production/_ext/1597685232/gfxu_string.o
 .text.GFXU_DrawString
                0x00000000      0x13c build/pic32mz_da_sk_intddr_meb2/production/_ext/1597685232/gfxu_string.o
 .text.GFXU_DrawStringClipped
                0x00000000      0x124 build/pic32mz_da_sk_intddr_meb2/production/_ext/1597685232/gfxu_string.o
 .text.GFXU_DrawCharString
                0x00000000       0x8c build/pic32mz_da_sk_intddr_meb2/production/_ext/1597685232/gfxu_string.o
 .text.GFXU_DrawCharStringClipped
                0x00000000       0xa4 build/pic32mz_da_sk_intddr_meb2/production/_ext/1597685232/gfxu_string.o
 .text          0x00000000        0x0 build/pic32mz_da_sk_intddr_meb2/production/_ext/1597685232/gfxu_string_external.o
 .data          0x00000000        0x0 build/pic32mz_da_sk_intddr_meb2/production/_ext/1597685232/gfxu_string_external.o
 .bss           0x00000000        0x0 build/pic32mz_da_sk_intddr_meb2/production/_ext/1597685232/gfxu_string_external.o
 .reginfo       0x00000000       0x18 build/pic32mz_da_sk_intddr_meb2/production/_ext/1597685232/gfxu_string_external.o
 .text          0x00000000        0x0 build/pic32mz_da_sk_intddr_meb2/production/_ext/1597685232/gfxu_string_internal.o
 .data          0x00000000        0x0 build/pic32mz_da_sk_intddr_meb2/production/_ext/1597685232/gfxu_string_internal.o
 .bss           0x00000000        0x0 build/pic32mz_da_sk_intddr_meb2/production/_ext/1597685232/gfxu_string_internal.o
 .reginfo       0x00000000       0x18 build/pic32mz_da_sk_intddr_meb2/production/_ext/1597685232/gfxu_string_internal.o
 .text.GFXU_DrawStringInternal
                0x00000000       0xa0 build/pic32mz_da_sk_intddr_meb2/production/_ext/1597685232/gfxu_string_internal.o
 .text.GFXU_DrawStringBufferInternal
                0x00000000       0xdc build/pic32mz_da_sk_intddr_meb2/production/_ext/1597685232/gfxu_string_internal.o
 .text          0x00000000        0x0 build/pic32mz_da_sk_intddr_meb2/production/_ext/1597685232/gfxu_string_query.o
 .data          0x00000000        0x0 build/pic32mz_da_sk_intddr_meb2/production/_ext/1597685232/gfxu_string_query.o
 .bss           0x00000000        0x0 build/pic32mz_da_sk_intddr_meb2/production/_ext/1597685232/gfxu_string_query.o
 .reginfo       0x00000000       0x18 build/pic32mz_da_sk_intddr_meb2/production/_ext/1597685232/gfxu_string_query.o
 .text.GFXU_GetCharAt
                0x00000000      0x108 build/pic32mz_da_sk_intddr_meb2/production/_ext/1597685232/gfxu_string_query.o
 .text.GFXU_GetStringLength
                0x00000000       0xc0 build/pic32mz_da_sk_intddr_meb2/production/_ext/1597685232/gfxu_string_query.o
 .text.GFXU_GetCharWidth
                0x00000000       0x44 build/pic32mz_da_sk_intddr_meb2/production/_ext/1597685232/gfxu_string_query.o
 .text.GFXU_CalculateStringWidth
                0x00000000      0x118 build/pic32mz_da_sk_intddr_meb2/production/_ext/1597685232/gfxu_string_query.o
 .text.GFXU_GetStringRect
                0x00000000       0xac build/pic32mz_da_sk_intddr_meb2/production/_ext/1597685232/gfxu_string_query.o
 .text.GFXU_CalculatePartialStringWidth
                0x00000000      0x150 build/pic32mz_da_sk_intddr_meb2/production/_ext/1597685232/gfxu_string_query.o
 .text.GFXU_CalculateCharStringWidth
                0x00000000       0xc8 build/pic32mz_da_sk_intddr_meb2/production/_ext/1597685232/gfxu_string_query.o
 .text.GFXU_CalculatePartialCharStringWidth
                0x00000000       0xe0 build/pic32mz_da_sk_intddr_meb2/production/_ext/1597685232/gfxu_string_query.o
 .text          0x00000000        0x0 build/pic32mz_da_sk_intddr_meb2/production/_ext/1597685232/gfxu_string_utils.o
 .bss           0x00000000        0x0 build/pic32mz_da_sk_intddr_meb2/production/_ext/1597685232/gfxu_string_utils.o
 .reginfo       0x00000000       0x18 build/pic32mz_da_sk_intddr_meb2/production/_ext/1597685232/gfxu_string_utils.o
 .text.GFXU_ExtractString
                0x00000000      0x14c build/pic32mz_da_sk_intddr_meb2/production/_ext/1597685232/gfxu_string_utils.o
 .text.GFXU_DecodeAndDrawString
                0x00000000       0xf8 build/pic32mz_da_sk_intddr_meb2/production/_ext/1597685232/gfxu_string_utils.o
 .text          0x00000000        0x0 build/pic32mz_da_sk_intddr_meb2/production/_ext/1597685232/gfxu_image_jpg_common.o
 .data          0x00000000        0x0 build/pic32mz_da_sk_intddr_meb2/production/_ext/1597685232/gfxu_image_jpg_common.o
 .bss           0x00000000        0x0 build/pic32mz_da_sk_intddr_meb2/production/_ext/1597685232/gfxu_image_jpg_common.o
 .reginfo       0x00000000       0x18 build/pic32mz_da_sk_intddr_meb2/production/_ext/1597685232/gfxu_image_jpg_common.o
 .text.JPEG_bInterpretResourceHeader
                0x00000000       0x44 build/pic32mz_da_sk_intddr_meb2/production/_ext/1597685232/gfxu_image_jpg_common.o
 .text          0x00000000        0x0 build/pic32mz_da_sk_intddr_meb2/production/_ext/1597685232/gfxu_image_jpg_external.o
 .data          0x00000000        0x0 build/pic32mz_da_sk_intddr_meb2/production/_ext/1597685232/gfxu_image_jpg_external.o
 .reginfo       0x00000000       0x18 build/pic32mz_da_sk_intddr_meb2/production/_ext/1597685232/gfxu_image_jpg_external.o
 .text          0x00000000        0x0 build/pic32mz_da_sk_intddr_meb2/production/_ext/1597685232/gfxu_stringbuffer_external.o
 .data          0x00000000        0x0 build/pic32mz_da_sk_intddr_meb2/production/_ext/1597685232/gfxu_stringbuffer_external.o
 .bss           0x00000000        0x0 build/pic32mz_da_sk_intddr_meb2/production/_ext/1597685232/gfxu_stringbuffer_external.o
 .reginfo       0x00000000       0x18 build/pic32mz_da_sk_intddr_meb2/production/_ext/1597685232/gfxu_stringbuffer_external.o
 .text          0x00000000        0x0 build/pic32mz_da_sk_intddr_meb2/production/_ext/2137108136/sys_debug.o
 .data          0x00000000        0x0 build/pic32mz_da_sk_intddr_meb2/production/_ext/2137108136/sys_debug.o
 .reginfo       0x00000000       0x18 build/pic32mz_da_sk_intddr_meb2/production/_ext/2137108136/sys_debug.o
 .text.SYS_DEBUG_Reinitialize
                0x00000000       0x2c build/pic32mz_da_sk_intddr_meb2/production/_ext/2137108136/sys_debug.o
 .text.SYS_DEBUG_Deinitialize
                0x00000000       0x1c build/pic32mz_da_sk_intddr_meb2/production/_ext/2137108136/sys_debug.o
 .text.SYS_DEBUG_Tasks
                0x00000000        0x8 build/pic32mz_da_sk_intddr_meb2/production/_ext/2137108136/sys_debug.o
 .text.SYS_DEBUG_Status
                0x00000000        0xc build/pic32mz_da_sk_intddr_meb2/production/_ext/2137108136/sys_debug.o
 .text.SYS_DEBUG_Message
                0x00000000       0x3c build/pic32mz_da_sk_intddr_meb2/production/_ext/2137108136/sys_debug.o
 .text.SYS_DEBUG_ErrorLevelSet
                0x00000000        0x8 build/pic32mz_da_sk_intddr_meb2/production/_ext/2137108136/sys_debug.o
 .text          0x00000000        0x0 build/pic32mz_da_sk_intddr_meb2/production/_ext/252650337/sys_input.o
 .data          0x00000000        0x0 build/pic32mz_da_sk_intddr_meb2/production/_ext/252650337/sys_input.o
 .bss           0x00000000        0x0 build/pic32mz_da_sk_intddr_meb2/production/_ext/252650337/sys_input.o
 .reginfo       0x00000000       0x18 build/pic32mz_da_sk_intddr_meb2/production/_ext/252650337/sys_input.o
 .text.SYS_INP_RemoveListener
                0x00000000       0x40 build/pic32mz_da_sk_intddr_meb2/production/_ext/252650337/sys_input.o
 .text.SYS_INP_InjectKeyDown
                0x00000000       0x3c build/pic32mz_da_sk_intddr_meb2/production/_ext/252650337/sys_input.o
 .text.SYS_INP_InjectKeyUp
                0x00000000       0x40 build/pic32mz_da_sk_intddr_meb2/production/_ext/252650337/sys_input.o
 .text.SYS_INP_InjectMouseButtonDown
                0x00000000       0x40 build/pic32mz_da_sk_intddr_meb2/production/_ext/252650337/sys_input.o
 .text.SYS_INP_InjectMouseButtonUp
                0x00000000       0x40 build/pic32mz_da_sk_intddr_meb2/production/_ext/252650337/sys_input.o
 .text.SYS_INP_InjectMouseMove
                0x00000000       0x44 build/pic32mz_da_sk_intddr_meb2/production/_ext/252650337/sys_input.o
 .text.SYS_INP_InjectFlickGesture
                0x00000000       0x4c build/pic32mz_da_sk_intddr_meb2/production/_ext/252650337/sys_input.o
 .text.SYS_INP_InjectPinchGesture
                0x00000000       0x4c build/pic32mz_da_sk_intddr_meb2/production/_ext/252650337/sys_input.o
 .text.SYS_INP_InjectStretchGesture
                0x00000000       0x4c build/pic32mz_da_sk_intddr_meb2/production/_ext/252650337/sys_input.o
 .text.SYS_INP_InjectRotateGesture
                0x00000000       0x54 build/pic32mz_da_sk_intddr_meb2/production/_ext/252650337/sys_input.o
 .text          0x00000000        0x0 build/pic32mz_da_sk_intddr_meb2/production/_ext/252650337/sys_input_listener.o
 .data          0x00000000        0x0 build/pic32mz_da_sk_intddr_meb2/production/_ext/252650337/sys_input_listener.o
 .bss           0x00000000        0x0 build/pic32mz_da_sk_intddr_meb2/production/_ext/252650337/sys_input_listener.o
 .reginfo       0x00000000       0x18 build/pic32mz_da_sk_intddr_meb2/production/_ext/252650337/sys_input_listener.o
 .text.defaultKeyDownHandler
                0x00000000        0x8 build/pic32mz_da_sk_intddr_meb2/production/_ext/252650337/sys_input_listener.o
 .text.defaultKeyUpHandler
                0x00000000        0x8 build/pic32mz_da_sk_intddr_meb2/production/_ext/252650337/sys_input_listener.o
 .text.defaultMouseMoveHandler
                0x00000000        0x8 build/pic32mz_da_sk_intddr_meb2/production/_ext/252650337/sys_input_listener.o
 .text.defaultMouseButtonHandler
                0x00000000        0x8 build/pic32mz_da_sk_intddr_meb2/production/_ext/252650337/sys_input_listener.o
 .text.defaultTouchStateHandler
                0x00000000        0x8 build/pic32mz_da_sk_intddr_meb2/production/_ext/252650337/sys_input_listener.o
 .text.defaultTouchMoveHandler
                0x00000000        0x8 build/pic32mz_da_sk_intddr_meb2/production/_ext/252650337/sys_input_listener.o
 .text.defaultFlickGestureHandler
                0x00000000        0x8 build/pic32mz_da_sk_intddr_meb2/production/_ext/252650337/sys_input_listener.o
 .text.defaultPinchEventHandler
                0x00000000        0x8 build/pic32mz_da_sk_intddr_meb2/production/_ext/252650337/sys_input_listener.o
 .text.defaultStretchEventHandler
                0x00000000        0x8 build/pic32mz_da_sk_intddr_meb2/production/_ext/252650337/sys_input_listener.o
 .text.defaultRotateEventHandler
                0x00000000        0x8 build/pic32mz_da_sk_intddr_meb2/production/_ext/252650337/sys_input_listener.o
 .text.SYS_INP_ListenerInit
                0x00000000       0x8c build/pic32mz_da_sk_intddr_meb2/production/_ext/252650337/sys_input_listener.o
 .text          0x00000000        0x0 build/pic32mz_da_sk_intddr_meb2/production/_ext/1042686532/sys_int_pic32.o
 .data          0x00000000        0x0 build/pic32mz_da_sk_intddr_meb2/production/_ext/1042686532/sys_int_pic32.o
 .bss           0x00000000        0x0 build/pic32mz_da_sk_intddr_meb2/production/_ext/1042686532/sys_int_pic32.o
 .reginfo       0x00000000       0x18 build/pic32mz_da_sk_intddr_meb2/production/_ext/1042686532/sys_int_pic32.o
 .text.SYS_INT_StatusGetAndDisable
                0x00000000       0x1c build/pic32mz_da_sk_intddr_meb2/production/_ext/1042686532/sys_int_pic32.o
 .text.SYS_INT_StatusRestore
                0x00000000       0x1c build/pic32mz_da_sk_intddr_meb2/production/_ext/1042686532/sys_int_pic32.o
 .text.SYS_INT_Disable
                0x00000000       0x20 build/pic32mz_da_sk_intddr_meb2/production/_ext/1042686532/sys_int_pic32.o
 .text          0x00000000        0x0 build/pic32mz_da_sk_intddr_meb2/production/_ext/426253641/jidctint.o
 .data          0x00000000        0x0 build/pic32mz_da_sk_intddr_meb2/production/_ext/426253641/jidctint.o
 .bss           0x00000000        0x0 build/pic32mz_da_sk_intddr_meb2/production/_ext/426253641/jidctint.o
 .reginfo       0x00000000       0x18 build/pic32mz_da_sk_intddr_meb2/production/_ext/426253641/jidctint.o
 .text          0x00000000        0x0 build/pic32mz_da_sk_intddr_meb2/production/_ext/493934858/lodepng.o
 .data          0x00000000        0x0 build/pic32mz_da_sk_intddr_meb2/production/_ext/493934858/lodepng.o
 .bss           0x00000000        0x0 build/pic32mz_da_sk_intddr_meb2/production/_ext/493934858/lodepng.o
 .reginfo       0x00000000       0x18 build/pic32mz_da_sk_intddr_meb2/production/_ext/493934858/lodepng.o
 .text.bpmnode_create
                0x00000000      0x124 build/pic32mz_da_sk_intddr_meb2/production/_ext/493934858/lodepng.o
 .text.boundaryPM
                0x00000000      0x184 build/pic32mz_da_sk_intddr_meb2/production/_ext/493934858/lodepng.o
 .text.searchCodeIndex
                0x00000000       0x68 build/pic32mz_da_sk_intddr_meb2/production/_ext/493934858/lodepng.o
 .text.getHash  0x00000000       0x78 build/pic32mz_da_sk_intddr_meb2/production/_ext/493934858/lodepng.o
 .text.updateHashChain
                0x00000000       0x84 build/pic32mz_da_sk_intddr_meb2/production/_ext/493934858/lodepng.o
 .text.filterScanline
                0x00000000      0x318 build/pic32mz_da_sk_intddr_meb2/production/_ext/493934858/lodepng.o
 .text.addPaddingBits
                0x00000000       0xe0 build/pic32mz_da_sk_intddr_meb2/production/_ext/493934858/lodepng.o
 .text.addBitsToStream
                0x00000000       0xb4 build/pic32mz_da_sk_intddr_meb2/production/_ext/493934858/lodepng.o
 .text.addBitsToStreamReversed
                0x00000000       0xbc build/pic32mz_da_sk_intddr_meb2/production/_ext/493934858/lodepng.o
 .text.lodepng_add32bitInt
                0x00000000       0x64 build/pic32mz_da_sk_intddr_meb2/production/_ext/493934858/lodepng.o
 .text.uivector_push_back
                0x00000000       0x64 build/pic32mz_da_sk_intddr_meb2/production/_ext/493934858/lodepng.o
 .text.encodeLZ77
                0x00000000      0x6bc build/pic32mz_da_sk_intddr_meb2/production/_ext/493934858/lodepng.o
 .text.writeLZ77data
                0x00000000      0x150 build/pic32mz_da_sk_intddr_meb2/production/_ext/493934858/lodepng.o
 .text.lodepng_huffman_code_lengths
                0x00000000      0x4b4 build/pic32mz_da_sk_intddr_meb2/production/_ext/493934858/lodepng.o
 .text.HuffmanTree_makeFromFrequencies
                0x00000000       0xec build/pic32mz_da_sk_intddr_meb2/production/_ext/493934858/lodepng.o
 .text.lodepng_deflate
                0x00000000      0xf44 build/pic32mz_da_sk_intddr_meb2/production/_ext/493934858/lodepng.o
 .text.lodepng_zlib_compress
                0x00000000      0x1c8 build/pic32mz_da_sk_intddr_meb2/production/_ext/493934858/lodepng.o
 .text.zlib_compress
                0x00000000       0x3c build/pic32mz_da_sk_intddr_meb2/production/_ext/493934858/lodepng.o
 .text.lodepng_decompress_settings_init
                0x00000000       0x14 build/pic32mz_da_sk_intddr_meb2/production/_ext/493934858/lodepng.o
 .text.lodepng_chunk_length
                0x00000000       0x1c build/pic32mz_da_sk_intddr_meb2/production/_ext/493934858/lodepng.o
 .text.lodepng_chunk_type
                0x00000000       0x28 build/pic32mz_da_sk_intddr_meb2/production/_ext/493934858/lodepng.o
 .text.lodepng_chunk_ancillary
                0x00000000        0xc build/pic32mz_da_sk_intddr_meb2/production/_ext/493934858/lodepng.o
 .text.lodepng_chunk_private
                0x00000000        0xc build/pic32mz_da_sk_intddr_meb2/production/_ext/493934858/lodepng.o
 .text.lodepng_chunk_safetocopy
                0x00000000        0xc build/pic32mz_da_sk_intddr_meb2/production/_ext/493934858/lodepng.o
 .text.lodepng_chunk_data
                0x00000000        0x8 build/pic32mz_da_sk_intddr_meb2/production/_ext/493934858/lodepng.o
 .text.lodepng_chunk_data_const
                0x00000000        0x8 build/pic32mz_da_sk_intddr_meb2/production/_ext/493934858/lodepng.o
 .text.lodepng_chunk_generate_crc
                0x00000000       0x64 build/pic32mz_da_sk_intddr_meb2/production/_ext/493934858/lodepng.o
 .text.lodepng_chunk_next
                0x00000000       0x2c build/pic32mz_da_sk_intddr_meb2/production/_ext/493934858/lodepng.o
 .text.addUnknownChunks
                0x00000000       0x9c build/pic32mz_da_sk_intddr_meb2/production/_ext/493934858/lodepng.o
 .text.lodepng_chunk_create
                0x00000000      0x108 build/pic32mz_da_sk_intddr_meb2/production/_ext/493934858/lodepng.o
 .text.addChunk
                0x00000000       0x48 build/pic32mz_da_sk_intddr_meb2/production/_ext/493934858/lodepng.o
 .text.addChunk_PLTE
                0x00000000       0xa4 build/pic32mz_da_sk_intddr_meb2/production/_ext/493934858/lodepng.o
 .text.addChunk_tRNS
                0x00000000      0x170 build/pic32mz_da_sk_intddr_meb2/production/_ext/493934858/lodepng.o
 .text.addChunk_tEXt
                0x00000000       0xec build/pic32mz_da_sk_intddr_meb2/production/_ext/493934858/lodepng.o
 .text.lodepng_color_mode_cleanup
                0x00000000       0x1c build/pic32mz_da_sk_intddr_meb2/production/_ext/493934858/lodepng.o
 .text.lodepng_palette_add
                0x00000000       0xc8 build/pic32mz_da_sk_intddr_meb2/production/_ext/493934858/lodepng.o
 .text.filter   0x00000000      0xa18 build/pic32mz_da_sk_intddr_meb2/production/_ext/493934858/lodepng.o
 .text.preProcessScanlines
                0x00000000      0x62c build/pic32mz_da_sk_intddr_meb2/production/_ext/493934858/lodepng.o
 .text.lodepng_get_channels
                0x00000000       0x1c build/pic32mz_da_sk_intddr_meb2/production/_ext/493934858/lodepng.o
 .text.lodepng_is_greyscale_type
                0x00000000       0x10 build/pic32mz_da_sk_intddr_meb2/production/_ext/493934858/lodepng.o
 .text.lodepng_is_alpha_type
                0x00000000        0xc build/pic32mz_da_sk_intddr_meb2/production/_ext/493934858/lodepng.o
 .text.lodepng_is_palette_type
                0x00000000       0x10 build/pic32mz_da_sk_intddr_meb2/production/_ext/493934858/lodepng.o
 .text.lodepng_has_palette_alpha
                0x00000000       0x64 build/pic32mz_da_sk_intddr_meb2/production/_ext/493934858/lodepng.o
 .text.lodepng_can_have_alpha
                0x00000000       0x40 build/pic32mz_da_sk_intddr_meb2/production/_ext/493934858/lodepng.o
 .text.lodepng_get_raw_size_lct
                0x00000000       0x64 build/pic32mz_da_sk_intddr_meb2/production/_ext/493934858/lodepng.o
 .text.lodepng_clear_text
                0x00000000       0x1c build/pic32mz_da_sk_intddr_meb2/production/_ext/493934858/lodepng.o
 .text.lodepng_clear_itext
                0x00000000       0x1c build/pic32mz_da_sk_intddr_meb2/production/_ext/493934858/lodepng.o
 .text.lodepng_info_copy
                0x00000000      0x224 build/pic32mz_da_sk_intddr_meb2/production/_ext/493934858/lodepng.o
 .text.lodepng_info_swap
                0x00000000       0xac build/pic32mz_da_sk_intddr_meb2/production/_ext/493934858/lodepng.o
 .text.lodepng_color_profile_init
                0x00000000       0x28 build/pic32mz_da_sk_intddr_meb2/production/_ext/493934858/lodepng.o
 .text.lodepng_get_color_profile
                0x00000000      0x798 build/pic32mz_da_sk_intddr_meb2/production/_ext/493934858/lodepng.o
 .text.lodepng_auto_choose_color
                0x00000000      0x260 build/pic32mz_da_sk_intddr_meb2/production/_ext/493934858/lodepng.o
 .text.lodepng_state_copy
                0x00000000       0xbc build/pic32mz_da_sk_intddr_meb2/production/_ext/493934858/lodepng.o
 .text.lodepng_encode
                0x00000000      0xb64 build/pic32mz_da_sk_intddr_meb2/production/_ext/493934858/lodepng.o
 .text.lodepng_decode32
                0x00000000       0x30 build/pic32mz_da_sk_intddr_meb2/production/_ext/493934858/lodepng.o
 .text.lodepng_decode24
                0x00000000       0x30 build/pic32mz_da_sk_intddr_meb2/production/_ext/493934858/lodepng.o
 .text.lodepng_encode_memory
                0x00000000       0xb0 build/pic32mz_da_sk_intddr_meb2/production/_ext/493934858/lodepng.o
 .text.lodepng_encode32
                0x00000000       0x30 build/pic32mz_da_sk_intddr_meb2/production/_ext/493934858/lodepng.o
 .text.lodepng_encode24
                0x00000000       0x30 build/pic32mz_da_sk_intddr_meb2/production/_ext/493934858/lodepng.o
 .text.lodepng_error_text
                0x00000000      0x574 build/pic32mz_da_sk_intddr_meb2/production/_ext/493934858/lodepng.o
 .text          0x00000000        0x0 build/pic32mz_da_sk_intddr_meb2/production/_ext/418582516/drv_usart_mapping.o
 .data          0x00000000        0x0 build/pic32mz_da_sk_intddr_meb2/production/_ext/418582516/drv_usart_mapping.o
 .bss           0x00000000        0x0 build/pic32mz_da_sk_intddr_meb2/production/_ext/418582516/drv_usart_mapping.o
 .reginfo       0x00000000       0x18 build/pic32mz_da_sk_intddr_meb2/production/_ext/418582516/drv_usart_mapping.o
 .text.DRV_USART_Deinitialize
                0x00000000       0x28 build/pic32mz_da_sk_intddr_meb2/production/_ext/418582516/drv_usart_mapping.o
 .text.DRV_USART_Status
                0x00000000       0x30 build/pic32mz_da_sk_intddr_meb2/production/_ext/418582516/drv_usart_mapping.o
 .text.DRV_USART_Open
                0x00000000       0x30 build/pic32mz_da_sk_intddr_meb2/production/_ext/418582516/drv_usart_mapping.o
 .text.DRV_USART_Close
                0x00000000       0x2c build/pic32mz_da_sk_intddr_meb2/production/_ext/418582516/drv_usart_mapping.o
 .text.DRV_USART_ClientStatus
                0x00000000       0x34 build/pic32mz_da_sk_intddr_meb2/production/_ext/418582516/drv_usart_mapping.o
 .text.DRV_USART_TransferStatus
                0x00000000       0x34 build/pic32mz_da_sk_intddr_meb2/production/_ext/418582516/drv_usart_mapping.o
 .text.DRV_USART_ErrorGet
                0x00000000       0x34 build/pic32mz_da_sk_intddr_meb2/production/_ext/418582516/drv_usart_mapping.o
 .text.DRV_USART_ReadByte
                0x00000000       0x34 build/pic32mz_da_sk_intddr_meb2/production/_ext/418582516/drv_usart_mapping.o
 .text.DRV_USART_WriteByte
                0x00000000       0x2c build/pic32mz_da_sk_intddr_meb2/production/_ext/418582516/drv_usart_mapping.o
 .text.DRV_USART_ReceiverBufferSizeGet
                0x00000000       0x34 build/pic32mz_da_sk_intddr_meb2/production/_ext/418582516/drv_usart_mapping.o
 .text.DRV_USART_TransmitBufferSizeGet
                0x00000000       0x34 build/pic32mz_da_sk_intddr_meb2/production/_ext/418582516/drv_usart_mapping.o
 .text.DRV_USART_ReceiverBufferIsEmpty
                0x00000000       0x34 build/pic32mz_da_sk_intddr_meb2/production/_ext/418582516/drv_usart_mapping.o
 .text.DRV_USART_TransmitBufferIsFull
                0x00000000       0x34 build/pic32mz_da_sk_intddr_meb2/production/_ext/418582516/drv_usart_mapping.o
 .text.DRV_USART_BaudSet
                0x00000000       0x34 build/pic32mz_da_sk_intddr_meb2/production/_ext/418582516/drv_usart_mapping.o
 .text.DRV_USART_LineControlSet
                0x00000000       0x34 build/pic32mz_da_sk_intddr_meb2/production/_ext/418582516/drv_usart_mapping.o
 .text          0x00000000        0x0 build/pic32mz_da_sk_intddr_meb2/production/_ext/418582516/drv_usart_static.o
 .data          0x00000000        0x0 build/pic32mz_da_sk_intddr_meb2/production/_ext/418582516/drv_usart_static.o
 .bss           0x00000000        0x0 build/pic32mz_da_sk_intddr_meb2/production/_ext/418582516/drv_usart_static.o
 .reginfo       0x00000000       0x18 build/pic32mz_da_sk_intddr_meb2/production/_ext/418582516/drv_usart_static.o
 .text.DRV_USART0_Deinitialize
                0x00000000       0x14 build/pic32mz_da_sk_intddr_meb2/production/_ext/418582516/drv_usart_static.o
 .text.DRV_USART0_Status
                0x00000000        0x8 build/pic32mz_da_sk_intddr_meb2/production/_ext/418582516/drv_usart_static.o
 .text.DRV_USART0_Open
                0x00000000        0x8 build/pic32mz_da_sk_intddr_meb2/production/_ext/418582516/drv_usart_static.o
 .text.DRV_USART0_Close
                0x00000000        0x8 build/pic32mz_da_sk_intddr_meb2/production/_ext/418582516/drv_usart_static.o
 .text.DRV_USART0_ClientStatus
                0x00000000        0x8 build/pic32mz_da_sk_intddr_meb2/production/_ext/418582516/drv_usart_static.o
 .text.DRV_USART0_TransferStatus
                0x00000000       0x48 build/pic32mz_da_sk_intddr_meb2/production/_ext/418582516/drv_usart_static.o
 .text.DRV_USART0_ErrorGet
                0x00000000        0xc build/pic32mz_da_sk_intddr_meb2/production/_ext/418582516/drv_usart_static.o
 .text._DRV_USART0_ErrorConditionClear
                0x00000000       0x88 build/pic32mz_da_sk_intddr_meb2/production/_ext/418582516/drv_usart_static.o
 .text.DRV_USART0_BaudSet
                0x00000000      0x10c build/pic32mz_da_sk_intddr_meb2/production/_ext/418582516/drv_usart_static.o
 .text.DRV_USART0_LineControlSet
                0x00000000       0x78 build/pic32mz_da_sk_intddr_meb2/production/_ext/418582516/drv_usart_static.o
 .text          0x00000000        0x0 build/pic32mz_da_sk_intddr_meb2/production/_ext/418582516/drv_usart_static_byte_model.o
 .data          0x00000000        0x0 build/pic32mz_da_sk_intddr_meb2/production/_ext/418582516/drv_usart_static_byte_model.o
 .bss           0x00000000        0x0 build/pic32mz_da_sk_intddr_meb2/production/_ext/418582516/drv_usart_static_byte_model.o
 .reginfo       0x00000000       0x18 build/pic32mz_da_sk_intddr_meb2/production/_ext/418582516/drv_usart_static_byte_model.o
 .text.DRV_USART0_ReadByte
                0x00000000       0x14 build/pic32mz_da_sk_intddr_meb2/production/_ext/418582516/drv_usart_static_byte_model.o
 .text.DRV_USART0_ReceiverBufferSizeGet
                0x00000000        0x8 build/pic32mz_da_sk_intddr_meb2/production/_ext/418582516/drv_usart_static_byte_model.o
 .text.DRV_USART0_TransmitBufferSizeGet
                0x00000000        0x8 build/pic32mz_da_sk_intddr_meb2/production/_ext/418582516/drv_usart_static_byte_model.o
 .text.DRV_USART0_ReceiverBufferIsEmpty
                0x00000000       0x18 build/pic32mz_da_sk_intddr_meb2/production/_ext/418582516/drv_usart_static_byte_model.o
 .text.DRV_USART0_TransmitBufferIsFull
                0x00000000       0x14 build/pic32mz_da_sk_intddr_meb2/production/_ext/418582516/drv_usart_static_byte_model.o
 .text          0x00000000        0x0 build/pic32mz_da_sk_intddr_meb2/production/_ext/1094895838/drv_gfx_glcd_static.o
 .data          0x00000000        0x0 build/pic32mz_da_sk_intddr_meb2/production/_ext/1094895838/drv_gfx_glcd_static.o
 .reginfo       0x00000000       0x18 build/pic32mz_da_sk_intddr_meb2/production/_ext/1094895838/drv_gfx_glcd_static.o
 .text          0x00000000        0x0 build/pic32mz_da_sk_intddr_meb2/production/_ext/590040425/libaria_harmony.o
 .data          0x00000000        0x0 build/pic32mz_da_sk_intddr_meb2/production/_ext/590040425/libaria_harmony.o
 .bss           0x00000000        0x0 build/pic32mz_da_sk_intddr_meb2/production/_ext/590040425/libaria_harmony.o
 .reginfo       0x00000000       0x18 build/pic32mz_da_sk_intddr_meb2/production/_ext/590040425/libaria_harmony.o
 .text          0x00000000        0x0 build/pic32mz_da_sk_intddr_meb2/production/_ext/590040425/libaria_init.o
 .data          0x00000000        0x0 build/pic32mz_da_sk_intddr_meb2/production/_ext/590040425/libaria_init.o
 .bss           0x00000000        0x0 build/pic32mz_da_sk_intddr_meb2/production/_ext/590040425/libaria_init.o
 .reginfo       0x00000000       0x18 build/pic32mz_da_sk_intddr_meb2/production/_ext/590040425/libaria_init.o
 .text          0x00000000        0x0 build/pic32mz_da_sk_intddr_meb2/production/_ext/590040425/libaria_events.o
 .data          0x00000000        0x0 build/pic32mz_da_sk_intddr_meb2/production/_ext/590040425/libaria_events.o
 .bss           0x00000000        0x0 build/pic32mz_da_sk_intddr_meb2/production/_ext/590040425/libaria_events.o
 .reginfo       0x00000000       0x18 build/pic32mz_da_sk_intddr_meb2/production/_ext/590040425/libaria_events.o
 .text          0x00000000        0x0 build/pic32mz_da_sk_intddr_meb2/production/_ext/590040425/libaria_macros.o
 .data          0x00000000        0x0 build/pic32mz_da_sk_intddr_meb2/production/_ext/590040425/libaria_macros.o
 .bss           0x00000000        0x0 build/pic32mz_da_sk_intddr_meb2/production/_ext/590040425/libaria_macros.o
 .reginfo       0x00000000       0x18 build/pic32mz_da_sk_intddr_meb2/production/_ext/590040425/libaria_macros.o
 .text          0x00000000        0x0 build/pic32mz_da_sk_intddr_meb2/production/_ext/1719547748/gfx_display_def.o
 .bss           0x00000000        0x0 build/pic32mz_da_sk_intddr_meb2/production/_ext/1719547748/gfx_display_def.o
 .reginfo       0x00000000       0x18 build/pic32mz_da_sk_intddr_meb2/production/_ext/1719547748/gfx_display_def.o
 .text          0x00000000        0x0 build/pic32mz_da_sk_intddr_meb2/production/_ext/1719547748/gfx_driver_def.o
 .data          0x00000000        0x0 build/pic32mz_da_sk_intddr_meb2/production/_ext/1719547748/gfx_driver_def.o
 .bss           0x00000000        0x0 build/pic32mz_da_sk_intddr_meb2/production/_ext/1719547748/gfx_driver_def.o
 .reginfo       0x00000000       0x18 build/pic32mz_da_sk_intddr_meb2/production/_ext/1719547748/gfx_driver_def.o
 .text          0x00000000        0x0 build/pic32mz_da_sk_intddr_meb2/production/_ext/1719547748/gfx_processor_def.o
 .data          0x00000000        0x0 build/pic32mz_da_sk_intddr_meb2/production/_ext/1719547748/gfx_processor_def.o
 .bss           0x00000000        0x0 build/pic32mz_da_sk_intddr_meb2/production/_ext/1719547748/gfx_processor_def.o
 .reginfo       0x00000000       0x18 build/pic32mz_da_sk_intddr_meb2/production/_ext/1719547748/gfx_processor_def.o
 .text.GFX_InitializeProcessorList
                0x00000000        0x8 build/pic32mz_da_sk_intddr_meb2/production/_ext/1719547748/gfx_processor_def.o
 .text          0x00000000        0x0 build/pic32mz_da_sk_intddr_meb2/production/_ext/370156264/sys_clk_pic32mz.o
 .data          0x00000000        0x0 build/pic32mz_da_sk_intddr_meb2/production/_ext/370156264/sys_clk_pic32mz.o
 .bss           0x00000000        0x0 build/pic32mz_da_sk_intddr_meb2/production/_ext/370156264/sys_clk_pic32mz.o
 .reginfo       0x00000000       0x18 build/pic32mz_da_sk_intddr_meb2/production/_ext/370156264/sys_clk_pic32mz.o
 .text.SYS_CLK_ReferenceFrequencyGet
                0x00000000       0x1c build/pic32mz_da_sk_intddr_meb2/production/_ext/370156264/sys_clk_pic32mz.o
 .text.SYS_CLK_SecondaryOscillatorEnable
                0x00000000       0x48 build/pic32mz_da_sk_intddr_meb2/production/_ext/370156264/sys_clk_pic32mz.o
 .text.SYS_CLK_SecondaryOscillatorDisable
                0x00000000       0x48 build/pic32mz_da_sk_intddr_meb2/production/_ext/370156264/sys_clk_pic32mz.o
 .text.SYS_CLK_SecondaryOscillatorIsEnabled
                0x00000000       0x10 build/pic32mz_da_sk_intddr_meb2/production/_ext/370156264/sys_clk_pic32mz.o
 .text          0x00000000        0x0 build/pic32mz_da_sk_intddr_meb2/production/_ext/1796496159/sys_devcon.o
 .data          0x00000000        0x0 build/pic32mz_da_sk_intddr_meb2/production/_ext/1796496159/sys_devcon.o
 .bss           0x00000000        0x0 build/pic32mz_da_sk_intddr_meb2/production/_ext/1796496159/sys_devcon.o
 .reginfo       0x00000000       0x18 build/pic32mz_da_sk_intddr_meb2/production/_ext/1796496159/sys_devcon.o
 .text.SYS_DEVCON_Reinitialize
                0x00000000       0x10 build/pic32mz_da_sk_intddr_meb2/production/_ext/1796496159/sys_devcon.o
 .text.SYS_DEVCON_Deinitialize
                0x00000000        0x8 build/pic32mz_da_sk_intddr_meb2/production/_ext/1796496159/sys_devcon.o
 .text.SYS_DEVCON_Status
                0x00000000        0x8 build/pic32mz_da_sk_intddr_meb2/production/_ext/1796496159/sys_devcon.o
 .text.SYS_DEVCON_Tasks
                0x00000000        0x8 build/pic32mz_da_sk_intddr_meb2/production/_ext/1796496159/sys_devcon.o
 .text.SYS_DEVCON_JTAGEnable
                0x00000000       0x18 build/pic32mz_da_sk_intddr_meb2/production/_ext/1796496159/sys_devcon.o
 .text.SYS_DEVCON_JTAGDisable
                0x00000000       0x18 build/pic32mz_da_sk_intddr_meb2/production/_ext/1796496159/sys_devcon.o
 .text.SYS_DEVCON_TraceEnable
                0x00000000       0x1c build/pic32mz_da_sk_intddr_meb2/production/_ext/1796496159/sys_devcon.o
 .text.SYS_DEVCON_TraceDisable
                0x00000000       0x18 build/pic32mz_da_sk_intddr_meb2/production/_ext/1796496159/sys_devcon.o
 .text.SYS_DEVCON_PowerModeEnter
                0x00000000       0x44 build/pic32mz_da_sk_intddr_meb2/production/_ext/1796496159/sys_devcon.o
 .text          0x00000000        0x0 build/pic32mz_da_sk_intddr_meb2/production/_ext/1796496159/sys_devcon_pic32mz.o
 .data          0x00000000        0x0 build/pic32mz_da_sk_intddr_meb2/production/_ext/1796496159/sys_devcon_pic32mz.o
 .bss           0x00000000        0x0 build/pic32mz_da_sk_intddr_meb2/production/_ext/1796496159/sys_devcon_pic32mz.o
 .reginfo       0x00000000       0x18 build/pic32mz_da_sk_intddr_meb2/production/_ext/1796496159/sys_devcon_pic32mz.o
 .text.SYS_DEVCON_CacheInit
                0x00000000       0x24 build/pic32mz_da_sk_intddr_meb2/production/_ext/1796496159/sys_devcon_pic32mz.o
 .text.SYS_DEVCON_CacheFlush
                0x00000000       0x24 build/pic32mz_da_sk_intddr_meb2/production/_ext/1796496159/sys_devcon_pic32mz.o
 .text.SYS_DEVCON_DataCacheFlush
                0x00000000       0x24 build/pic32mz_da_sk_intddr_meb2/production/_ext/1796496159/sys_devcon_pic32mz.o
 .text.SYS_DEVCON_InstructionCacheFlush
                0x00000000       0x24 build/pic32mz_da_sk_intddr_meb2/production/_ext/1796496159/sys_devcon_pic32mz.o
 .text.SYS_DEVCON_CacheClean
                0x00000000       0x24 build/pic32mz_da_sk_intddr_meb2/production/_ext/1796496159/sys_devcon_pic32mz.o
 .text.SYS_DEVCON_DataCacheClean
                0x00000000       0x24 build/pic32mz_da_sk_intddr_meb2/production/_ext/1796496159/sys_devcon_pic32mz.o
 .text.SYS_DEVCON_DataCacheInvalidate
                0x00000000       0x24 build/pic32mz_da_sk_intddr_meb2/production/_ext/1796496159/sys_devcon_pic32mz.o
 .text.SYS_DEVCON_InstructionCacheInvalidate
                0x00000000       0x24 build/pic32mz_da_sk_intddr_meb2/production/_ext/1796496159/sys_devcon_pic32mz.o
 .text.SYS_DEVCON_InstructionCacheLock
                0x00000000       0x24 build/pic32mz_da_sk_intddr_meb2/production/_ext/1796496159/sys_devcon_pic32mz.o
 .text.SYS_DEVCON_DataCacheLock
                0x00000000       0x24 build/pic32mz_da_sk_intddr_meb2/production/_ext/1796496159/sys_devcon_pic32mz.o
 .text.SYS_DEVCON_CacheSync
                0x00000000       0x24 build/pic32mz_da_sk_intddr_meb2/production/_ext/1796496159/sys_devcon_pic32mz.o
 .text.SYS_DEVCON_CacheCoherencySet
                0x00000000       0x28 build/pic32mz_da_sk_intddr_meb2/production/_ext/1796496159/sys_devcon_pic32mz.o
 .text.SYS_DEVCON_CacheCoherencyGet
                0x00000000       0x1c build/pic32mz_da_sk_intddr_meb2/production/_ext/1796496159/sys_devcon_pic32mz.o
 .text.SYS_DEVCON_DataCacheAssociativityGet
                0x00000000       0x24 build/pic32mz_da_sk_intddr_meb2/production/_ext/1796496159/sys_devcon_pic32mz.o
 .text.SYS_DEVCON_InstructionCacheAssociativityGet
                0x00000000       0x24 build/pic32mz_da_sk_intddr_meb2/production/_ext/1796496159/sys_devcon_pic32mz.o
 .text.SYS_DEVCON_DataCacheLineSizeGet
                0x00000000       0x24 build/pic32mz_da_sk_intddr_meb2/production/_ext/1796496159/sys_devcon_pic32mz.o
 .text.SYS_DEVCON_InstructionCacheLineSizeGet
                0x00000000       0x24 build/pic32mz_da_sk_intddr_meb2/production/_ext/1796496159/sys_devcon_pic32mz.o
 .text.SYS_DEVCON_DataCacheLinesPerWayGet
                0x00000000       0x24 build/pic32mz_da_sk_intddr_meb2/production/_ext/1796496159/sys_devcon_pic32mz.o
 .text.SYS_DEVCON_InstructionCacheLinesPerWayGet
                0x00000000       0x24 build/pic32mz_da_sk_intddr_meb2/production/_ext/1796496159/sys_devcon_pic32mz.o
 .text.SYS_DEVCON_DataCacheSizeGet
                0x00000000       0x24 build/pic32mz_da_sk_intddr_meb2/production/_ext/1796496159/sys_devcon_pic32mz.o
 .text.SYS_DEVCON_InstructionCacheSizeGet
                0x00000000       0x24 build/pic32mz_da_sk_intddr_meb2/production/_ext/1796496159/sys_devcon_pic32mz.o
 .text          0x00000000      0x6bc build/pic32mz_da_sk_intddr_meb2/production/_ext/1796496159/sys_devcon_cache_pic32mz.o
 .data          0x00000000        0x0 build/pic32mz_da_sk_intddr_meb2/production/_ext/1796496159/sys_devcon_cache_pic32mz.o
 .bss           0x00000000        0x0 build/pic32mz_da_sk_intddr_meb2/production/_ext/1796496159/sys_devcon_cache_pic32mz.o
 .reginfo       0x00000000       0x18 build/pic32mz_da_sk_intddr_meb2/production/_ext/1796496159/sys_devcon_cache_pic32mz.o
 .debug_line    0x00000000      0x232 build/pic32mz_da_sk_intddr_meb2/production/_ext/1796496159/sys_devcon_cache_pic32mz.o
 .debug_info    0x00000000       0xe3 build/pic32mz_da_sk_intddr_meb2/production/_ext/1796496159/sys_devcon_cache_pic32mz.o
 .debug_abbrev  0x00000000       0x14 build/pic32mz_da_sk_intddr_meb2/production/_ext/1796496159/sys_devcon_cache_pic32mz.o
 .debug_aranges
                0x00000000       0x20 build/pic32mz_da_sk_intddr_meb2/production/_ext/1796496159/sys_devcon_cache_pic32mz.o
 .text          0x00000000        0x0 build/pic32mz_da_sk_intddr_meb2/production/_ext/730466360/sys_ports_static.o
 .data          0x00000000        0x0 build/pic32mz_da_sk_intddr_meb2/production/_ext/730466360/sys_ports_static.o
 .bss           0x00000000        0x0 build/pic32mz_da_sk_intddr_meb2/production/_ext/730466360/sys_ports_static.o
 .reginfo       0x00000000       0x18 build/pic32mz_da_sk_intddr_meb2/production/_ext/730466360/sys_ports_static.o
 .text.SYS_PORTS_Read
                0x00000000       0x24 build/pic32mz_da_sk_intddr_meb2/production/_ext/730466360/sys_ports_static.o
 .text.SYS_PORTS_Write
                0x00000000       0x28 build/pic32mz_da_sk_intddr_meb2/production/_ext/730466360/sys_ports_static.o
 .text.SYS_PORTS_LatchedGet
                0x00000000        0x8 build/pic32mz_da_sk_intddr_meb2/production/_ext/730466360/sys_ports_static.o
 .text.SYS_PORTS_Set
                0x00000000       0x2c build/pic32mz_da_sk_intddr_meb2/production/_ext/730466360/sys_ports_static.o
 .text.SYS_PORTS_Clear
                0x00000000       0x28 build/pic32mz_da_sk_intddr_meb2/production/_ext/730466360/sys_ports_static.o
 .text.SYS_PORTS_DirectionSelect
                0x00000000       0x54 build/pic32mz_da_sk_intddr_meb2/production/_ext/730466360/sys_ports_static.o
 .text.SYS_PORTS_DirectionGet
                0x00000000       0x24 build/pic32mz_da_sk_intddr_meb2/production/_ext/730466360/sys_ports_static.o
 .text.SYS_PORTS_Toggle
                0x00000000       0x28 build/pic32mz_da_sk_intddr_meb2/production/_ext/730466360/sys_ports_static.o
 .text.SYS_PORTS_OpenDrainEnable
                0x00000000       0x28 build/pic32mz_da_sk_intddr_meb2/production/_ext/730466360/sys_ports_static.o
 .text.SYS_PORTS_OpenDrainDisable
                0x00000000       0x28 build/pic32mz_da_sk_intddr_meb2/production/_ext/730466360/sys_ports_static.o
 .text.SYS_PORTS_InterruptStatusGet
                0x00000000        0x8 build/pic32mz_da_sk_intddr_meb2/production/_ext/730466360/sys_ports_static.o
 .text.SYS_PORTS_ChangeNotificationGlobalEnable
                0x00000000        0x8 build/pic32mz_da_sk_intddr_meb2/production/_ext/730466360/sys_ports_static.o
 .text.SYS_PORTS_ChangeNotificationGlobalDisable
                0x00000000        0x8 build/pic32mz_da_sk_intddr_meb2/production/_ext/730466360/sys_ports_static.o
 .text.SYS_PORTS_GlobalChangeNotificationDisable
                0x00000000        0x8 build/pic32mz_da_sk_intddr_meb2/production/_ext/730466360/sys_ports_static.o
 .text.SYS_PORTS_ChangeNotificationEnable
                0x00000000        0x8 build/pic32mz_da_sk_intddr_meb2/production/_ext/730466360/sys_ports_static.o
 .text.SYS_PORTS_ChangeNotificationDisable
                0x00000000        0x8 build/pic32mz_da_sk_intddr_meb2/production/_ext/730466360/sys_ports_static.o
 .text.SYS_PORTS_ChangeNotificationInIdleModeEnable
                0x00000000        0x8 build/pic32mz_da_sk_intddr_meb2/production/_ext/730466360/sys_ports_static.o
 .text.SYS_PORTS_ChangeNotificationInIdleModeDisable
                0x00000000        0x8 build/pic32mz_da_sk_intddr_meb2/production/_ext/730466360/sys_ports_static.o
 .text.SYS_PORTS_ChangeNotificationPullUpEnable
                0x00000000        0x8 build/pic32mz_da_sk_intddr_meb2/production/_ext/730466360/sys_ports_static.o
 .text.SYS_PORTS_ChangeNotificationPullUpDisable
                0x00000000        0x8 build/pic32mz_da_sk_intddr_meb2/production/_ext/730466360/sys_ports_static.o
 .text.SYS_PORTS_PinModeSelect
                0x00000000       0x64 build/pic32mz_da_sk_intddr_meb2/production/_ext/730466360/sys_ports_static.o
 .text.SYS_PORTS_PinWrite
                0x00000000       0x60 build/pic32mz_da_sk_intddr_meb2/production/_ext/730466360/sys_ports_static.o
 .text.SYS_PORTS_PinLatchedGet
                0x00000000        0x8 build/pic32mz_da_sk_intddr_meb2/production/_ext/730466360/sys_ports_static.o
 .text.SYS_PORTS_PinRead
                0x00000000       0x28 build/pic32mz_da_sk_intddr_meb2/production/_ext/730466360/sys_ports_static.o
 .text.SYS_PORTS_PinToggle
                0x00000000       0x30 build/pic32mz_da_sk_intddr_meb2/production/_ext/730466360/sys_ports_static.o
 .text.SYS_PORTS_PinSet
                0x00000000       0x30 build/pic32mz_da_sk_intddr_meb2/production/_ext/730466360/sys_ports_static.o
 .text.SYS_PORTS_PinClear
                0x00000000       0x30 build/pic32mz_da_sk_intddr_meb2/production/_ext/730466360/sys_ports_static.o
 .text.SYS_PORTS_PinDirectionSelect
                0x00000000       0x60 build/pic32mz_da_sk_intddr_meb2/production/_ext/730466360/sys_ports_static.o
 .text.SYS_PORTS_PinOpenDrainEnable
                0x00000000       0x30 build/pic32mz_da_sk_intddr_meb2/production/_ext/730466360/sys_ports_static.o
 .text.SYS_PORTS_PinOpenDrainDisable
                0x00000000       0x30 build/pic32mz_da_sk_intddr_meb2/production/_ext/730466360/sys_ports_static.o
 .text.SYS_PORTS_PinPullUpEnable
                0x00000000        0x8 build/pic32mz_da_sk_intddr_meb2/production/_ext/730466360/sys_ports_static.o
 .text.SYS_PORTS_PinPullUpDisable
                0x00000000        0x8 build/pic32mz_da_sk_intddr_meb2/production/_ext/730466360/sys_ports_static.o
 .text.SYS_PORTS_PinPullDownEnable
                0x00000000        0x8 build/pic32mz_da_sk_intddr_meb2/production/_ext/730466360/sys_ports_static.o
 .text.SYS_PORTS_PinPullDownDisable
                0x00000000        0x8 build/pic32mz_da_sk_intddr_meb2/production/_ext/730466360/sys_ports_static.o
 .text.SYS_PORTS_InterruptEnable
                0x00000000        0x8 build/pic32mz_da_sk_intddr_meb2/production/_ext/730466360/sys_ports_static.o
 .text.SYS_PORTS_RemapInput
                0x00000000       0x5c build/pic32mz_da_sk_intddr_meb2/production/_ext/730466360/sys_ports_static.o
 .text.SYS_PORTS_RemapOutput
                0x00000000       0x68 build/pic32mz_da_sk_intddr_meb2/production/_ext/730466360/sys_ports_static.o
 .text          0x00000000        0x0 build/pic32mz_da_sk_intddr_meb2/production/_ext/639474099/sys_console_static.o
 .data          0x00000000        0x0 build/pic32mz_da_sk_intddr_meb2/production/_ext/639474099/sys_console_static.o
 .bss           0x00000000        0x0 build/pic32mz_da_sk_intddr_meb2/production/_ext/639474099/sys_console_static.o
 .reginfo       0x00000000       0x18 build/pic32mz_da_sk_intddr_meb2/production/_ext/639474099/sys_console_static.o
 .text.SYS_CONSOLE_Reinitialize
                0x00000000        0x8 build/pic32mz_da_sk_intddr_meb2/production/_ext/639474099/sys_console_static.o
 .text.SYS_CONSOLE_Deinitialize
                0x00000000        0x8 build/pic32mz_da_sk_intddr_meb2/production/_ext/639474099/sys_console_static.o
 .text.SYS_CONSOLE_Status
                0x00000000        0x8 build/pic32mz_da_sk_intddr_meb2/production/_ext/639474099/sys_console_static.o
 .text.SYS_CONSOLE_Read
                0x00000000       0x40 build/pic32mz_da_sk_intddr_meb2/production/_ext/639474099/sys_console_static.o
 .text.SYS_CONSOLE_RegisterCallback
                0x00000000        0x8 build/pic32mz_da_sk_intddr_meb2/production/_ext/639474099/sys_console_static.o
 .text.SYS_CONSOLE_Flush
                0x00000000        0x8 build/pic32mz_da_sk_intddr_meb2/production/_ext/639474099/sys_console_static.o
 .text          0x00000000        0x0 build/pic32mz_da_sk_intddr_meb2/production/_ext/327666056/sys_memory_ddr_static.o
 .data          0x00000000        0x0 build/pic32mz_da_sk_intddr_meb2/production/_ext/327666056/sys_memory_ddr_static.o
 .bss           0x00000000        0x0 build/pic32mz_da_sk_intddr_meb2/production/_ext/327666056/sys_memory_ddr_static.o
 .reginfo       0x00000000       0x18 build/pic32mz_da_sk_intddr_meb2/production/_ext/327666056/sys_memory_ddr_static.o
 .text          0x00000000        0x0 build/pic32mz_da_sk_intddr_meb2/production/_ext/85614229/sys_memory_static.o
 .data          0x00000000        0x0 build/pic32mz_da_sk_intddr_meb2/production/_ext/85614229/sys_memory_static.o
 .bss           0x00000000        0x0 build/pic32mz_da_sk_intddr_meb2/production/_ext/85614229/sys_memory_static.o
 .reginfo       0x00000000       0x18 build/pic32mz_da_sk_intddr_meb2/production/_ext/85614229/sys_memory_static.o
 .text          0x00000000        0x0 build/pic32mz_da_sk_intddr_meb2/production/_ext/1547055377/bsp.o
 .data          0x00000000        0x0 build/pic32mz_da_sk_intddr_meb2/production/_ext/1547055377/bsp.o
 .bss           0x00000000        0x0 build/pic32mz_da_sk_intddr_meb2/production/_ext/1547055377/bsp.o
 .reginfo       0x00000000       0x18 build/pic32mz_da_sk_intddr_meb2/production/_ext/1547055377/bsp.o
 .text          0x00000000        0x0 build/pic32mz_da_sk_intddr_meb2/production/_ext/1653314881/system_init.o
 .bss           0x00000000        0x0 build/pic32mz_da_sk_intddr_meb2/production/_ext/1653314881/system_init.o
 .reginfo       0x00000000       0x18 build/pic32mz_da_sk_intddr_meb2/production/_ext/1653314881/system_init.o
 .text          0x00000000        0x0 build/pic32mz_da_sk_intddr_meb2/production/_ext/1653314881/system_interrupt.o
 .data          0x00000000        0x0 build/pic32mz_da_sk_intddr_meb2/production/_ext/1653314881/system_interrupt.o
 .bss           0x00000000        0x0 build/pic32mz_da_sk_intddr_meb2/production/_ext/1653314881/system_interrupt.o
 .reginfo       0x00000000       0x18 build/pic32mz_da_sk_intddr_meb2/production/_ext/1653314881/system_interrupt.o
 .text          0x00000000        0x0 build/pic32mz_da_sk_intddr_meb2/production/_ext/1653314881/general_exception_handler.o
 .data          0x00000000        0x0 build/pic32mz_da_sk_intddr_meb2/production/_ext/1653314881/general_exception_handler.o
 .bss           0x00000000        0x0 build/pic32mz_da_sk_intddr_meb2/production/_ext/1653314881/general_exception_handler.o
 .reginfo       0x00000000       0x18 build/pic32mz_da_sk_intddr_meb2/production/_ext/1653314881/general_exception_handler.o
 .text          0x00000000        0x0 build/pic32mz_da_sk_intddr_meb2/production/_ext/1653314881/general-exception-context.o
 .data          0x00000000        0x0 build/pic32mz_da_sk_intddr_meb2/production/_ext/1653314881/general-exception-context.o
 .bss           0x00000000        0x0 build/pic32mz_da_sk_intddr_meb2/production/_ext/1653314881/general-exception-context.o
 .reginfo       0x00000000       0x18 build/pic32mz_da_sk_intddr_meb2/production/_ext/1653314881/general-exception-context.o
 .text          0x00000000        0x0 build/pic32mz_da_sk_intddr_meb2/production/_ext/1653314881/fassert.o
 .data          0x00000000        0x0 build/pic32mz_da_sk_intddr_meb2/production/_ext/1653314881/fassert.o
 .bss           0x00000000        0x0 build/pic32mz_da_sk_intddr_meb2/production/_ext/1653314881/fassert.o
 .reginfo       0x00000000       0x18 build/pic32mz_da_sk_intddr_meb2/production/_ext/1653314881/fassert.o
 .text          0x00000000        0x0 build/pic32mz_da_sk_intddr_meb2/production/_ext/1653314881/system_tasks.o
 .data          0x00000000        0x0 build/pic32mz_da_sk_intddr_meb2/production/_ext/1653314881/system_tasks.o
 .bss           0x00000000        0x0 build/pic32mz_da_sk_intddr_meb2/production/_ext/1653314881/system_tasks.o
 .reginfo       0x00000000       0x18 build/pic32mz_da_sk_intddr_meb2/production/_ext/1653314881/system_tasks.o
 .text          0x00000000        0x0 build/pic32mz_da_sk_intddr_meb2/production/_ext/1021385576/gfx_assets.o
 .bss           0x00000000        0x0 build/pic32mz_da_sk_intddr_meb2/production/_ext/1021385576/gfx_assets.o
 .reginfo       0x00000000       0x18 build/pic32mz_da_sk_intddr_meb2/production/_ext/1021385576/gfx_assets.o
 .text          0x00000000        0x0 f:/software_installations/mplab_xc32/bin/bin/../../lib/gcc/pic32mx/4.8.3/../../../../pic32mx/lib/./proc/32MZ2064DAG176\default_isr_vectors.o
 .data          0x00000000        0x0 f:/software_installations/mplab_xc32/bin/bin/../../lib/gcc/pic32mx/4.8.3/../../../../pic32mx/lib/./proc/32MZ2064DAG176\default_isr_vectors.o
 .bss           0x00000000        0x0 f:/software_installations/mplab_xc32/bin/bin/../../lib/gcc/pic32mx/4.8.3/../../../../pic32mx/lib/./proc/32MZ2064DAG176\default_isr_vectors.o
 .reginfo       0x00000000       0x18 f:/software_installations/mplab_xc32/bin/bin/../../lib/gcc/pic32mx/4.8.3/../../../../pic32mx/lib/./proc/32MZ2064DAG176\default_isr_vectors.o
 .discard       0x00000000        0x4 f:/software_installations/mplab_xc32/bin/bin/../../lib/gcc/pic32mx/4.8.3/../../../../pic32mx/lib/./proc/32MZ2064DAG176\default_isr_vectors.o
 .data          0x00000000        0x0 f:/software_installations/mplab_xc32/bin/bin/../../lib/gcc/pic32mx/4.8.3/../../../../pic32mx/lib\pic32_software_reset.o
 .bss           0x00000000        0x0 f:/software_installations/mplab_xc32/bin/bin/../../lib/gcc/pic32mx/4.8.3/../../../../pic32mx/lib\pic32_software_reset.o
 .reginfo       0x00000000       0x18 f:/software_installations/mplab_xc32/bin/bin/../../lib/gcc/pic32mx/4.8.3/../../../../pic32mx/lib\pic32_software_reset.o
 .text          0x00000000        0x0 f:/software_installations/mplab_xc32/bin/bin/../../lib/gcc/pic32mx/4.8.3/../../../../pic32mx/lib/./proc/32MZ2064DAG176\processor.o
 .data          0x00000000        0x0 f:/software_installations/mplab_xc32/bin/bin/../../lib/gcc/pic32mx/4.8.3/../../../../pic32mx/lib/./proc/32MZ2064DAG176\processor.o
 .bss           0x00000000        0x0 f:/software_installations/mplab_xc32/bin/bin/../../lib/gcc/pic32mx/4.8.3/../../../../pic32mx/lib/./proc/32MZ2064DAG176\processor.o
 .reginfo       0x00000000       0x18 f:/software_installations/mplab_xc32/bin/bin/../../lib/gcc/pic32mx/4.8.3/../../../../pic32mx/lib/./proc/32MZ2064DAG176\processor.o
 .text          0x00000000        0x0 f:/software_installations/mplab_xc32/bin/bin/../../lib/gcc/pic32mx/4.8.3/../../../../pic32mx/lib/./proc/32MZ2064DAG176\vector_offset_init.o
 .data          0x00000000        0x0 f:/software_installations/mplab_xc32/bin/bin/../../lib/gcc/pic32mx/4.8.3/../../../../pic32mx/lib/./proc/32MZ2064DAG176\vector_offset_init.o
 .bss           0x00000000        0x0 f:/software_installations/mplab_xc32/bin/bin/../../lib/gcc/pic32mx/4.8.3/../../../../pic32mx/lib/./proc/32MZ2064DAG176\vector_offset_init.o
 .reginfo       0x00000000       0x18 f:/software_installations/mplab_xc32/bin/bin/../../lib/gcc/pic32mx/4.8.3/../../../../pic32mx/lib/./proc/32MZ2064DAG176\vector_offset_init.o
 .data          0x00000000        0x0 f:/software_installations/mplab_xc32/bin/bin/../../lib/gcc/pic32mx/4.8.3\libgcc.a(floatunsisf.o)
 .bss           0x00000000        0x0 f:/software_installations/mplab_xc32/bin/bin/../../lib/gcc/pic32mx/4.8.3\libgcc.a(floatunsisf.o)
 .reginfo       0x00000000       0x18 f:/software_installations/mplab_xc32/bin/bin/../../lib/gcc/pic32mx/4.8.3\libgcc.a(floatunsisf.o)
 .data          0x00000000        0x0 f:/software_installations/mplab_xc32/bin/bin/../../lib/gcc/pic32mx/4.8.3/../../../../pic32mx/lib\libpic32.a(memcpy.o)
 .bss           0x00000000        0x0 f:/software_installations/mplab_xc32/bin/bin/../../lib/gcc/pic32mx/4.8.3/../../../../pic32mx/lib\libpic32.a(memcpy.o)
 .reginfo       0x00000000       0x18 f:/software_installations/mplab_xc32/bin/bin/../../lib/gcc/pic32mx/4.8.3/../../../../pic32mx/lib\libpic32.a(memcpy.o)
 .data          0x00000000        0x0 f:/software_installations/mplab_xc32/bin/bin/../../lib/gcc/pic32mx/4.8.3/../../../../pic32mx/lib\libpic32.a(memset.o)
 .bss           0x00000000        0x0 f:/software_installations/mplab_xc32/bin/bin/../../lib/gcc/pic32mx/4.8.3/../../../../pic32mx/lib\libpic32.a(memset.o)
 .reginfo       0x00000000       0x18 f:/software_installations/mplab_xc32/bin/bin/../../lib/gcc/pic32mx/4.8.3/../../../../pic32mx/lib\libpic32.a(memset.o)
 .text          0x00000000      0x120 f:/software_installations/mplab_xc32/bin/bin/../../lib/gcc/pic32mx/4.8.3/../../../../pic32mx/lib\libpic32.a(strcmp.o)
 .data          0x00000000        0x0 f:/software_installations/mplab_xc32/bin/bin/../../lib/gcc/pic32mx/4.8.3/../../../../pic32mx/lib\libpic32.a(strcmp.o)
 .bss           0x00000000        0x0 f:/software_installations/mplab_xc32/bin/bin/../../lib/gcc/pic32mx/4.8.3/../../../../pic32mx/lib\libpic32.a(strcmp.o)
 .reginfo       0x00000000       0x18 f:/software_installations/mplab_xc32/bin/bin/../../lib/gcc/pic32mx/4.8.3/../../../../pic32mx/lib\libpic32.a(strcmp.o)
 .comment       0x00000000       0x1a f:/software_installations/mplab_xc32/bin/bin/../../lib/gcc/pic32mx/4.8.3/../../../../pic32mx/lib\libpic32.a(strcmp.o)
 .data          0x00000000        0x0 f:/software_installations/mplab_xc32/bin/bin/../../lib/gcc/pic32mx/4.8.3/../../../../pic32mx/lib\libpic32.a(strcpy.o)
 .bss           0x00000000        0x0 f:/software_installations/mplab_xc32/bin/bin/../../lib/gcc/pic32mx/4.8.3/../../../../pic32mx/lib\libpic32.a(strcpy.o)
 .reginfo       0x00000000       0x18 f:/software_installations/mplab_xc32/bin/bin/../../lib/gcc/pic32mx/4.8.3/../../../../pic32mx/lib\libpic32.a(strcpy.o)
 .data          0x00000000        0x0 f:/software_installations/mplab_xc32/bin/bin/../../lib/gcc/pic32mx/4.8.3/../../../../pic32mx/lib\libpic32.a(strlen.o)
 .bss           0x00000000        0x0 f:/software_installations/mplab_xc32/bin/bin/../../lib/gcc/pic32mx/4.8.3/../../../../pic32mx/lib\libpic32.a(strlen.o)
 .reginfo       0x00000000       0x18 f:/software_installations/mplab_xc32/bin/bin/../../lib/gcc/pic32mx/4.8.3/../../../../pic32mx/lib\libpic32.a(strlen.o)
 .text          0x00000000        0x0 f:/software_installations/mplab_xc32/bin/bin/../../lib/gcc/pic32mx/4.8.3/../../../../pic32mx/lib\libpic32.a(default-bootstrap-exception-handler.o)
 .data          0x00000000        0x0 f:/software_installations/mplab_xc32/bin/bin/../../lib/gcc/pic32mx/4.8.3/../../../../pic32mx/lib\libpic32.a(default-bootstrap-exception-handler.o)
 .bss           0x00000000        0x0 f:/software_installations/mplab_xc32/bin/bin/../../lib/gcc/pic32mx/4.8.3/../../../../pic32mx/lib\libpic32.a(default-bootstrap-exception-handler.o)
 .reginfo       0x00000000       0x18 f:/software_installations/mplab_xc32/bin/bin/../../lib/gcc/pic32mx/4.8.3/../../../../pic32mx/lib\libpic32.a(default-bootstrap-exception-handler.o)
 .text          0x00000000        0x0 f:/software_installations/mplab_xc32/bin/bin/../../lib/gcc/pic32mx/4.8.3/../../../../pic32mx/lib\libpic32.a(default-on-reset.o)
 .data          0x00000000        0x0 f:/software_installations/mplab_xc32/bin/bin/../../lib/gcc/pic32mx/4.8.3/../../../../pic32mx/lib\libpic32.a(default-on-reset.o)
 .bss           0x00000000        0x0 f:/software_installations/mplab_xc32/bin/bin/../../lib/gcc/pic32mx/4.8.3/../../../../pic32mx/lib\libpic32.a(default-on-reset.o)
 .reginfo       0x00000000       0x18 f:/software_installations/mplab_xc32/bin/bin/../../lib/gcc/pic32mx/4.8.3/../../../../pic32mx/lib\libpic32.a(default-on-reset.o)
 .text          0x00000000        0x0 f:/software_installations/mplab_xc32/bin/bin/../../lib/gcc/pic32mx/4.8.3/../../../../pic32mx/lib\libpic32.a(default-on-bootstrap.o)
 .data          0x00000000        0x0 f:/software_installations/mplab_xc32/bin/bin/../../lib/gcc/pic32mx/4.8.3/../../../../pic32mx/lib\libpic32.a(default-on-bootstrap.o)
 .bss           0x00000000        0x0 f:/software_installations/mplab_xc32/bin/bin/../../lib/gcc/pic32mx/4.8.3/../../../../pic32mx/lib\libpic32.a(default-on-bootstrap.o)
 .reginfo       0x00000000       0x18 f:/software_installations/mplab_xc32/bin/bin/../../lib/gcc/pic32mx/4.8.3/../../../../pic32mx/lib\libpic32.a(default-on-bootstrap.o)
 .data          0x00000000        0x0 f:/software_installations/mplab_xc32/bin/bin/../../lib/gcc/pic32mx/4.8.3/../../../../pic32mx/lib\libpic32.a(default-nmi-handler.o)
 .bss           0x00000000        0x0 f:/software_installations/mplab_xc32/bin/bin/../../lib/gcc/pic32mx/4.8.3/../../../../pic32mx/lib\libpic32.a(default-nmi-handler.o)
 .reginfo       0x00000000       0x18 f:/software_installations/mplab_xc32/bin/bin/../../lib/gcc/pic32mx/4.8.3/../../../../pic32mx/lib\libpic32.a(default-nmi-handler.o)
 .data          0x00000000        0x0 f:/software_installations/mplab_xc32/bin/bin/../../lib/gcc/pic32mx/4.8.3/../../../../pic32mx/lib\libpic32.a(pic32_data_init.o)
 .bss           0x00000000        0x0 f:/software_installations/mplab_xc32/bin/bin/../../lib/gcc/pic32mx/4.8.3/../../../../pic32mx/lib\libpic32.a(pic32_data_init.o)
 .reginfo       0x00000000       0x18 f:/software_installations/mplab_xc32/bin/bin/../../lib/gcc/pic32mx/4.8.3/../../../../pic32mx/lib\libpic32.a(pic32_data_init.o)
 .text          0x00000000        0x0 f:/software_installations/mplab_xc32/bin/bin/../../lib/gcc/pic32mx/4.8.3/../../../../pic32mx/lib\libpic32.a(pic32_init_cache.o)
 .data          0x00000000        0x0 f:/software_installations/mplab_xc32/bin/bin/../../lib/gcc/pic32mx/4.8.3/../../../../pic32mx/lib\libpic32.a(pic32_init_cache.o)
 .bss           0x00000000        0x0 f:/software_installations/mplab_xc32/bin/bin/../../lib/gcc/pic32mx/4.8.3/../../../../pic32mx/lib\libpic32.a(pic32_init_cache.o)
 .reginfo       0x00000000       0x18 f:/software_installations/mplab_xc32/bin/bin/../../lib/gcc/pic32mx/4.8.3/../../../../pic32mx/lib\libpic32.a(pic32_init_cache.o)
 .cache_init.pic32_size_cache
                0x00000000       0x58 f:/software_installations/mplab_xc32/bin/bin/../../lib/gcc/pic32mx/4.8.3/../../../../pic32mx/lib\libpic32.a(pic32_init_cache.o)
 .text          0x00000000        0x0 f:/software_installations/mplab_xc32/bin/bin/../../lib/gcc/pic32mx/4.8.3/../../../../pic32mx/lib\libpic32.a(pic32_init_tlb_ebi_sqi.o)
 .data          0x00000000        0x0 f:/software_installations/mplab_xc32/bin/bin/../../lib/gcc/pic32mx/4.8.3/../../../../pic32mx/lib\libpic32.a(pic32_init_tlb_ebi_sqi.o)
 .bss           0x00000000        0x0 f:/software_installations/mplab_xc32/bin/bin/../../lib/gcc/pic32mx/4.8.3/../../../../pic32mx/lib\libpic32.a(pic32_init_tlb_ebi_sqi.o)
 .reginfo       0x00000000       0x18 f:/software_installations/mplab_xc32/bin/bin/../../lib/gcc/pic32mx/4.8.3/../../../../pic32mx/lib\libpic32.a(pic32_init_tlb_ebi_sqi.o)
 .text          0x00000000        0x0 f:/software_installations/mplab_xc32/bin/bin/../../lib/gcc/pic32mx/4.8.3/../../../../pic32mx/lib\libpic32.a(cache-err-exception.o)
 .data          0x00000000        0x0 f:/software_installations/mplab_xc32/bin/bin/../../lib/gcc/pic32mx/4.8.3/../../../../pic32mx/lib\libpic32.a(cache-err-exception.o)
 .bss           0x00000000        0x0 f:/software_installations/mplab_xc32/bin/bin/../../lib/gcc/pic32mx/4.8.3/../../../../pic32mx/lib\libpic32.a(cache-err-exception.o)
 .reginfo       0x00000000       0x18 f:/software_installations/mplab_xc32/bin/bin/../../lib/gcc/pic32mx/4.8.3/../../../../pic32mx/lib\libpic32.a(cache-err-exception.o)
 .text          0x00000000        0x0 f:/software_installations/mplab_xc32/bin/bin/../../lib/gcc/pic32mx/4.8.3/../../../../pic32mx/lib\libpic32.a(simple-tlb-refill-exception.o)
 .data          0x00000000        0x0 f:/software_installations/mplab_xc32/bin/bin/../../lib/gcc/pic32mx/4.8.3/../../../../pic32mx/lib\libpic32.a(simple-tlb-refill-exception.o)
 .bss           0x00000000        0x0 f:/software_installations/mplab_xc32/bin/bin/../../lib/gcc/pic32mx/4.8.3/../../../../pic32mx/lib\libpic32.a(simple-tlb-refill-exception.o)
 .reginfo       0x00000000       0x18 f:/software_installations/mplab_xc32/bin/bin/../../lib/gcc/pic32mx/4.8.3/../../../../pic32mx/lib\libpic32.a(simple-tlb-refill-exception.o)
 .text          0x00000000        0x0 f:/software_installations/mplab_xc32/bin/bin/../../lib/gcc/pic32mx/4.8.3/../../../../pic32mx/lib\libpic32.a(defaultinterrupt.o)
 .data          0x00000000        0x0 f:/software_installations/mplab_xc32/bin/bin/../../lib/gcc/pic32mx/4.8.3/../../../../pic32mx/lib\libpic32.a(defaultinterrupt.o)
 .bss           0x00000000        0x0 f:/software_installations/mplab_xc32/bin/bin/../../lib/gcc/pic32mx/4.8.3/../../../../pic32mx/lib\libpic32.a(defaultinterrupt.o)
 .reginfo       0x00000000       0x18 f:/software_installations/mplab_xc32/bin/bin/../../lib/gcc/pic32mx/4.8.3/../../../../pic32mx/lib\libpic32.a(defaultinterrupt.o)
 .text          0x00000000        0x0 f:/software_installations/mplab_xc32/bin/bin/../../lib/gcc/pic32mx/4.8.3/../../../../pic32mx/lib\libpic32.a(default-cache-err-exception-handler.o)
 .data          0x00000000        0x0 f:/software_installations/mplab_xc32/bin/bin/../../lib/gcc/pic32mx/4.8.3/../../../../pic32mx/lib\libpic32.a(default-cache-err-exception-handler.o)
 .bss           0x00000000        0x0 f:/software_installations/mplab_xc32/bin/bin/../../lib/gcc/pic32mx/4.8.3/../../../../pic32mx/lib\libpic32.a(default-cache-err-exception-handler.o)
 .reginfo       0x00000000       0x18 f:/software_installations/mplab_xc32/bin/bin/../../lib/gcc/pic32mx/4.8.3/../../../../pic32mx/lib\libpic32.a(default-cache-err-exception-handler.o)
 .text          0x00000000        0x0 f:/software_installations/mplab_xc32/bin/bin/../../lib/gcc/pic32mx/4.8.3/../../../../pic32mx/lib\libpic32.a(default-simple-tlb-refill-exception-handler.o)
 .data          0x00000000        0x0 f:/software_installations/mplab_xc32/bin/bin/../../lib/gcc/pic32mx/4.8.3/../../../../pic32mx/lib\libpic32.a(default-simple-tlb-refill-exception-handler.o)
 .bss           0x00000000        0x0 f:/software_installations/mplab_xc32/bin/bin/../../lib/gcc/pic32mx/4.8.3/../../../../pic32mx/lib\libpic32.a(default-simple-tlb-refill-exception-handler.o)
 .reginfo       0x00000000       0x18 f:/software_installations/mplab_xc32/bin/bin/../../lib/gcc/pic32mx/4.8.3/../../../../pic32mx/lib\libpic32.a(default-simple-tlb-refill-exception-handler.o)
 .text          0x00000000        0x0 f:/software_installations/mplab_xc32/bin/bin/../../lib/gcc/pic32mx/4.8.3/../../../../pic32mx/lib\liblega-c.a(malloc.o)
 .reginfo       0x00000000       0x18 f:/software_installations/mplab_xc32/bin/bin/../../lib/gcc/pic32mx/4.8.3/../../../../pic32mx/lib\liblega-c.a(malloc.o)
 .text          0x00000000        0x0 f:/software_installations/mplab_xc32/bin/bin/../../lib/gcc/pic32mx/4.8.3/../../../../pic32mx/lib\liblega-c.a(malloc_realloc.o)
 .data          0x00000000        0x0 f:/software_installations/mplab_xc32/bin/bin/../../lib/gcc/pic32mx/4.8.3/../../../../pic32mx/lib\liblega-c.a(malloc_realloc.o)
 .bss           0x00000000        0x0 f:/software_installations/mplab_xc32/bin/bin/../../lib/gcc/pic32mx/4.8.3/../../../../pic32mx/lib\liblega-c.a(malloc_realloc.o)
 .reginfo       0x00000000       0x18 f:/software_installations/mplab_xc32/bin/bin/../../lib/gcc/pic32mx/4.8.3/../../../../pic32mx/lib\liblega-c.a(malloc_realloc.o)
 .text          0x00000000        0x0 f:/software_installations/mplab_xc32/bin/bin/../../lib/gcc/pic32mx/4.8.3/../../../../pic32mx/lib\liblega-c.a(malloc_calloc.o)
 .data          0x00000000        0x0 f:/software_installations/mplab_xc32/bin/bin/../../lib/gcc/pic32mx/4.8.3/../../../../pic32mx/lib\liblega-c.a(malloc_calloc.o)
 .bss           0x00000000        0x0 f:/software_installations/mplab_xc32/bin/bin/../../lib/gcc/pic32mx/4.8.3/../../../../pic32mx/lib\liblega-c.a(malloc_calloc.o)
 .reginfo       0x00000000       0x18 f:/software_installations/mplab_xc32/bin/bin/../../lib/gcc/pic32mx/4.8.3/../../../../pic32mx/lib\liblega-c.a(malloc_calloc.o)
 .text          0x00000000        0x0 f:/software_installations/mplab_xc32/bin/bin/../../lib/gcc/pic32mx/4.8.3/../../../../pic32mx/lib\liblega-c.a(errno.o)
 .data          0x00000000        0x0 f:/software_installations/mplab_xc32/bin/bin/../../lib/gcc/pic32mx/4.8.3/../../../../pic32mx/lib\liblega-c.a(errno.o)
 .bss           0x00000000        0x0 f:/software_installations/mplab_xc32/bin/bin/../../lib/gcc/pic32mx/4.8.3/../../../../pic32mx/lib\liblega-c.a(errno.o)
 .reginfo       0x00000000       0x18 f:/software_installations/mplab_xc32/bin/bin/../../lib/gcc/pic32mx/4.8.3/../../../../pic32mx/lib\liblega-c.a(errno.o)
 .text          0x00000000        0x0 f:/software_installations/mplab_xc32/bin/bin/../../lib/gcc/pic32mx/4.8.3/../../../../pic32mx/lib\liblega-c.a(sprintf_cdnopuxX.eo)
 .data          0x00000000        0x0 f:/software_installations/mplab_xc32/bin/bin/../../lib/gcc/pic32mx/4.8.3/../../../../pic32mx/lib\liblega-c.a(sprintf_cdnopuxX.eo)
 .bss           0x00000000        0x0 f:/software_installations/mplab_xc32/bin/bin/../../lib/gcc/pic32mx/4.8.3/../../../../pic32mx/lib\liblega-c.a(sprintf_cdnopuxX.eo)
 .reginfo       0x00000000       0x18 f:/software_installations/mplab_xc32/bin/bin/../../lib/gcc/pic32mx/4.8.3/../../../../pic32mx/lib\liblega-c.a(sprintf_cdnopuxX.eo)
 .text._sprintf_cdnopuxX
                0x00000000       0x6c f:/software_installations/mplab_xc32/bin/bin/../../lib/gcc/pic32mx/4.8.3/../../../../pic32mx/lib\liblega-c.a(sprintf_cdnopuxX.eo)
 .text          0x00000000        0x0 f:/software_installations/mplab_xc32/bin/bin/../../lib/gcc/pic32mx/4.8.3/../../../../pic32mx/lib\liblega-c.a(vsnprintf.o)
 .data          0x00000000        0x0 f:/software_installations/mplab_xc32/bin/bin/../../lib/gcc/pic32mx/4.8.3/../../../../pic32mx/lib\liblega-c.a(vsnprintf.o)
 .bss           0x00000000        0x0 f:/software_installations/mplab_xc32/bin/bin/../../lib/gcc/pic32mx/4.8.3/../../../../pic32mx/lib\liblega-c.a(vsnprintf.o)
 .reginfo       0x00000000       0x18 f:/software_installations/mplab_xc32/bin/bin/../../lib/gcc/pic32mx/4.8.3/../../../../pic32mx/lib\liblega-c.a(vsnprintf.o)
 .text          0x00000000        0x0 f:/software_installations/mplab_xc32/bin/bin/../../lib/gcc/pic32mx/4.8.3/../../../../pic32mx/lib\liblega-c.a(memmove.o)
 .data          0x00000000        0x0 f:/software_installations/mplab_xc32/bin/bin/../../lib/gcc/pic32mx/4.8.3/../../../../pic32mx/lib\liblega-c.a(memmove.o)
 .bss           0x00000000        0x0 f:/software_installations/mplab_xc32/bin/bin/../../lib/gcc/pic32mx/4.8.3/../../../../pic32mx/lib\liblega-c.a(memmove.o)
 .reginfo       0x00000000       0x18 f:/software_installations/mplab_xc32/bin/bin/../../lib/gcc/pic32mx/4.8.3/../../../../pic32mx/lib\liblega-c.a(memmove.o)
 .text          0x00000000        0x0 f:/software_installations/mplab_xc32/bin/bin/../../lib/gcc/pic32mx/4.8.3/../../../../pic32mx/lib\liblega-c.a(_doprnt_cdnopuxX.eo)
 .data          0x00000000        0x0 f:/software_installations/mplab_xc32/bin/bin/../../lib/gcc/pic32mx/4.8.3/../../../../pic32mx/lib\liblega-c.a(_doprnt_cdnopuxX.eo)
 .bss           0x00000000        0x0 f:/software_installations/mplab_xc32/bin/bin/../../lib/gcc/pic32mx/4.8.3/../../../../pic32mx/lib\liblega-c.a(_doprnt_cdnopuxX.eo)
 .reginfo       0x00000000       0x18 f:/software_installations/mplab_xc32/bin/bin/../../lib/gcc/pic32mx/4.8.3/../../../../pic32mx/lib\liblega-c.a(_doprnt_cdnopuxX.eo)
 .text.repl.constprop.0
                0x00000000       0xac f:/software_installations/mplab_xc32/bin/bin/../../lib/gcc/pic32mx/4.8.3/../../../../pic32mx/lib\liblega-c.a(_doprnt_cdnopuxX.eo)
 .text._outcnvrt
                0x00000000      0x13c f:/software_installations/mplab_xc32/bin/bin/../../lib/gcc/pic32mx/4.8.3/../../../../pic32mx/lib\liblega-c.a(_doprnt_cdnopuxX.eo)
 .rodata        0x00000000       0x28 f:/software_installations/mplab_xc32/bin/bin/../../lib/gcc/pic32mx/4.8.3/../../../../pic32mx/lib\liblega-c.a(_doprnt_cdnopuxX.eo)
 .text._do_print_cdnopuxX
                0x00000000      0xa70 f:/software_installations/mplab_xc32/bin/bin/../../lib/gcc/pic32mx/4.8.3/../../../../pic32mx/lib\liblega-c.a(_doprnt_cdnopuxX.eo)
 .text._vfprintf_cdnopuxX
                0x00000000       0x1c f:/software_installations/mplab_xc32/bin/bin/../../lib/gcc/pic32mx/4.8.3/../../../../pic32mx/lib\liblega-c.a(_doprnt_cdnopuxX.eo)
 .text._io_exit
                0x00000000       0x14 f:/software_installations/mplab_xc32/bin/bin/../../lib/gcc/pic32mx/4.8.3/../../../../pic32mx/lib\liblega-c.a(_doprnt_cdnopuxX.eo)
 .text          0x00000000        0x0 f:/software_installations/mplab_xc32/bin/bin/../../lib/gcc/pic32mx/4.8.3/../../../../pic32mx/lib\liblega-c.a(_doprnt.o)
 .data          0x00000000        0x0 f:/software_installations/mplab_xc32/bin/bin/../../lib/gcc/pic32mx/4.8.3/../../../../pic32mx/lib\liblega-c.a(_doprnt.o)
 .bss           0x00000000        0x0 f:/software_installations/mplab_xc32/bin/bin/../../lib/gcc/pic32mx/4.8.3/../../../../pic32mx/lib\liblega-c.a(_doprnt.o)
 .reginfo       0x00000000       0x18 f:/software_installations/mplab_xc32/bin/bin/../../lib/gcc/pic32mx/4.8.3/../../../../pic32mx/lib\liblega-c.a(_doprnt.o)
 .text.vfprintf
                0x00000000       0x1c f:/software_installations/mplab_xc32/bin/bin/../../lib/gcc/pic32mx/4.8.3/../../../../pic32mx/lib\liblega-c.a(_doprnt.o)
 .text._io_exit
                0x00000000       0x14 f:/software_installations/mplab_xc32/bin/bin/../../lib/gcc/pic32mx/4.8.3/../../../../pic32mx/lib\liblega-c.a(_doprnt.o)
 .text          0x00000000        0x0 f:/software_installations/mplab_xc32/bin/bin/../../lib/gcc/pic32mx/4.8.3/../../../../pic32mx/lib\liblega-c.a(_iobdata.o)
 .reginfo       0x00000000       0x18 f:/software_installations/mplab_xc32/bin/bin/../../lib/gcc/pic32mx/4.8.3/../../../../pic32mx/lib\liblega-c.a(_iobdata.o)
 .text          0x00000000        0x0 f:/software_installations/mplab_xc32/bin/bin/../../lib/gcc/pic32mx/4.8.3/../../../../pic32mx/lib\liblega-c.a(_iobfuncs.o)
 .data          0x00000000        0x0 f:/software_installations/mplab_xc32/bin/bin/../../lib/gcc/pic32mx/4.8.3/../../../../pic32mx/lib\liblega-c.a(_iobfuncs.o)
 .bss           0x00000000        0x0 f:/software_installations/mplab_xc32/bin/bin/../../lib/gcc/pic32mx/4.8.3/../../../../pic32mx/lib\liblega-c.a(_iobfuncs.o)
 .reginfo       0x00000000       0x18 f:/software_installations/mplab_xc32/bin/bin/../../lib/gcc/pic32mx/4.8.3/../../../../pic32mx/lib\liblega-c.a(_iobfuncs.o)
 .text._io_exit
                0x00000000       0x14 f:/software_installations/mplab_xc32/bin/bin/../../lib/gcc/pic32mx/4.8.3/../../../../pic32mx/lib\liblega-c.a(_iobfuncs.o)
 .text          0x00000000        0x0 f:/software_installations/mplab_xc32/bin/bin/../../lib/gcc/pic32mx/4.8.3/../../../../pic32mx/lib\liblega-c.a(_iobstring.o)
 .data          0x00000000        0x0 f:/software_installations/mplab_xc32/bin/bin/../../lib/gcc/pic32mx/4.8.3/../../../../pic32mx/lib\liblega-c.a(_iobstring.o)
 .bss           0x00000000        0x0 f:/software_installations/mplab_xc32/bin/bin/../../lib/gcc/pic32mx/4.8.3/../../../../pic32mx/lib\liblega-c.a(_iobstring.o)
 .reginfo       0x00000000       0x18 f:/software_installations/mplab_xc32/bin/bin/../../lib/gcc/pic32mx/4.8.3/../../../../pic32mx/lib\liblega-c.a(_iobstring.o)
 .text          0x00000000        0x0 f:/software_installations/mplab_xc32/bin/bin/../../lib/gcc/pic32mx/4.8.3/../../../../pic32mx/lib\liblega-c.a(fputc.o)
 .data          0x00000000        0x0 f:/software_installations/mplab_xc32/bin/bin/../../lib/gcc/pic32mx/4.8.3/../../../../pic32mx/lib\liblega-c.a(fputc.o)
 .bss           0x00000000        0x0 f:/software_installations/mplab_xc32/bin/bin/../../lib/gcc/pic32mx/4.8.3/../../../../pic32mx/lib\liblega-c.a(fputc.o)
 .reginfo       0x00000000       0x18 f:/software_installations/mplab_xc32/bin/bin/../../lib/gcc/pic32mx/4.8.3/../../../../pic32mx/lib\liblega-c.a(fputc.o)
 .text.putc     0x00000000       0x1c f:/software_installations/mplab_xc32/bin/bin/../../lib/gcc/pic32mx/4.8.3/../../../../pic32mx/lib\liblega-c.a(fputc.o)
 .text.putchar  0x00000000       0x24 f:/software_installations/mplab_xc32/bin/bin/../../lib/gcc/pic32mx/4.8.3/../../../../pic32mx/lib\liblega-c.a(fputc.o)
 .text          0x00000000        0x0 f:/software_installations/mplab_xc32/bin/bin/../../lib/gcc/pic32mx/4.8.3/../../../../pic32mx/lib\libm.a(dptofp.o)
 .data          0x00000000        0x0 f:/software_installations/mplab_xc32/bin/bin/../../lib/gcc/pic32mx/4.8.3/../../../../pic32mx/lib\libm.a(dptofp.o)
 .bss           0x00000000        0x0 f:/software_installations/mplab_xc32/bin/bin/../../lib/gcc/pic32mx/4.8.3/../../../../pic32mx/lib\libm.a(dptofp.o)
 .reginfo       0x00000000       0x18 f:/software_installations/mplab_xc32/bin/bin/../../lib/gcc/pic32mx/4.8.3/../../../../pic32mx/lib\libm.a(dptofp.o)
 .text          0x00000000        0x0 f:/software_installations/mplab_xc32/bin/bin/../../lib/gcc/pic32mx/4.8.3/../../../../pic32mx/lib\libm.a(fp32div.o)
 .data          0x00000000        0x0 f:/software_installations/mplab_xc32/bin/bin/../../lib/gcc/pic32mx/4.8.3/../../../../pic32mx/lib\libm.a(fp32div.o)
 .bss           0x00000000        0x0 f:/software_installations/mplab_xc32/bin/bin/../../lib/gcc/pic32mx/4.8.3/../../../../pic32mx/lib\libm.a(fp32div.o)
 .reginfo       0x00000000       0x18 f:/software_installations/mplab_xc32/bin/bin/../../lib/gcc/pic32mx/4.8.3/../../../../pic32mx/lib\libm.a(fp32div.o)
 .text          0x00000000        0x0 f:/software_installations/mplab_xc32/bin/bin/../../lib/gcc/pic32mx/4.8.3/../../../../pic32mx/lib\libm.a(fp32mul.o)
 .data          0x00000000        0x0 f:/software_installations/mplab_xc32/bin/bin/../../lib/gcc/pic32mx/4.8.3/../../../../pic32mx/lib\libm.a(fp32mul.o)
 .bss           0x00000000        0x0 f:/software_installations/mplab_xc32/bin/bin/../../lib/gcc/pic32mx/4.8.3/../../../../pic32mx/lib\libm.a(fp32mul.o)
 .reginfo       0x00000000       0x18 f:/software_installations/mplab_xc32/bin/bin/../../lib/gcc/pic32mx/4.8.3/../../../../pic32mx/lib\libm.a(fp32mul.o)
 .text          0x00000000        0x0 f:/software_installations/mplab_xc32/bin/bin/../../lib/gcc/pic32mx/4.8.3/../../../../pic32mx/lib\libm.a(fp32subadd.o)
 .data          0x00000000        0x0 f:/software_installations/mplab_xc32/bin/bin/../../lib/gcc/pic32mx/4.8.3/../../../../pic32mx/lib\libm.a(fp32subadd.o)
 .bss           0x00000000        0x0 f:/software_installations/mplab_xc32/bin/bin/../../lib/gcc/pic32mx/4.8.3/../../../../pic32mx/lib\libm.a(fp32subadd.o)
 .reginfo       0x00000000       0x18 f:/software_installations/mplab_xc32/bin/bin/../../lib/gcc/pic32mx/4.8.3/../../../../pic32mx/lib\libm.a(fp32subadd.o)
 .text          0x00000000        0x0 f:/software_installations/mplab_xc32/bin/bin/../../lib/gcc/pic32mx/4.8.3/../../../../pic32mx/lib\libm.a(fpatan.o)
 .data          0x00000000        0x0 f:/software_installations/mplab_xc32/bin/bin/../../lib/gcc/pic32mx/4.8.3/../../../../pic32mx/lib\libm.a(fpatan.o)
 .bss           0x00000000        0x0 f:/software_installations/mplab_xc32/bin/bin/../../lib/gcc/pic32mx/4.8.3/../../../../pic32mx/lib\libm.a(fpatan.o)
 .reginfo       0x00000000       0x18 f:/software_installations/mplab_xc32/bin/bin/../../lib/gcc/pic32mx/4.8.3/../../../../pic32mx/lib\libm.a(fpatan.o)
 .text.fpatan   0x00000000       0xa0 f:/software_installations/mplab_xc32/bin/bin/../../lib/gcc/pic32mx/4.8.3/../../../../pic32mx/lib\libm.a(fpatan.o)
 .text          0x00000000        0x0 f:/software_installations/mplab_xc32/bin/bin/../../lib/gcc/pic32mx/4.8.3/../../../../pic32mx/lib\libm.a(fpcmp.o)
 .data          0x00000000        0x0 f:/software_installations/mplab_xc32/bin/bin/../../lib/gcc/pic32mx/4.8.3/../../../../pic32mx/lib\libm.a(fpcmp.o)
 .bss           0x00000000        0x0 f:/software_installations/mplab_xc32/bin/bin/../../lib/gcc/pic32mx/4.8.3/../../../../pic32mx/lib\libm.a(fpcmp.o)
 .reginfo       0x00000000       0x18 f:/software_installations/mplab_xc32/bin/bin/../../lib/gcc/pic32mx/4.8.3/../../../../pic32mx/lib\libm.a(fpcmp.o)
 .text          0x00000000        0x0 f:/software_installations/mplab_xc32/bin/bin/../../lib/gcc/pic32mx/4.8.3/../../../../pic32mx/lib\libm.a(fpexatan.o)
 .data          0x00000000      0x100 f:/software_installations/mplab_xc32/bin/bin/../../lib/gcc/pic32mx/4.8.3/../../../../pic32mx/lib\libm.a(fpexatan.o)
 .bss           0x00000000        0x0 f:/software_installations/mplab_xc32/bin/bin/../../lib/gcc/pic32mx/4.8.3/../../../../pic32mx/lib\libm.a(fpexatan.o)
 .reginfo       0x00000000       0x18 f:/software_installations/mplab_xc32/bin/bin/../../lib/gcc/pic32mx/4.8.3/../../../../pic32mx/lib\libm.a(fpexatan.o)
 .text.fpexatan
                0x00000000        0x0 f:/software_installations/mplab_xc32/bin/bin/../../lib/gcc/pic32mx/4.8.3/../../../../pic32mx/lib\libm.a(fpexatan.o)
 .text.libm     0x00000000      0x350 f:/software_installations/mplab_xc32/bin/bin/../../lib/gcc/pic32mx/4.8.3/../../../../pic32mx/lib\libm.a(fpexatan.o)
 .text          0x00000000        0x0 f:/software_installations/mplab_xc32/bin/bin/../../lib/gcc/pic32mx/4.8.3/../../../../pic32mx/lib\libm.a(fpmodf.o)
 .data          0x00000000        0x0 f:/software_installations/mplab_xc32/bin/bin/../../lib/gcc/pic32mx/4.8.3/../../../../pic32mx/lib\libm.a(fpmodf.o)
 .bss           0x00000000        0x0 f:/software_installations/mplab_xc32/bin/bin/../../lib/gcc/pic32mx/4.8.3/../../../../pic32mx/lib\libm.a(fpmodf.o)
 .reginfo       0x00000000       0x18 f:/software_installations/mplab_xc32/bin/bin/../../lib/gcc/pic32mx/4.8.3/../../../../pic32mx/lib\libm.a(fpmodf.o)
 .text          0x00000000        0x0 f:/software_installations/mplab_xc32/bin/bin/../../lib/gcc/pic32mx/4.8.3/../../../../pic32mx/lib\libm.a(fpexsqrt32.o)
 .data          0x00000000        0x0 f:/software_installations/mplab_xc32/bin/bin/../../lib/gcc/pic32mx/4.8.3/../../../../pic32mx/lib\libm.a(fpexsqrt32.o)
 .bss           0x00000000        0x0 f:/software_installations/mplab_xc32/bin/bin/../../lib/gcc/pic32mx/4.8.3/../../../../pic32mx/lib\libm.a(fpexsqrt32.o)
 .reginfo       0x00000000       0x18 f:/software_installations/mplab_xc32/bin/bin/../../lib/gcc/pic32mx/4.8.3/../../../../pic32mx/lib\libm.a(fpexsqrt32.o)
 .text.libm.fpexsqrt
                0x00000000       0xfc f:/software_installations/mplab_xc32/bin/bin/../../lib/gcc/pic32mx/4.8.3/../../../../pic32mx/lib\libm.a(fpexsqrt32.o)
 .text          0x00000000        0x0 f:/software_installations/mplab_xc32/bin/bin/../../lib/gcc/pic32mx/4.8.3/../../../../pic32mx/lib\libm.a(fptoli.o)
 .data          0x00000000        0x0 f:/software_installations/mplab_xc32/bin/bin/../../lib/gcc/pic32mx/4.8.3/../../../../pic32mx/lib\libm.a(fptoli.o)
 .bss           0x00000000        0x0 f:/software_installations/mplab_xc32/bin/bin/../../lib/gcc/pic32mx/4.8.3/../../../../pic32mx/lib\libm.a(fptoli.o)
 .reginfo       0x00000000       0x18 f:/software_installations/mplab_xc32/bin/bin/../../lib/gcc/pic32mx/4.8.3/../../../../pic32mx/lib\libm.a(fptoli.o)
 .text          0x00000000        0x0 f:/software_installations/mplab_xc32/bin/bin/../../lib/gcc/pic32mx/4.8.3/../../../../pic32mx/lib\libm.a(fptoul.o)
 .data          0x00000000        0x0 f:/software_installations/mplab_xc32/bin/bin/../../lib/gcc/pic32mx/4.8.3/../../../../pic32mx/lib\libm.a(fptoul.o)
 .bss           0x00000000        0x0 f:/software_installations/mplab_xc32/bin/bin/../../lib/gcc/pic32mx/4.8.3/../../../../pic32mx/lib\libm.a(fptoul.o)
 .reginfo       0x00000000       0x18 f:/software_installations/mplab_xc32/bin/bin/../../lib/gcc/pic32mx/4.8.3/../../../../pic32mx/lib\libm.a(fptoul.o)
 .text          0x00000000        0x0 f:/software_installations/mplab_xc32/bin/bin/../../lib/gcc/pic32mx/4.8.3/../../../../pic32mx/lib\libm.a(sitofp.o)
 .data          0x00000000        0x0 f:/software_installations/mplab_xc32/bin/bin/../../lib/gcc/pic32mx/4.8.3/../../../../pic32mx/lib\libm.a(sitofp.o)
 .bss           0x00000000        0x0 f:/software_installations/mplab_xc32/bin/bin/../../lib/gcc/pic32mx/4.8.3/../../../../pic32mx/lib\libm.a(sitofp.o)
 .reginfo       0x00000000       0x18 f:/software_installations/mplab_xc32/bin/bin/../../lib/gcc/pic32mx/4.8.3/../../../../pic32mx/lib\libm.a(sitofp.o)
 .data          0x00000000        0x0 f:/software_installations/mplab_xc32/bin/bin/../../lib/gcc/pic32mx/4.8.3\libgcc.a(_udivdi3.o)
 .bss           0x00000000        0x0 f:/software_installations/mplab_xc32/bin/bin/../../lib/gcc/pic32mx/4.8.3\libgcc.a(_udivdi3.o)
 .reginfo       0x00000000       0x18 f:/software_installations/mplab_xc32/bin/bin/../../lib/gcc/pic32mx/4.8.3\libgcc.a(_udivdi3.o)
 .data          0x00000000        0x0 f:/software_installations/mplab_xc32/bin/bin/../../lib/gcc/pic32mx/4.8.3\libgcc.a(_umoddi3.o)
 .bss           0x00000000        0x0 f:/software_installations/mplab_xc32/bin/bin/../../lib/gcc/pic32mx/4.8.3\libgcc.a(_umoddi3.o)
 .reginfo       0x00000000       0x18 f:/software_installations/mplab_xc32/bin/bin/../../lib/gcc/pic32mx/4.8.3\libgcc.a(_umoddi3.o)
 .text          0x00000000        0x0 f:/software_installations/mplab_xc32/bin/bin/../../lib/gcc/pic32mx/4.8.3/../../../../pic32mx/lib\libpic32.a(sbrk.o)
 .data          0x00000000        0x0 f:/software_installations/mplab_xc32/bin/bin/../../lib/gcc/pic32mx/4.8.3/../../../../pic32mx/lib\libpic32.a(sbrk.o)
 .reginfo       0x00000000       0x18 f:/software_installations/mplab_xc32/bin/bin/../../lib/gcc/pic32mx/4.8.3/../../../../pic32mx/lib\libpic32.a(sbrk.o)
 .text          0x00000000        0x0 f:/software_installations/mplab_xc32/bin/bin/../../lib/gcc/pic32mx/4.8.3/../../../../pic32mx/lib\libpic32.a(_mon_getc.o)
 .data          0x00000000        0x0 f:/software_installations/mplab_xc32/bin/bin/../../lib/gcc/pic32mx/4.8.3/../../../../pic32mx/lib\libpic32.a(_mon_getc.o)
 .bss           0x00000000        0x0 f:/software_installations/mplab_xc32/bin/bin/../../lib/gcc/pic32mx/4.8.3/../../../../pic32mx/lib\libpic32.a(_mon_getc.o)
 .reginfo       0x00000000       0x18 f:/software_installations/mplab_xc32/bin/bin/../../lib/gcc/pic32mx/4.8.3/../../../../pic32mx/lib\libpic32.a(_mon_getc.o)
 .text          0x00000000        0x0 f:/software_installations/mplab_xc32/bin/bin/../../lib/gcc/pic32mx/4.8.3/../../../../pic32mx/lib\libpic32.a(_mon_write.o)
 .data          0x00000000        0x0 f:/software_installations/mplab_xc32/bin/bin/../../lib/gcc/pic32mx/4.8.3/../../../../pic32mx/lib\libpic32.a(_mon_write.o)
 .bss           0x00000000        0x0 f:/software_installations/mplab_xc32/bin/bin/../../lib/gcc/pic32mx/4.8.3/../../../../pic32mx/lib\libpic32.a(_mon_write.o)
 .reginfo       0x00000000       0x18 f:/software_installations/mplab_xc32/bin/bin/../../lib/gcc/pic32mx/4.8.3/../../../../pic32mx/lib\libpic32.a(_mon_write.o)
 .text          0x00000000        0x0 f:/software_installations/mplab_xc32/bin/bin/../../lib/gcc/pic32mx/4.8.3/../../../../pic32mx/lib\libpic32.a(xc32_uart.o)
 .data          0x00000000        0x0 f:/software_installations/mplab_xc32/bin/bin/../../lib/gcc/pic32mx/4.8.3/../../../../pic32mx/lib\libpic32.a(xc32_uart.o)
 .bss           0x00000000        0x0 f:/software_installations/mplab_xc32/bin/bin/../../lib/gcc/pic32mx/4.8.3/../../../../pic32mx/lib\libpic32.a(xc32_uart.o)
 .reginfo       0x00000000       0x18 f:/software_installations/mplab_xc32/bin/bin/../../lib/gcc/pic32mx/4.8.3/../../../../pic32mx/lib\libpic32.a(xc32_uart.o)
 .text          0x00000000        0x0 f:/software_installations/mplab_xc32/bin/bin/../../lib/gcc/pic32mx/4.8.3/../../../../pic32mx/lib\libpic32.a(_mon_putc.o)
 .data          0x00000000        0x0 f:/software_installations/mplab_xc32/bin/bin/../../lib/gcc/pic32mx/4.8.3/../../../../pic32mx/lib\libpic32.a(_mon_putc.o)
 .bss           0x00000000        0x0 f:/software_installations/mplab_xc32/bin/bin/../../lib/gcc/pic32mx/4.8.3/../../../../pic32mx/lib\libpic32.a(_mon_putc.o)
 .reginfo       0x00000000       0x18 f:/software_installations/mplab_xc32/bin/bin/../../lib/gcc/pic32mx/4.8.3/../../../../pic32mx/lib\libpic32.a(_mon_putc.o)

Memory Configuration

Name             Origin             Length             Attributes
kseg0_program_mem 0x9d000000         0x00200000         xr
kseg0_boot_mem   0x9fc004b0         0x00000000
kseg1_boot_mem   0xbfc00000         0x00000480
kseg1_boot_mem_4B0 0xbfc004b0         0x0000fa50
config_BFC0FF3C  0xbfc0ff3c         0x00000004
config_BFC0FF40  0xbfc0ff40         0x00000004
config_BFC0FF44  0xbfc0ff44         0x00000004
config_BFC0FF48  0xbfc0ff48         0x00000004
config_BFC0FF4C  0xbfc0ff4c         0x00000004
config_BFC0FF50  0xbfc0ff50         0x00000004
config_BFC0FF54  0xbfc0ff54         0x00000004
config_BFC0FF58  0xbfc0ff58         0x00000004
config_BFC0FF5C  0xbfc0ff5c         0x00000004
config_BFC0FF60  0xbfc0ff60         0x00000004
config_BFC0FF64  0xbfc0ff64         0x00000004
config_BFC0FF68  0xbfc0ff68         0x00000004
config_BFC0FF6C  0xbfc0ff6c         0x00000004
config_BFC0FF70  0xbfc0ff70         0x00000004
config_BFC0FF74  0xbfc0ff74         0x00000004
config_BFC0FF78  0xbfc0ff78         0x00000004
config_BFC0FF7C  0xbfc0ff7c         0x00000004
config_BFC0FFBC  0xbfc0ffbc         0x00000004
config_BFC0FFC0  0xbfc0ffc0         0x00000004
config_BFC0FFC4  0xbfc0ffc4         0x00000004
config_BFC0FFC8  0xbfc0ffc8         0x00000004
config_BFC0FFCC  0xbfc0ffcc         0x00000004
config_BFC0FFD0  0xbfc0ffd0         0x00000004
config_BFC0FFD4  0xbfc0ffd4         0x00000004
config_BFC0FFD8  0xbfc0ffd8         0x00000004
config_BFC0FFDC  0xbfc0ffdc         0x00000004
config_BFC0FFE0  0xbfc0ffe0         0x00000004
config_BFC0FFE4  0xbfc0ffe4         0x00000004
config_BFC0FFE8  0xbfc0ffe8         0x00000004
config_BFC0FFEC  0xbfc0ffec         0x00000004
config_BFC0FFF0  0xbfc0fff0         0x00000004
config_BFC0FFF4  0xbfc0fff4         0x00000004
config_BFC0FFF8  0xbfc0fff8         0x00000004
config_BFC0FFFC  0xbfc0fffc         0x00000004
lowerbootaliaslastpage 0xbfc10000         0x00004000
upperbootalias   0xbfc20000         0x0000ff00
config_BFC2FF3C  0xbfc2ff3c         0x00000004
config_BFC2FF40  0xbfc2ff40         0x00000004
config_BFC2FF44  0xbfc2ff44         0x00000004
config_BFC2FF48  0xbfc2ff48         0x00000004
config_BFC2FF4C  0xbfc2ff4c         0x00000004
config_BFC2FF50  0xbfc2ff50         0x00000004
config_BFC2FF54  0xbfc2ff54         0x00000004
config_BFC2FF58  0xbfc2ff58         0x00000004
config_BFC2FF5C  0xbfc2ff5c         0x00000004
config_BFC2FF60  0xbfc2ff60         0x00000004
config_BFC2FF64  0xbfc2ff64         0x00000004
config_BFC2FF68  0xbfc2ff68         0x00000004
config_BFC2FF6C  0xbfc2ff6c         0x00000004
config_BFC2FF70  0xbfc2ff70         0x00000004
config_BFC2FF74  0xbfc2ff74         0x00000004
config_BFC2FF78  0xbfc2ff78         0x00000004
config_BFC2FF7C  0xbfc2ff7c         0x00000004
config_BFC2FFBC  0xbfc2ffbc         0x00000004
config_BFC2FFC0  0xbfc2ffc0         0x00000004
config_BFC2FFC4  0xbfc2ffc4         0x00000004
config_BFC2FFC8  0xbfc2ffc8         0x00000004
config_BFC2FFCC  0xbfc2ffcc         0x00000004
config_BFC2FFD0  0xbfc2ffd0         0x00000004
config_BFC2FFD4  0xbfc2ffd4         0x00000004
config_BFC2FFD8  0xbfc2ffd8         0x00000004
config_BFC2FFDC  0xbfc2ffdc         0x00000004
config_BFC2FFE0  0xbfc2ffe0         0x00000004
config_BFC2FFE4  0xbfc2ffe4         0x00000004
config_BFC2FFE8  0xbfc2ffe8         0x00000004
config_BFC2FFEC  0xbfc2ffec         0x00000004
config_BFC2FFF0  0xbfc2fff0         0x00000004
config_BFC2FFF4  0xbfc2fff4         0x00000004
config_BFC2FFF8  0xbfc2fff8         0x00000004
config_BFC2FFFC  0xbfc2fffc         0x00000004
upperbootaliaslastpage 0xbfc30000         0x00004000
boot1            0xbfc40000         0x0000ff00
config_BFC4FF3C  0xbfc4ff3c         0x00000004
config_BFC4FF40  0xbfc4ff40         0x00000004
config_BFC4FF44  0xbfc4ff44         0x00000004
config_BFC4FF48  0xbfc4ff48         0x00000004
config_BFC4FF4C  0xbfc4ff4c         0x00000004
config_BFC4FF50  0xbfc4ff50         0x00000004
config_BFC4FF54  0xbfc4ff54         0x00000004
config_BFC4FF58  0xbfc4ff58         0x00000004
config_BFC4FF5C  0xbfc4ff5c         0x00000004
config_BFC4FF60  0xbfc4ff60         0x00000004
config_BFC4FF64  0xbfc4ff64         0x00000004
config_BFC4FF68  0xbfc4ff68         0x00000004
config_BFC4FF6C  0xbfc4ff6c         0x00000004
config_BFC4FF70  0xbfc4ff70         0x00000004
config_BFC4FF74  0xbfc4ff74         0x00000004
config_BFC4FF78  0xbfc4ff78         0x00000004
config_BFC4FF7C  0xbfc4ff7c         0x00000004
config_BFC4FFBC  0xbfc4ffbc         0x00000004
config_BFC4FFC0  0xbfc4ffc0         0x00000004
config_BFC4FFC4  0xbfc4ffc4         0x00000004
config_BFC4FFC8  0xbfc4ffc8         0x00000004
config_BFC4FFCC  0xbfc4ffcc         0x00000004
config_BFC4FFD0  0xbfc4ffd0         0x00000004
config_BFC4FFD4  0xbfc4ffd4         0x00000004
config_BFC4FFD8  0xbfc4ffd8         0x00000004
config_BFC4FFDC  0xbfc4ffdc         0x00000004
config_BFC4FFE0  0xbfc4ffe0         0x00000004
config_BFC4FFE4  0xbfc4ffe4         0x00000004
config_BFC4FFE8  0xbfc4ffe8         0x00000004
config_BFC4FFEC  0xbfc4ffec         0x00000004
config_BFC4FFF0  0xbfc4fff0         0x00000004
config_BFC4FFF4  0xbfc4fff4         0x00000004
config_BFC4FFF8  0xbfc4fff8         0x00000004
config_BFC4FFFC  0xbfc4fffc         0x00000004
boot1lastpage    0xbfc50000         0x00004000
config_BFC54000  0xbfc54000         0x00000004
config_BFC54004  0xbfc54004         0x00000004
config_BFC54008  0xbfc54008         0x00000004
config_BFC5400C  0xbfc5400c         0x00000004
config_BFC54010  0xbfc54010         0x00000004
config_BFC5401C  0xbfc5401c         0x00000004
config_BFC54020  0xbfc54020         0x00000004
config_BFC54024  0xbfc54024         0x00000004
config_BFC54028  0xbfc54028         0x00000004
config_BFC5402C  0xbfc5402c         0x00000004
boot2            0xbfc60000         0x0000ff00
config_BFC6FF3C  0xbfc6ff3c         0x00000004
config_BFC6FF40  0xbfc6ff40         0x00000004
config_BFC6FF44  0xbfc6ff44         0x00000004
config_BFC6FF48  0xbfc6ff48         0x00000004
config_BFC6FF4C  0xbfc6ff4c         0x00000004
config_BFC6FF50  0xbfc6ff50         0x00000004
config_BFC6FF54  0xbfc6ff54         0x00000004
config_BFC6FF58  0xbfc6ff58         0x00000004
config_BFC6FF5C  0xbfc6ff5c         0x00000004
config_BFC6FF60  0xbfc6ff60         0x00000004
config_BFC6FF64  0xbfc6ff64         0x00000004
config_BFC6FF68  0xbfc6ff68         0x00000004
config_BFC6FF6C  0xbfc6ff6c         0x00000004
config_BFC6FF70  0xbfc6ff70         0x00000004
config_BFC6FF74  0xbfc6ff74         0x00000004
config_BFC6FF78  0xbfc6ff78         0x00000004
config_BFC6FF7C  0xbfc6ff7c         0x00000004
config_BFC6FFBC  0xbfc6ffbc         0x00000004
config_BFC6FFC0  0xbfc6ffc0         0x00000004
config_BFC6FFC4  0xbfc6ffc4         0x00000004
config_BFC6FFC8  0xbfc6ffc8         0x00000004
config_BFC6FFCC  0xbfc6ffcc         0x00000004
config_BFC6FFD0  0xbfc6ffd0         0x00000004
config_BFC6FFD4  0xbfc6ffd4         0x00000004
config_BFC6FFD8  0xbfc6ffd8         0x00000004
config_BFC6FFDC  0xbfc6ffdc         0x00000004
config_BFC6FFE0  0xbfc6ffe0         0x00000004
config_BFC6FFE4  0xbfc6ffe4         0x00000004
config_BFC6FFE8  0xbfc6ffe8         0x00000004
config_BFC6FFEC  0xbfc6ffec         0x00000004
config_BFC6FFF0  0xbfc6fff0         0x00000004
config_BFC6FFF4  0xbfc6fff4         0x00000004
config_BFC6FFF8  0xbfc6fff8         0x00000004
config_BFC6FFFC  0xbfc6fffc         0x00000004
boot2lastpage    0xbfc70000         0x00004000
kseg0_data_mem   0x80000000         0x000a0000         w !x
sfrs             0xbf800000         0x00100000
configsfrs_BFC0FF30 0xbfc0ff30         0x00000044
configsfrs_BFC0FFB0 0xbfc0ffb0         0x00000044
configsfrs_BFC2FF30 0xbfc2ff30         0x00000044
configsfrs_BFC2FFB0 0xbfc2ffb0         0x00000044
configsfrs_BFC4FF30 0xbfc4ff30         0x00000044
configsfrs_BFC4FFB0 0xbfc4ffb0         0x00000044
configsfrs_BFC54000 0xbfc54000         0x00000028
configsfrs_BFC6FF30 0xbfc6ff30         0x00000044
configsfrs_BFC6FFB0 0xbfc6ffb0         0x00000044
kseg2_ebi_data_mem 0xc0000000         0x04000000
kseg2_sqi_data_mem 0xd0000000         0x04000000
kseg3_ebi_data_mem 0xe0000000         0x04000000
kseg3_sqi_data_mem 0xf0000000         0x04000000
*default*        0x00000000         0xffffffff

Linker script and memory map

LOAD f:/software_installations/mplab_xc32/bin/bin/../../lib/gcc/pic32mx/4.8.3/../../../../pic32mx/lib/./proc/32MZ2064DAG176/crt0_mips32r2.o
LOAD f:/software_installations/mplab_xc32/bin/bin/../../lib/gcc/pic32mx/4.8.3/../../../../pic32mx/lib\debug-exception-return.o
LOAD build/pic32mz_da_sk_intddr_meb2/production/_ext/1360937237/app.o
LOAD build/pic32mz_da_sk_intddr_meb2/production/_ext/1360937237/main.o
LOAD build/pic32mz_da_sk_intddr_meb2/production/_ext/475095144/drv_i2c_bb_a.o
LOAD build/pic32mz_da_sk_intddr_meb2/production/_ext/475095144/drv_i2c_bb.o
LOAD build/pic32mz_da_sk_intddr_meb2/production/_ext/1177928576/drv_mxt336t.o
LOAD build/pic32mz_da_sk_intddr_meb2/production/_ext/1847583374/gfx.o
LOAD build/pic32mz_da_sk_intddr_meb2/production/_ext/1847583374/gfx_color.o
LOAD build/pic32mz_da_sk_intddr_meb2/production/_ext/1847583374/gfx_context.o
LOAD build/pic32mz_da_sk_intddr_meb2/production/_ext/1847583374/gfx_default_impl.o
LOAD build/pic32mz_da_sk_intddr_meb2/production/_ext/1847583374/gfx_display.o
LOAD build/pic32mz_da_sk_intddr_meb2/production/_ext/1847583374/gfx_driver_interface.o
LOAD build/pic32mz_da_sk_intddr_meb2/production/_ext/1847583374/gfx_get.o
LOAD build/pic32mz_da_sk_intddr_meb2/production/_ext/1847583374/gfx_interface.o
LOAD build/pic32mz_da_sk_intddr_meb2/production/_ext/1847583374/gfx_layer.o
LOAD build/pic32mz_da_sk_intddr_meb2/production/_ext/1847583374/gfx_pixel_buffer.o
LOAD build/pic32mz_da_sk_intddr_meb2/production/_ext/1847583374/gfx_rect.o
LOAD build/pic32mz_da_sk_intddr_meb2/production/_ext/1847583374/gfx_util.o
LOAD build/pic32mz_da_sk_intddr_meb2/production/_ext/1847583374/gfx_set.o
LOAD build/pic32mz_da_sk_intddr_meb2/production/_ext/1847583374/gfx_color_blend.o
LOAD build/pic32mz_da_sk_intddr_meb2/production/_ext/1847583374/gfx_color_convert.o
LOAD build/pic32mz_da_sk_intddr_meb2/production/_ext/1847583374/gfx_color_lerp.o
LOAD build/pic32mz_da_sk_intddr_meb2/production/_ext/1847583374/gfx_color_value.o
LOAD build/pic32mz_da_sk_intddr_meb2/production/_ext/1847583374/gfx_draw_blit.o
LOAD build/pic32mz_da_sk_intddr_meb2/production/_ext/1847583374/gfx_draw_circle.o
LOAD build/pic32mz_da_sk_intddr_meb2/production/_ext/1847583374/gfx_draw_line.o
LOAD build/pic32mz_da_sk_intddr_meb2/production/_ext/1847583374/gfx_draw_pixel.o
LOAD build/pic32mz_da_sk_intddr_meb2/production/_ext/1847583374/gfx_draw_rect.o
LOAD build/pic32mz_da_sk_intddr_meb2/production/_ext/1847583374/gfx_math.o
LOAD build/pic32mz_da_sk_intddr_meb2/production/_ext/1847583374/gfx_draw_stretchblit.o
LOAD build/pic32mz_da_sk_intddr_meb2/production/_ext/1847583374/gfx_processor_interface.o
LOAD build/pic32mz_da_sk_intddr_meb2/production/_ext/1847583374/gfx_draw_arc.o
LOAD build/pic32mz_da_sk_intddr_meb2/production/_ext/1847583374/gfx_draw_ellipse.o
LOAD build/pic32mz_da_sk_intddr_meb2/production/_ext/1907747181/libaria.o
LOAD build/pic32mz_da_sk_intddr_meb2/production/_ext/1907747181/libaria_context.o
LOAD build/pic32mz_da_sk_intddr_meb2/production/_ext/1907747181/libaria_context_paint.o
LOAD build/pic32mz_da_sk_intddr_meb2/production/_ext/1907747181/libaria_draw.o
LOAD build/pic32mz_da_sk_intddr_meb2/production/_ext/1907747181/libaria_editwidget.o
LOAD build/pic32mz_da_sk_intddr_meb2/production/_ext/1907747181/libaria_event.o
LOAD build/pic32mz_da_sk_intddr_meb2/production/_ext/1907747181/libaria_input.o
LOAD build/pic32mz_da_sk_intddr_meb2/production/_ext/1907747181/libaria_layer.o
LOAD build/pic32mz_da_sk_intddr_meb2/production/_ext/1907747181/libaria_list.o
LOAD build/pic32mz_da_sk_intddr_meb2/production/_ext/1907747181/libaria_scheme.o
LOAD build/pic32mz_da_sk_intddr_meb2/production/_ext/1907747181/libaria_screen.o
LOAD build/pic32mz_da_sk_intddr_meb2/production/_ext/1907747181/libaria_string.o
LOAD build/pic32mz_da_sk_intddr_meb2/production/_ext/1907747181/libaria_utils.o
LOAD build/pic32mz_da_sk_intddr_meb2/production/_ext/1907747181/libaria_widget.o
LOAD build/pic32mz_da_sk_intddr_meb2/production/_ext/1907747181/libaria_widget_skin_classic.o
LOAD build/pic32mz_da_sk_intddr_meb2/production/_ext/1907747181/libaria_widget_button.o
LOAD build/pic32mz_da_sk_intddr_meb2/production/_ext/1907747181/libaria_widget_button_skin_classic.o
LOAD build/pic32mz_da_sk_intddr_meb2/production/_ext/1907747181/libaria_widget_checkbox.o
LOAD build/pic32mz_da_sk_intddr_meb2/production/_ext/1907747181/libaria_widget_checkbox_skin_classic.o
LOAD build/pic32mz_da_sk_intddr_meb2/production/_ext/1907747181/libaria_widget_circle.o
LOAD build/pic32mz_da_sk_intddr_meb2/production/_ext/1907747181/libaria_widget_circle_skin_classic.o
LOAD build/pic32mz_da_sk_intddr_meb2/production/_ext/1907747181/libaria_widget_drawsurface.o
LOAD build/pic32mz_da_sk_intddr_meb2/production/_ext/1907747181/libaria_widget_drawsurface_skin_classic.o
LOAD build/pic32mz_da_sk_intddr_meb2/production/_ext/1907747181/libaria_widget_gradient.o
LOAD build/pic32mz_da_sk_intddr_meb2/production/_ext/1907747181/libaria_widget_gradient_skin_classic.o
LOAD build/pic32mz_da_sk_intddr_meb2/production/_ext/1907747181/libaria_widget_groupbox.o
LOAD build/pic32mz_da_sk_intddr_meb2/production/_ext/1907747181/libaria_widget_groupbox_skin_classic.o
LOAD build/pic32mz_da_sk_intddr_meb2/production/_ext/1907747181/libaria_widget_image.o
LOAD build/pic32mz_da_sk_intddr_meb2/production/_ext/1907747181/libaria_widget_image_skin_classic.o
LOAD build/pic32mz_da_sk_intddr_meb2/production/_ext/1907747181/libaria_widget_imagesequence.o
LOAD build/pic32mz_da_sk_intddr_meb2/production/_ext/1907747181/libaria_widget_imagesequence_skin_classic.o
LOAD build/pic32mz_da_sk_intddr_meb2/production/_ext/1907747181/libaria_widget_keypad.o
LOAD build/pic32mz_da_sk_intddr_meb2/production/_ext/1907747181/libaria_widget_keypad_skin_classic.o
LOAD build/pic32mz_da_sk_intddr_meb2/production/_ext/1907747181/libaria_widget_label.o
LOAD build/pic32mz_da_sk_intddr_meb2/production/_ext/1907747181/libaria_widget_label_skin_classic.o
LOAD build/pic32mz_da_sk_intddr_meb2/production/_ext/1907747181/libaria_widget_line.o
LOAD build/pic32mz_da_sk_intddr_meb2/production/_ext/1907747181/libaria_widget_line_skin_classic.o
LOAD build/pic32mz_da_sk_intddr_meb2/production/_ext/1907747181/libaria_widget_list.o
LOAD build/pic32mz_da_sk_intddr_meb2/production/_ext/1907747181/libaria_widget_list_skin_classic.o
LOAD build/pic32mz_da_sk_intddr_meb2/production/_ext/1907747181/libaria_widget_listwheel.o
LOAD build/pic32mz_da_sk_intddr_meb2/production/_ext/1907747181/libaria_widget_listwheel_skin_classic.o
LOAD build/pic32mz_da_sk_intddr_meb2/production/_ext/1907747181/libaria_widget_progressbar.o
LOAD build/pic32mz_da_sk_intddr_meb2/production/_ext/1907747181/libaria_widget_progressbar_skin_classic.o
LOAD build/pic32mz_da_sk_intddr_meb2/production/_ext/1907747181/libaria_widget_radiobutton.o
LOAD build/pic32mz_da_sk_intddr_meb2/production/_ext/1907747181/libaria_widget_radiobutton_skin_classic.o
LOAD build/pic32mz_da_sk_intddr_meb2/production/_ext/1907747181/libaria_radiobutton_group.o
LOAD build/pic32mz_da_sk_intddr_meb2/production/_ext/1907747181/libaria_widget_rectangle.o
LOAD build/pic32mz_da_sk_intddr_meb2/production/_ext/1907747181/libaria_widget_rectangle_skin_classic.o
LOAD build/pic32mz_da_sk_intddr_meb2/production/_ext/1907747181/libaria_widget_scrollbar.o
LOAD build/pic32mz_da_sk_intddr_meb2/production/_ext/1907747181/libaria_widget_scrollbar_skin_classic.o
LOAD build/pic32mz_da_sk_intddr_meb2/production/_ext/1907747181/libaria_widget_slider.o
LOAD build/pic32mz_da_sk_intddr_meb2/production/_ext/1907747181/libaria_widget_slider_skin_classic.o
LOAD build/pic32mz_da_sk_intddr_meb2/production/_ext/1907747181/libaria_widget_textfield.o
LOAD build/pic32mz_da_sk_intddr_meb2/production/_ext/1907747181/libaria_widget_textfield_skin_classic.o
LOAD build/pic32mz_da_sk_intddr_meb2/production/_ext/1907747181/libaria_widget_touchtest.o
LOAD build/pic32mz_da_sk_intddr_meb2/production/_ext/1907747181/libaria_widget_touchtest_skin_classic.o
LOAD build/pic32mz_da_sk_intddr_meb2/production/_ext/1907747181/libaria_widget_window.o
LOAD build/pic32mz_da_sk_intddr_meb2/production/_ext/1907747181/libaria_widget_window_skin_classic.o
LOAD build/pic32mz_da_sk_intddr_meb2/production/_ext/1907747181/libaria_array.o
LOAD build/pic32mz_da_sk_intddr_meb2/production/_ext/1907747181/libaria_rectarray.o
LOAD build/pic32mz_da_sk_intddr_meb2/production/_ext/1907747181/libaria_widget_skin_classic_common.o
LOAD build/pic32mz_da_sk_intddr_meb2/production/_ext/1907747181/libaria_widget_arc.o
LOAD build/pic32mz_da_sk_intddr_meb2/production/_ext/1907747181/libaria_widget_arc_skin_classic.o
LOAD build/pic32mz_da_sk_intddr_meb2/production/_ext/1907747181/libaria_widget_circular_gauge.o
LOAD build/pic32mz_da_sk_intddr_meb2/production/_ext/1907747181/libaria_widget_circular_gauge_skin_classic.o
LOAD build/pic32mz_da_sk_intddr_meb2/production/_ext/1907747181/libaria_widget_circular_slider.o
LOAD build/pic32mz_da_sk_intddr_meb2/production/_ext/1907747181/libaria_widget_circular_slider_skin_classic.o
LOAD build/pic32mz_da_sk_intddr_meb2/production/_ext/1907747181/libaria_widget_pie_chart.o
LOAD build/pic32mz_da_sk_intddr_meb2/production/_ext/1907747181/libaria_widget_pie_chart_skin_classic.o
LOAD build/pic32mz_da_sk_intddr_meb2/production/_ext/1907747181/libaria_widget_bar_graph.o
LOAD build/pic32mz_da_sk_intddr_meb2/production/_ext/1907747181/libaria_widget_bar_graph_skin_classic.o
LOAD build/pic32mz_da_sk_intddr_meb2/production/_ext/1907747181/libaria_widget_line_graph.o
LOAD build/pic32mz_da_sk_intddr_meb2/production/_ext/1907747181/libaria_widget_line_graph_skin_classic.o
LOAD build/pic32mz_da_sk_intddr_meb2/production/_ext/1907747181/libaria_widget_imageplus.o
LOAD build/pic32mz_da_sk_intddr_meb2/production/_ext/1907747181/libaria_widget_imageplus_skin_classic.o
LOAD build/pic32mz_da_sk_intddr_meb2/production/_ext/1907747181/libaria_widget_radial_menu.o
LOAD build/pic32mz_da_sk_intddr_meb2/production/_ext/1907747181/libaria_widget_radial_menu_skin_classic.o
LOAD build/pic32mz_da_sk_intddr_meb2/production/_ext/1597685232/gfxu_image.o
LOAD build/pic32mz_da_sk_intddr_meb2/production/_ext/1597685232/gfxu_image_png_external.o
LOAD build/pic32mz_da_sk_intddr_meb2/production/_ext/1597685232/gfxu_image_png_internal.o
LOAD build/pic32mz_da_sk_intddr_meb2/production/_ext/1597685232/gfxu_image_jpg_internal.o
LOAD build/pic32mz_da_sk_intddr_meb2/production/_ext/1597685232/gfxu_image_raw_external.o
LOAD build/pic32mz_da_sk_intddr_meb2/production/_ext/1597685232/gfxu_image_raw_internal.o
LOAD build/pic32mz_da_sk_intddr_meb2/production/_ext/1597685232/gfxu_image_rle_external.o
LOAD build/pic32mz_da_sk_intddr_meb2/production/_ext/1597685232/gfxu_image_rle_internal.o
LOAD build/pic32mz_da_sk_intddr_meb2/production/_ext/1597685232/gfxu_image_utils.o
LOAD build/pic32mz_da_sk_intddr_meb2/production/_ext/1597685232/gfxu_palette.o
LOAD build/pic32mz_da_sk_intddr_meb2/production/_ext/1597685232/gfxu_string.o
LOAD build/pic32mz_da_sk_intddr_meb2/production/_ext/1597685232/gfxu_string_external.o
LOAD build/pic32mz_da_sk_intddr_meb2/production/_ext/1597685232/gfxu_string_internal.o
LOAD build/pic32mz_da_sk_intddr_meb2/production/_ext/1597685232/gfxu_string_query.o
LOAD build/pic32mz_da_sk_intddr_meb2/production/_ext/1597685232/gfxu_string_utils.o
LOAD build/pic32mz_da_sk_intddr_meb2/production/_ext/1597685232/gfxu_image_jpg_common.o
LOAD build/pic32mz_da_sk_intddr_meb2/production/_ext/1597685232/gfxu_image_jpg_external.o
LOAD build/pic32mz_da_sk_intddr_meb2/production/_ext/1597685232/gfxu_stringbuffer_external.o
LOAD build/pic32mz_da_sk_intddr_meb2/production/_ext/2137108136/sys_debug.o
LOAD build/pic32mz_da_sk_intddr_meb2/production/_ext/252650337/sys_input.o
LOAD build/pic32mz_da_sk_intddr_meb2/production/_ext/252650337/sys_input_listener.o
LOAD build/pic32mz_da_sk_intddr_meb2/production/_ext/1042686532/sys_int_pic32.o
LOAD build/pic32mz_da_sk_intddr_meb2/production/_ext/426253641/jidctint.o
LOAD build/pic32mz_da_sk_intddr_meb2/production/_ext/493934858/lodepng.o
LOAD build/pic32mz_da_sk_intddr_meb2/production/_ext/418582516/drv_usart_mapping.o
LOAD build/pic32mz_da_sk_intddr_meb2/production/_ext/418582516/drv_usart_static.o
LOAD build/pic32mz_da_sk_intddr_meb2/production/_ext/418582516/drv_usart_static_byte_model.o
LOAD build/pic32mz_da_sk_intddr_meb2/production/_ext/1094895838/drv_gfx_glcd_static.o
LOAD build/pic32mz_da_sk_intddr_meb2/production/_ext/590040425/libaria_harmony.o
LOAD build/pic32mz_da_sk_intddr_meb2/production/_ext/590040425/libaria_init.o
LOAD build/pic32mz_da_sk_intddr_meb2/production/_ext/590040425/libaria_events.o
LOAD build/pic32mz_da_sk_intddr_meb2/production/_ext/590040425/libaria_macros.o
LOAD build/pic32mz_da_sk_intddr_meb2/production/_ext/1719547748/gfx_display_def.o
LOAD build/pic32mz_da_sk_intddr_meb2/production/_ext/1719547748/gfx_driver_def.o
LOAD build/pic32mz_da_sk_intddr_meb2/production/_ext/1719547748/gfx_processor_def.o
LOAD build/pic32mz_da_sk_intddr_meb2/production/_ext/370156264/sys_clk_pic32mz.o
LOAD build/pic32mz_da_sk_intddr_meb2/production/_ext/1796496159/sys_devcon.o
LOAD build/pic32mz_da_sk_intddr_meb2/production/_ext/1796496159/sys_devcon_pic32mz.o
LOAD build/pic32mz_da_sk_intddr_meb2/production/_ext/1796496159/sys_devcon_cache_pic32mz.o
LOAD build/pic32mz_da_sk_intddr_meb2/production/_ext/730466360/sys_ports_static.o
LOAD build/pic32mz_da_sk_intddr_meb2/production/_ext/639474099/sys_console_static.o
LOAD build/pic32mz_da_sk_intddr_meb2/production/_ext/327666056/sys_memory_ddr_static.o
LOAD build/pic32mz_da_sk_intddr_meb2/production/_ext/85614229/sys_memory_static.o
LOAD build/pic32mz_da_sk_intddr_meb2/production/_ext/1547055377/bsp.o
LOAD build/pic32mz_da_sk_intddr_meb2/production/_ext/1653314881/system_init.o
LOAD build/pic32mz_da_sk_intddr_meb2/production/_ext/1653314881/system_interrupt.o
LOAD build/pic32mz_da_sk_intddr_meb2/production/_ext/1653314881/general_exception_handler.o
LOAD build/pic32mz_da_sk_intddr_meb2/production/_ext/1653314881/general-exception-context.o
LOAD build/pic32mz_da_sk_intddr_meb2/production/_ext/1653314881/fassert.o
LOAD build/pic32mz_da_sk_intddr_meb2/production/_ext/1653314881/system_tasks.o
LOAD build/pic32mz_da_sk_intddr_meb2/production/_ext/1021385576/gfx_assets.o
LOAD ..\..\..\..\..\bin\framework\peripheral\PIC32MZ2064DAG176_peripherals.a
                0x00000001                __MPLAB_BUILD = 0x1
                0x000029a8                _min_heap_size = 0x29a8
LOAD f:/software_installations/mplab_xc32/bin/bin/../../lib/gcc/pic32mx/4.8.3/../../../../pic32mx/lib/./proc/32MZ2064DAG176\default_isr_vectors.o
LOAD f:/software_installations/mplab_xc32/bin/bin/../../lib/gcc/pic32mx/4.8.3/../../../../pic32mx/lib\pic32_software_reset.o
                0x00000400                PROVIDE (_min_stack_size, 0x400)
LOAD f:/software_installations/mplab_xc32/bin/bin/../../lib/gcc/pic32mx/4.8.3/../../../../pic32mx/lib/./proc/32MZ2064DAG176\processor.o
START GROUP
LOAD f:/software_installations/mplab_xc32/bin/bin/../../lib/gcc/pic32mx/4.8.3/../../../../pic32mx/lib/./proc/32MZ2064DAG176\vector_offset_init.o
END GROUP
                0x00000001                PROVIDE (_vector_spacing, 0x1)
                0x9d000000                PROVIDE (_ebase_address, 0x9d000000)
                0xbfc00000                _RESET_ADDR = 0xbfc00000
                0xbfc00380                _BEV_EXCPT_ADDR = 0xbfc00380
                0xbfc00480                _DBG_EXCPT_ADDR = 0xbfc00480
                0x9d000000                _SIMPLE_TLB_REFILL_EXCPT_ADDR = (_ebase_address + 0x0)
                0x9d000100                _CACHE_ERR_EXCPT_ADDR = (_ebase_address + 0x100)
                0x9d000180                _GEN_EXCPT_ADDR = (_ebase_address + 0x180)

.config_BFC0FF3C
 *(.config_BFC0FF3C)

.config_BFC0FF40
 *(.config_BFC0FF40)

.config_BFC0FF44
 *(.config_BFC0FF44)

.config_BFC0FF48
 *(.config_BFC0FF48)

.config_BFC0FF4C
 *(.config_BFC0FF4C)

.config_BFC0FF50
 *(.config_BFC0FF50)

.config_BFC0FF54
 *(.config_BFC0FF54)

.config_BFC0FF58
 *(.config_BFC0FF58)

.config_BFC0FF5C
 *(.config_BFC0FF5C)

.config_BFC0FF60
 *(.config_BFC0FF60)

.config_BFC0FF64
 *(.config_BFC0FF64)

.config_BFC0FF68
 *(.config_BFC0FF68)

.config_BFC0FF6C
 *(.config_BFC0FF6C)

.config_BFC0FF70
 *(.config_BFC0FF70)

.config_BFC0FF74
 *(.config_BFC0FF74)

.config_BFC0FF78
 *(.config_BFC0FF78)

.config_BFC0FF7C
 *(.config_BFC0FF7C)

.config_BFC0FFBC
                0xbfc0ffbc        0x4
 *(.config_BFC0FFBC)
 .config_BFC0FFBC
                0xbfc0ffbc        0x4 build/pic32mz_da_sk_intddr_meb2/production/_ext/1653314881/system_init.o

.config_BFC0FFC0
                0xbfc0ffc0        0x4
 *(.config_BFC0FFC0)
 .config_BFC0FFC0
                0xbfc0ffc0        0x4 build/pic32mz_da_sk_intddr_meb2/production/_ext/1653314881/system_init.o

.config_BFC0FFC4
                0xbfc0ffc4        0x4
 *(.config_BFC0FFC4)
 .config_BFC0FFC4
                0xbfc0ffc4        0x4 build/pic32mz_da_sk_intddr_meb2/production/_ext/1653314881/system_init.o

.config_BFC0FFC8
                0xbfc0ffc8        0x4
 *(.config_BFC0FFC8)
 .config_BFC0FFC8
                0xbfc0ffc8        0x4 build/pic32mz_da_sk_intddr_meb2/production/_ext/1653314881/system_init.o

.config_BFC0FFCC
                0xbfc0ffcc        0x4
 *(.config_BFC0FFCC)
 .config_BFC0FFCC
                0xbfc0ffcc        0x4 build/pic32mz_da_sk_intddr_meb2/production/_ext/1653314881/system_init.o

.config_BFC0FFD0
 *(.config_BFC0FFD0)

.config_BFC0FFD4
 *(.config_BFC0FFD4)

.config_BFC0FFD8
 *(.config_BFC0FFD8)

.config_BFC0FFDC
                0xbfc0ffdc        0x4
 *(.config_BFC0FFDC)
 .config_BFC0FFDC
                0xbfc0ffdc        0x4 build/pic32mz_da_sk_intddr_meb2/production/_ext/1653314881/system_init.o

.config_BFC0FFE0
 *(.config_BFC0FFE0)

.config_BFC0FFE4
 *(.config_BFC0FFE4)

.config_BFC0FFE8
 *(.config_BFC0FFE8)

.config_BFC0FFEC
 *(.config_BFC0FFEC)

.config_BFC0FFF0
                0xbfc0fff0        0x4
 *(.config_BFC0FFF0)
 .config_BFC0FFF0
                0xbfc0fff0        0x4 build/pic32mz_da_sk_intddr_meb2/production/_ext/1653314881/system_init.o

.config_BFC0FFF4
 *(.config_BFC0FFF4)

.config_BFC0FFF8
 *(.config_BFC0FFF8)

.config_BFC0FFFC
 *(.config_BFC0FFFC)

.config_BFC2FF3C
 *(.config_BFC2FF3C)

.config_BFC2FF40
 *(.config_BFC2FF40)

.config_BFC2FF44
 *(.config_BFC2FF44)

.config_BFC2FF48
 *(.config_BFC2FF48)

.config_BFC2FF4C
 *(.config_BFC2FF4C)

.config_BFC2FF50
 *(.config_BFC2FF50)

.config_BFC2FF54
 *(.config_BFC2FF54)

.config_BFC2FF58
 *(.config_BFC2FF58)

.config_BFC2FF5C
 *(.config_BFC2FF5C)

.config_BFC2FF60
 *(.config_BFC2FF60)

.config_BFC2FF64
 *(.config_BFC2FF64)

.config_BFC2FF68
 *(.config_BFC2FF68)

.config_BFC2FF6C
 *(.config_BFC2FF6C)

.config_BFC2FF70
 *(.config_BFC2FF70)

.config_BFC2FF74
 *(.config_BFC2FF74)

.config_BFC2FF78
 *(.config_BFC2FF78)

.config_BFC2FF7C
 *(.config_BFC2FF7C)

.config_BFC2FFBC
 *(.config_BFC2FFBC)

.config_BFC2FFC0
 *(.config_BFC2FFC0)

.config_BFC2FFC4
 *(.config_BFC2FFC4)

.config_BFC2FFC8
 *(.config_BFC2FFC8)

.config_BFC2FFCC
 *(.config_BFC2FFCC)

.config_BFC2FFD0
 *(.config_BFC2FFD0)

.config_BFC2FFD4
 *(.config_BFC2FFD4)

.config_BFC2FFD8
 *(.config_BFC2FFD8)

.config_BFC2FFDC
 *(.config_BFC2FFDC)

.config_BFC2FFE0
 *(.config_BFC2FFE0)

.config_BFC2FFE4
 *(.config_BFC2FFE4)

.config_BFC2FFE8
 *(.config_BFC2FFE8)

.config_BFC2FFEC
 *(.config_BFC2FFEC)

.config_BFC2FFF0
 *(.config_BFC2FFF0)

.config_BFC2FFF4
 *(.config_BFC2FFF4)

.config_BFC2FFF8
 *(.config_BFC2FFF8)

.config_BFC2FFFC
 *(.config_BFC2FFFC)

.config_BFC4FF3C
 *(.config_BFC4FF3C)

.config_BFC4FF40
 *(.config_BFC4FF40)

.config_BFC4FF44
 *(.config_BFC4FF44)

.config_BFC4FF48
 *(.config_BFC4FF48)

.config_BFC4FF4C
 *(.config_BFC4FF4C)

.config_BFC4FF50
 *(.config_BFC4FF50)

.config_BFC4FF54
 *(.config_BFC4FF54)

.config_BFC4FF58
 *(.config_BFC4FF58)

.config_BFC4FF5C
 *(.config_BFC4FF5C)

.config_BFC4FF60
 *(.config_BFC4FF60)

.config_BFC4FF64
 *(.config_BFC4FF64)

.config_BFC4FF68
 *(.config_BFC4FF68)

.config_BFC4FF6C
 *(.config_BFC4FF6C)

.config_BFC4FF70
 *(.config_BFC4FF70)

.config_BFC4FF74
 *(.config_BFC4FF74)

.config_BFC4FF78
 *(.config_BFC4FF78)

.config_BFC4FF7C
 *(.config_BFC4FF7C)

.config_BFC4FFBC
 *(.config_BFC4FFBC)

.config_BFC4FFC0
 *(.config_BFC4FFC0)

.config_BFC4FFC4
 *(.config_BFC4FFC4)

.config_BFC4FFC8
 *(.config_BFC4FFC8)

.config_BFC4FFCC
 *(.config_BFC4FFCC)

.config_BFC4FFD0
 *(.config_BFC4FFD0)

.config_BFC4FFD4
 *(.config_BFC4FFD4)

.config_BFC4FFD8
 *(.config_BFC4FFD8)

.config_BFC4FFDC
 *(.config_BFC4FFDC)

.config_BFC4FFE0
 *(.config_BFC4FFE0)

.config_BFC4FFE4
 *(.config_BFC4FFE4)

.config_BFC4FFE8
 *(.config_BFC4FFE8)

.config_BFC4FFEC
 *(.config_BFC4FFEC)

.config_BFC4FFF0
 *(.config_BFC4FFF0)

.config_BFC4FFF4
 *(.config_BFC4FFF4)

.config_BFC4FFF8
 *(.config_BFC4FFF8)

.config_BFC4FFFC
 *(.config_BFC4FFFC)

.config_BFC54000
 *(.config_BFC54000)

.config_BFC54004
 *(.config_BFC54004)

.config_BFC54008
 *(.config_BFC54008)

.config_BFC5400C
 *(.config_BFC5400C)

.config_BFC54010
 *(.config_BFC54010)

.config_BFC5401C
 *(.config_BFC5401C)

.config_BFC54020
 *(.config_BFC54020)

.config_BFC54024
 *(.config_BFC54024)

.config_BFC54028
 *(.config_BFC54028)

.config_BFC5402C
 *(.config_BFC5402C)

.config_BFC6FF3C
 *(.config_BFC6FF3C)

.config_BFC6FF40
 *(.config_BFC6FF40)

.config_BFC6FF44
 *(.config_BFC6FF44)

.config_BFC6FF48
 *(.config_BFC6FF48)

.config_BFC6FF4C
 *(.config_BFC6FF4C)

.config_BFC6FF50
 *(.config_BFC6FF50)

.config_BFC6FF54
 *(.config_BFC6FF54)

.config_BFC6FF58
 *(.config_BFC6FF58)

.config_BFC6FF5C
 *(.config_BFC6FF5C)

.config_BFC6FF60
 *(.config_BFC6FF60)

.config_BFC6FF64
 *(.config_BFC6FF64)

.config_BFC6FF68
 *(.config_BFC6FF68)

.config_BFC6FF6C
 *(.config_BFC6FF6C)

.config_BFC6FF70
 *(.config_BFC6FF70)

.config_BFC6FF74
 *(.config_BFC6FF74)

.config_BFC6FF78
 *(.config_BFC6FF78)

.config_BFC6FF7C
 *(.config_BFC6FF7C)

.config_BFC6FFBC
 *(.config_BFC6FFBC)

.config_BFC6FFC0
 *(.config_BFC6FFC0)

.config_BFC6FFC4
 *(.config_BFC6FFC4)

.config_BFC6FFC8
 *(.config_BFC6FFC8)

.config_BFC6FFCC
 *(.config_BFC6FFCC)

.config_BFC6FFD0
 *(.config_BFC6FFD0)

.config_BFC6FFD4
 *(.config_BFC6FFD4)

.config_BFC6FFD8
 *(.config_BFC6FFD8)

.config_BFC6FFDC
 *(.config_BFC6FFDC)

.config_BFC6FFE0
 *(.config_BFC6FFE0)

.config_BFC6FFE4
 *(.config_BFC6FFE4)

.config_BFC6FFE8
 *(.config_BFC6FFE8)

.config_BFC6FFEC
 *(.config_BFC6FFEC)

.config_BFC6FFF0
 *(.config_BFC6FFF0)

.config_BFC6FFF4
 *(.config_BFC6FFF4)

.config_BFC6FFF8
 *(.config_BFC6FFF8)

.config_BFC6FFFC
 *(.config_BFC6FFFC)

.reset          0xbfc00000      0x1b0
 *(.reset)
 .reset         0xbfc00000       0x18 f:/software_installations/mplab_xc32/bin/bin/../../lib/gcc/pic32mx/4.8.3/../../../../pic32mx/lib/./proc/32MZ2064DAG176/crt0_mips32r2.o
                0xbfc00000                _reset
 *(.reset.startup)
 .reset.startup
                0xbfc00018      0x198 f:/software_installations/mplab_xc32/bin/bin/../../lib/gcc/pic32mx/4.8.3/../../../../pic32mx/lib/./proc/32MZ2064DAG176/crt0_mips32r2.o
                0xbfc00018                _startup

.bev_excpt      0xbfc00380       0x10
 *(.bev_handler)
 .bev_handler   0xbfc00380       0x10 f:/software_installations/mplab_xc32/bin/bin/../../lib/gcc/pic32mx/4.8.3/../../../../pic32mx/lib/./proc/32MZ2064DAG176/crt0_mips32r2.o

.cache_init     0xbfc004b0      0x19c
 *(.cache_init)
 *(.cache_init.*)
 .cache_init.cache
                0xbfc004b0       0xc0 f:/software_installations/mplab_xc32/bin/bin/../../lib/gcc/pic32mx/4.8.3/../../../../pic32mx/lib\libpic32.a(pic32_init_cache.o)
 .cache_init.pic32_init_cache
                0xbfc00570       0xdc f:/software_installations/mplab_xc32/bin/bin/../../lib/gcc/pic32mx/4.8.3/../../../../pic32mx/lib\libpic32.a(pic32_init_cache.o)
                0xbfc00570                __pic32_init_cache

.simple_tlb_refill_excpt
                0x9d000000       0x10
 *(.simple_tlb_refill_vector)
 .simple_tlb_refill_vector
                0x9d000000       0x10 f:/software_installations/mplab_xc32/bin/bin/../../lib/gcc/pic32mx/4.8.3/../../../../pic32mx/lib/./proc/32MZ2064DAG176/crt0_mips32r2.o

.cache_err_excpt
                0x9d000100       0x10
 *(.cache_err_vector)
 .cache_err_vector
                0x9d000100       0x10 f:/software_installations/mplab_xc32/bin/bin/../../lib/gcc/pic32mx/4.8.3/../../../../pic32mx/lib/./proc/32MZ2064DAG176/crt0_mips32r2.o

.app_excpt      0x9d000180       0x10
 *(.gen_handler)
 .gen_handler   0x9d000180       0x10 f:/software_installations/mplab_xc32/bin/bin/../../lib/gcc/pic32mx/4.8.3/../../../../pic32mx/lib/./proc/32MZ2064DAG176/crt0_mips32r2.o

.vectors        0x9d000200       0x70
                0x9d000200                . = ALIGN (0x4)
                0x00000228                __vector_offset_0 = DEFINED (__vector_dispatch_0)?(. - _ebase_address):__vector_offset_default
 *(.vector_0)
                0x9d000200                . = ALIGN (0x4)
                0x00000228                __vector_offset_1 = DEFINED (__vector_dispatch_1)?(. - _ebase_address):__vector_offset_default
 *(.vector_1)
                0x9d000200                . = ALIGN (0x4)
                0x00000228                __vector_offset_2 = DEFINED (__vector_dispatch_2)?(. - _ebase_address):__vector_offset_default
 *(.vector_2)
                0x9d000200                . = ALIGN (0x4)
                0x00000228                __vector_offset_3 = DEFINED (__vector_dispatch_3)?(. - _ebase_address):__vector_offset_default
 *(.vector_3)
                0x9d000200                . = ALIGN (0x4)
                0x00000228                __vector_offset_4 = DEFINED (__vector_dispatch_4)?(. - _ebase_address):__vector_offset_default
 *(.vector_4)
                0x9d000200                . = ALIGN (0x4)
                0x00000228                __vector_offset_5 = DEFINED (__vector_dispatch_5)?(. - _ebase_address):__vector_offset_default
 *(.vector_5)
                0x9d000200                . = ALIGN (0x4)
                0x00000228                __vector_offset_6 = DEFINED (__vector_dispatch_6)?(. - _ebase_address):__vector_offset_default
 *(.vector_6)
                0x9d000200                . = ALIGN (0x4)
                0x00000228                __vector_offset_7 = DEFINED (__vector_dispatch_7)?(. - _ebase_address):__vector_offset_default
 *(.vector_7)
                0x9d000200                . = ALIGN (0x4)
                0x00000228                __vector_offset_8 = DEFINED (__vector_dispatch_8)?(. - _ebase_address):__vector_offset_default
 *(.vector_8)
                0x9d000200                . = ALIGN (0x4)
                0x00000228                __vector_offset_9 = DEFINED (__vector_dispatch_9)?(. - _ebase_address):__vector_offset_default
 *(.vector_9)
                0x9d000200                . = ALIGN (0x4)
                0x00000228                __vector_offset_10 = DEFINED (__vector_dispatch_10)?(. - _ebase_address):__vector_offset_default
 *(.vector_10)
                0x9d000200                . = ALIGN (0x4)
                0x00000228                __vector_offset_11 = DEFINED (__vector_dispatch_11)?(. - _ebase_address):__vector_offset_default
 *(.vector_11)
                0x9d000200                . = ALIGN (0x4)
                0x00000228                __vector_offset_12 = DEFINED (__vector_dispatch_12)?(. - _ebase_address):__vector_offset_default
 *(.vector_12)
                0x9d000200                . = ALIGN (0x4)
                0x00000228                __vector_offset_13 = DEFINED (__vector_dispatch_13)?(. - _ebase_address):__vector_offset_default
 *(.vector_13)
                0x9d000200                . = ALIGN (0x4)
                0x00000228                __vector_offset_14 = DEFINED (__vector_dispatch_14)?(. - _ebase_address):__vector_offset_default
 *(.vector_14)
                0x9d000200                . = ALIGN (0x4)
                0x00000228                __vector_offset_15 = DEFINED (__vector_dispatch_15)?(. - _ebase_address):__vector_offset_default
 *(.vector_15)
                0x9d000200                . = ALIGN (0x4)
                0x00000228                __vector_offset_16 = DEFINED (__vector_dispatch_16)?(. - _ebase_address):__vector_offset_default
 *(.vector_16)
                0x9d000200                . = ALIGN (0x4)
                0x00000228                __vector_offset_17 = DEFINED (__vector_dispatch_17)?(. - _ebase_address):__vector_offset_default
 *(.vector_17)
                0x9d000200                . = ALIGN (0x4)
                0x00000228                __vector_offset_18 = DEFINED (__vector_dispatch_18)?(. - _ebase_address):__vector_offset_default
 *(.vector_18)
                0x9d000200                . = ALIGN (0x4)
                0x00000228                __vector_offset_19 = DEFINED (__vector_dispatch_19)?(. - _ebase_address):__vector_offset_default
 *(.vector_19)
                0x9d000200                . = ALIGN (0x4)
                0x00000228                __vector_offset_20 = DEFINED (__vector_dispatch_20)?(. - _ebase_address):__vector_offset_default
 *(.vector_20)
                0x9d000200                . = ALIGN (0x4)
                0x00000228                __vector_offset_21 = DEFINED (__vector_dispatch_21)?(. - _ebase_address):__vector_offset_default
 *(.vector_21)
                0x9d000200                . = ALIGN (0x4)
                0x00000228                __vector_offset_22 = DEFINED (__vector_dispatch_22)?(. - _ebase_address):__vector_offset_default
 *(.vector_22)
                0x9d000200                . = ALIGN (0x4)
                0x00000200                __vector_offset_23 = DEFINED (__vector_dispatch_23)?(. - _ebase_address):__vector_offset_default
 *(.vector_23)
 .vector_23     0x9d000200        0x8 build/pic32mz_da_sk_intddr_meb2/production/_ext/1653314881/system_interrupt.o
                0x9d000200                __vector_dispatch_23
                0x9d000208                . = ALIGN (0x4)
                0x00000228                __vector_offset_24 = DEFINED (__vector_dispatch_24)?(. - _ebase_address):__vector_offset_default
 *(.vector_24)
                0x9d000208                . = ALIGN (0x4)
                0x00000228                __vector_offset_25 = DEFINED (__vector_dispatch_25)?(. - _ebase_address):__vector_offset_default
 *(.vector_25)
                0x9d000208                . = ALIGN (0x4)
                0x00000228                __vector_offset_26 = DEFINED (__vector_dispatch_26)?(. - _ebase_address):__vector_offset_default
 *(.vector_26)
                0x9d000208                . = ALIGN (0x4)
                0x00000228                __vector_offset_27 = DEFINED (__vector_dispatch_27)?(. - _ebase_address):__vector_offset_default
 *(.vector_27)
                0x9d000208                . = ALIGN (0x4)
                0x00000228                __vector_offset_28 = DEFINED (__vector_dispatch_28)?(. - _ebase_address):__vector_offset_default
 *(.vector_28)
                0x9d000208                . = ALIGN (0x4)
                0x00000228                __vector_offset_29 = DEFINED (__vector_dispatch_29)?(. - _ebase_address):__vector_offset_default
 *(.vector_29)
                0x9d000208                . = ALIGN (0x4)
                0x00000228                __vector_offset_30 = DEFINED (__vector_dispatch_30)?(. - _ebase_address):__vector_offset_default
 *(.vector_30)
                0x9d000208                . = ALIGN (0x4)
                0x00000228                __vector_offset_31 = DEFINED (__vector_dispatch_31)?(. - _ebase_address):__vector_offset_default
 *(.vector_31)
                0x9d000208                . = ALIGN (0x4)
                0x00000228                __vector_offset_32 = DEFINED (__vector_dispatch_32)?(. - _ebase_address):__vector_offset_default
 *(.vector_32)
                0x9d000208                . = ALIGN (0x4)
                0x00000228                __vector_offset_33 = DEFINED (__vector_dispatch_33)?(. - _ebase_address):__vector_offset_default
 *(.vector_33)
                0x9d000208                . = ALIGN (0x4)
                0x00000228                __vector_offset_34 = DEFINED (__vector_dispatch_34)?(. - _ebase_address):__vector_offset_default
 *(.vector_34)
                0x9d000208                . = ALIGN (0x4)
                0x00000228                __vector_offset_35 = DEFINED (__vector_dispatch_35)?(. - _ebase_address):__vector_offset_default
 *(.vector_35)
                0x9d000208                . = ALIGN (0x4)
                0x00000228                __vector_offset_36 = DEFINED (__vector_dispatch_36)?(. - _ebase_address):__vector_offset_default
 *(.vector_36)
                0x9d000208                . = ALIGN (0x4)
                0x00000228                __vector_offset_37 = DEFINED (__vector_dispatch_37)?(. - _ebase_address):__vector_offset_default
 *(.vector_37)
                0x9d000208                . = ALIGN (0x4)
                0x00000228                __vector_offset_38 = DEFINED (__vector_dispatch_38)?(. - _ebase_address):__vector_offset_default
 *(.vector_38)
                0x9d000208                . = ALIGN (0x4)
                0x00000228                __vector_offset_39 = DEFINED (__vector_dispatch_39)?(. - _ebase_address):__vector_offset_default
 *(.vector_39)
                0x9d000208                . = ALIGN (0x4)
                0x00000208                __vector_offset_40 = DEFINED (__vector_dispatch_40)?(. - _ebase_address):__vector_offset_default
 *(.vector_40)
 .vector_40     0x9d000208        0x8 build/pic32mz_da_sk_intddr_meb2/production/_ext/1653314881/system_interrupt.o
                0x9d000208                __vector_dispatch_40
                0x9d000210                . = ALIGN (0x4)
                0x00000228                __vector_offset_41 = DEFINED (__vector_dispatch_41)?(. - _ebase_address):__vector_offset_default
 *(.vector_41)
                0x9d000210                . = ALIGN (0x4)
                0x00000228                __vector_offset_42 = DEFINED (__vector_dispatch_42)?(. - _ebase_address):__vector_offset_default
 *(.vector_42)
                0x9d000210                . = ALIGN (0x4)
                0x00000228                __vector_offset_43 = DEFINED (__vector_dispatch_43)?(. - _ebase_address):__vector_offset_default
 *(.vector_43)
                0x9d000210                . = ALIGN (0x4)
                0x00000228                __vector_offset_44 = DEFINED (__vector_dispatch_44)?(. - _ebase_address):__vector_offset_default
 *(.vector_44)
                0x9d000210                . = ALIGN (0x4)
                0x00000228                __vector_offset_45 = DEFINED (__vector_dispatch_45)?(. - _ebase_address):__vector_offset_default
 *(.vector_45)
                0x9d000210                . = ALIGN (0x4)
                0x00000228                __vector_offset_46 = DEFINED (__vector_dispatch_46)?(. - _ebase_address):__vector_offset_default
 *(.vector_46)
                0x9d000210                . = ALIGN (0x4)
                0x00000228                __vector_offset_47 = DEFINED (__vector_dispatch_47)?(. - _ebase_address):__vector_offset_default
 *(.vector_47)
                0x9d000210                . = ALIGN (0x4)
                0x00000228                __vector_offset_48 = DEFINED (__vector_dispatch_48)?(. - _ebase_address):__vector_offset_default
 *(.vector_48)
                0x9d000210                . = ALIGN (0x4)
                0x00000228                __vector_offset_49 = DEFINED (__vector_dispatch_49)?(. - _ebase_address):__vector_offset_default
 *(.vector_49)
                0x9d000210                . = ALIGN (0x4)
                0x00000228                __vector_offset_50 = DEFINED (__vector_dispatch_50)?(. - _ebase_address):__vector_offset_default
 *(.vector_50)
                0x9d000210                . = ALIGN (0x4)
                0x00000228                __vector_offset_51 = DEFINED (__vector_dispatch_51)?(. - _ebase_address):__vector_offset_default
 *(.vector_51)
                0x9d000210                . = ALIGN (0x4)
                0x00000228                __vector_offset_52 = DEFINED (__vector_dispatch_52)?(. - _ebase_address):__vector_offset_default
 *(.vector_52)
                0x9d000210                . = ALIGN (0x4)
                0x00000228                __vector_offset_53 = DEFINED (__vector_dispatch_53)?(. - _ebase_address):__vector_offset_default
 *(.vector_53)
                0x9d000210                . = ALIGN (0x4)
                0x00000228                __vector_offset_54 = DEFINED (__vector_dispatch_54)?(. - _ebase_address):__vector_offset_default
 *(.vector_54)
                0x9d000210                . = ALIGN (0x4)
                0x00000228                __vector_offset_55 = DEFINED (__vector_dispatch_55)?(. - _ebase_address):__vector_offset_default
 *(.vector_55)
                0x9d000210                . = ALIGN (0x4)
                0x00000228                __vector_offset_56 = DEFINED (__vector_dispatch_56)?(. - _ebase_address):__vector_offset_default
 *(.vector_56)
                0x9d000210                . = ALIGN (0x4)
                0x00000228                __vector_offset_57 = DEFINED (__vector_dispatch_57)?(. - _ebase_address):__vector_offset_default
 *(.vector_57)
                0x9d000210                . = ALIGN (0x4)
                0x00000228                __vector_offset_58 = DEFINED (__vector_dispatch_58)?(. - _ebase_address):__vector_offset_default
 *(.vector_58)
                0x9d000210                . = ALIGN (0x4)
                0x00000228                __vector_offset_59 = DEFINED (__vector_dispatch_59)?(. - _ebase_address):__vector_offset_default
 *(.vector_59)
                0x9d000210                . = ALIGN (0x4)
                0x00000228                __vector_offset_60 = DEFINED (__vector_dispatch_60)?(. - _ebase_address):__vector_offset_default
 *(.vector_60)
                0x9d000210                . = ALIGN (0x4)
                0x00000228                __vector_offset_61 = DEFINED (__vector_dispatch_61)?(. - _ebase_address):__vector_offset_default
 *(.vector_61)
                0x9d000210                . = ALIGN (0x4)
                0x00000228                __vector_offset_62 = DEFINED (__vector_dispatch_62)?(. - _ebase_address):__vector_offset_default
 *(.vector_62)
                0x9d000210                . = ALIGN (0x4)
                0x00000228                __vector_offset_63 = DEFINED (__vector_dispatch_63)?(. - _ebase_address):__vector_offset_default
 *(.vector_63)
                0x9d000210                . = ALIGN (0x4)
                0x00000228                __vector_offset_64 = DEFINED (__vector_dispatch_64)?(. - _ebase_address):__vector_offset_default
 *(.vector_64)
                0x9d000210                . = ALIGN (0x4)
                0x00000228                __vector_offset_65 = DEFINED (__vector_dispatch_65)?(. - _ebase_address):__vector_offset_default
 *(.vector_65)
                0x9d000210                . = ALIGN (0x4)
                0x00000228                __vector_offset_66 = DEFINED (__vector_dispatch_66)?(. - _ebase_address):__vector_offset_default
 *(.vector_66)
                0x9d000210                . = ALIGN (0x4)
                0x00000228                __vector_offset_67 = DEFINED (__vector_dispatch_67)?(. - _ebase_address):__vector_offset_default
 *(.vector_67)
                0x9d000210                . = ALIGN (0x4)
                0x00000228                __vector_offset_68 = DEFINED (__vector_dispatch_68)?(. - _ebase_address):__vector_offset_default
 *(.vector_68)
                0x9d000210                . = ALIGN (0x4)
                0x00000228                __vector_offset_69 = DEFINED (__vector_dispatch_69)?(. - _ebase_address):__vector_offset_default
 *(.vector_69)
                0x9d000210                . = ALIGN (0x4)
                0x00000228                __vector_offset_70 = DEFINED (__vector_dispatch_70)?(. - _ebase_address):__vector_offset_default
 *(.vector_70)
                0x9d000210                . = ALIGN (0x4)
                0x00000228                __vector_offset_71 = DEFINED (__vector_dispatch_71)?(. - _ebase_address):__vector_offset_default
 *(.vector_71)
                0x9d000210                . = ALIGN (0x4)
                0x00000228                __vector_offset_72 = DEFINED (__vector_dispatch_72)?(. - _ebase_address):__vector_offset_default
 *(.vector_72)
                0x9d000210                . = ALIGN (0x4)
                0x00000228                __vector_offset_73 = DEFINED (__vector_dispatch_73)?(. - _ebase_address):__vector_offset_default
 *(.vector_73)
                0x9d000210                . = ALIGN (0x4)
                0x00000228                __vector_offset_74 = DEFINED (__vector_dispatch_74)?(. - _ebase_address):__vector_offset_default
 *(.vector_74)
                0x9d000210                . = ALIGN (0x4)
                0x00000228                __vector_offset_75 = DEFINED (__vector_dispatch_75)?(. - _ebase_address):__vector_offset_default
 *(.vector_75)
                0x9d000210                . = ALIGN (0x4)
                0x00000228                __vector_offset_76 = DEFINED (__vector_dispatch_76)?(. - _ebase_address):__vector_offset_default
 *(.vector_76)
                0x9d000210                . = ALIGN (0x4)
                0x00000228                __vector_offset_77 = DEFINED (__vector_dispatch_77)?(. - _ebase_address):__vector_offset_default
 *(.vector_77)
                0x9d000210                . = ALIGN (0x4)
                0x00000228                __vector_offset_78 = DEFINED (__vector_dispatch_78)?(. - _ebase_address):__vector_offset_default
 *(.vector_78)
                0x9d000210                . = ALIGN (0x4)
                0x00000228                __vector_offset_79 = DEFINED (__vector_dispatch_79)?(. - _ebase_address):__vector_offset_default
 *(.vector_79)
                0x9d000210                . = ALIGN (0x4)
                0x00000228                __vector_offset_80 = DEFINED (__vector_dispatch_80)?(. - _ebase_address):__vector_offset_default
 *(.vector_80)
                0x9d000210                . = ALIGN (0x4)
                0x00000228                __vector_offset_81 = DEFINED (__vector_dispatch_81)?(. - _ebase_address):__vector_offset_default
 *(.vector_81)
                0x9d000210                . = ALIGN (0x4)
                0x00000228                __vector_offset_82 = DEFINED (__vector_dispatch_82)?(. - _ebase_address):__vector_offset_default
 *(.vector_82)
                0x9d000210                . = ALIGN (0x4)
                0x00000228                __vector_offset_83 = DEFINED (__vector_dispatch_83)?(. - _ebase_address):__vector_offset_default
 *(.vector_83)
                0x9d000210                . = ALIGN (0x4)
                0x00000228                __vector_offset_84 = DEFINED (__vector_dispatch_84)?(. - _ebase_address):__vector_offset_default
 *(.vector_84)
                0x9d000210                . = ALIGN (0x4)
                0x00000228                __vector_offset_85 = DEFINED (__vector_dispatch_85)?(. - _ebase_address):__vector_offset_default
 *(.vector_85)
                0x9d000210                . = ALIGN (0x4)
                0x00000228                __vector_offset_86 = DEFINED (__vector_dispatch_86)?(. - _ebase_address):__vector_offset_default
 *(.vector_86)
                0x9d000210                . = ALIGN (0x4)
                0x00000228                __vector_offset_87 = DEFINED (__vector_dispatch_87)?(. - _ebase_address):__vector_offset_default
 *(.vector_87)
                0x9d000210                . = ALIGN (0x4)
                0x00000228                __vector_offset_88 = DEFINED (__vector_dispatch_88)?(. - _ebase_address):__vector_offset_default
 *(.vector_88)
                0x9d000210                . = ALIGN (0x4)
                0x00000228                __vector_offset_89 = DEFINED (__vector_dispatch_89)?(. - _ebase_address):__vector_offset_default
 *(.vector_89)
                0x9d000210                . = ALIGN (0x4)
                0x00000228                __vector_offset_90 = DEFINED (__vector_dispatch_90)?(. - _ebase_address):__vector_offset_default
 *(.vector_90)
                0x9d000210                . = ALIGN (0x4)
                0x00000228                __vector_offset_91 = DEFINED (__vector_dispatch_91)?(. - _ebase_address):__vector_offset_default
 *(.vector_91)
                0x9d000210                . = ALIGN (0x4)
                0x00000228                __vector_offset_92 = DEFINED (__vector_dispatch_92)?(. - _ebase_address):__vector_offset_default
 *(.vector_92)
                0x9d000210                . = ALIGN (0x4)
                0x00000228                __vector_offset_93 = DEFINED (__vector_dispatch_93)?(. - _ebase_address):__vector_offset_default
 *(.vector_93)
                0x9d000210                . = ALIGN (0x4)
                0x00000228                __vector_offset_94 = DEFINED (__vector_dispatch_94)?(. - _ebase_address):__vector_offset_default
 *(.vector_94)
                0x9d000210                . = ALIGN (0x4)
                0x00000228                __vector_offset_95 = DEFINED (__vector_dispatch_95)?(. - _ebase_address):__vector_offset_default
 *(.vector_95)
                0x9d000210                . = ALIGN (0x4)
                0x00000228                __vector_offset_96 = DEFINED (__vector_dispatch_96)?(. - _ebase_address):__vector_offset_default
 *(.vector_96)
                0x9d000210                . = ALIGN (0x4)
                0x00000228                __vector_offset_97 = DEFINED (__vector_dispatch_97)?(. - _ebase_address):__vector_offset_default
 *(.vector_97)
                0x9d000210                . = ALIGN (0x4)
                0x00000228                __vector_offset_98 = DEFINED (__vector_dispatch_98)?(. - _ebase_address):__vector_offset_default
 *(.vector_98)
                0x9d000210                . = ALIGN (0x4)
                0x00000228                __vector_offset_99 = DEFINED (__vector_dispatch_99)?(. - _ebase_address):__vector_offset_default
 *(.vector_99)
                0x9d000210                . = ALIGN (0x4)
                0x00000228                __vector_offset_100 = DEFINED (__vector_dispatch_100)?(. - _ebase_address):__vector_offset_default
 *(.vector_100)
                0x9d000210                . = ALIGN (0x4)
                0x00000228                __vector_offset_101 = DEFINED (__vector_dispatch_101)?(. - _ebase_address):__vector_offset_default
 *(.vector_101)
                0x9d000210                . = ALIGN (0x4)
                0x00000228                __vector_offset_102 = DEFINED (__vector_dispatch_102)?(. - _ebase_address):__vector_offset_default
 *(.vector_102)
                0x9d000210                . = ALIGN (0x4)
                0x00000228                __vector_offset_103 = DEFINED (__vector_dispatch_103)?(. - _ebase_address):__vector_offset_default
 *(.vector_103)
                0x9d000210                . = ALIGN (0x4)
                0x00000228                __vector_offset_104 = DEFINED (__vector_dispatch_104)?(. - _ebase_address):__vector_offset_default
 *(.vector_104)
                0x9d000210                . = ALIGN (0x4)
                0x00000228                __vector_offset_105 = DEFINED (__vector_dispatch_105)?(. - _ebase_address):__vector_offset_default
 *(.vector_105)
                0x9d000210                . = ALIGN (0x4)
                0x00000228                __vector_offset_106 = DEFINED (__vector_dispatch_106)?(. - _ebase_address):__vector_offset_default
 *(.vector_106)
                0x9d000210                . = ALIGN (0x4)
                0x00000228                __vector_offset_107 = DEFINED (__vector_dispatch_107)?(. - _ebase_address):__vector_offset_default
 *(.vector_107)
                0x9d000210                . = ALIGN (0x4)
                0x00000228                __vector_offset_108 = DEFINED (__vector_dispatch_108)?(. - _ebase_address):__vector_offset_default
 *(.vector_108)
                0x9d000210                . = ALIGN (0x4)
                0x00000228                __vector_offset_109 = DEFINED (__vector_dispatch_109)?(. - _ebase_address):__vector_offset_default
 *(.vector_109)
                0x9d000210                . = ALIGN (0x4)
                0x00000228                __vector_offset_110 = DEFINED (__vector_dispatch_110)?(. - _ebase_address):__vector_offset_default
 *(.vector_110)
                0x9d000210                . = ALIGN (0x4)
                0x00000228                __vector_offset_111 = DEFINED (__vector_dispatch_111)?(. - _ebase_address):__vector_offset_default
 *(.vector_111)
                0x9d000210                . = ALIGN (0x4)
                0x00000228                __vector_offset_112 = DEFINED (__vector_dispatch_112)?(. - _ebase_address):__vector_offset_default
 *(.vector_112)
                0x9d000210                . = ALIGN (0x4)
                0x00000228                __vector_offset_113 = DEFINED (__vector_dispatch_113)?(. - _ebase_address):__vector_offset_default
 *(.vector_113)
                0x9d000210                . = ALIGN (0x4)
                0x00000228                __vector_offset_114 = DEFINED (__vector_dispatch_114)?(. - _ebase_address):__vector_offset_default
 *(.vector_114)
                0x9d000210                . = ALIGN (0x4)
                0x00000228                __vector_offset_115 = DEFINED (__vector_dispatch_115)?(. - _ebase_address):__vector_offset_default
 *(.vector_115)
                0x9d000210                . = ALIGN (0x4)
                0x00000228                __vector_offset_116 = DEFINED (__vector_dispatch_116)?(. - _ebase_address):__vector_offset_default
 *(.vector_116)
                0x9d000210                . = ALIGN (0x4)
                0x00000228                __vector_offset_117 = DEFINED (__vector_dispatch_117)?(. - _ebase_address):__vector_offset_default
 *(.vector_117)
                0x9d000210                . = ALIGN (0x4)
                0x00000228                __vector_offset_118 = DEFINED (__vector_dispatch_118)?(. - _ebase_address):__vector_offset_default
 *(.vector_118)
                0x9d000210                . = ALIGN (0x4)
                0x00000210                __vector_offset_119 = DEFINED (__vector_dispatch_119)?(. - _ebase_address):__vector_offset_default
 *(.vector_119)
 .vector_119    0x9d000210        0x8 build/pic32mz_da_sk_intddr_meb2/production/_ext/1653314881/system_interrupt.o
                0x9d000210                __vector_dispatch_119
                0x9d000218                . = ALIGN (0x4)
                0x00000228                __vector_offset_120 = DEFINED (__vector_dispatch_120)?(. - _ebase_address):__vector_offset_default
 *(.vector_120)
                0x9d000218                . = ALIGN (0x4)
                0x00000228                __vector_offset_121 = DEFINED (__vector_dispatch_121)?(. - _ebase_address):__vector_offset_default
 *(.vector_121)
                0x9d000218                . = ALIGN (0x4)
                0x00000228                __vector_offset_122 = DEFINED (__vector_dispatch_122)?(. - _ebase_address):__vector_offset_default
 *(.vector_122)
                0x9d000218                . = ALIGN (0x4)
                0x00000218                __vector_offset_123 = DEFINED (__vector_dispatch_123)?(. - _ebase_address):__vector_offset_default
 *(.vector_123)
 .vector_123    0x9d000218        0x8 build/pic32mz_da_sk_intddr_meb2/production/_ext/1653314881/system_interrupt.o
                0x9d000218                __vector_dispatch_123
                0x9d000220                . = ALIGN (0x4)
                0x00000228                __vector_offset_124 = DEFINED (__vector_dispatch_124)?(. - _ebase_address):__vector_offset_default
 *(.vector_124)
                0x9d000220                . = ALIGN (0x4)
                0x00000228                __vector_offset_125 = DEFINED (__vector_dispatch_125)?(. - _ebase_address):__vector_offset_default
 *(.vector_125)
                0x9d000220                . = ALIGN (0x4)
                0x00000228                __vector_offset_126 = DEFINED (__vector_dispatch_126)?(. - _ebase_address):__vector_offset_default
 *(.vector_126)
                0x9d000220                . = ALIGN (0x4)
                0x00000228                __vector_offset_127 = DEFINED (__vector_dispatch_127)?(. - _ebase_address):__vector_offset_default
 *(.vector_127)
                0x9d000220                . = ALIGN (0x4)
                0x00000228                __vector_offset_128 = DEFINED (__vector_dispatch_128)?(. - _ebase_address):__vector_offset_default
 *(.vector_128)
                0x9d000220                . = ALIGN (0x4)
                0x00000228                __vector_offset_129 = DEFINED (__vector_dispatch_129)?(. - _ebase_address):__vector_offset_default
 *(.vector_129)
                0x9d000220                . = ALIGN (0x4)
                0x00000228                __vector_offset_130 = DEFINED (__vector_dispatch_130)?(. - _ebase_address):__vector_offset_default
 *(.vector_130)
                0x9d000220                . = ALIGN (0x4)
                0x00000228                __vector_offset_131 = DEFINED (__vector_dispatch_131)?(. - _ebase_address):__vector_offset_default
 *(.vector_131)
                0x9d000220                . = ALIGN (0x4)
                0x00000228                __vector_offset_132 = DEFINED (__vector_dispatch_132)?(. - _ebase_address):__vector_offset_default
 *(.vector_132)
                0x9d000220                . = ALIGN (0x4)
                0x00000228                __vector_offset_133 = DEFINED (__vector_dispatch_133)?(. - _ebase_address):__vector_offset_default
 *(.vector_133)
                0x9d000220                . = ALIGN (0x4)
                0x00000228                __vector_offset_134 = DEFINED (__vector_dispatch_134)?(. - _ebase_address):__vector_offset_default
 *(.vector_134)
                0x9d000220                . = ALIGN (0x4)
                0x00000228                __vector_offset_135 = DEFINED (__vector_dispatch_135)?(. - _ebase_address):__vector_offset_default
 *(.vector_135)
                0x9d000220                . = ALIGN (0x4)
                0x00000228                __vector_offset_136 = DEFINED (__vector_dispatch_136)?(. - _ebase_address):__vector_offset_default
 *(.vector_136)
                0x9d000220                . = ALIGN (0x4)
                0x00000228                __vector_offset_137 = DEFINED (__vector_dispatch_137)?(. - _ebase_address):__vector_offset_default
 *(.vector_137)
                0x9d000220                . = ALIGN (0x4)
                0x00000228                __vector_offset_138 = DEFINED (__vector_dispatch_138)?(. - _ebase_address):__vector_offset_default
 *(.vector_138)
                0x9d000220                . = ALIGN (0x4)
                0x00000228                __vector_offset_139 = DEFINED (__vector_dispatch_139)?(. - _ebase_address):__vector_offset_default
 *(.vector_139)
                0x9d000220                . = ALIGN (0x4)
                0x00000228                __vector_offset_140 = DEFINED (__vector_dispatch_140)?(. - _ebase_address):__vector_offset_default
 *(.vector_140)
                0x9d000220                . = ALIGN (0x4)
                0x00000228                __vector_offset_141 = DEFINED (__vector_dispatch_141)?(. - _ebase_address):__vector_offset_default
 *(.vector_141)
                0x9d000220                . = ALIGN (0x4)
                0x00000228                __vector_offset_142 = DEFINED (__vector_dispatch_142)?(. - _ebase_address):__vector_offset_default
 *(.vector_142)
                0x9d000220                . = ALIGN (0x4)
                0x00000228                __vector_offset_143 = DEFINED (__vector_dispatch_143)?(. - _ebase_address):__vector_offset_default
 *(.vector_143)
                0x9d000220                . = ALIGN (0x4)
                0x00000228                __vector_offset_144 = DEFINED (__vector_dispatch_144)?(. - _ebase_address):__vector_offset_default
 *(.vector_144)
                0x9d000220                . = ALIGN (0x4)
                0x00000228                __vector_offset_145 = DEFINED (__vector_dispatch_145)?(. - _ebase_address):__vector_offset_default
 *(.vector_145)
                0x9d000220                . = ALIGN (0x4)
                0x00000228                __vector_offset_146 = DEFINED (__vector_dispatch_146)?(. - _ebase_address):__vector_offset_default
 *(.vector_146)
                0x9d000220                . = ALIGN (0x4)
                0x00000228                __vector_offset_147 = DEFINED (__vector_dispatch_147)?(. - _ebase_address):__vector_offset_default
 *(.vector_147)
                0x9d000220                . = ALIGN (0x4)
                0x00000228                __vector_offset_148 = DEFINED (__vector_dispatch_148)?(. - _ebase_address):__vector_offset_default
 *(.vector_148)
                0x9d000220                . = ALIGN (0x4)
                0x00000228                __vector_offset_149 = DEFINED (__vector_dispatch_149)?(. - _ebase_address):__vector_offset_default
 *(.vector_149)
                0x9d000220                . = ALIGN (0x4)
                0x00000228                __vector_offset_150 = DEFINED (__vector_dispatch_150)?(. - _ebase_address):__vector_offset_default
 *(.vector_150)
                0x9d000220                . = ALIGN (0x4)
                0x00000228                __vector_offset_151 = DEFINED (__vector_dispatch_151)?(. - _ebase_address):__vector_offset_default
 *(.vector_151)
                0x9d000220                . = ALIGN (0x4)
                0x00000228                __vector_offset_152 = DEFINED (__vector_dispatch_152)?(. - _ebase_address):__vector_offset_default
 *(.vector_152)
                0x9d000220                . = ALIGN (0x4)
                0x00000228                __vector_offset_153 = DEFINED (__vector_dispatch_153)?(. - _ebase_address):__vector_offset_default
 *(.vector_153)
                0x9d000220                . = ALIGN (0x4)
                0x00000228                __vector_offset_154 = DEFINED (__vector_dispatch_154)?(. - _ebase_address):__vector_offset_default
 *(.vector_154)
                0x9d000220                . = ALIGN (0x4)
                0x00000228                __vector_offset_155 = DEFINED (__vector_dispatch_155)?(. - _ebase_address):__vector_offset_default
 *(.vector_155)
                0x9d000220                . = ALIGN (0x4)
                0x00000228                __vector_offset_156 = DEFINED (__vector_dispatch_156)?(. - _ebase_address):__vector_offset_default
 *(.vector_156)
                0x9d000220                . = ALIGN (0x4)
                0x00000228                __vector_offset_157 = DEFINED (__vector_dispatch_157)?(. - _ebase_address):__vector_offset_default
 *(.vector_157)
                0x9d000220                . = ALIGN (0x4)
                0x00000228                __vector_offset_158 = DEFINED (__vector_dispatch_158)?(. - _ebase_address):__vector_offset_default
 *(.vector_158)
                0x9d000220                . = ALIGN (0x4)
                0x00000228                __vector_offset_159 = DEFINED (__vector_dispatch_159)?(. - _ebase_address):__vector_offset_default
 *(.vector_159)
                0x9d000220                . = ALIGN (0x4)
                0x00000228                __vector_offset_160 = DEFINED (__vector_dispatch_160)?(. - _ebase_address):__vector_offset_default
 *(.vector_160)
                0x9d000220                . = ALIGN (0x4)
                0x00000228                __vector_offset_161 = DEFINED (__vector_dispatch_161)?(. - _ebase_address):__vector_offset_default
 *(.vector_161)
                0x9d000220                . = ALIGN (0x4)
                0x00000228                __vector_offset_162 = DEFINED (__vector_dispatch_162)?(. - _ebase_address):__vector_offset_default
 *(.vector_162)
                0x9d000220                . = ALIGN (0x4)
                0x00000228                __vector_offset_163 = DEFINED (__vector_dispatch_163)?(. - _ebase_address):__vector_offset_default
 *(.vector_163)
                0x9d000220                . = ALIGN (0x4)
                0x00000228                __vector_offset_164 = DEFINED (__vector_dispatch_164)?(. - _ebase_address):__vector_offset_default
 *(.vector_164)
                0x9d000220                . = ALIGN (0x4)
                0x00000228                __vector_offset_165 = DEFINED (__vector_dispatch_165)?(. - _ebase_address):__vector_offset_default
 *(.vector_165)
                0x9d000220                . = ALIGN (0x4)
                0x00000228                __vector_offset_166 = DEFINED (__vector_dispatch_166)?(. - _ebase_address):__vector_offset_default
 *(.vector_166)
                0x9d000220                . = ALIGN (0x4)
                0x00000228                __vector_offset_167 = DEFINED (__vector_dispatch_167)?(. - _ebase_address):__vector_offset_default
 *(.vector_167)
                0x9d000220                . = ALIGN (0x4)
                0x00000228                __vector_offset_168 = DEFINED (__vector_dispatch_168)?(. - _ebase_address):__vector_offset_default
 *(.vector_168)
                0x9d000220                . = ALIGN (0x4)
                0x00000228                __vector_offset_169 = DEFINED (__vector_dispatch_169)?(. - _ebase_address):__vector_offset_default
 *(.vector_169)
                0x9d000220                . = ALIGN (0x4)
                0x00000228                __vector_offset_170 = DEFINED (__vector_dispatch_170)?(. - _ebase_address):__vector_offset_default
 *(.vector_170)
                0x9d000220                . = ALIGN (0x4)
                0x00000228                __vector_offset_171 = DEFINED (__vector_dispatch_171)?(. - _ebase_address):__vector_offset_default
 *(.vector_171)
                0x9d000220                . = ALIGN (0x4)
                0x00000228                __vector_offset_172 = DEFINED (__vector_dispatch_172)?(. - _ebase_address):__vector_offset_default
 *(.vector_172)
                0x9d000220                . = ALIGN (0x4)
                0x00000228                __vector_offset_173 = DEFINED (__vector_dispatch_173)?(. - _ebase_address):__vector_offset_default
 *(.vector_173)
                0x9d000220                . = ALIGN (0x4)
                0x00000228                __vector_offset_174 = DEFINED (__vector_dispatch_174)?(. - _ebase_address):__vector_offset_default
 *(.vector_174)
                0x9d000220                . = ALIGN (0x4)
                0x00000228                __vector_offset_175 = DEFINED (__vector_dispatch_175)?(. - _ebase_address):__vector_offset_default
 *(.vector_175)
                0x9d000220                . = ALIGN (0x4)
                0x00000228                __vector_offset_176 = DEFINED (__vector_dispatch_176)?(. - _ebase_address):__vector_offset_default
 *(.vector_176)
                0x9d000220                . = ALIGN (0x4)
                0x00000228                __vector_offset_177 = DEFINED (__vector_dispatch_177)?(. - _ebase_address):__vector_offset_default
 *(.vector_177)
                0x9d000220                . = ALIGN (0x4)
                0x00000228                __vector_offset_178 = DEFINED (__vector_dispatch_178)?(. - _ebase_address):__vector_offset_default
 *(.vector_178)
                0x9d000220                . = ALIGN (0x4)
                0x00000228                __vector_offset_179 = DEFINED (__vector_dispatch_179)?(. - _ebase_address):__vector_offset_default
 *(.vector_179)
                0x9d000220                . = ALIGN (0x4)
                0x00000228                __vector_offset_180 = DEFINED (__vector_dispatch_180)?(. - _ebase_address):__vector_offset_default
 *(.vector_180)
                0x9d000220                . = ALIGN (0x4)
                0x00000228                __vector_offset_181 = DEFINED (__vector_dispatch_181)?(. - _ebase_address):__vector_offset_default
 *(.vector_181)
                0x9d000220                . = ALIGN (0x4)
                0x00000228                __vector_offset_182 = DEFINED (__vector_dispatch_182)?(. - _ebase_address):__vector_offset_default
 *(.vector_182)
                0x9d000220                . = ALIGN (0x4)
                0x00000228                __vector_offset_183 = DEFINED (__vector_dispatch_183)?(. - _ebase_address):__vector_offset_default
 *(.vector_183)
                0x9d000220                . = ALIGN (0x4)
                0x00000228                __vector_offset_184 = DEFINED (__vector_dispatch_184)?(. - _ebase_address):__vector_offset_default
 *(.vector_184)
                0x9d000220                . = ALIGN (0x4)
                0x00000228                __vector_offset_185 = DEFINED (__vector_dispatch_185)?(. - _ebase_address):__vector_offset_default
 *(.vector_185)
                0x9d000220                . = ALIGN (0x4)
                0x00000228                __vector_offset_186 = DEFINED (__vector_dispatch_186)?(. - _ebase_address):__vector_offset_default
 *(.vector_186)
                0x9d000220                . = ALIGN (0x4)
                0x00000228                __vector_offset_187 = DEFINED (__vector_dispatch_187)?(. - _ebase_address):__vector_offset_default
 *(.vector_187)
                0x9d000220                . = ALIGN (0x4)
                0x00000228                __vector_offset_188 = DEFINED (__vector_dispatch_188)?(. - _ebase_address):__vector_offset_default
 *(.vector_188)
                0x9d000220                . = ALIGN (0x4)
                0x00000228                __vector_offset_189 = DEFINED (__vector_dispatch_189)?(. - _ebase_address):__vector_offset_default
 *(.vector_189)
                0x9d000220                . = ALIGN (0x4)
                0x00000228                __vector_offset_190 = DEFINED (__vector_dispatch_190)?(. - _ebase_address):__vector_offset_default
 *(.vector_190)
                0x9d000220                . = ALIGN (0x4)
                0x00000228                __vector_offset_191 = DEFINED (__vector_dispatch_191)?(. - _ebase_address):__vector_offset_default
 *(.vector_191)
                0x9d000220                . = ALIGN (0x4)
                0x00000220                __vector_offset_192 = DEFINED (__vector_dispatch_192)?(. - _ebase_address):__vector_offset_default
 *(.vector_192)
 .vector_192    0x9d000220        0x8 build/pic32mz_da_sk_intddr_meb2/production/_ext/1094895838/drv_gfx_glcd_static.o
                0x9d000220                __vector_dispatch_192
                0x9d000228                . = ALIGN (0x4)
                0x00000228                __vector_offset_193 = DEFINED (__vector_dispatch_193)?(. - _ebase_address):__vector_offset_default
 *(.vector_193)
                0x9d000228                . = ALIGN (0x4)
                0x00000228                __vector_offset_194 = DEFINED (__vector_dispatch_194)?(. - _ebase_address):__vector_offset_default
 *(.vector_194)
                0x9d000228                . = ALIGN (0x4)
                0x00000228                __vector_offset_195 = DEFINED (__vector_dispatch_195)?(. - _ebase_address):__vector_offset_default
 *(.vector_195)
                0x9d000228                . = ALIGN (0x4)
                0x00000228                __vector_offset_196 = DEFINED (__vector_dispatch_196)?(. - _ebase_address):__vector_offset_default
 *(.vector_196)
                0x9d000228                . = ALIGN (0x4)
                0x00000228                __vector_offset_197 = DEFINED (__vector_dispatch_197)?(. - _ebase_address):__vector_offset_default
 *(.vector_197)
                0x9d000228                . = ALIGN (0x4)
                0x00000228                __vector_offset_198 = DEFINED (__vector_dispatch_198)?(. - _ebase_address):__vector_offset_default
 *(.vector_198)
                0x9d000228                . = ALIGN (0x4)
                0x00000228                __vector_offset_199 = DEFINED (__vector_dispatch_199)?(. - _ebase_address):__vector_offset_default
 *(.vector_199)
                0x9d000228                . = ALIGN (0x4)
                0x00000228                __vector_offset_200 = DEFINED (__vector_dispatch_200)?(. - _ebase_address):__vector_offset_default
 *(.vector_200)
                0x9d000228                . = ALIGN (0x4)
                0x00000228                __vector_offset_201 = DEFINED (__vector_dispatch_201)?(. - _ebase_address):__vector_offset_default
 *(.vector_201)
                0x9d000228                . = ALIGN (0x4)
                0x00000228                __vector_offset_202 = DEFINED (__vector_dispatch_202)?(. - _ebase_address):__vector_offset_default
 *(.vector_202)
                0x9d000228                . = ALIGN (0x4)
                0x00000228                __vector_offset_203 = DEFINED (__vector_dispatch_203)?(. - _ebase_address):__vector_offset_default
 *(.vector_203)
                0x9d000228                . = ALIGN (0x4)
                0x00000228                __vector_offset_204 = DEFINED (__vector_dispatch_204)?(. - _ebase_address):__vector_offset_default
 *(.vector_204)
                0x9d000228                . = ALIGN (0x4)
                0x00000228                __vector_offset_205 = DEFINED (__vector_dispatch_205)?(. - _ebase_address):__vector_offset_default
 *(.vector_205)
                0x9d000228                . = ALIGN (0x4)
                0x00000228                __vector_offset_206 = DEFINED (__vector_dispatch_206)?(. - _ebase_address):__vector_offset_default
 *(.vector_206)
                0x9d000228                . = ALIGN (0x4)
                0x00000228                __vector_offset_207 = DEFINED (__vector_dispatch_207)?(. - _ebase_address):__vector_offset_default
 *(.vector_207)
                0x9d000228                . = ALIGN (0x4)
                0x00000228                __vector_offset_208 = DEFINED (__vector_dispatch_208)?(. - _ebase_address):__vector_offset_default
 *(.vector_208)
                0x9d000228                . = ALIGN (0x4)
                0x00000228                __vector_offset_209 = DEFINED (__vector_dispatch_209)?(. - _ebase_address):__vector_offset_default
 *(.vector_209)
                0x9d000228                . = ALIGN (0x4)
                0x00000228                __vector_offset_210 = DEFINED (__vector_dispatch_210)?(. - _ebase_address):__vector_offset_default
 *(.vector_210)
                0x9d000228                . = ALIGN (0x4)
                0x00000228                __vector_offset_211 = DEFINED (__vector_dispatch_211)?(. - _ebase_address):__vector_offset_default
 *(.vector_211)
                0x9d000228                . = ALIGN (0x4)
                0x00000228                __vector_offset_212 = DEFINED (__vector_dispatch_212)?(. - _ebase_address):__vector_offset_default
 *(.vector_212)
                0x9d000228                . = ALIGN (0x4)
                0x00000228                __vector_offset_213 = DEFINED (__vector_dispatch_213)?(. - _ebase_address):__vector_offset_default
 *(.vector_213)
                0x9d000228                . = ALIGN (0x4)
                0x00000228                __vector_offset_214 = DEFINED (__vector_dispatch_214)?(. - _ebase_address):__vector_offset_default
 *(.vector_214)
                0x9d000228                . = ALIGN (0x4)
                0x00000228                __vector_offset_215 = DEFINED (__vector_dispatch_215)?(. - _ebase_address):__vector_offset_default
 *(.vector_215)
                0x9d000228                . = ALIGN (0x4)
                0x00000228                __vector_offset_216 = DEFINED (__vector_dispatch_216)?(. - _ebase_address):__vector_offset_default
 *(.vector_216)
                0x9d000228                . = ALIGN (0x4)
                0x00000228                __vector_offset_217 = DEFINED (__vector_dispatch_217)?(. - _ebase_address):__vector_offset_default
 *(.vector_217)
                0x9d000228                . = ALIGN (0x4)
                0x00000228                __vector_offset_218 = DEFINED (__vector_dispatch_218)?(. - _ebase_address):__vector_offset_default
 *(.vector_218)
                0x9d000228                . = ALIGN (0x4)
                0x00000228                __vector_offset_219 = DEFINED (__vector_dispatch_219)?(. - _ebase_address):__vector_offset_default
 *(.vector_219)
                0x9d000228                . = ALIGN (0x4)
                0x00000228                __vector_offset_220 = DEFINED (__vector_dispatch_220)?(. - _ebase_address):__vector_offset_default
 *(.vector_220)
                0x9d000228                . = ALIGN (0x4)
                0x00000228                __vector_offset_221 = DEFINED (__vector_dispatch_221)?(. - _ebase_address):__vector_offset_default
 *(.vector_221)
                0x9d000228                . = ALIGN (0x4)
                0x00000228                __vector_offset_222 = DEFINED (__vector_dispatch_222)?(. - _ebase_address):__vector_offset_default
 *(.vector_222)
                0x9d000228                . = ALIGN (0x4)
                0x00000228                __vector_offset_223 = DEFINED (__vector_dispatch_223)?(. - _ebase_address):__vector_offset_default
 *(.vector_223)
                0x9d000228                . = ALIGN (0x4)
                0x00000228                __vector_offset_224 = DEFINED (__vector_dispatch_224)?(. - _ebase_address):__vector_offset_default
 *(.vector_224)
                0x9d000228                . = ALIGN (0x4)
                0x00000228                __vector_offset_225 = DEFINED (__vector_dispatch_225)?(. - _ebase_address):__vector_offset_default
 *(.vector_225)
                0x9d000228                . = ALIGN (0x4)
                0x00000228                __vector_offset_226 = DEFINED (__vector_dispatch_226)?(. - _ebase_address):__vector_offset_default
 *(.vector_226)
                0x9d000228                . = ALIGN (0x4)
                0x00000228                __vector_offset_227 = DEFINED (__vector_dispatch_227)?(. - _ebase_address):__vector_offset_default
 *(.vector_227)
                0x9d000228                . = ALIGN (0x4)
                0x00000228                __vector_offset_228 = DEFINED (__vector_dispatch_228)?(. - _ebase_address):__vector_offset_default
 *(.vector_228)
                0x9d000228                . = ALIGN (0x4)
                0x00000228                __vector_offset_229 = DEFINED (__vector_dispatch_229)?(. - _ebase_address):__vector_offset_default
 *(.vector_229)
                0x9d000228                . = ALIGN (0x4)
                0x00000228                __vector_offset_230 = DEFINED (__vector_dispatch_230)?(. - _ebase_address):__vector_offset_default
 *(.vector_230)
                0x9d000228                . = ALIGN (0x4)
                0x00000228                __vector_offset_231 = DEFINED (__vector_dispatch_231)?(. - _ebase_address):__vector_offset_default
 *(.vector_231)
                0x9d000228                . = ALIGN (0x4)
                0x00000228                __vector_offset_232 = DEFINED (__vector_dispatch_232)?(. - _ebase_address):__vector_offset_default
 *(.vector_232)
                0x9d000228                . = ALIGN (0x4)
                0x00000228                __vector_offset_233 = DEFINED (__vector_dispatch_233)?(. - _ebase_address):__vector_offset_default
 *(.vector_233)
                0x9d000228                . = ALIGN (0x4)
                0x00000228                __vector_offset_234 = DEFINED (__vector_dispatch_234)?(. - _ebase_address):__vector_offset_default
 *(.vector_234)
                0x9d000228                . = ALIGN (0x4)
                0x00000228                __vector_offset_235 = DEFINED (__vector_dispatch_235)?(. - _ebase_address):__vector_offset_default
 *(.vector_235)
                0x9d000228                . = ALIGN (0x4)
                0x00000228                __vector_offset_236 = DEFINED (__vector_dispatch_236)?(. - _ebase_address):__vector_offset_default
 *(.vector_236)
                0x9d000228                . = ALIGN (0x4)
                0x00000228                __vector_offset_237 = DEFINED (__vector_dispatch_237)?(. - _ebase_address):__vector_offset_default
 *(.vector_237)
                0x9d000228                . = ALIGN (0x4)
                0x00000228                __vector_offset_238 = DEFINED (__vector_dispatch_238)?(. - _ebase_address):__vector_offset_default
 *(.vector_238)
                0x9d000228                . = ALIGN (0x4)
                0x00000228                __vector_offset_239 = DEFINED (__vector_dispatch_239)?(. - _ebase_address):__vector_offset_default
 *(.vector_239)
                0x9d000228                . = ALIGN (0x4)
                0x00000228                __vector_offset_240 = DEFINED (__vector_dispatch_240)?(. - _ebase_address):__vector_offset_default
 *(.vector_240)
                0x9d000228                . = ALIGN (0x4)
                0x00000228                __vector_offset_241 = DEFINED (__vector_dispatch_241)?(. - _ebase_address):__vector_offset_default
 *(.vector_241)
                0x9d000228                . = ALIGN (0x4)
                0x00000228                __vector_offset_242 = DEFINED (__vector_dispatch_242)?(. - _ebase_address):__vector_offset_default
 *(.vector_242)
                0x9d000228                . = ALIGN (0x4)
                0x00000228                __vector_offset_243 = DEFINED (__vector_dispatch_243)?(. - _ebase_address):__vector_offset_default
 *(.vector_243)
                0x9d000228                . = ALIGN (0x4)
                0x00000228                __vector_offset_244 = DEFINED (__vector_dispatch_244)?(. - _ebase_address):__vector_offset_default
 *(.vector_244)
                0x9d000228                . = ALIGN (0x4)
                0x00000228                __vector_offset_245 = DEFINED (__vector_dispatch_245)?(. - _ebase_address):__vector_offset_default
 *(.vector_245)
                0x9d000228                . = ALIGN (0x4)
                0x00000228                __vector_offset_246 = DEFINED (__vector_dispatch_246)?(. - _ebase_address):__vector_offset_default
 *(.vector_246)
                0x9d000228                . = ALIGN (0x4)
                0x00000228                __vector_offset_247 = DEFINED (__vector_dispatch_247)?(. - _ebase_address):__vector_offset_default
 *(.vector_247)
                0x9d000228                . = ALIGN (0x4)
                0x00000228                __vector_offset_248 = DEFINED (__vector_dispatch_248)?(. - _ebase_address):__vector_offset_default
 *(.vector_248)
                0x9d000228                . = ALIGN (0x4)
                0x00000228                __vector_offset_249 = DEFINED (__vector_dispatch_249)?(. - _ebase_address):__vector_offset_default
 *(.vector_249)
                0x9d000228                . = ALIGN (0x4)
                0x00000228                __vector_offset_250 = DEFINED (__vector_dispatch_250)?(. - _ebase_address):__vector_offset_default
 *(.vector_250)
                0x9d000228                . = ALIGN (0x4)
                0x00000228                __vector_offset_251 = DEFINED (__vector_dispatch_251)?(. - _ebase_address):__vector_offset_default
 *(.vector_251)
                0x9d000228                . = ALIGN (0x4)
                0x00000228                __vector_offset_252 = DEFINED (__vector_dispatch_252)?(. - _ebase_address):__vector_offset_default
 *(.vector_252)
                0x9d000228                . = ALIGN (0x4)
                0x00000228                __vector_offset_253 = DEFINED (__vector_dispatch_253)?(. - _ebase_address):__vector_offset_default
 *(.vector_253)
                0x9d000228                . = ALIGN (0x4)
                0x00000228                __vector_offset_254 = DEFINED (__vector_dispatch_254)?(. - _ebase_address):__vector_offset_default
 *(.vector_254)
                0x9d000228                . = ALIGN (0x4)
                0x00000228                __vector_offset_255 = DEFINED (__vector_dispatch_255)?(. - _ebase_address):__vector_offset_default
 *(.vector_255)
                0x9d000228                . = ALIGN (0x4)
                0x00000228                __vector_offset_default = (. - _ebase_address)
 *(.vector_default)
 .vector_default
                0x9d000228       0x48 f:/software_installations/mplab_xc32/bin/bin/../../lib/gcc/pic32mx/4.8.3/../../../../pic32mx/lib\libpic32.a(defaultinterrupt.o)
                0x9d000228                _DefaultInterrupt

.startup
 *(.startup)

.text           0x9d000270        0x0
 *(.stub .gnu.linkonce.t.*)
 *(.text.*personality*)
 *(.mips16.fn.*)
 *(.mips16.call.*)
 *(.gnu.warning)
                0x9d000270                . = ALIGN (0x4)

.init           0x9d000270        0x0
 *crti.o(.init)
 *crtbegin.o(.init)
 *(EXCLUDE_FILE(*crtn.o *crtend?.o *crtend.o) .init)
 *crtend.o(.init)
 *crtn.o(.init)
                0x9d000270                . = ALIGN (0x4)

.fini           0x9d000270        0x0
 *(.fini)
                0x9d000270                . = ALIGN (0x4)

.preinit_array  0x9d000270        0x0
                0x9d000270                PROVIDE (__preinit_array_start, .)
 *(.preinit_array)
                0x9d000270                PROVIDE (__preinit_array_end, .)
                0x9d000270                . = ALIGN (0x4)

.init_array     0x9d000270        0x0
                0x9d000270                PROVIDE (__init_array_start, .)
 *(SORT(.init_array.*))
 *(.init_array)
                0x9d000270                PROVIDE (__init_array_end, .)
                0x9d000270                . = ALIGN (0x4)

.fini_array     0x9d000270        0x0
                0x9d000270                PROVIDE (__fini_array_start, .)
 *(SORT(.fini_array.*))
 *(.fini_array)
                0x9d000270                PROVIDE (__fini_array_end, .)
                0x9d000270                . = ALIGN (0x4)

.ctors          0x9d000270        0x0
 *crtbegin.o(.ctors)
 *crtbegin?.o(.ctors)
 *(EXCLUDE_FILE(*crtend?.o *crtend.o) .ctors)
 *(SORT(.ctors.*))
 *(.ctors)
                0x9d000270                . = ALIGN (0x4)

.dtors          0x9d000270        0x0
 *crtbegin.o(.dtors)
 *crtbegin?.o(.dtors)
 *(EXCLUDE_FILE(*crtend?.o *crtend.o) .dtors)
 *(SORT(.dtors.*))
 *(.dtors)
                0x9d000270                . = ALIGN (0x4)

.rodata         0x9d000270        0x0
 *(.gnu.linkonce.r.*)
 *(.rodata1)
                0x9d000270                . = ALIGN (0x4)

.sdata2         0x9fc004b0        0x0
 *(.sdata2 .sdata2.* .gnu.linkonce.s2.*)
                0x9fc004b0                . = ALIGN (0x4)

.sbss2          0x9fc004b0        0x0
 *(.sbss2 .sbss2.* .gnu.linkonce.sb2.*)
                0x9fc004b0                . = ALIGN (0x4)

.eh_frame_hdr
 *(.eh_frame_hdr)
                0x9fc004b0                . = ALIGN (0x4)

.eh_frame
 *(.eh_frame)
                0x9fc004b0                . = ALIGN (0x4)

.gcc_except_table
 *(.gcc_except_table .gcc_except_table.*)
                0x9fc004b0                . = ALIGN (0x4)

.dbg_data       0x80000000        0x0
                0x80000000                . = (. + DEFINED (_DEBUGGER)?0x200:0x0)
                0x80000000                . = (. + DEFINED (_DEBUGGER)?0x80:0x0)

.jcr            0x80000000        0x0
 *(.jcr)
                0x80000000                . = ALIGN (0x4)

.eh_frame
 *(.eh_frame)
                0x80000000                . = ALIGN (0x4)

.gcc_except_table
 *(.gcc_except_table .gcc_except_table.*)
                0x80000000                . = ALIGN (0x4)

.persist        0x80000000        0x0
                0x80000000                _persist_begin = .
 *(.persist .persist.*)
 *(.pbss .pbss.*)
                0x80000000                . = ALIGN (0x4)
                0x80000000                _persist_end = .

.data           0x80000000        0x0
 *(.gnu.linkonce.d.*)
 *(.data1)
                0x80000000                . = ALIGN (0x4)
                0x80000000                . = .
                0x80007ff0                _gp = (ALIGN (0x10) + 0x7ff0)

.got            0x80000000        0x0
 *(.got.plt)
 *(.got)
                0x80000000                . = ALIGN (0x4)

.sdata          0x80000000      0x220
                0x80000000                _sdata_begin = .
 *(.sdata .sdata.* .gnu.linkonce.s.*)
 .sdata         0x80000000        0x8 build/pic32mz_da_sk_intddr_meb2/production/_ext/1177928576/drv_mxt336t.o
                0x80000004                messageDataSize
 .sdata         0x80000008       0x10 build/pic32mz_da_sk_intddr_meb2/production/_ext/1597685232/gfxu_string_utils.o
                0x80000008                drawGlyphRow
                0x80000010                getGlyphRowDataSize
 .sdata         0x80000018        0x4 build/pic32mz_da_sk_intddr_meb2/production/_ext/493934858/lodepng.o
                0x80000018                LODEPNG_VERSION_STRING
 .sdata         0x8000001c        0x4 build/pic32mz_da_sk_intddr_meb2/production/_ext/1094895838/drv_gfx_glcd_static.o
                0x8000001c                DRIVER_NAME
 .sdata         0x80000020      0x1d4 build/pic32mz_da_sk_intddr_meb2/production/_ext/1021385576/gfx_assets.o
                0x80000020                fontIndexTable_data
                0x80000028                fontList
                0x80000030                stringIndexTable_data
                0x80000038                TimesNewRoman12_index_table
                0x800000fc                TimesNewRoman12_lookup_6E
                0x80000100                TimesNewRoman12_lookup_6B
                0x80000104                TimesNewRoman12_lookup_67_68
                0x8000010c                TimesNewRoman12_lookup_65
                0x80000110                TimesNewRoman12_lookup_63
                0x80000114                TimesNewRoman12_lookup_61
                0x80000118                TimesNewRoman12_lookup_52
                0x8000011c                TimesNewRoman12_lookup_4D
                0x80000120                TimesNewRoman12_lookup_47
                0x80000124                TimesNewRoman12_lookup_2E
                0x80000128                TimesNewRoman12_lookup_20
                0x8000012c                TimesNewRoman18_index_table
                0x800001c0                TimesNewRoman18_lookup_6B
                0x800001c8                TimesNewRoman18_lookup_69
                0x800001d0                TimesNewRoman18_lookup_63
                0x800001d8                TimesNewRoman18_lookup_61
                0x800001e0                TimesNewRoman18_lookup_5F
                0x800001e4                TimesNewRoman18_lookup_58
                0x800001e8                TimesNewRoman18_lookup_51
                0x800001ec                TimesNewRoman18_lookup_46_47
 .sdata         0x800001f4       0x24 f:/software_installations/mplab_xc32/bin/bin/../../lib/gcc/pic32mx/4.8.3/../../../../pic32mx/lib\libpic32.a(pic32_init_cache.o)
                0x800001f4                __pic32_icache_size
                0x800001f8                __pic32_icache_linesize
                0x800001fc                __pic32_icache_ways
                0x80000200                __pic32_dcache_size
                0x80000204                __pic32_dcache_linesize
                0x80000208                __pic32_dcache_ways
                0x8000020c                __pic32_scache_size
                0x80000210                __pic32_scache_linesize
                0x80000214                __pic32_scache_ways
 .sdata         0x80000218        0x4 f:/software_installations/mplab_xc32/bin/bin/../../lib/gcc/pic32mx/4.8.3/../../../../pic32mx/lib\liblega-c.a(_iobdata.o)
                0x80000218                _libc_data
 .sdata         0x8000021c        0x4 f:/software_installations/mplab_xc32/bin/bin/../../lib/gcc/pic32mx/4.8.3/../../../../pic32mx/lib\libpic32.a(xc32_uart.o)
                0x8000021c                __XC_UART
                0x80000220                . = ALIGN (0x4)
                0x80000220                _sdata_end = .

.lit8
 *(.lit8)

.lit4
 *(.lit4)
                0x80000220                . = ALIGN (0x4)
                0x80000220                _data_end = .
                0x80000220                _bss_begin = .

.sbss           0x80000220       0xfc
                0x80000220                _sbss_begin = .
 *(.dynsbss)
 *(.sbss .sbss.* .gnu.linkonce.sb.*)
 .sbss          0x80000220        0x4 build/pic32mz_da_sk_intddr_meb2/production/_ext/475095144/drv_i2c_bb_a.o
 .sbss          0x80000224        0x4 build/pic32mz_da_sk_intddr_meb2/production/_ext/1847583374/gfx_context.o
                0x80000224                _contextActive
 .sbss          0x80000228        0x8 build/pic32mz_da_sk_intddr_meb2/production/_ext/1847583374/gfx_driver_interface.o
                0x80000228                GFX_DriverInterfaces
 .sbss          0x80000230        0x8 build/pic32mz_da_sk_intddr_meb2/production/_ext/1847583374/gfx_draw_ellipse.o
 .sbss          0x80000238        0x4 build/pic32mz_da_sk_intddr_meb2/production/_ext/1907747181/libaria.o
                0x80000238                _initialized
 .sbss          0x8000023c        0x4 build/pic32mz_da_sk_intddr_meb2/production/_ext/1907747181/libaria_context.o
                0x8000023c                _activeContext
 .sbss          0x80000240        0x1 build/pic32mz_da_sk_intddr_meb2/production/_ext/1907747181/libaria_widget_image_skin_classic.o
                0x80000240                startCounting
 *fill*         0x80000241        0x3 
 .sbss          0x80000244        0xc build/pic32mz_da_sk_intddr_meb2/production/_ext/1597685232/gfxu_image_jpg_internal.o
 .sbss          0x80000250       0x30 build/pic32mz_da_sk_intddr_meb2/production/_ext/1597685232/gfxu_image_jpg_common.o
 .sbss          0x80000280        0xc build/pic32mz_da_sk_intddr_meb2/production/_ext/1597685232/gfxu_image_jpg_external.o
 .sbss          0x8000028c        0x4 build/pic32mz_da_sk_intddr_meb2/production/_ext/590040425/libaria_harmony.o
 .sbss          0x80000290       0x18 build/pic32mz_da_sk_intddr_meb2/production/_ext/1653314881/general_exception_handler.o
 .sbss          0x800002a8        0x4 f:/software_installations/mplab_xc32/bin/bin/../../lib/gcc/pic32mx/4.8.3/../../../../pic32mx/lib\liblega-c.a(errno.o)
                0x800002a8                errno
 *(.scommon)
 .scommon       0x800002ac        0x4 build/pic32mz_da_sk_intddr_meb2/production/_ext/1360937237/app.o
                0x800002ac                appData
 .scommon       0x800002b0        0x8 build/pic32mz_da_sk_intddr_meb2/production/_ext/475095144/drv_i2c_bb_a.o
                0x800002b0                gDrvI2CCommonDataObj
                0x800002b4                starttime
 .scommon       0x800002b8       0x30 build/pic32mz_da_sk_intddr_meb2/production/_ext/1177928576/drv_mxt336t.o
                0x800002b8                infoBlockData
                0x800002bc                touchScreenProcessor
                0x800002c0                touchEndID
                0x800002c4                messageProcessor
                0x800002c8                objectTable
                0x800002cc                reportIDMapSize
                0x800002d0                infoBlockSize
                0x800002d4                touchBaseID
                0x800002d8                operationStatus
                0x800002dc                reportIDMapList
                0x800002e0                objectCount
                0x800002e4                commandProcessor
 .scommon       0x800002e8        0x4 build/pic32mz_da_sk_intddr_meb2/production/_ext/2137108136/sys_debug.o
                0x800002e8                gblErrLvl
 .scommon       0x800002ec        0x8 build/pic32mz_da_sk_intddr_meb2/production/_ext/252650337/sys_input.o
                0x800002ec                listenerFlags
                0x800002f0                eventCount
 .scommon       0x800002f4        0x4 build/pic32mz_da_sk_intddr_meb2/production/_ext/418582516/drv_usart_static.o
                0x800002f4                gDrvUSART0Obj
 .scommon       0x800002f8        0xc build/pic32mz_da_sk_intddr_meb2/production/_ext/1094895838/drv_gfx_glcd_static.o
                0x800002f8                state
                0x800002fc                cntxt
                0x80000300                waitingForVSync
 .scommon       0x80000304        0x4 build/pic32mz_da_sk_intddr_meb2/production/_ext/590040425/libaria_harmony.o
                0x80000304                libariaObj
 .scommon       0x80000308        0xc build/pic32mz_da_sk_intddr_meb2/production/_ext/590040425/libaria_init.o
                0x80000308                ImageWidget1
                0x8000030c                LabelWidget1
                0x80000310                ButtonWidget1
 .scommon       0x80000314        0x8 build/pic32mz_da_sk_intddr_meb2/production/_ext/1796496159/sys_devcon.o
                0x80000314                sysDevconObj
                0x8000031c                _sbss_end = .
                0x8000031c                . = ALIGN (0x4)

.bss            0x8000031c      0x380
 *(.dynbss)
 *(COMMON)
 COMMON         0x8000031c       0x8c build/pic32mz_da_sk_intddr_meb2/production/_ext/1177928576/drv_mxt336t.o
                0x8000031c                infoBlock
                0x80000328                sMXT336TDriverInstances
 COMMON         0x800003a8       0x10 build/pic32mz_da_sk_intddr_meb2/production/_ext/2137108136/sys_debug.o
                0x800003a8                sysDebugInstance
 COMMON         0x800003b8      0x260 build/pic32mz_da_sk_intddr_meb2/production/_ext/252650337/sys_input.o
                0x800003b8                generalEvents
                0x800005b8                listeners
 COMMON         0x80000618       0x30 build/pic32mz_da_sk_intddr_meb2/production/_ext/590040425/libaria_harmony.o
                0x80000618                inputListener
 COMMON         0x80000648       0x40 build/pic32mz_da_sk_intddr_meb2/production/_ext/590040425/libaria_init.o
                0x80000648                defaultScheme
 COMMON         0x80000688       0x14 build/pic32mz_da_sk_intddr_meb2/production/_ext/1653314881/system_init.o
                0x80000688                sysObj
                0x8000069c                . = ALIGN ((. != 0x0)?0x4:0x1)
                0x8000069c                . = ALIGN (0x4)
                0x8000069c                _end = .
                0x8000069c                _bss_end = .
                0x000a0000                _bmxdudba_address = 0xa0000
                0x000a0000                _bmxdupba_address = 0xa0000

/DISCARD/
 *(.pdr)
 *(.rel.dyn)
 *(.note.GNU-stack)
 *(.note.GNU-stack)
 *(.gnu_debuglink)
 *(.gnu.lto_*)
 *(.discard)

.gptab.sdata
 *(.gptab.data)
 *(.gptab.sdata)

.gptab.sbss
 *(.gptab.bss)
 *(.gptab.sbss)

.mdebug.abi32   0x00000000        0x0
 *(.mdebug.abi32)
 .mdebug.abi32  0x00000000        0x0 build/pic32mz_da_sk_intddr_meb2/production/_ext/1360937237/app.o
 .mdebug.abi32  0x00000000        0x0 build/pic32mz_da_sk_intddr_meb2/production/_ext/1360937237/main.o
 .mdebug.abi32  0x00000000        0x0 build/pic32mz_da_sk_intddr_meb2/production/_ext/475095144/drv_i2c_bb_a.o
 .mdebug.abi32  0x00000000        0x0 build/pic32mz_da_sk_intddr_meb2/production/_ext/475095144/drv_i2c_bb.o
 .mdebug.abi32  0x00000000        0x0 build/pic32mz_da_sk_intddr_meb2/production/_ext/1177928576/drv_mxt336t.o
 .mdebug.abi32  0x00000000        0x0 build/pic32mz_da_sk_intddr_meb2/production/_ext/1847583374/gfx.o
 .mdebug.abi32  0x00000000        0x0 build/pic32mz_da_sk_intddr_meb2/production/_ext/1847583374/gfx_color.o
 .mdebug.abi32  0x00000000        0x0 build/pic32mz_da_sk_intddr_meb2/production/_ext/1847583374/gfx_context.o
 .mdebug.abi32  0x00000000        0x0 build/pic32mz_da_sk_intddr_meb2/production/_ext/1847583374/gfx_default_impl.o
 .mdebug.abi32  0x00000000        0x0 build/pic32mz_da_sk_intddr_meb2/production/_ext/1847583374/gfx_display.o
 .mdebug.abi32  0x00000000        0x0 build/pic32mz_da_sk_intddr_meb2/production/_ext/1847583374/gfx_driver_interface.o
 .mdebug.abi32  0x00000000        0x0 build/pic32mz_da_sk_intddr_meb2/production/_ext/1847583374/gfx_get.o
 .mdebug.abi32  0x00000000        0x0 build/pic32mz_da_sk_intddr_meb2/production/_ext/1847583374/gfx_interface.o
 .mdebug.abi32  0x00000000        0x0 build/pic32mz_da_sk_intddr_meb2/production/_ext/1847583374/gfx_layer.o
 .mdebug.abi32  0x00000000        0x0 build/pic32mz_da_sk_intddr_meb2/production/_ext/1847583374/gfx_pixel_buffer.o
 .mdebug.abi32  0x00000000        0x0 build/pic32mz_da_sk_intddr_meb2/production/_ext/1847583374/gfx_rect.o
 .mdebug.abi32  0x00000000        0x0 build/pic32mz_da_sk_intddr_meb2/production/_ext/1847583374/gfx_util.o
 .mdebug.abi32  0x00000000        0x0 build/pic32mz_da_sk_intddr_meb2/production/_ext/1847583374/gfx_set.o
 .mdebug.abi32  0x00000000        0x0 build/pic32mz_da_sk_intddr_meb2/production/_ext/1847583374/gfx_color_blend.o
 .mdebug.abi32  0x00000000        0x0 build/pic32mz_da_sk_intddr_meb2/production/_ext/1847583374/gfx_color_convert.o
 .mdebug.abi32  0x00000000        0x0 build/pic32mz_da_sk_intddr_meb2/production/_ext/1847583374/gfx_color_lerp.o
 .mdebug.abi32  0x00000000        0x0 build/pic32mz_da_sk_intddr_meb2/production/_ext/1847583374/gfx_color_value.o
 .mdebug.abi32  0x00000000        0x0 build/pic32mz_da_sk_intddr_meb2/production/_ext/1847583374/gfx_draw_blit.o
 .mdebug.abi32  0x00000000        0x0 build/pic32mz_da_sk_intddr_meb2/production/_ext/1847583374/gfx_draw_circle.o
 .mdebug.abi32  0x00000000        0x0 build/pic32mz_da_sk_intddr_meb2/production/_ext/1847583374/gfx_draw_line.o
 .mdebug.abi32  0x00000000        0x0 build/pic32mz_da_sk_intddr_meb2/production/_ext/1847583374/gfx_draw_pixel.o
 .mdebug.abi32  0x00000000        0x0 build/pic32mz_da_sk_intddr_meb2/production/_ext/1847583374/gfx_draw_rect.o
 .mdebug.abi32  0x00000000        0x0 build/pic32mz_da_sk_intddr_meb2/production/_ext/1847583374/gfx_math.o
 .mdebug.abi32  0x00000000        0x0 build/pic32mz_da_sk_intddr_meb2/production/_ext/1847583374/gfx_draw_stretchblit.o
 .mdebug.abi32  0x00000000        0x0 build/pic32mz_da_sk_intddr_meb2/production/_ext/1847583374/gfx_processor_interface.o
 .mdebug.abi32  0x00000000        0x0 build/pic32mz_da_sk_intddr_meb2/production/_ext/1847583374/gfx_draw_arc.o
 .mdebug.abi32  0x00000000        0x0 build/pic32mz_da_sk_intddr_meb2/production/_ext/1847583374/gfx_draw_ellipse.o
 .mdebug.abi32  0x00000000        0x0 build/pic32mz_da_sk_intddr_meb2/production/_ext/1907747181/libaria.o
 .mdebug.abi32  0x00000000        0x0 build/pic32mz_da_sk_intddr_meb2/production/_ext/1907747181/libaria_context.o
 .mdebug.abi32  0x00000000        0x0 build/pic32mz_da_sk_intddr_meb2/production/_ext/1907747181/libaria_context_paint.o
 .mdebug.abi32  0x00000000        0x0 build/pic32mz_da_sk_intddr_meb2/production/_ext/1907747181/libaria_draw.o
 .mdebug.abi32  0x00000000        0x0 build/pic32mz_da_sk_intddr_meb2/production/_ext/1907747181/libaria_editwidget.o
 .mdebug.abi32  0x00000000        0x0 build/pic32mz_da_sk_intddr_meb2/production/_ext/1907747181/libaria_event.o
 .mdebug.abi32  0x00000000        0x0 build/pic32mz_da_sk_intddr_meb2/production/_ext/1907747181/libaria_input.o
 .mdebug.abi32  0x00000000        0x0 build/pic32mz_da_sk_intddr_meb2/production/_ext/1907747181/libaria_layer.o
 .mdebug.abi32  0x00000000        0x0 build/pic32mz_da_sk_intddr_meb2/production/_ext/1907747181/libaria_list.o
 .mdebug.abi32  0x00000000        0x0 build/pic32mz_da_sk_intddr_meb2/production/_ext/1907747181/libaria_scheme.o
 .mdebug.abi32  0x00000000        0x0 build/pic32mz_da_sk_intddr_meb2/production/_ext/1907747181/libaria_screen.o
 .mdebug.abi32  0x00000000        0x0 build/pic32mz_da_sk_intddr_meb2/production/_ext/1907747181/libaria_string.o
 .mdebug.abi32  0x00000000        0x0 build/pic32mz_da_sk_intddr_meb2/production/_ext/1907747181/libaria_utils.o
 .mdebug.abi32  0x00000000        0x0 build/pic32mz_da_sk_intddr_meb2/production/_ext/1907747181/libaria_widget.o
 .mdebug.abi32  0x00000000        0x0 build/pic32mz_da_sk_intddr_meb2/production/_ext/1907747181/libaria_widget_skin_classic.o
 .mdebug.abi32  0x00000000        0x0 build/pic32mz_da_sk_intddr_meb2/production/_ext/1907747181/libaria_widget_button.o
 .mdebug.abi32  0x00000000        0x0 build/pic32mz_da_sk_intddr_meb2/production/_ext/1907747181/libaria_widget_button_skin_classic.o
 .mdebug.abi32  0x00000000        0x0 build/pic32mz_da_sk_intddr_meb2/production/_ext/1907747181/libaria_widget_checkbox.o
 .mdebug.abi32  0x00000000        0x0 build/pic32mz_da_sk_intddr_meb2/production/_ext/1907747181/libaria_widget_checkbox_skin_classic.o
 .mdebug.abi32  0x00000000        0x0 build/pic32mz_da_sk_intddr_meb2/production/_ext/1907747181/libaria_widget_circle.o
 .mdebug.abi32  0x00000000        0x0 build/pic32mz_da_sk_intddr_meb2/production/_ext/1907747181/libaria_widget_circle_skin_classic.o
 .mdebug.abi32  0x00000000        0x0 build/pic32mz_da_sk_intddr_meb2/production/_ext/1907747181/libaria_widget_drawsurface.o
 .mdebug.abi32  0x00000000        0x0 build/pic32mz_da_sk_intddr_meb2/production/_ext/1907747181/libaria_widget_drawsurface_skin_classic.o
 .mdebug.abi32  0x00000000        0x0 build/pic32mz_da_sk_intddr_meb2/production/_ext/1907747181/libaria_widget_gradient.o
 .mdebug.abi32  0x00000000        0x0 build/pic32mz_da_sk_intddr_meb2/production/_ext/1907747181/libaria_widget_gradient_skin_classic.o
 .mdebug.abi32  0x00000000        0x0 build/pic32mz_da_sk_intddr_meb2/production/_ext/1907747181/libaria_widget_groupbox.o
 .mdebug.abi32  0x00000000        0x0 build/pic32mz_da_sk_intddr_meb2/production/_ext/1907747181/libaria_widget_groupbox_skin_classic.o
 .mdebug.abi32  0x00000000        0x0 build/pic32mz_da_sk_intddr_meb2/production/_ext/1907747181/libaria_widget_image.o
 .mdebug.abi32  0x00000000        0x0 build/pic32mz_da_sk_intddr_meb2/production/_ext/1907747181/libaria_widget_image_skin_classic.o
 .mdebug.abi32  0x00000000        0x0 build/pic32mz_da_sk_intddr_meb2/production/_ext/1907747181/libaria_widget_imagesequence.o
 .mdebug.abi32  0x00000000        0x0 build/pic32mz_da_sk_intddr_meb2/production/_ext/1907747181/libaria_widget_imagesequence_skin_classic.o
 .mdebug.abi32  0x00000000        0x0 build/pic32mz_da_sk_intddr_meb2/production/_ext/1907747181/libaria_widget_keypad.o
 .mdebug.abi32  0x00000000        0x0 build/pic32mz_da_sk_intddr_meb2/production/_ext/1907747181/libaria_widget_keypad_skin_classic.o
 .mdebug.abi32  0x00000000        0x0 build/pic32mz_da_sk_intddr_meb2/production/_ext/1907747181/libaria_widget_label.o
 .mdebug.abi32  0x00000000        0x0 build/pic32mz_da_sk_intddr_meb2/production/_ext/1907747181/libaria_widget_label_skin_classic.o
 .mdebug.abi32  0x00000000        0x0 build/pic32mz_da_sk_intddr_meb2/production/_ext/1907747181/libaria_widget_line.o
 .mdebug.abi32  0x00000000        0x0 build/pic32mz_da_sk_intddr_meb2/production/_ext/1907747181/libaria_widget_line_skin_classic.o
 .mdebug.abi32  0x00000000        0x0 build/pic32mz_da_sk_intddr_meb2/production/_ext/1907747181/libaria_widget_list.o
 .mdebug.abi32  0x00000000        0x0 build/pic32mz_da_sk_intddr_meb2/production/_ext/1907747181/libaria_widget_list_skin_classic.o
 .mdebug.abi32  0x00000000        0x0 build/pic32mz_da_sk_intddr_meb2/production/_ext/1907747181/libaria_widget_listwheel.o
 .mdebug.abi32  0x00000000        0x0 build/pic32mz_da_sk_intddr_meb2/production/_ext/1907747181/libaria_widget_listwheel_skin_classic.o
 .mdebug.abi32  0x00000000        0x0 build/pic32mz_da_sk_intddr_meb2/production/_ext/1907747181/libaria_widget_progressbar.o
 .mdebug.abi32  0x00000000        0x0 build/pic32mz_da_sk_intddr_meb2/production/_ext/1907747181/libaria_widget_progressbar_skin_classic.o
 .mdebug.abi32  0x00000000        0x0 build/pic32mz_da_sk_intddr_meb2/production/_ext/1907747181/libaria_widget_radiobutton.o
 .mdebug.abi32  0x00000000        0x0 build/pic32mz_da_sk_intddr_meb2/production/_ext/1907747181/libaria_widget_radiobutton_skin_classic.o
 .mdebug.abi32  0x00000000        0x0 build/pic32mz_da_sk_intddr_meb2/production/_ext/1907747181/libaria_radiobutton_group.o
 .mdebug.abi32  0x00000000        0x0 build/pic32mz_da_sk_intddr_meb2/production/_ext/1907747181/libaria_widget_rectangle.o
 .mdebug.abi32  0x00000000        0x0 build/pic32mz_da_sk_intddr_meb2/production/_ext/1907747181/libaria_widget_rectangle_skin_classic.o
 .mdebug.abi32  0x00000000        0x0 build/pic32mz_da_sk_intddr_meb2/production/_ext/1907747181/libaria_widget_scrollbar.o
 .mdebug.abi32  0x00000000        0x0 build/pic32mz_da_sk_intddr_meb2/production/_ext/1907747181/libaria_widget_scrollbar_skin_classic.o
 .mdebug.abi32  0x00000000        0x0 build/pic32mz_da_sk_intddr_meb2/production/_ext/1907747181/libaria_widget_slider.o
 .mdebug.abi32  0x00000000        0x0 build/pic32mz_da_sk_intddr_meb2/production/_ext/1907747181/libaria_widget_slider_skin_classic.o
 .mdebug.abi32  0x00000000        0x0 build/pic32mz_da_sk_intddr_meb2/production/_ext/1907747181/libaria_widget_textfield.o
 .mdebug.abi32  0x00000000        0x0 build/pic32mz_da_sk_intddr_meb2/production/_ext/1907747181/libaria_widget_textfield_skin_classic.o
 .mdebug.abi32  0x00000000        0x0 build/pic32mz_da_sk_intddr_meb2/production/_ext/1907747181/libaria_widget_touchtest.o
 .mdebug.abi32  0x00000000        0x0 build/pic32mz_da_sk_intddr_meb2/production/_ext/1907747181/libaria_widget_touchtest_skin_classic.o
 .mdebug.abi32  0x00000000        0x0 build/pic32mz_da_sk_intddr_meb2/production/_ext/1907747181/libaria_widget_window.o
 .mdebug.abi32  0x00000000        0x0 build/pic32mz_da_sk_intddr_meb2/production/_ext/1907747181/libaria_widget_window_skin_classic.o
 .mdebug.abi32  0x00000000        0x0 build/pic32mz_da_sk_intddr_meb2/production/_ext/1907747181/libaria_array.o
 .mdebug.abi32  0x00000000        0x0 build/pic32mz_da_sk_intddr_meb2/production/_ext/1907747181/libaria_rectarray.o
 .mdebug.abi32  0x00000000        0x0 build/pic32mz_da_sk_intddr_meb2/production/_ext/1907747181/libaria_widget_skin_classic_common.o
 .mdebug.abi32  0x00000000        0x0 build/pic32mz_da_sk_intddr_meb2/production/_ext/1907747181/libaria_widget_arc.o
 .mdebug.abi32  0x00000000        0x0 build/pic32mz_da_sk_intddr_meb2/production/_ext/1907747181/libaria_widget_arc_skin_classic.o
 .mdebug.abi32  0x00000000        0x0 build/pic32mz_da_sk_intddr_meb2/production/_ext/1907747181/libaria_widget_circular_gauge.o
 .mdebug.abi32  0x00000000        0x0 build/pic32mz_da_sk_intddr_meb2/production/_ext/1907747181/libaria_widget_circular_gauge_skin_classic.o
 .mdebug.abi32  0x00000000        0x0 build/pic32mz_da_sk_intddr_meb2/production/_ext/1907747181/libaria_widget_circular_slider.o
 .mdebug.abi32  0x00000000        0x0 build/pic32mz_da_sk_intddr_meb2/production/_ext/1907747181/libaria_widget_circular_slider_skin_classic.o
 .mdebug.abi32  0x00000000        0x0 build/pic32mz_da_sk_intddr_meb2/production/_ext/1907747181/libaria_widget_pie_chart.o
 .mdebug.abi32  0x00000000        0x0 build/pic32mz_da_sk_intddr_meb2/production/_ext/1907747181/libaria_widget_pie_chart_skin_classic.o
 .mdebug.abi32  0x00000000        0x0 build/pic32mz_da_sk_intddr_meb2/production/_ext/1907747181/libaria_widget_bar_graph.o
 .mdebug.abi32  0x00000000        0x0 build/pic32mz_da_sk_intddr_meb2/production/_ext/1907747181/libaria_widget_bar_graph_skin_classic.o
 .mdebug.abi32  0x00000000        0x0 build/pic32mz_da_sk_intddr_meb2/production/_ext/1907747181/libaria_widget_line_graph.o
 .mdebug.abi32  0x00000000        0x0 build/pic32mz_da_sk_intddr_meb2/production/_ext/1907747181/libaria_widget_line_graph_skin_classic.o
 .mdebug.abi32  0x00000000        0x0 build/pic32mz_da_sk_intddr_meb2/production/_ext/1907747181/libaria_widget_imageplus.o
 .mdebug.abi32  0x00000000        0x0 build/pic32mz_da_sk_intddr_meb2/production/_ext/1907747181/libaria_widget_imageplus_skin_classic.o
 .mdebug.abi32  0x00000000        0x0 build/pic32mz_da_sk_intddr_meb2/production/_ext/1907747181/libaria_widget_radial_menu.o
 .mdebug.abi32  0x00000000        0x0 build/pic32mz_da_sk_intddr_meb2/production/_ext/1907747181/libaria_widget_radial_menu_skin_classic.o
 .mdebug.abi32  0x00000000        0x0 build/pic32mz_da_sk_intddr_meb2/production/_ext/1597685232/gfxu_image.o
 .mdebug.abi32  0x00000000        0x0 build/pic32mz_da_sk_intddr_meb2/production/_ext/1597685232/gfxu_image_png_external.o
 .mdebug.abi32  0x00000000        0x0 build/pic32mz_da_sk_intddr_meb2/production/_ext/1597685232/gfxu_image_png_internal.o
 .mdebug.abi32  0x00000000        0x0 build/pic32mz_da_sk_intddr_meb2/production/_ext/1597685232/gfxu_image_jpg_internal.o
 .mdebug.abi32  0x00000000        0x0 build/pic32mz_da_sk_intddr_meb2/production/_ext/1597685232/gfxu_image_raw_external.o
 .mdebug.abi32  0x00000000        0x0 build/pic32mz_da_sk_intddr_meb2/production/_ext/1597685232/gfxu_image_raw_internal.o
 .mdebug.abi32  0x00000000        0x0 build/pic32mz_da_sk_intddr_meb2/production/_ext/1597685232/gfxu_image_rle_external.o
 .mdebug.abi32  0x00000000        0x0 build/pic32mz_da_sk_intddr_meb2/production/_ext/1597685232/gfxu_image_rle_internal.o
 .mdebug.abi32  0x00000000        0x0 build/pic32mz_da_sk_intddr_meb2/production/_ext/1597685232/gfxu_image_utils.o
 .mdebug.abi32  0x00000000        0x0 build/pic32mz_da_sk_intddr_meb2/production/_ext/1597685232/gfxu_palette.o
 .mdebug.abi32  0x00000000        0x0 build/pic32mz_da_sk_intddr_meb2/production/_ext/1597685232/gfxu_string.o
 .mdebug.abi32  0x00000000        0x0 build/pic32mz_da_sk_intddr_meb2/production/_ext/1597685232/gfxu_string_external.o
 .mdebug.abi32  0x00000000        0x0 build/pic32mz_da_sk_intddr_meb2/production/_ext/1597685232/gfxu_string_internal.o
 .mdebug.abi32  0x00000000        0x0 build/pic32mz_da_sk_intddr_meb2/production/_ext/1597685232/gfxu_string_query.o
 .mdebug.abi32  0x00000000        0x0 build/pic32mz_da_sk_intddr_meb2/production/_ext/1597685232/gfxu_string_utils.o
 .mdebug.abi32  0x00000000        0x0 build/pic32mz_da_sk_intddr_meb2/production/_ext/1597685232/gfxu_image_jpg_common.o
 .mdebug.abi32  0x00000000        0x0 build/pic32mz_da_sk_intddr_meb2/production/_ext/1597685232/gfxu_image_jpg_external.o
 .mdebug.abi32  0x00000000        0x0 build/pic32mz_da_sk_intddr_meb2/production/_ext/1597685232/gfxu_stringbuffer_external.o
 .mdebug.abi32  0x00000000        0x0 build/pic32mz_da_sk_intddr_meb2/production/_ext/2137108136/sys_debug.o
 .mdebug.abi32  0x00000000        0x0 build/pic32mz_da_sk_intddr_meb2/production/_ext/252650337/sys_input.o
 .mdebug.abi32  0x00000000        0x0 build/pic32mz_da_sk_intddr_meb2/production/_ext/252650337/sys_input_listener.o
 .mdebug.abi32  0x00000000        0x0 build/pic32mz_da_sk_intddr_meb2/production/_ext/1042686532/sys_int_pic32.o
 .mdebug.abi32  0x00000000        0x0 build/pic32mz_da_sk_intddr_meb2/production/_ext/426253641/jidctint.o
 .mdebug.abi32  0x00000000        0x0 build/pic32mz_da_sk_intddr_meb2/production/_ext/493934858/lodepng.o
 .mdebug.abi32  0x00000000        0x0 build/pic32mz_da_sk_intddr_meb2/production/_ext/418582516/drv_usart_mapping.o
 .mdebug.abi32  0x00000000        0x0 build/pic32mz_da_sk_intddr_meb2/production/_ext/418582516/drv_usart_static.o
 .mdebug.abi32  0x00000000        0x0 build/pic32mz_da_sk_intddr_meb2/production/_ext/418582516/drv_usart_static_byte_model.o
 .mdebug.abi32  0x00000000        0x0 build/pic32mz_da_sk_intddr_meb2/production/_ext/1094895838/drv_gfx_glcd_static.o
 .mdebug.abi32  0x00000000        0x0 build/pic32mz_da_sk_intddr_meb2/production/_ext/590040425/libaria_harmony.o
 .mdebug.abi32  0x00000000        0x0 build/pic32mz_da_sk_intddr_meb2/production/_ext/590040425/libaria_init.o
 .mdebug.abi32  0x00000000        0x0 build/pic32mz_da_sk_intddr_meb2/production/_ext/590040425/libaria_events.o
 .mdebug.abi32  0x00000000        0x0 build/pic32mz_da_sk_intddr_meb2/production/_ext/590040425/libaria_macros.o
 .mdebug.abi32  0x00000000        0x0 build/pic32mz_da_sk_intddr_meb2/production/_ext/1719547748/gfx_display_def.o
 .mdebug.abi32  0x00000000        0x0 build/pic32mz_da_sk_intddr_meb2/production/_ext/1719547748/gfx_driver_def.o
 .mdebug.abi32  0x00000000        0x0 build/pic32mz_da_sk_intddr_meb2/production/_ext/1719547748/gfx_processor_def.o
 .mdebug.abi32  0x00000000        0x0 build/pic32mz_da_sk_intddr_meb2/production/_ext/370156264/sys_clk_pic32mz.o
 .mdebug.abi32  0x00000000        0x0 build/pic32mz_da_sk_intddr_meb2/production/_ext/1796496159/sys_devcon.o
 .mdebug.abi32  0x00000000        0x0 build/pic32mz_da_sk_intddr_meb2/production/_ext/1796496159/sys_devcon_pic32mz.o
 .mdebug.abi32  0x00000000        0x0 build/pic32mz_da_sk_intddr_meb2/production/_ext/730466360/sys_ports_static.o
 .mdebug.abi32  0x00000000        0x0 build/pic32mz_da_sk_intddr_meb2/production/_ext/639474099/sys_console_static.o
 .mdebug.abi32  0x00000000        0x0 build/pic32mz_da_sk_intddr_meb2/production/_ext/327666056/sys_memory_ddr_static.o
 .mdebug.abi32  0x00000000        0x0 build/pic32mz_da_sk_intddr_meb2/production/_ext/85614229/sys_memory_static.o
 .mdebug.abi32  0x00000000        0x0 build/pic32mz_da_sk_intddr_meb2/production/_ext/1547055377/bsp.o
 .mdebug.abi32  0x00000000        0x0 build/pic32mz_da_sk_intddr_meb2/production/_ext/1653314881/system_init.o
 .mdebug.abi32  0x00000000        0x0 build/pic32mz_da_sk_intddr_meb2/production/_ext/1653314881/system_interrupt.o
 .mdebug.abi32  0x00000000        0x0 build/pic32mz_da_sk_intddr_meb2/production/_ext/1653314881/general_exception_handler.o
 .mdebug.abi32  0x00000000        0x0 build/pic32mz_da_sk_intddr_meb2/production/_ext/1653314881/fassert.o
 .mdebug.abi32  0x00000000        0x0 build/pic32mz_da_sk_intddr_meb2/production/_ext/1653314881/system_tasks.o
 .mdebug.abi32  0x00000000        0x0 build/pic32mz_da_sk_intddr_meb2/production/_ext/1021385576/gfx_assets.o
 .mdebug.abi32  0x00000000        0x0 f:/software_installations/mplab_xc32/bin/bin/../../lib/gcc/pic32mx/4.8.3\libgcc.a(floatunsisf.o)
 .mdebug.abi32  0x00000000        0x0 f:/software_installations/mplab_xc32/bin/bin/../../lib/gcc/pic32mx/4.8.3/../../../../pic32mx/lib\libpic32.a(default-bootstrap-exception-handler.o)
 .mdebug.abi32  0x00000000        0x0 f:/software_installations/mplab_xc32/bin/bin/../../lib/gcc/pic32mx/4.8.3/../../../../pic32mx/lib\libpic32.a(default-on-reset.o)
 .mdebug.abi32  0x00000000        0x0 f:/software_installations/mplab_xc32/bin/bin/../../lib/gcc/pic32mx/4.8.3/../../../../pic32mx/lib\libpic32.a(default-on-bootstrap.o)
 .mdebug.abi32  0x00000000        0x0 f:/software_installations/mplab_xc32/bin/bin/../../lib/gcc/pic32mx/4.8.3/../../../../pic32mx/lib\libpic32.a(defaultinterrupt.o)
 .mdebug.abi32  0x00000000        0x0 f:/software_installations/mplab_xc32/bin/bin/../../lib/gcc/pic32mx/4.8.3/../../../../pic32mx/lib\libpic32.a(default-cache-err-exception-handler.o)
 .mdebug.abi32  0x00000000        0x0 f:/software_installations/mplab_xc32/bin/bin/../../lib/gcc/pic32mx/4.8.3/../../../../pic32mx/lib\libpic32.a(default-simple-tlb-refill-exception-handler.o)
 .mdebug.abi32  0x00000000        0x0 f:/software_installations/mplab_xc32/bin/bin/../../lib/gcc/pic32mx/4.8.3/../../../../pic32mx/lib\liblega-c.a(malloc.o)
 .mdebug.abi32  0x00000000        0x0 f:/software_installations/mplab_xc32/bin/bin/../../lib/gcc/pic32mx/4.8.3/../../../../pic32mx/lib\liblega-c.a(malloc_realloc.o)
 .mdebug.abi32  0x00000000        0x0 f:/software_installations/mplab_xc32/bin/bin/../../lib/gcc/pic32mx/4.8.3/../../../../pic32mx/lib\liblega-c.a(malloc_calloc.o)
 .mdebug.abi32  0x00000000        0x0 f:/software_installations/mplab_xc32/bin/bin/../../lib/gcc/pic32mx/4.8.3/../../../../pic32mx/lib\liblega-c.a(errno.o)
 .mdebug.abi32  0x00000000        0x0 f:/software_installations/mplab_xc32/bin/bin/../../lib/gcc/pic32mx/4.8.3/../../../../pic32mx/lib\liblega-c.a(sprintf_cdnopuxX.eo)
 .mdebug.abi32  0x00000000        0x0 f:/software_installations/mplab_xc32/bin/bin/../../lib/gcc/pic32mx/4.8.3/../../../../pic32mx/lib\liblega-c.a(vsnprintf.o)
 .mdebug.abi32  0x00000000        0x0 f:/software_installations/mplab_xc32/bin/bin/../../lib/gcc/pic32mx/4.8.3/../../../../pic32mx/lib\liblega-c.a(memmove.o)
 .mdebug.abi32  0x00000000        0x0 f:/software_installations/mplab_xc32/bin/bin/../../lib/gcc/pic32mx/4.8.3/../../../../pic32mx/lib\liblega-c.a(_doprnt_cdnopuxX.eo)
 .mdebug.abi32  0x00000000        0x0 f:/software_installations/mplab_xc32/bin/bin/../../lib/gcc/pic32mx/4.8.3/../../../../pic32mx/lib\liblega-c.a(_doprnt.o)
 .mdebug.abi32  0x00000000        0x0 f:/software_installations/mplab_xc32/bin/bin/../../lib/gcc/pic32mx/4.8.3/../../../../pic32mx/lib\liblega-c.a(_iobdata.o)
 .mdebug.abi32  0x00000000        0x0 f:/software_installations/mplab_xc32/bin/bin/../../lib/gcc/pic32mx/4.8.3/../../../../pic32mx/lib\liblega-c.a(_iobfuncs.o)
 .mdebug.abi32  0x00000000        0x0 f:/software_installations/mplab_xc32/bin/bin/../../lib/gcc/pic32mx/4.8.3/../../../../pic32mx/lib\liblega-c.a(_iobstring.o)
 .mdebug.abi32  0x00000000        0x0 f:/software_installations/mplab_xc32/bin/bin/../../lib/gcc/pic32mx/4.8.3/../../../../pic32mx/lib\liblega-c.a(fputc.o)
 .mdebug.abi32  0x00000000        0x0 f:/software_installations/mplab_xc32/bin/bin/../../lib/gcc/pic32mx/4.8.3\libgcc.a(_udivdi3.o)
 .mdebug.abi32  0x00000000        0x0 f:/software_installations/mplab_xc32/bin/bin/../../lib/gcc/pic32mx/4.8.3\libgcc.a(_umoddi3.o)
 .mdebug.abi32  0x00000000        0x0 f:/software_installations/mplab_xc32/bin/bin/../../lib/gcc/pic32mx/4.8.3/../../../../pic32mx/lib\libpic32.a(sbrk.o)
 .mdebug.abi32  0x00000000        0x0 f:/software_installations/mplab_xc32/bin/bin/../../lib/gcc/pic32mx/4.8.3/../../../../pic32mx/lib\libpic32.a(_mon_getc.o)
 .mdebug.abi32  0x00000000        0x0 f:/software_installations/mplab_xc32/bin/bin/../../lib/gcc/pic32mx/4.8.3/../../../../pic32mx/lib\libpic32.a(_mon_write.o)
 .mdebug.abi32  0x00000000        0x0 f:/software_installations/mplab_xc32/bin/bin/../../lib/gcc/pic32mx/4.8.3/../../../../pic32mx/lib\libpic32.a(xc32_uart.o)
 .mdebug.abi32  0x00000000        0x0 f:/software_installations/mplab_xc32/bin/bin/../../lib/gcc/pic32mx/4.8.3/../../../../pic32mx/lib\libpic32.a(_mon_putc.o)

.mdebug.abiN32
 *(.mdebug.abiN32)

.mdebug.abi64
 *(.mdebug.abi64)

.mdebug.abiO64
 *(.mdebug.abiO64)

.mdebug.eabi32
 *(.mdebug.eabi32)

.mdebug.eabi64
 *(.mdebug.eabi64)

.gcc_compiled_long32
 *(.gcc_compiled_long32)

.gcc_compiled_long64
 *(.gcc_compiled_long64)

.stab
 *(.stab)

.stabstr
 *(.stabstr)

.stab.excl
 *(.stab.excl)

.stab.exclstr
 *(.stab.exclstr)

.stab.index
 *(.stab.index)

.stab.indexstr
 *(.stab.indexstr)

.comment        0x00000000      0x3b3
 *(.comment)
 .comment       0x00000000       0x3c build/pic32mz_da_sk_intddr_meb2/production/_ext/1360937237/app.o
                                 0x3d (size before relaxing)
 .comment       0x00000000       0x3d build/pic32mz_da_sk_intddr_meb2/production/_ext/1360937237/main.o
 .comment       0x00000000       0x3d build/pic32mz_da_sk_intddr_meb2/production/_ext/475095144/drv_i2c_bb_a.o
 .comment       0x00000000       0x3d build/pic32mz_da_sk_intddr_meb2/production/_ext/475095144/drv_i2c_bb.o
 .comment       0x00000000       0x3d build/pic32mz_da_sk_intddr_meb2/production/_ext/1177928576/drv_mxt336t.o
 .comment       0x00000000       0x3d build/pic32mz_da_sk_intddr_meb2/production/_ext/1847583374/gfx.o
 .comment       0x00000000       0x3d build/pic32mz_da_sk_intddr_meb2/production/_ext/1847583374/gfx_color.o
 .comment       0x00000000       0x3d build/pic32mz_da_sk_intddr_meb2/production/_ext/1847583374/gfx_context.o
 .comment       0x00000000       0x3d build/pic32mz_da_sk_intddr_meb2/production/_ext/1847583374/gfx_default_impl.o
 .comment       0x00000000       0x3d build/pic32mz_da_sk_intddr_meb2/production/_ext/1847583374/gfx_display.o
 .comment       0x00000000       0x3d build/pic32mz_da_sk_intddr_meb2/production/_ext/1847583374/gfx_driver_interface.o
 .comment       0x00000000       0x3d build/pic32mz_da_sk_intddr_meb2/production/_ext/1847583374/gfx_get.o
 .comment       0x00000000       0x3d build/pic32mz_da_sk_intddr_meb2/production/_ext/1847583374/gfx_interface.o
 .comment       0x00000000       0x3d build/pic32mz_da_sk_intddr_meb2/production/_ext/1847583374/gfx_layer.o
 .comment       0x00000000       0x3d build/pic32mz_da_sk_intddr_meb2/production/_ext/1847583374/gfx_pixel_buffer.o
 .comment       0x00000000       0x3d build/pic32mz_da_sk_intddr_meb2/production/_ext/1847583374/gfx_rect.o
 .comment       0x00000000       0x3d build/pic32mz_da_sk_intddr_meb2/production/_ext/1847583374/gfx_util.o
 .comment       0x00000000       0x3d build/pic32mz_da_sk_intddr_meb2/production/_ext/1847583374/gfx_set.o
 .comment       0x00000000       0x3d build/pic32mz_da_sk_intddr_meb2/production/_ext/1847583374/gfx_color_blend.o
 .comment       0x00000000       0x3d build/pic32mz_da_sk_intddr_meb2/production/_ext/1847583374/gfx_color_convert.o
 .comment       0x00000000       0x3d build/pic32mz_da_sk_intddr_meb2/production/_ext/1847583374/gfx_color_lerp.o
 .comment       0x00000000       0x3d build/pic32mz_da_sk_intddr_meb2/production/_ext/1847583374/gfx_color_value.o
 .comment       0x00000000       0x3d build/pic32mz_da_sk_intddr_meb2/production/_ext/1847583374/gfx_draw_blit.o
 .comment       0x00000000       0x3d build/pic32mz_da_sk_intddr_meb2/production/_ext/1847583374/gfx_draw_circle.o
 .comment       0x00000000       0x3d build/pic32mz_da_sk_intddr_meb2/production/_ext/1847583374/gfx_draw_line.o
 .comment       0x00000000       0x3d build/pic32mz_da_sk_intddr_meb2/production/_ext/1847583374/gfx_draw_pixel.o
 .comment       0x00000000       0x3d build/pic32mz_da_sk_intddr_meb2/production/_ext/1847583374/gfx_draw_rect.o
 .comment       0x00000000       0x3d build/pic32mz_da_sk_intddr_meb2/production/_ext/1847583374/gfx_math.o
 .comment       0x00000000       0x3d build/pic32mz_da_sk_intddr_meb2/production/_ext/1847583374/gfx_draw_stretchblit.o
 .comment       0x00000000       0x3d build/pic32mz_da_sk_intddr_meb2/production/_ext/1847583374/gfx_processor_interface.o
 .comment       0x00000000       0x3d build/pic32mz_da_sk_intddr_meb2/production/_ext/1847583374/gfx_draw_arc.o
 .comment       0x00000000       0x3d build/pic32mz_da_sk_intddr_meb2/production/_ext/1847583374/gfx_draw_ellipse.o
 .comment       0x00000000       0x3d build/pic32mz_da_sk_intddr_meb2/production/_ext/1907747181/libaria.o
 .comment       0x00000000       0x3d build/pic32mz_da_sk_intddr_meb2/production/_ext/1907747181/libaria_context.o
 .comment       0x00000000       0x3d build/pic32mz_da_sk_intddr_meb2/production/_ext/1907747181/libaria_context_paint.o
 .comment       0x00000000       0x3d build/pic32mz_da_sk_intddr_meb2/production/_ext/1907747181/libaria_draw.o
 .comment       0x00000000       0x3d build/pic32mz_da_sk_intddr_meb2/production/_ext/1907747181/libaria_editwidget.o
 .comment       0x00000000       0x3d build/pic32mz_da_sk_intddr_meb2/production/_ext/1907747181/libaria_event.o
 .comment       0x00000000       0x3d build/pic32mz_da_sk_intddr_meb2/production/_ext/1907747181/libaria_input.o
 .comment       0x00000000       0x3d build/pic32mz_da_sk_intddr_meb2/production/_ext/1907747181/libaria_layer.o
 .comment       0x00000000       0x3d build/pic32mz_da_sk_intddr_meb2/production/_ext/1907747181/libaria_list.o
 .comment       0x00000000       0x3d build/pic32mz_da_sk_intddr_meb2/production/_ext/1907747181/libaria_scheme.o
 .comment       0x00000000       0x3d build/pic32mz_da_sk_intddr_meb2/production/_ext/1907747181/libaria_screen.o
 .comment       0x00000000       0x3d build/pic32mz_da_sk_intddr_meb2/production/_ext/1907747181/libaria_string.o
 .comment       0x00000000       0x3d build/pic32mz_da_sk_intddr_meb2/production/_ext/1907747181/libaria_utils.o
 .comment       0x00000000       0x3d build/pic32mz_da_sk_intddr_meb2/production/_ext/1907747181/libaria_widget.o
 .comment       0x00000000       0x3d build/pic32mz_da_sk_intddr_meb2/production/_ext/1907747181/libaria_widget_skin_classic.o
 .comment       0x00000000       0x3d build/pic32mz_da_sk_intddr_meb2/production/_ext/1907747181/libaria_widget_button.o
 .comment       0x00000000       0x3d build/pic32mz_da_sk_intddr_meb2/production/_ext/1907747181/libaria_widget_button_skin_classic.o
 .comment       0x00000000       0x3d build/pic32mz_da_sk_intddr_meb2/production/_ext/1907747181/libaria_widget_checkbox.o
 .comment       0x00000000       0x3d build/pic32mz_da_sk_intddr_meb2/production/_ext/1907747181/libaria_widget_checkbox_skin_classic.o
 .comment       0x00000000       0x3d build/pic32mz_da_sk_intddr_meb2/production/_ext/1907747181/libaria_widget_circle.o
 .comment       0x00000000       0x3d build/pic32mz_da_sk_intddr_meb2/production/_ext/1907747181/libaria_widget_circle_skin_classic.o
 .comment       0x00000000       0x3d build/pic32mz_da_sk_intddr_meb2/production/_ext/1907747181/libaria_widget_drawsurface.o
 .comment       0x00000000       0x3d build/pic32mz_da_sk_intddr_meb2/production/_ext/1907747181/libaria_widget_drawsurface_skin_classic.o
 .comment       0x00000000       0x3d build/pic32mz_da_sk_intddr_meb2/production/_ext/1907747181/libaria_widget_gradient.o
 .comment       0x00000000       0x3d build/pic32mz_da_sk_intddr_meb2/production/_ext/1907747181/libaria_widget_gradient_skin_classic.o
 .comment       0x00000000       0x3d build/pic32mz_da_sk_intddr_meb2/production/_ext/1907747181/libaria_widget_groupbox.o
 .comment       0x00000000       0x3d build/pic32mz_da_sk_intddr_meb2/production/_ext/1907747181/libaria_widget_groupbox_skin_classic.o
 .comment       0x00000000       0x3d build/pic32mz_da_sk_intddr_meb2/production/_ext/1907747181/libaria_widget_image.o
 .comment       0x00000000       0x3d build/pic32mz_da_sk_intddr_meb2/production/_ext/1907747181/libaria_widget_image_skin_classic.o
 .comment       0x00000000       0x3d build/pic32mz_da_sk_intddr_meb2/production/_ext/1907747181/libaria_widget_imagesequence.o
 .comment       0x00000000       0x3d build/pic32mz_da_sk_intddr_meb2/production/_ext/1907747181/libaria_widget_imagesequence_skin_classic.o
 .comment       0x00000000       0x3d build/pic32mz_da_sk_intddr_meb2/production/_ext/1907747181/libaria_widget_keypad.o
 .comment       0x00000000       0x3d build/pic32mz_da_sk_intddr_meb2/production/_ext/1907747181/libaria_widget_keypad_skin_classic.o
 .comment       0x00000000       0x3d build/pic32mz_da_sk_intddr_meb2/production/_ext/1907747181/libaria_widget_label.o
 .comment       0x00000000       0x3d build/pic32mz_da_sk_intddr_meb2/production/_ext/1907747181/libaria_widget_label_skin_classic.o
 .comment       0x00000000       0x3d build/pic32mz_da_sk_intddr_meb2/production/_ext/1907747181/libaria_widget_line.o
 .comment       0x00000000       0x3d build/pic32mz_da_sk_intddr_meb2/production/_ext/1907747181/libaria_widget_line_skin_classic.o
 .comment       0x00000000       0x3d build/pic32mz_da_sk_intddr_meb2/production/_ext/1907747181/libaria_widget_list.o
 .comment       0x00000000       0x3d build/pic32mz_da_sk_intddr_meb2/production/_ext/1907747181/libaria_widget_list_skin_classic.o
 .comment       0x00000000       0x3d build/pic32mz_da_sk_intddr_meb2/production/_ext/1907747181/libaria_widget_listwheel.o
 .comment       0x00000000       0x3d build/pic32mz_da_sk_intddr_meb2/production/_ext/1907747181/libaria_widget_listwheel_skin_classic.o
 .comment       0x00000000       0x3d build/pic32mz_da_sk_intddr_meb2/production/_ext/1907747181/libaria_widget_progressbar.o
 .comment       0x00000000       0x3d build/pic32mz_da_sk_intddr_meb2/production/_ext/1907747181/libaria_widget_progressbar_skin_classic.o
 .comment       0x00000000       0x3d build/pic32mz_da_sk_intddr_meb2/production/_ext/1907747181/libaria_widget_radiobutton.o
 .comment       0x00000000       0x3d build/pic32mz_da_sk_intddr_meb2/production/_ext/1907747181/libaria_widget_radiobutton_skin_classic.o
 .comment       0x00000000       0x3d build/pic32mz_da_sk_intddr_meb2/production/_ext/1907747181/libaria_radiobutton_group.o
 .comment       0x00000000       0x3d build/pic32mz_da_sk_intddr_meb2/production/_ext/1907747181/libaria_widget_rectangle.o
 .comment       0x00000000       0x3d build/pic32mz_da_sk_intddr_meb2/production/_ext/1907747181/libaria_widget_rectangle_skin_classic.o
 .comment       0x00000000       0x3d build/pic32mz_da_sk_intddr_meb2/production/_ext/1907747181/libaria_widget_scrollbar.o
 .comment       0x00000000       0x3d build/pic32mz_da_sk_intddr_meb2/production/_ext/1907747181/libaria_widget_scrollbar_skin_classic.o
 .comment       0x00000000       0x3d build/pic32mz_da_sk_intddr_meb2/production/_ext/1907747181/libaria_widget_slider.o
 .comment       0x00000000       0x3d build/pic32mz_da_sk_intddr_meb2/production/_ext/1907747181/libaria_widget_slider_skin_classic.o
 .comment       0x00000000       0x3d build/pic32mz_da_sk_intddr_meb2/production/_ext/1907747181/libaria_widget_textfield.o
 .comment       0x00000000       0x3d build/pic32mz_da_sk_intddr_meb2/production/_ext/1907747181/libaria_widget_textfield_skin_classic.o
 .comment       0x00000000       0x3d build/pic32mz_da_sk_intddr_meb2/production/_ext/1907747181/libaria_widget_touchtest.o
 .comment       0x00000000       0x3d build/pic32mz_da_sk_intddr_meb2/production/_ext/1907747181/libaria_widget_touchtest_skin_classic.o
 .comment       0x00000000       0x3d build/pic32mz_da_sk_intddr_meb2/production/_ext/1907747181/libaria_widget_window.o
 .comment       0x00000000       0x3d build/pic32mz_da_sk_intddr_meb2/production/_ext/1907747181/libaria_widget_window_skin_classic.o
 .comment       0x00000000       0x3d build/pic32mz_da_sk_intddr_meb2/production/_ext/1907747181/libaria_array.o
 .comment       0x00000000       0x3d build/pic32mz_da_sk_intddr_meb2/production/_ext/1907747181/libaria_rectarray.o
 .comment       0x00000000       0x3d build/pic32mz_da_sk_intddr_meb2/production/_ext/1907747181/libaria_widget_skin_classic_common.o
 .comment       0x00000000       0x3d build/pic32mz_da_sk_intddr_meb2/production/_ext/1907747181/libaria_widget_arc.o
 .comment       0x00000000       0x3d build/pic32mz_da_sk_intddr_meb2/production/_ext/1907747181/libaria_widget_arc_skin_classic.o
 .comment       0x00000000       0x3d build/pic32mz_da_sk_intddr_meb2/production/_ext/1907747181/libaria_widget_circular_gauge.o
 .comment       0x00000000       0x3d build/pic32mz_da_sk_intddr_meb2/production/_ext/1907747181/libaria_widget_circular_gauge_skin_classic.o
 .comment       0x00000000       0x3d build/pic32mz_da_sk_intddr_meb2/production/_ext/1907747181/libaria_widget_circular_slider.o
 .comment       0x00000000       0x3d build/pic32mz_da_sk_intddr_meb2/production/_ext/1907747181/libaria_widget_circular_slider_skin_classic.o
 .comment       0x00000000       0x3d build/pic32mz_da_sk_intddr_meb2/production/_ext/1907747181/libaria_widget_pie_chart.o
 .comment       0x00000000       0x3d build/pic32mz_da_sk_intddr_meb2/production/_ext/1907747181/libaria_widget_pie_chart_skin_classic.o
 .comment       0x00000000       0x3d build/pic32mz_da_sk_intddr_meb2/production/_ext/1907747181/libaria_widget_bar_graph.o
 .comment       0x00000000       0x3d build/pic32mz_da_sk_intddr_meb2/production/_ext/1907747181/libaria_widget_bar_graph_skin_classic.o
 .comment       0x00000000       0x3d build/pic32mz_da_sk_intddr_meb2/production/_ext/1907747181/libaria_widget_line_graph.o
 .comment       0x00000000       0x3d build/pic32mz_da_sk_intddr_meb2/production/_ext/1907747181/libaria_widget_line_graph_skin_classic.o
 .comment       0x00000000       0x3d build/pic32mz_da_sk_intddr_meb2/production/_ext/1907747181/libaria_widget_imageplus.o
 .comment       0x00000000       0x3d build/pic32mz_da_sk_intddr_meb2/production/_ext/1907747181/libaria_widget_imageplus_skin_classic.o
 .comment       0x00000000       0x3d build/pic32mz_da_sk_intddr_meb2/production/_ext/1907747181/libaria_widget_radial_menu.o
 .comment       0x00000000       0x3d build/pic32mz_da_sk_intddr_meb2/production/_ext/1907747181/libaria_widget_radial_menu_skin_classic.o
 .comment       0x00000000       0x3d build/pic32mz_da_sk_intddr_meb2/production/_ext/1597685232/gfxu_image.o
 .comment       0x00000000       0x3d build/pic32mz_da_sk_intddr_meb2/production/_ext/1597685232/gfxu_image_png_external.o
 .comment       0x00000000       0x3d build/pic32mz_da_sk_intddr_meb2/production/_ext/1597685232/gfxu_image_png_internal.o
 .comment       0x00000000       0x3d build/pic32mz_da_sk_intddr_meb2/production/_ext/1597685232/gfxu_image_jpg_internal.o
 .comment       0x00000000       0x3d build/pic32mz_da_sk_intddr_meb2/production/_ext/1597685232/gfxu_image_raw_external.o
 .comment       0x00000000       0x3d build/pic32mz_da_sk_intddr_meb2/production/_ext/1597685232/gfxu_image_raw_internal.o
 .comment       0x00000000       0x3d build/pic32mz_da_sk_intddr_meb2/production/_ext/1597685232/gfxu_image_rle_external.o
 .comment       0x00000000       0x3d build/pic32mz_da_sk_intddr_meb2/production/_ext/1597685232/gfxu_image_rle_internal.o
 .comment       0x00000000       0x3d build/pic32mz_da_sk_intddr_meb2/production/_ext/1597685232/gfxu_image_utils.o
 .comment       0x00000000       0x3d build/pic32mz_da_sk_intddr_meb2/production/_ext/1597685232/gfxu_palette.o
 .comment       0x00000000       0x3d build/pic32mz_da_sk_intddr_meb2/production/_ext/1597685232/gfxu_string.o
 .comment       0x00000000       0x3d build/pic32mz_da_sk_intddr_meb2/production/_ext/1597685232/gfxu_string_external.o
 .comment       0x00000000       0x3d build/pic32mz_da_sk_intddr_meb2/production/_ext/1597685232/gfxu_string_internal.o
 .comment       0x00000000       0x3d build/pic32mz_da_sk_intddr_meb2/production/_ext/1597685232/gfxu_string_query.o
 .comment       0x00000000       0x3d build/pic32mz_da_sk_intddr_meb2/production/_ext/1597685232/gfxu_string_utils.o
 .comment       0x00000000       0x3d build/pic32mz_da_sk_intddr_meb2/production/_ext/1597685232/gfxu_image_jpg_common.o
 .comment       0x00000000       0x3d build/pic32mz_da_sk_intddr_meb2/production/_ext/1597685232/gfxu_image_jpg_external.o
 .comment       0x00000000       0x3d build/pic32mz_da_sk_intddr_meb2/production/_ext/1597685232/gfxu_stringbuffer_external.o
 .comment       0x00000000       0x3d build/pic32mz_da_sk_intddr_meb2/production/_ext/2137108136/sys_debug.o
 .comment       0x00000000       0x3d build/pic32mz_da_sk_intddr_meb2/production/_ext/252650337/sys_input.o
 .comment       0x00000000       0x3d build/pic32mz_da_sk_intddr_meb2/production/_ext/252650337/sys_input_listener.o
 .comment       0x00000000       0x3d build/pic32mz_da_sk_intddr_meb2/production/_ext/1042686532/sys_int_pic32.o
 .comment       0x00000000       0x3d build/pic32mz_da_sk_intddr_meb2/production/_ext/426253641/jidctint.o
 .comment       0x00000000       0x3d build/pic32mz_da_sk_intddr_meb2/production/_ext/493934858/lodepng.o
 .comment       0x00000000       0x3d build/pic32mz_da_sk_intddr_meb2/production/_ext/418582516/drv_usart_mapping.o
 .comment       0x00000000       0x3d build/pic32mz_da_sk_intddr_meb2/production/_ext/418582516/drv_usart_static.o
 .comment       0x00000000       0x3d build/pic32mz_da_sk_intddr_meb2/production/_ext/418582516/drv_usart_static_byte_model.o
 .comment       0x00000000       0x3d build/pic32mz_da_sk_intddr_meb2/production/_ext/1094895838/drv_gfx_glcd_static.o
 .comment       0x00000000       0x3d build/pic32mz_da_sk_intddr_meb2/production/_ext/590040425/libaria_harmony.o
 .comment       0x00000000       0x3d build/pic32mz_da_sk_intddr_meb2/production/_ext/590040425/libaria_init.o
 .comment       0x00000000       0x3d build/pic32mz_da_sk_intddr_meb2/production/_ext/590040425/libaria_events.o
 .comment       0x00000000       0x3d build/pic32mz_da_sk_intddr_meb2/production/_ext/590040425/libaria_macros.o
 .comment       0x00000000       0x3d build/pic32mz_da_sk_intddr_meb2/production/_ext/1719547748/gfx_display_def.o
 .comment       0x00000000       0x3d build/pic32mz_da_sk_intddr_meb2/production/_ext/1719547748/gfx_driver_def.o
 .comment       0x00000000       0x3d build/pic32mz_da_sk_intddr_meb2/production/_ext/1719547748/gfx_processor_def.o
 .comment       0x00000000       0x3d build/pic32mz_da_sk_intddr_meb2/production/_ext/370156264/sys_clk_pic32mz.o
 .comment       0x00000000       0x3d build/pic32mz_da_sk_intddr_meb2/production/_ext/1796496159/sys_devcon.o
 .comment       0x00000000       0x3d build/pic32mz_da_sk_intddr_meb2/production/_ext/1796496159/sys_devcon_pic32mz.o
 .comment       0x00000000       0x3d build/pic32mz_da_sk_intddr_meb2/production/_ext/730466360/sys_ports_static.o
 .comment       0x00000000       0x3d build/pic32mz_da_sk_intddr_meb2/production/_ext/639474099/sys_console_static.o
 .comment       0x00000000       0x3d build/pic32mz_da_sk_intddr_meb2/production/_ext/327666056/sys_memory_ddr_static.o
 .comment       0x00000000       0x3d build/pic32mz_da_sk_intddr_meb2/production/_ext/85614229/sys_memory_static.o
 .comment       0x00000000       0x3d build/pic32mz_da_sk_intddr_meb2/production/_ext/1547055377/bsp.o
 .comment       0x00000000       0x3d build/pic32mz_da_sk_intddr_meb2/production/_ext/1653314881/system_init.o
 .comment       0x00000000       0x3d build/pic32mz_da_sk_intddr_meb2/production/_ext/1653314881/system_interrupt.o
 .comment       0x00000000       0x3d build/pic32mz_da_sk_intddr_meb2/production/_ext/1653314881/general_exception_handler.o
 .comment       0x00000000       0x3d build/pic32mz_da_sk_intddr_meb2/production/_ext/1653314881/fassert.o
 .comment       0x00000000       0x3d build/pic32mz_da_sk_intddr_meb2/production/_ext/1653314881/system_tasks.o
 .comment       0x00000000       0x3d build/pic32mz_da_sk_intddr_meb2/production/_ext/1021385576/gfx_assets.o
 .comment       0x00000000       0x3d f:/software_installations/mplab_xc32/bin/bin/../../lib/gcc/pic32mx/4.8.3\libgcc.a(floatunsisf.o)
 .comment       0x0000003c       0x18 f:/software_installations/mplab_xc32/bin/bin/../../lib/gcc/pic32mx/4.8.3/../../../../pic32mx/lib\libpic32.a(memset.o)
                                 0x19 (size before relaxing)
 .comment       0x00000054       0x19 f:/software_installations/mplab_xc32/bin/bin/../../lib/gcc/pic32mx/4.8.3/../../../../pic32mx/lib\libpic32.a(strcpy.o)
                                 0x1a (size before relaxing)
 .comment       0x0000006d       0x19 f:/software_installations/mplab_xc32/bin/bin/../../lib/gcc/pic32mx/4.8.3/../../../../pic32mx/lib\libpic32.a(strlen.o)
                                 0x1a (size before relaxing)
 .comment       0x00000000       0x3d f:/software_installations/mplab_xc32/bin/bin/../../lib/gcc/pic32mx/4.8.3/../../../../pic32mx/lib\libpic32.a(default-bootstrap-exception-handler.o)
 .comment       0x00000000       0x3d f:/software_installations/mplab_xc32/bin/bin/../../lib/gcc/pic32mx/4.8.3/../../../../pic32mx/lib\libpic32.a(default-on-reset.o)
 .comment       0x00000000       0x3d f:/software_installations/mplab_xc32/bin/bin/../../lib/gcc/pic32mx/4.8.3/../../../../pic32mx/lib\libpic32.a(default-on-bootstrap.o)
 .comment       0x00000000       0x3d f:/software_installations/mplab_xc32/bin/bin/../../lib/gcc/pic32mx/4.8.3/../../../../pic32mx/lib\libpic32.a(defaultinterrupt.o)
 .comment       0x00000000       0x3d f:/software_installations/mplab_xc32/bin/bin/../../lib/gcc/pic32mx/4.8.3/../../../../pic32mx/lib\libpic32.a(default-cache-err-exception-handler.o)
 .comment       0x00000000       0x3d f:/software_installations/mplab_xc32/bin/bin/../../lib/gcc/pic32mx/4.8.3/../../../../pic32mx/lib\libpic32.a(default-simple-tlb-refill-exception-handler.o)
 .comment       0x00000000       0x3d f:/software_installations/mplab_xc32/bin/bin/../../lib/gcc/pic32mx/4.8.3/../../../../pic32mx/lib\liblega-c.a(malloc.o)
 .comment       0x00000000       0x3d f:/software_installations/mplab_xc32/bin/bin/../../lib/gcc/pic32mx/4.8.3/../../../../pic32mx/lib\liblega-c.a(malloc_realloc.o)
 .comment       0x00000000       0x3d f:/software_installations/mplab_xc32/bin/bin/../../lib/gcc/pic32mx/4.8.3/../../../../pic32mx/lib\liblega-c.a(malloc_calloc.o)
 .comment       0x00000086       0x4e f:/software_installations/mplab_xc32/bin/bin/../../lib/gcc/pic32mx/4.8.3/../../../../pic32mx/lib\liblega-c.a(errno.o)
                                 0x8b (size before relaxing)
 .comment       0x000000d4       0x52 f:/software_installations/mplab_xc32/bin/bin/../../lib/gcc/pic32mx/4.8.3/../../../../pic32mx/lib\liblega-c.a(sprintf_cdnopuxX.eo)
                                 0x8f (size before relaxing)
 .comment       0x00000126       0x54 f:/software_installations/mplab_xc32/bin/bin/../../lib/gcc/pic32mx/4.8.3/../../../../pic32mx/lib\liblega-c.a(vsnprintf.o)
                                 0x91 (size before relaxing)
 .comment       0x0000017a       0x50 f:/software_installations/mplab_xc32/bin/bin/../../lib/gcc/pic32mx/4.8.3/../../../../pic32mx/lib\liblega-c.a(memmove.o)
                                 0x8d (size before relaxing)
 .comment       0x000001ca       0x52 f:/software_installations/mplab_xc32/bin/bin/../../lib/gcc/pic32mx/4.8.3/../../../../pic32mx/lib\liblega-c.a(_doprnt_cdnopuxX.eo)
                                 0x8f (size before relaxing)
 .comment       0x00000000       0x8f f:/software_installations/mplab_xc32/bin/bin/../../lib/gcc/pic32mx/4.8.3/../../../../pic32mx/lib\liblega-c.a(_doprnt.o)
 .comment       0x0000021c       0x53 f:/software_installations/mplab_xc32/bin/bin/../../lib/gcc/pic32mx/4.8.3/../../../../pic32mx/lib\liblega-c.a(_iobdata.o)
                                 0x90 (size before relaxing)
 .comment       0x0000026f       0x54 f:/software_installations/mplab_xc32/bin/bin/../../lib/gcc/pic32mx/4.8.3/../../../../pic32mx/lib\liblega-c.a(_iobfuncs.o)
                                 0x91 (size before relaxing)
 .comment       0x000002c3       0x55 f:/software_installations/mplab_xc32/bin/bin/../../lib/gcc/pic32mx/4.8.3/../../../../pic32mx/lib\liblega-c.a(_iobstring.o)
                                 0x92 (size before relaxing)
 .comment       0x00000318       0x50 f:/software_installations/mplab_xc32/bin/bin/../../lib/gcc/pic32mx/4.8.3/../../../../pic32mx/lib\liblega-c.a(fputc.o)
                                 0x8d (size before relaxing)
 .comment       0x00000000       0x3d f:/software_installations/mplab_xc32/bin/bin/../../lib/gcc/pic32mx/4.8.3\libgcc.a(_udivdi3.o)
 .comment       0x00000000       0x3d f:/software_installations/mplab_xc32/bin/bin/../../lib/gcc/pic32mx/4.8.3\libgcc.a(_umoddi3.o)
 .comment       0x00000368       0x4b f:/software_installations/mplab_xc32/bin/bin/../../lib/gcc/pic32mx/4.8.3/../../../../pic32mx/lib\libpic32.a(sbrk.o)
                                 0x88 (size before relaxing)
 .comment       0x00000000       0x3d f:/software_installations/mplab_xc32/bin/bin/../../lib/gcc/pic32mx/4.8.3/../../../../pic32mx/lib\libpic32.a(_mon_getc.o)
 .comment       0x00000000       0x3d f:/software_installations/mplab_xc32/bin/bin/../../lib/gcc/pic32mx/4.8.3/../../../../pic32mx/lib\libpic32.a(_mon_write.o)
 .comment       0x00000000       0x3d f:/software_installations/mplab_xc32/bin/bin/../../lib/gcc/pic32mx/4.8.3/../../../../pic32mx/lib\libpic32.a(xc32_uart.o)
 .comment       0x00000000       0x3d f:/software_installations/mplab_xc32/bin/bin/../../lib/gcc/pic32mx/4.8.3/../../../../pic32mx/lib\libpic32.a(_mon_putc.o)

.debug
 *.elf(.debug)
 *(.debug)

.line
 *.elf(.line)
 *(.line)

.debug_srcinfo
 *.elf(.debug_srcinfo)
 *(.debug_srcinfo)

.debug_sfnames
 *.elf(.debug_sfnames)
 *(.debug_sfnames)

.debug_aranges  0x00000000     0x5508
 *.elf(.debug_aranges)
 *(.debug_aranges)
 .debug_aranges
                0x00000000       0x28 build/pic32mz_da_sk_intddr_meb2/production/_ext/1360937237/app.o
 .debug_aranges
                0x00000028       0x20 build/pic32mz_da_sk_intddr_meb2/production/_ext/1360937237/main.o
 .debug_aranges
                0x00000048       0xf8 build/pic32mz_da_sk_intddr_meb2/production/_ext/475095144/drv_i2c_bb_a.o
 .debug_aranges
                0x00000140       0x60 build/pic32mz_da_sk_intddr_meb2/production/_ext/475095144/drv_i2c_bb.o
 .debug_aranges
                0x000001a0       0x68 build/pic32mz_da_sk_intddr_meb2/production/_ext/1177928576/drv_mxt336t.o
 .debug_aranges
                0x00000208       0x80 build/pic32mz_da_sk_intddr_meb2/production/_ext/1847583374/gfx.o
 .debug_aranges
                0x00000288       0x40 build/pic32mz_da_sk_intddr_meb2/production/_ext/1847583374/gfx_color.o
 .debug_aranges
                0x000002c8       0x30 build/pic32mz_da_sk_intddr_meb2/production/_ext/1847583374/gfx_context.o
 .debug_aranges
                0x000002f8      0x368 build/pic32mz_da_sk_intddr_meb2/production/_ext/1847583374/gfx_default_impl.o
 .debug_aranges
                0x00000660       0x20 build/pic32mz_da_sk_intddr_meb2/production/_ext/1847583374/gfx_display.o
 .debug_aranges
                0x00000680       0x30 build/pic32mz_da_sk_intddr_meb2/production/_ext/1847583374/gfx_driver_interface.o
 .debug_aranges
                0x000006b0      0x190 build/pic32mz_da_sk_intddr_meb2/production/_ext/1847583374/gfx_get.o
 .debug_aranges
                0x00000840       0x18 build/pic32mz_da_sk_intddr_meb2/production/_ext/1847583374/gfx_interface.o
 .debug_aranges
                0x00000858       0x70 build/pic32mz_da_sk_intddr_meb2/production/_ext/1847583374/gfx_layer.o
 .debug_aranges
                0x000008c8      0x100 build/pic32mz_da_sk_intddr_meb2/production/_ext/1847583374/gfx_pixel_buffer.o
 .debug_aranges
                0x000009c8       0x70 build/pic32mz_da_sk_intddr_meb2/production/_ext/1847583374/gfx_rect.o
 .debug_aranges
                0x00000a38       0xa8 build/pic32mz_da_sk_intddr_meb2/production/_ext/1847583374/gfx_util.o
 .debug_aranges
                0x00000ae0      0x168 build/pic32mz_da_sk_intddr_meb2/production/_ext/1847583374/gfx_set.o
 .debug_aranges
                0x00000c48       0x20 build/pic32mz_da_sk_intddr_meb2/production/_ext/1847583374/gfx_color_blend.o
 .debug_aranges
                0x00000c68      0x208 build/pic32mz_da_sk_intddr_meb2/production/_ext/1847583374/gfx_color_convert.o
 .debug_aranges
                0x00000e70       0x60 build/pic32mz_da_sk_intddr_meb2/production/_ext/1847583374/gfx_color_lerp.o
 .debug_aranges
                0x00000ed0       0x20 build/pic32mz_da_sk_intddr_meb2/production/_ext/1847583374/gfx_color_value.o
 .debug_aranges
                0x00000ef0       0x40 build/pic32mz_da_sk_intddr_meb2/production/_ext/1847583374/gfx_draw_blit.o
 .debug_aranges
                0x00000f30       0x28 build/pic32mz_da_sk_intddr_meb2/production/_ext/1847583374/gfx_draw_circle.o
 .debug_aranges
                0x00000f58       0x60 build/pic32mz_da_sk_intddr_meb2/production/_ext/1847583374/gfx_draw_line.o
 .debug_aranges
                0x00000fb8       0x38 build/pic32mz_da_sk_intddr_meb2/production/_ext/1847583374/gfx_draw_pixel.o
 .debug_aranges
                0x00000ff0       0x68 build/pic32mz_da_sk_intddr_meb2/production/_ext/1847583374/gfx_draw_rect.o
 .debug_aranges
                0x00001058       0xb8 build/pic32mz_da_sk_intddr_meb2/production/_ext/1847583374/gfx_math.o
 .debug_aranges
                0x00001110       0x30 build/pic32mz_da_sk_intddr_meb2/production/_ext/1847583374/gfx_draw_stretchblit.o
 .debug_aranges
                0x00001140       0x18 build/pic32mz_da_sk_intddr_meb2/production/_ext/1847583374/gfx_processor_interface.o
 .debug_aranges
                0x00001158       0x48 build/pic32mz_da_sk_intddr_meb2/production/_ext/1847583374/gfx_draw_arc.o
 .debug_aranges
                0x000011a0       0x28 build/pic32mz_da_sk_intddr_meb2/production/_ext/1847583374/gfx_draw_ellipse.o
 .debug_aranges
                0x000011c8       0x30 build/pic32mz_da_sk_intddr_meb2/production/_ext/1907747181/libaria.o
 .debug_aranges
                0x000011f8      0x118 build/pic32mz_da_sk_intddr_meb2/production/_ext/1907747181/libaria_context.o
 .debug_aranges
                0x00001310       0x38 build/pic32mz_da_sk_intddr_meb2/production/_ext/1907747181/libaria_context_paint.o
 .debug_aranges
                0x00001348       0x38 build/pic32mz_da_sk_intddr_meb2/production/_ext/1907747181/libaria_draw.o
 .debug_aranges
                0x00001380       0x98 build/pic32mz_da_sk_intddr_meb2/production/_ext/1907747181/libaria_editwidget.o
 .debug_aranges
                0x00001418       0x40 build/pic32mz_da_sk_intddr_meb2/production/_ext/1907747181/libaria_event.o
 .debug_aranges
                0x00001458       0x68 build/pic32mz_da_sk_intddr_meb2/production/_ext/1907747181/libaria_input.o
 .debug_aranges
                0x000014c0      0x120 build/pic32mz_da_sk_intddr_meb2/production/_ext/1907747181/libaria_layer.o
 .debug_aranges
                0x000015e0       0x80 build/pic32mz_da_sk_intddr_meb2/production/_ext/1907747181/libaria_list.o
 .debug_aranges
                0x00001660       0x20 build/pic32mz_da_sk_intddr_meb2/production/_ext/1907747181/libaria_scheme.o
 .debug_aranges
                0x00001680       0xa0 build/pic32mz_da_sk_intddr_meb2/production/_ext/1907747181/libaria_screen.o
 .debug_aranges
                0x00001720      0x148 build/pic32mz_da_sk_intddr_meb2/production/_ext/1907747181/libaria_string.o
 .debug_aranges
                0x00001868      0x118 build/pic32mz_da_sk_intddr_meb2/production/_ext/1907747181/libaria_utils.o
 .debug_aranges
                0x00001980      0x250 build/pic32mz_da_sk_intddr_meb2/production/_ext/1907747181/libaria_widget.o
 .debug_aranges
                0x00001bd0       0x30 build/pic32mz_da_sk_intddr_meb2/production/_ext/1907747181/libaria_widget_skin_classic.o
 .debug_aranges
                0x00001c00      0x118 build/pic32mz_da_sk_intddr_meb2/production/_ext/1907747181/libaria_widget_button.o
 .debug_aranges
                0x00001d18       0x70 build/pic32mz_da_sk_intddr_meb2/production/_ext/1907747181/libaria_widget_button_skin_classic.o
 .debug_aranges
                0x00001d88      0x108 build/pic32mz_da_sk_intddr_meb2/production/_ext/1907747181/libaria_widget_checkbox.o
 .debug_aranges
                0x00001e90       0x68 build/pic32mz_da_sk_intddr_meb2/production/_ext/1907747181/libaria_widget_checkbox_skin_classic.o
 .debug_aranges
                0x00001ef8       0x50 build/pic32mz_da_sk_intddr_meb2/production/_ext/1907747181/libaria_widget_circle.o
 .debug_aranges
                0x00001f48       0x40 build/pic32mz_da_sk_intddr_meb2/production/_ext/1907747181/libaria_widget_circle_skin_classic.o
 .debug_aranges
                0x00001f88       0x40 build/pic32mz_da_sk_intddr_meb2/production/_ext/1907747181/libaria_widget_drawsurface.o
 .debug_aranges
                0x00001fc8       0x40 build/pic32mz_da_sk_intddr_meb2/production/_ext/1907747181/libaria_widget_drawsurface_skin_classic.o
 .debug_aranges
                0x00002008       0x40 build/pic32mz_da_sk_intddr_meb2/production/_ext/1907747181/libaria_widget_gradient.o
 .debug_aranges
                0x00002048       0x38 build/pic32mz_da_sk_intddr_meb2/production/_ext/1907747181/libaria_widget_gradient_skin_classic.o
 .debug_aranges
                0x00002080       0x58 build/pic32mz_da_sk_intddr_meb2/production/_ext/1907747181/libaria_widget_groupbox.o
 .debug_aranges
                0x000020d8       0x60 build/pic32mz_da_sk_intddr_meb2/production/_ext/1907747181/libaria_widget_groupbox_skin_classic.o
 .debug_aranges
                0x00002138       0x78 build/pic32mz_da_sk_intddr_meb2/production/_ext/1907747181/libaria_widget_image.o
 .debug_aranges
                0x000021b0       0x50 build/pic32mz_da_sk_intddr_meb2/production/_ext/1907747181/libaria_widget_image_skin_classic.o
 .debug_aranges
                0x00002200       0xe0 build/pic32mz_da_sk_intddr_meb2/production/_ext/1907747181/libaria_widget_imagesequence.o
 .debug_aranges
                0x000022e0       0x50 build/pic32mz_da_sk_intddr_meb2/production/_ext/1907747181/libaria_widget_imagesequence_skin_classic.o
 .debug_aranges
                0x00002330      0x108 build/pic32mz_da_sk_intddr_meb2/production/_ext/1907747181/libaria_widget_keypad.o
 .debug_aranges
                0x00002438       0x40 build/pic32mz_da_sk_intddr_meb2/production/_ext/1907747181/libaria_widget_keypad_skin_classic.o
 .debug_aranges
                0x00002478       0x70 build/pic32mz_da_sk_intddr_meb2/production/_ext/1907747181/libaria_widget_label.o
 .debug_aranges
                0x000024e8       0x50 build/pic32mz_da_sk_intddr_meb2/production/_ext/1907747181/libaria_widget_label_skin_classic.o
 .debug_aranges
                0x00002538       0x50 build/pic32mz_da_sk_intddr_meb2/production/_ext/1907747181/libaria_widget_line.o
 .debug_aranges
                0x00002588       0x40 build/pic32mz_da_sk_intddr_meb2/production/_ext/1907747181/libaria_widget_line_skin_classic.o
 .debug_aranges
                0x000025c8      0x170 build/pic32mz_da_sk_intddr_meb2/production/_ext/1907747181/libaria_widget_list.o
 .debug_aranges
                0x00002738       0x90 build/pic32mz_da_sk_intddr_meb2/production/_ext/1907747181/libaria_widget_list_skin_classic.o
 .debug_aranges
                0x000027c8      0x1c8 build/pic32mz_da_sk_intddr_meb2/production/_ext/1907747181/libaria_widget_listwheel.o
 .debug_aranges
                0x00002990       0x90 build/pic32mz_da_sk_intddr_meb2/production/_ext/1907747181/libaria_widget_listwheel_skin_classic.o
 .debug_aranges
                0x00002a20       0x60 build/pic32mz_da_sk_intddr_meb2/production/_ext/1907747181/libaria_widget_progressbar.o
 .debug_aranges
                0x00002a80       0x48 build/pic32mz_da_sk_intddr_meb2/production/_ext/1907747181/libaria_widget_progressbar_skin_classic.o
 .debug_aranges
                0x00002ac8      0x118 build/pic32mz_da_sk_intddr_meb2/production/_ext/1907747181/libaria_widget_radiobutton.o
 .debug_aranges
                0x00002be0       0x68 build/pic32mz_da_sk_intddr_meb2/production/_ext/1907747181/libaria_widget_radiobutton_skin_classic.o
 .debug_aranges
                0x00002c48       0x40 build/pic32mz_da_sk_intddr_meb2/production/_ext/1907747181/libaria_radiobutton_group.o
 .debug_aranges
                0x00002c88       0x38 build/pic32mz_da_sk_intddr_meb2/production/_ext/1907747181/libaria_widget_rectangle.o
 .debug_aranges
                0x00002cc0       0x48 build/pic32mz_da_sk_intddr_meb2/production/_ext/1907747181/libaria_widget_rectangle_skin_classic.o
 .debug_aranges
                0x00002d08      0x100 build/pic32mz_da_sk_intddr_meb2/production/_ext/1907747181/libaria_widget_scrollbar.o
 .debug_aranges
                0x00002e08       0x70 build/pic32mz_da_sk_intddr_meb2/production/_ext/1907747181/libaria_widget_scrollbar_skin_classic.o
 .debug_aranges
                0x00002e78       0xe0 build/pic32mz_da_sk_intddr_meb2/production/_ext/1907747181/libaria_widget_slider.o
 .debug_aranges
                0x00002f58       0x58 build/pic32mz_da_sk_intddr_meb2/production/_ext/1907747181/libaria_widget_slider_skin_classic.o
 .debug_aranges
                0x00002fb0      0x110 build/pic32mz_da_sk_intddr_meb2/production/_ext/1907747181/libaria_widget_textfield.o
 .debug_aranges
                0x000030c0       0x60 build/pic32mz_da_sk_intddr_meb2/production/_ext/1907747181/libaria_widget_textfield_skin_classic.o
 .debug_aranges
                0x00003120       0x70 build/pic32mz_da_sk_intddr_meb2/production/_ext/1907747181/libaria_widget_touchtest.o
 .debug_aranges
                0x00003190       0x48 build/pic32mz_da_sk_intddr_meb2/production/_ext/1907747181/libaria_widget_touchtest_skin_classic.o
 .debug_aranges
                0x000031d8       0x78 build/pic32mz_da_sk_intddr_meb2/production/_ext/1907747181/libaria_widget_window.o
 .debug_aranges
                0x00003250       0x78 build/pic32mz_da_sk_intddr_meb2/production/_ext/1907747181/libaria_widget_window_skin_classic.o
 .debug_aranges
                0x000032c8       0xa0 build/pic32mz_da_sk_intddr_meb2/production/_ext/1907747181/libaria_array.o
 .debug_aranges
                0x00003368       0xa0 build/pic32mz_da_sk_intddr_meb2/production/_ext/1907747181/libaria_rectarray.o
 .debug_aranges
                0x00003408       0xd8 build/pic32mz_da_sk_intddr_meb2/production/_ext/1907747181/libaria_widget_skin_classic_common.o
 .debug_aranges
                0x000034e0       0x80 build/pic32mz_da_sk_intddr_meb2/production/_ext/1907747181/libaria_widget_arc.o
 .debug_aranges
                0x00003560       0x48 build/pic32mz_da_sk_intddr_meb2/production/_ext/1907747181/libaria_widget_arc_skin_classic.o
 .debug_aranges
                0x000035a8      0x180 build/pic32mz_da_sk_intddr_meb2/production/_ext/1907747181/libaria_widget_circular_gauge.o
 .debug_aranges
                0x00003728       0x50 build/pic32mz_da_sk_intddr_meb2/production/_ext/1907747181/libaria_widget_circular_gauge_skin_classic.o
 .debug_aranges
                0x00003778      0x140 build/pic32mz_da_sk_intddr_meb2/production/_ext/1907747181/libaria_widget_circular_slider.o
 .debug_aranges
                0x000038b8       0x40 build/pic32mz_da_sk_intddr_meb2/production/_ext/1907747181/libaria_widget_circular_slider_skin_classic.o
 .debug_aranges
                0x000038f8       0xf0 build/pic32mz_da_sk_intddr_meb2/production/_ext/1907747181/libaria_widget_pie_chart.o
 .debug_aranges
                0x000039e8       0x40 build/pic32mz_da_sk_intddr_meb2/production/_ext/1907747181/libaria_widget_pie_chart_skin_classic.o
 .debug_aranges
                0x00003a28      0x188 build/pic32mz_da_sk_intddr_meb2/production/_ext/1907747181/libaria_widget_bar_graph.o
 .debug_aranges
                0x00003bb0       0x60 build/pic32mz_da_sk_intddr_meb2/production/_ext/1907747181/libaria_widget_bar_graph_skin_classic.o
 .debug_aranges
                0x00003c10      0x1d8 build/pic32mz_da_sk_intddr_meb2/production/_ext/1907747181/libaria_widget_line_graph.o
 .debug_aranges
                0x00003de8       0x68 build/pic32mz_da_sk_intddr_meb2/production/_ext/1907747181/libaria_widget_line_graph_skin_classic.o
 .debug_aranges
                0x00003e50       0xe8 build/pic32mz_da_sk_intddr_meb2/production/_ext/1907747181/libaria_widget_imageplus.o
 .debug_aranges
                0x00003f38       0x48 build/pic32mz_da_sk_intddr_meb2/production/_ext/1907747181/libaria_widget_imageplus_skin_classic.o
 .debug_aranges
                0x00003f80      0x148 build/pic32mz_da_sk_intddr_meb2/production/_ext/1907747181/libaria_widget_radial_menu.o
 .debug_aranges
                0x000040c8       0x48 build/pic32mz_da_sk_intddr_meb2/production/_ext/1907747181/libaria_widget_radial_menu_skin_classic.o
 .debug_aranges
                0x00004110       0x28 build/pic32mz_da_sk_intddr_meb2/production/_ext/1597685232/gfxu_image.o
 .debug_aranges
                0x00004138       0x20 build/pic32mz_da_sk_intddr_meb2/production/_ext/1597685232/gfxu_image_png_external.o
 .debug_aranges
                0x00004158       0x38 build/pic32mz_da_sk_intddr_meb2/production/_ext/1597685232/gfxu_image_png_internal.o
 .debug_aranges
                0x00004190       0x28 build/pic32mz_da_sk_intddr_meb2/production/_ext/1597685232/gfxu_image_jpg_internal.o
 .debug_aranges
                0x000041b8       0x38 build/pic32mz_da_sk_intddr_meb2/production/_ext/1597685232/gfxu_image_raw_external.o
 .debug_aranges
                0x000041f0       0x20 build/pic32mz_da_sk_intddr_meb2/production/_ext/1597685232/gfxu_image_raw_internal.o
 .debug_aranges
                0x00004210       0x48 build/pic32mz_da_sk_intddr_meb2/production/_ext/1597685232/gfxu_image_rle_external.o
 .debug_aranges
                0x00004258       0x20 build/pic32mz_da_sk_intddr_meb2/production/_ext/1597685232/gfxu_image_rle_internal.o
 .debug_aranges
                0x00004278       0x88 build/pic32mz_da_sk_intddr_meb2/production/_ext/1597685232/gfxu_image_utils.o
 .debug_aranges
                0x00004300       0x20 build/pic32mz_da_sk_intddr_meb2/production/_ext/1597685232/gfxu_palette.o
 .debug_aranges
                0x00004320       0x48 build/pic32mz_da_sk_intddr_meb2/production/_ext/1597685232/gfxu_string.o
 .debug_aranges
                0x00004368       0x38 build/pic32mz_da_sk_intddr_meb2/production/_ext/1597685232/gfxu_string_external.o
 .debug_aranges
                0x000043a0       0x38 build/pic32mz_da_sk_intddr_meb2/production/_ext/1597685232/gfxu_string_internal.o
 .debug_aranges
                0x000043d8       0x80 build/pic32mz_da_sk_intddr_meb2/production/_ext/1597685232/gfxu_string_query.o
 .debug_aranges
                0x00004458       0xc0 build/pic32mz_da_sk_intddr_meb2/production/_ext/1597685232/gfxu_string_utils.o
 .debug_aranges
                0x00004518       0x80 build/pic32mz_da_sk_intddr_meb2/production/_ext/1597685232/gfxu_image_jpg_common.o
 .debug_aranges
                0x00004598       0x28 build/pic32mz_da_sk_intddr_meb2/production/_ext/1597685232/gfxu_image_jpg_external.o
 .debug_aranges
                0x000045c0       0x38 build/pic32mz_da_sk_intddr_meb2/production/_ext/1597685232/gfxu_stringbuffer_external.o
 .debug_aranges
                0x000045f8       0x60 build/pic32mz_da_sk_intddr_meb2/production/_ext/2137108136/sys_debug.o
 .debug_aranges
                0x00004658       0x98 build/pic32mz_da_sk_intddr_meb2/production/_ext/252650337/sys_input.o
 .debug_aranges
                0x000046f0       0x70 build/pic32mz_da_sk_intddr_meb2/production/_ext/252650337/sys_input_listener.o
 .debug_aranges
                0x00004760       0x48 build/pic32mz_da_sk_intddr_meb2/production/_ext/1042686532/sys_int_pic32.o
 .debug_aranges
                0x000047a8       0x20 build/pic32mz_da_sk_intddr_meb2/production/_ext/426253641/jidctint.o
 .debug_aranges
                0x000047c8      0x3f0 build/pic32mz_da_sk_intddr_meb2/production/_ext/493934858/lodepng.o
 .debug_aranges
                0x00004bb8       0xb0 build/pic32mz_da_sk_intddr_meb2/production/_ext/418582516/drv_usart_mapping.o
 .debug_aranges
                0x00004c68       0x70 build/pic32mz_da_sk_intddr_meb2/production/_ext/418582516/drv_usart_static.o
 .debug_aranges
                0x00004cd8       0x48 build/pic32mz_da_sk_intddr_meb2/production/_ext/418582516/drv_usart_static_byte_model.o
 .debug_aranges
                0x00004d20       0xb0 build/pic32mz_da_sk_intddr_meb2/production/_ext/1094895838/drv_gfx_glcd_static.o
 .debug_aranges
                0x00004dd0       0x40 build/pic32mz_da_sk_intddr_meb2/production/_ext/590040425/libaria_harmony.o
 .debug_aranges
                0x00004e10       0x28 build/pic32mz_da_sk_intddr_meb2/production/_ext/590040425/libaria_init.o
 .debug_aranges
                0x00004e38       0x18 build/pic32mz_da_sk_intddr_meb2/production/_ext/590040425/libaria_events.o
 .debug_aranges
                0x00004e50       0x18 build/pic32mz_da_sk_intddr_meb2/production/_ext/590040425/libaria_macros.o
 .debug_aranges
                0x00004e68       0x18 build/pic32mz_da_sk_intddr_meb2/production/_ext/1719547748/gfx_display_def.o
 .debug_aranges
                0x00004e80       0x20 build/pic32mz_da_sk_intddr_meb2/production/_ext/1719547748/gfx_driver_def.o
 .debug_aranges
                0x00004ea0       0x20 build/pic32mz_da_sk_intddr_meb2/production/_ext/1719547748/gfx_processor_def.o
 .debug_aranges
                0x00004ec0       0x50 build/pic32mz_da_sk_intddr_meb2/production/_ext/370156264/sys_clk_pic32mz.o
 .debug_aranges
                0x00004f10       0x78 build/pic32mz_da_sk_intddr_meb2/production/_ext/1796496159/sys_devcon.o
 .debug_aranges
                0x00004f88       0xc8 build/pic32mz_da_sk_intddr_meb2/production/_ext/1796496159/sys_devcon_pic32mz.o
 .debug_aranges
                0x00005050      0x148 build/pic32mz_da_sk_intddr_meb2/production/_ext/730466360/sys_ports_static.o
 .debug_aranges
                0x00005198       0x60 build/pic32mz_da_sk_intddr_meb2/production/_ext/639474099/sys_console_static.o
 .debug_aranges
                0x000051f8       0x20 build/pic32mz_da_sk_intddr_meb2/production/_ext/327666056/sys_memory_ddr_static.o
 .debug_aranges
                0x00005218       0x20 build/pic32mz_da_sk_intddr_meb2/production/_ext/85614229/sys_memory_static.o
 .debug_aranges
                0x00005238       0x20 build/pic32mz_da_sk_intddr_meb2/production/_ext/1547055377/bsp.o
 .debug_aranges
                0x00005258       0x20 build/pic32mz_da_sk_intddr_meb2/production/_ext/1653314881/system_init.o
 .debug_aranges
                0x00005278       0x38 build/pic32mz_da_sk_intddr_meb2/production/_ext/1653314881/system_interrupt.o
 .debug_aranges
                0x000052b0       0x20 build/pic32mz_da_sk_intddr_meb2/production/_ext/1653314881/general_exception_handler.o
 .debug_aranges
                0x000052d0       0x20 build/pic32mz_da_sk_intddr_meb2/production/_ext/1653314881/general-exception-context.o
 .debug_aranges
                0x000052f0       0x20 build/pic32mz_da_sk_intddr_meb2/production/_ext/1653314881/fassert.o
 .debug_aranges
                0x00005310       0x20 build/pic32mz_da_sk_intddr_meb2/production/_ext/1653314881/system_tasks.o
 .debug_aranges
                0x00005330       0x18 build/pic32mz_da_sk_intddr_meb2/production/_ext/1021385576/gfx_assets.o
 .debug_aranges
                0x00005348       0x20 f:/software_installations/mplab_xc32/bin/bin/../../lib/gcc/pic32mx/4.8.3\libgcc.a(floatunsisf.o)
 .debug_aranges
                0x00005368       0x20 f:/software_installations/mplab_xc32/bin/bin/../../lib/gcc/pic32mx/4.8.3/../../../../pic32mx/lib\libpic32.a(default-bootstrap-exception-handler.o)
 .debug_aranges
                0x00005388       0x20 f:/software_installations/mplab_xc32/bin/bin/../../lib/gcc/pic32mx/4.8.3/../../../../pic32mx/lib\libpic32.a(default-on-reset.o)
 .debug_aranges
                0x000053a8       0x20 f:/software_installations/mplab_xc32/bin/bin/../../lib/gcc/pic32mx/4.8.3/../../../../pic32mx/lib\libpic32.a(default-on-bootstrap.o)
 .debug_aranges
                0x000053c8       0x20 f:/software_installations/mplab_xc32/bin/bin/../../lib/gcc/pic32mx/4.8.3/../../../../pic32mx/lib\libpic32.a(defaultinterrupt.o)
 .debug_aranges
                0x000053e8       0x20 f:/software_installations/mplab_xc32/bin/bin/../../lib/gcc/pic32mx/4.8.3/../../../../pic32mx/lib\libpic32.a(default-cache-err-exception-handler.o)
 .debug_aranges
                0x00005408       0x20 f:/software_installations/mplab_xc32/bin/bin/../../lib/gcc/pic32mx/4.8.3/../../../../pic32mx/lib\libpic32.a(default-simple-tlb-refill-exception-handler.o)
 .debug_aranges
                0x00005428       0x20 f:/software_installations/mplab_xc32/bin/bin/../../lib/gcc/pic32mx/4.8.3\libgcc.a(_udivdi3.o)
 .debug_aranges
                0x00005448       0x20 f:/software_installations/mplab_xc32/bin/bin/../../lib/gcc/pic32mx/4.8.3\libgcc.a(_umoddi3.o)
 .debug_aranges
                0x00005468       0x40 f:/software_installations/mplab_xc32/bin/bin/../../lib/gcc/pic32mx/4.8.3/../../../../pic32mx/lib\libpic32.a(sbrk.o)
 .debug_aranges
                0x000054a8       0x20 f:/software_installations/mplab_xc32/bin/bin/../../lib/gcc/pic32mx/4.8.3/../../../../pic32mx/lib\libpic32.a(_mon_getc.o)
 .debug_aranges
                0x000054c8       0x20 f:/software_installations/mplab_xc32/bin/bin/../../lib/gcc/pic32mx/4.8.3/../../../../pic32mx/lib\libpic32.a(_mon_write.o)
 .debug_aranges
                0x000054e8       0x20 f:/software_installations/mplab_xc32/bin/bin/../../lib/gcc/pic32mx/4.8.3/../../../../pic32mx/lib\libpic32.a(_mon_putc.o)

.debug_pubnames
 *.elf(.debug_pubnames)
 *(.debug_pubnames)

.debug_info     0x00000000   0x20db29
 *.elf(.debug_info .gnu.linkonce.wi.*)
 *(.debug_info .gnu.linkonce.wi.*)
 .debug_info    0x00000000     0x1830 build/pic32mz_da_sk_intddr_meb2/production/_ext/1360937237/app.o
 .debug_info    0x00001830      0x1b9 build/pic32mz_da_sk_intddr_meb2/production/_ext/1360937237/main.o
 .debug_info    0x000019e9     0x9e0c build/pic32mz_da_sk_intddr_meb2/production/_ext/475095144/drv_i2c_bb_a.o
 .debug_info    0x0000b7f5     0x5f84 build/pic32mz_da_sk_intddr_meb2/production/_ext/475095144/drv_i2c_bb.o
 .debug_info    0x00011779     0x5fb6 build/pic32mz_da_sk_intddr_meb2/production/_ext/1177928576/drv_mxt336t.o
 .debug_info    0x0001772f     0x3f4c build/pic32mz_da_sk_intddr_meb2/production/_ext/1847583374/gfx.o
 .debug_info    0x0001b67b      0x834 build/pic32mz_da_sk_intddr_meb2/production/_ext/1847583374/gfx_color.o
 .debug_info    0x0001beaf     0x32ba build/pic32mz_da_sk_intddr_meb2/production/_ext/1847583374/gfx_context.o
 .debug_info    0x0001f169     0x5953 build/pic32mz_da_sk_intddr_meb2/production/_ext/1847583374/gfx_default_impl.o
 .debug_info    0x00024abc      0xa40 build/pic32mz_da_sk_intddr_meb2/production/_ext/1847583374/gfx_display.o
 .debug_info    0x000254fc     0x3458 build/pic32mz_da_sk_intddr_meb2/production/_ext/1847583374/gfx_driver_interface.o
 .debug_info    0x00028954     0x4a9a build/pic32mz_da_sk_intddr_meb2/production/_ext/1847583374/gfx_get.o
 .debug_info    0x0002d3ee      0x884 build/pic32mz_da_sk_intddr_meb2/production/_ext/1847583374/gfx_interface.o
 .debug_info    0x0002dc72     0x3651 build/pic32mz_da_sk_intddr_meb2/production/_ext/1847583374/gfx_layer.o
 .debug_info    0x000312c3     0x1ce1 build/pic32mz_da_sk_intddr_meb2/production/_ext/1847583374/gfx_pixel_buffer.o
 .debug_info    0x00032fa4      0x8e4 build/pic32mz_da_sk_intddr_meb2/production/_ext/1847583374/gfx_rect.o
 .debug_info    0x00033888      0xfe2 build/pic32mz_da_sk_intddr_meb2/production/_ext/1847583374/gfx_util.o
 .debug_info    0x0003486a     0x4722 build/pic32mz_da_sk_intddr_meb2/production/_ext/1847583374/gfx_set.o
 .debug_info    0x00038f8c      0x947 build/pic32mz_da_sk_intddr_meb2/production/_ext/1847583374/gfx_color_blend.o
 .debug_info    0x000398d3     0x4817 build/pic32mz_da_sk_intddr_meb2/production/_ext/1847583374/gfx_color_convert.o
 .debug_info    0x0003e0ea     0x11e1 build/pic32mz_da_sk_intddr_meb2/production/_ext/1847583374/gfx_color_lerp.o
 .debug_info    0x0003f2cb      0x91a build/pic32mz_da_sk_intddr_meb2/production/_ext/1847583374/gfx_color_value.o
 .debug_info    0x0003fbe5     0x39a0 build/pic32mz_da_sk_intddr_meb2/production/_ext/1847583374/gfx_draw_blit.o
 .debug_info    0x00043585     0x34d3 build/pic32mz_da_sk_intddr_meb2/production/_ext/1847583374/gfx_draw_circle.o
 .debug_info    0x00046a58     0x3c86 build/pic32mz_da_sk_intddr_meb2/production/_ext/1847583374/gfx_draw_line.o
 .debug_info    0x0004a6de     0x3553 build/pic32mz_da_sk_intddr_meb2/production/_ext/1847583374/gfx_draw_pixel.o
 .debug_info    0x0004dc31     0x3a06 build/pic32mz_da_sk_intddr_meb2/production/_ext/1847583374/gfx_draw_rect.o
 .debug_info    0x00051637      0xc1c build/pic32mz_da_sk_intddr_meb2/production/_ext/1847583374/gfx_math.o
 .debug_info    0x00052253     0x3b55 build/pic32mz_da_sk_intddr_meb2/production/_ext/1847583374/gfx_draw_stretchblit.o
 .debug_info    0x00055da8      0x748 build/pic32mz_da_sk_intddr_meb2/production/_ext/1847583374/gfx_processor_interface.o
 .debug_info    0x000564f0     0x448c build/pic32mz_da_sk_intddr_meb2/production/_ext/1847583374/gfx_draw_arc.o
 .debug_info    0x0005a97c     0x3628 build/pic32mz_da_sk_intddr_meb2/production/_ext/1847583374/gfx_draw_ellipse.o
 .debug_info    0x0005dfa4     0x31a2 build/pic32mz_da_sk_intddr_meb2/production/_ext/1907747181/libaria.o
 .debug_info    0x00061146     0x4d1c build/pic32mz_da_sk_intddr_meb2/production/_ext/1907747181/libaria_context.o
 .debug_info    0x00065e62     0x41b1 build/pic32mz_da_sk_intddr_meb2/production/_ext/1907747181/libaria_context_paint.o
 .debug_info    0x0006a013     0x1275 build/pic32mz_da_sk_intddr_meb2/production/_ext/1907747181/libaria_draw.o
 .debug_info    0x0006b288     0x223b build/pic32mz_da_sk_intddr_meb2/production/_ext/1907747181/libaria_editwidget.o
 .debug_info    0x0006d4c3     0x2dac build/pic32mz_da_sk_intddr_meb2/production/_ext/1907747181/libaria_event.o
 .debug_info    0x0007026f     0x3e18 build/pic32mz_da_sk_intddr_meb2/production/_ext/1907747181/libaria_input.o
 .debug_info    0x00074087     0x4c1a build/pic32mz_da_sk_intddr_meb2/production/_ext/1907747181/libaria_layer.o
 .debug_info    0x00078ca1     0x307b build/pic32mz_da_sk_intddr_meb2/production/_ext/1907747181/libaria_list.o
 .debug_info    0x0007bd1c      0xd8b build/pic32mz_da_sk_intddr_meb2/production/_ext/1907747181/libaria_scheme.o
 .debug_info    0x0007caa7     0x3e76 build/pic32mz_da_sk_intddr_meb2/production/_ext/1907747181/libaria_screen.o
 .debug_info    0x0008091d     0x4793 build/pic32mz_da_sk_intddr_meb2/production/_ext/1907747181/libaria_string.o
 .debug_info    0x000850b0     0x4744 build/pic32mz_da_sk_intddr_meb2/production/_ext/1907747181/libaria_utils.o
 .debug_info    0x000897f4     0x5110 build/pic32mz_da_sk_intddr_meb2/production/_ext/1907747181/libaria_widget.o
 .debug_info    0x0008e904     0x2c6b build/pic32mz_da_sk_intddr_meb2/production/_ext/1907747181/libaria_widget_skin_classic.o
 .debug_info    0x0009156f     0x47ee build/pic32mz_da_sk_intddr_meb2/production/_ext/1907747181/libaria_widget_button.o
 .debug_info    0x00095d5d     0x497a build/pic32mz_da_sk_intddr_meb2/production/_ext/1907747181/libaria_widget_button_skin_classic.o
 .debug_info    0x0009a6d7     0x4419 build/pic32mz_da_sk_intddr_meb2/production/_ext/1907747181/libaria_widget_checkbox.o
 .debug_info    0x0009eaf0     0x45bd build/pic32mz_da_sk_intddr_meb2/production/_ext/1907747181/libaria_widget_checkbox_skin_classic.o
 .debug_info    0x000a30ad     0x2dd4 build/pic32mz_da_sk_intddr_meb2/production/_ext/1907747181/libaria_widget_circle.o
 .debug_info    0x000a5e81     0x3883 build/pic32mz_da_sk_intddr_meb2/production/_ext/1907747181/libaria_widget_circle_skin_classic.o
 .debug_info    0x000a9704     0x2d71 build/pic32mz_da_sk_intddr_meb2/production/_ext/1907747181/libaria_widget_drawsurface.o
 .debug_info    0x000ac475     0x2e3d build/pic32mz_da_sk_intddr_meb2/production/_ext/1907747181/libaria_widget_drawsurface_skin_classic.o
 .debug_info    0x000af2b2     0x2dc4 build/pic32mz_da_sk_intddr_meb2/production/_ext/1907747181/libaria_widget_gradient.o
 .debug_info    0x000b2076     0x38ee build/pic32mz_da_sk_intddr_meb2/production/_ext/1907747181/libaria_widget_gradient_skin_classic.o
 .debug_info    0x000b5964     0x352e build/pic32mz_da_sk_intddr_meb2/production/_ext/1907747181/libaria_widget_groupbox.o
 .debug_info    0x000b8e92     0x40d0 build/pic32mz_da_sk_intddr_meb2/production/_ext/1907747181/libaria_widget_groupbox_skin_classic.o
 .debug_info    0x000bcf62     0x385d build/pic32mz_da_sk_intddr_meb2/production/_ext/1907747181/libaria_widget_image.o
 .debug_info    0x000c07bf     0x3a74 build/pic32mz_da_sk_intddr_meb2/production/_ext/1907747181/libaria_widget_image_skin_classic.o
 .debug_info    0x000c4233     0x39c7 build/pic32mz_da_sk_intddr_meb2/production/_ext/1907747181/libaria_widget_imagesequence.o
 .debug_info    0x000c7bfa     0x3adf build/pic32mz_da_sk_intddr_meb2/production/_ext/1907747181/libaria_widget_imagesequence_skin_classic.o
 .debug_info    0x000cb6d9     0x4bd5 build/pic32mz_da_sk_intddr_meb2/production/_ext/1907747181/libaria_widget_keypad.o
 .debug_info    0x000d02ae     0x306f build/pic32mz_da_sk_intddr_meb2/production/_ext/1907747181/libaria_widget_keypad_skin_classic.o
 .debug_info    0x000d331d     0x363c build/pic32mz_da_sk_intddr_meb2/production/_ext/1907747181/libaria_widget_label.o
 .debug_info    0x000d6959     0x3f83 build/pic32mz_da_sk_intddr_meb2/production/_ext/1907747181/libaria_widget_label_skin_classic.o
 .debug_info    0x000da8dc     0x2de5 build/pic32mz_da_sk_intddr_meb2/production/_ext/1907747181/libaria_widget_line.o
 .debug_info    0x000dd6c1     0x391c build/pic32mz_da_sk_intddr_meb2/production/_ext/1907747181/libaria_widget_line_skin_classic.o
 .debug_info    0x000e0fdd     0x5828 build/pic32mz_da_sk_intddr_meb2/production/_ext/1907747181/libaria_widget_list.o
 .debug_info    0x000e6805     0x4dc3 build/pic32mz_da_sk_intddr_meb2/production/_ext/1907747181/libaria_widget_list_skin_classic.o
 .debug_info    0x000eb5c8     0x53ac build/pic32mz_da_sk_intddr_meb2/production/_ext/1907747181/libaria_widget_listwheel.o
 .debug_info    0x000f0974     0x5dae build/pic32mz_da_sk_intddr_meb2/production/_ext/1907747181/libaria_widget_listwheel_skin_classic.o
 .debug_info    0x000f6722     0x356e build/pic32mz_da_sk_intddr_meb2/production/_ext/1907747181/libaria_widget_progressbar.o
 .debug_info    0x000f9c90     0x3ada build/pic32mz_da_sk_intddr_meb2/production/_ext/1907747181/libaria_widget_progressbar_skin_classic.o
 .debug_info    0x000fd76a     0x484f build/pic32mz_da_sk_intddr_meb2/production/_ext/1907747181/libaria_widget_radiobutton.o
 .debug_info    0x00101fb9     0x4f13 build/pic32mz_da_sk_intddr_meb2/production/_ext/1907747181/libaria_widget_radiobutton_skin_classic.o
 .debug_info    0x00106ecc     0x3515 build/pic32mz_da_sk_intddr_meb2/production/_ext/1907747181/libaria_radiobutton_group.o
 .debug_info    0x0010a3e1     0x2d13 build/pic32mz_da_sk_intddr_meb2/production/_ext/1907747181/libaria_widget_rectangle.o
 .debug_info    0x0010d0f4     0x3af1 build/pic32mz_da_sk_intddr_meb2/production/_ext/1907747181/libaria_widget_rectangle_skin_classic.o
 .debug_info    0x00110be5     0x4300 build/pic32mz_da_sk_intddr_meb2/production/_ext/1907747181/libaria_widget_scrollbar.o
 .debug_info    0x00114ee5     0x44fd build/pic32mz_da_sk_intddr_meb2/production/_ext/1907747181/libaria_widget_scrollbar_skin_classic.o
 .debug_info    0x001193e2     0x3ed4 build/pic32mz_da_sk_intddr_meb2/production/_ext/1907747181/libaria_widget_slider.o
 .debug_info    0x0011d2b6     0x37df build/pic32mz_da_sk_intddr_meb2/production/_ext/1907747181/libaria_widget_slider_skin_classic.o
 .debug_info    0x00120a95     0x436c build/pic32mz_da_sk_intddr_meb2/production/_ext/1907747181/libaria_widget_textfield.o
 .debug_info    0x00124e01     0x400a build/pic32mz_da_sk_intddr_meb2/production/_ext/1907747181/libaria_widget_textfield_skin_classic.o
 .debug_info    0x00128e0b     0x3741 build/pic32mz_da_sk_intddr_meb2/production/_ext/1907747181/libaria_widget_touchtest.o
 .debug_info    0x0012c54c     0x3bc0 build/pic32mz_da_sk_intddr_meb2/production/_ext/1907747181/libaria_widget_touchtest_skin_classic.o
 .debug_info    0x0013010c     0x390e build/pic32mz_da_sk_intddr_meb2/production/_ext/1907747181/libaria_widget_window.o
 .debug_info    0x00133a1a     0x4406 build/pic32mz_da_sk_intddr_meb2/production/_ext/1907747181/libaria_widget_window_skin_classic.o
 .debug_info    0x00137e20     0x300c build/pic32mz_da_sk_intddr_meb2/production/_ext/1907747181/libaria_array.o
 .debug_info    0x0013ae2c     0x31eb build/pic32mz_da_sk_intddr_meb2/production/_ext/1907747181/libaria_rectarray.o
 .debug_info    0x0013e017     0x4264 build/pic32mz_da_sk_intddr_meb2/production/_ext/1907747181/libaria_widget_skin_classic_common.o
 .debug_info    0x0014227b     0x2fb7 build/pic32mz_da_sk_intddr_meb2/production/_ext/1907747181/libaria_widget_arc.o
 .debug_info    0x00145232     0x3aaa build/pic32mz_da_sk_intddr_meb2/production/_ext/1907747181/libaria_widget_arc_skin_classic.o
 .debug_info    0x00148cdc     0x454c build/pic32mz_da_sk_intddr_meb2/production/_ext/1907747181/libaria_widget_circular_gauge.o
 .debug_info    0x0014d228     0x49b6 build/pic32mz_da_sk_intddr_meb2/production/_ext/1907747181/libaria_widget_circular_gauge_skin_classic.o
 .debug_info    0x00151bde     0x4160 build/pic32mz_da_sk_intddr_meb2/production/_ext/1907747181/libaria_widget_circular_slider.o
 .debug_info    0x00155d3e     0x41da build/pic32mz_da_sk_intddr_meb2/production/_ext/1907747181/libaria_widget_circular_slider_skin_classic.o
 .debug_info    0x00159f18     0x3ba3 build/pic32mz_da_sk_intddr_meb2/production/_ext/1907747181/libaria_widget_pie_chart.o
 .debug_info    0x0015dabb     0x3f48 build/pic32mz_da_sk_intddr_meb2/production/_ext/1907747181/libaria_widget_pie_chart_skin_classic.o
 .debug_info    0x00161a03     0x4684 build/pic32mz_da_sk_intddr_meb2/production/_ext/1907747181/libaria_widget_bar_graph.o
 .debug_info    0x00166087     0x4f92 build/pic32mz_da_sk_intddr_meb2/production/_ext/1907747181/libaria_widget_bar_graph_skin_classic.o
 .debug_info    0x0016b019     0x4d66 build/pic32mz_da_sk_intddr_meb2/production/_ext/1907747181/libaria_widget_line_graph.o
 .debug_info    0x0016fd7f     0x568d build/pic32mz_da_sk_intddr_meb2/production/_ext/1907747181/libaria_widget_line_graph_skin_classic.o
 .debug_info    0x0017540c     0x3eb3 build/pic32mz_da_sk_intddr_meb2/production/_ext/1907747181/libaria_widget_imageplus.o
 .debug_info    0x001792bf     0x39ce build/pic32mz_da_sk_intddr_meb2/production/_ext/1907747181/libaria_widget_imageplus_skin_classic.o
 .debug_info    0x0017cc8d     0x5d07 build/pic32mz_da_sk_intddr_meb2/production/_ext/1907747181/libaria_widget_radial_menu.o
 .debug_info    0x00182994     0x43cf build/pic32mz_da_sk_intddr_meb2/production/_ext/1907747181/libaria_widget_radial_menu_skin_classic.o
 .debug_info    0x00186d63     0x1eae build/pic32mz_da_sk_intddr_meb2/production/_ext/1597685232/gfxu_image.o
 .debug_info    0x00188c11     0x427a build/pic32mz_da_sk_intddr_meb2/production/_ext/1597685232/gfxu_image_png_external.o
 .debug_info    0x0018ce8b     0x3f44 build/pic32mz_da_sk_intddr_meb2/production/_ext/1597685232/gfxu_image_png_internal.o
 .debug_info    0x00190dcf     0x1fcd build/pic32mz_da_sk_intddr_meb2/production/_ext/1597685232/gfxu_image_jpg_internal.o
 .debug_info    0x00192d9c     0x1e35 build/pic32mz_da_sk_intddr_meb2/production/_ext/1597685232/gfxu_image_raw_external.o
 .debug_info    0x00194bd1     0x1604 build/pic32mz_da_sk_intddr_meb2/production/_ext/1597685232/gfxu_image_raw_internal.o
 .debug_info    0x001961d5     0x2042 build/pic32mz_da_sk_intddr_meb2/production/_ext/1597685232/gfxu_image_rle_external.o
 .debug_info    0x00198217     0x413a build/pic32mz_da_sk_intddr_meb2/production/_ext/1597685232/gfxu_image_rle_internal.o
 .debug_info    0x0019c351     0x17b4 build/pic32mz_da_sk_intddr_meb2/production/_ext/1597685232/gfxu_image_utils.o
 .debug_info    0x0019db05      0xe60 build/pic32mz_da_sk_intddr_meb2/production/_ext/1597685232/gfxu_palette.o
 .debug_info    0x0019e965     0x1ce6 build/pic32mz_da_sk_intddr_meb2/production/_ext/1597685232/gfxu_string.o
 .debug_info    0x001a064b     0x18a9 build/pic32mz_da_sk_intddr_meb2/production/_ext/1597685232/gfxu_string_external.o
 .debug_info    0x001a1ef4     0x1246 build/pic32mz_da_sk_intddr_meb2/production/_ext/1597685232/gfxu_string_internal.o
 .debug_info    0x001a313a     0x1b40 build/pic32mz_da_sk_intddr_meb2/production/_ext/1597685232/gfxu_string_query.o
 .debug_info    0x001a4c7a     0x25b6 build/pic32mz_da_sk_intddr_meb2/production/_ext/1597685232/gfxu_string_utils.o
 .debug_info    0x001a7230     0x28d8 build/pic32mz_da_sk_intddr_meb2/production/_ext/1597685232/gfxu_image_jpg_common.o
 .debug_info    0x001a9b08     0x1b89 build/pic32mz_da_sk_intddr_meb2/production/_ext/1597685232/gfxu_image_jpg_external.o
 .debug_info    0x001ab691     0x1589 build/pic32mz_da_sk_intddr_meb2/production/_ext/1597685232/gfxu_stringbuffer_external.o
 .debug_info    0x001acc1a      0xb22 build/pic32mz_da_sk_intddr_meb2/production/_ext/2137108136/sys_debug.o
 .debug_info    0x001ad73c     0x1aba build/pic32mz_da_sk_intddr_meb2/production/_ext/252650337/sys_input.o
 .debug_info    0x001af1f6     0x1540 build/pic32mz_da_sk_intddr_meb2/production/_ext/252650337/sys_input_listener.o
 .debug_info    0x001b0736     0x2276 build/pic32mz_da_sk_intddr_meb2/production/_ext/1042686532/sys_int_pic32.o
 .debug_info    0x001b29ac      0x558 build/pic32mz_da_sk_intddr_meb2/production/_ext/426253641/jidctint.o
 .debug_info    0x001b2f04     0xcd99 build/pic32mz_da_sk_intddr_meb2/production/_ext/493934858/lodepng.o
 .debug_info    0x001bfc9d     0x26b2 build/pic32mz_da_sk_intddr_meb2/production/_ext/418582516/drv_usart_mapping.o
 .debug_info    0x001c234f     0x52b8 build/pic32mz_da_sk_intddr_meb2/production/_ext/418582516/drv_usart_static.o
 .debug_info    0x001c7607     0x220c build/pic32mz_da_sk_intddr_meb2/production/_ext/418582516/drv_usart_static_byte_model.o
 .debug_info    0x001c9813     0x979a build/pic32mz_da_sk_intddr_meb2/production/_ext/1094895838/drv_gfx_glcd_static.o
 .debug_info    0x001d2fad     0x52da build/pic32mz_da_sk_intddr_meb2/production/_ext/590040425/libaria_harmony.o
 .debug_info    0x001d8287     0x4aac build/pic32mz_da_sk_intddr_meb2/production/_ext/590040425/libaria_init.o
 .debug_info    0x001dcd33     0x14cc build/pic32mz_da_sk_intddr_meb2/production/_ext/590040425/libaria_events.o
 .debug_info    0x001de1ff     0x14cc build/pic32mz_da_sk_intddr_meb2/production/_ext/590040425/libaria_macros.o
 .debug_info    0x001df6cb      0xa04 build/pic32mz_da_sk_intddr_meb2/production/_ext/1719547748/gfx_display_def.o
 .debug_info    0x001e00cf     0x3356 build/pic32mz_da_sk_intddr_meb2/production/_ext/1719547748/gfx_driver_def.o
 .debug_info    0x001e3425      0x7ac build/pic32mz_da_sk_intddr_meb2/production/_ext/1719547748/gfx_processor_def.o
 .debug_info    0x001e3bd1     0x380d build/pic32mz_da_sk_intddr_meb2/production/_ext/370156264/sys_clk_pic32mz.o
 .debug_info    0x001e73de     0x1a73 build/pic32mz_da_sk_intddr_meb2/production/_ext/1796496159/sys_devcon.o
 .debug_info    0x001e8e51     0x14a6 build/pic32mz_da_sk_intddr_meb2/production/_ext/1796496159/sys_devcon_pic32mz.o
 .debug_info    0x001ea2f7     0xa341 build/pic32mz_da_sk_intddr_meb2/production/_ext/730466360/sys_ports_static.o
 .debug_info    0x001f4638     0x1c68 build/pic32mz_da_sk_intddr_meb2/production/_ext/639474099/sys_console_static.o
 .debug_info    0x001f62a0     0x67c9 build/pic32mz_da_sk_intddr_meb2/production/_ext/327666056/sys_memory_ddr_static.o
 .debug_info    0x001fca69      0x14b build/pic32mz_da_sk_intddr_meb2/production/_ext/85614229/sys_memory_static.o
 .debug_info    0x001fcbb4      0x3c8 build/pic32mz_da_sk_intddr_meb2/production/_ext/1547055377/bsp.o
 .debug_info    0x001fcf7c     0x614f build/pic32mz_da_sk_intddr_meb2/production/_ext/1653314881/system_init.o
 .debug_info    0x002030cb     0x3075 build/pic32mz_da_sk_intddr_meb2/production/_ext/1653314881/system_interrupt.o
 .debug_info    0x00206140     0x1ac1 build/pic32mz_da_sk_intddr_meb2/production/_ext/1653314881/general_exception_handler.o
 .debug_info    0x00207c01       0xc8 build/pic32mz_da_sk_intddr_meb2/production/_ext/1653314881/general-exception-context.o
 .debug_info    0x00207cc9     0x1805 build/pic32mz_da_sk_intddr_meb2/production/_ext/1653314881/fassert.o
 .debug_info    0x002094ce     0x18e4 build/pic32mz_da_sk_intddr_meb2/production/_ext/1653314881/system_tasks.o
 .debug_info    0x0020adb2     0x1461 build/pic32mz_da_sk_intddr_meb2/production/_ext/1021385576/gfx_assets.o
 .debug_info    0x0020c213      0x12c f:/software_installations/mplab_xc32/bin/bin/../../lib/gcc/pic32mx/4.8.3\libgcc.a(floatunsisf.o)
 .debug_info    0x0020c33f       0xf2 f:/software_installations/mplab_xc32/bin/bin/../../lib/gcc/pic32mx/4.8.3/../../../../pic32mx/lib\libpic32.a(default-bootstrap-exception-handler.o)
 .debug_info    0x0020c431       0xcb f:/software_installations/mplab_xc32/bin/bin/../../lib/gcc/pic32mx/4.8.3/../../../../pic32mx/lib\libpic32.a(default-on-reset.o)
 .debug_info    0x0020c4fc       0xd3 f:/software_installations/mplab_xc32/bin/bin/../../lib/gcc/pic32mx/4.8.3/../../../../pic32mx/lib\libpic32.a(default-on-bootstrap.o)
 .debug_info    0x0020c5cf       0xe5 f:/software_installations/mplab_xc32/bin/bin/../../lib/gcc/pic32mx/4.8.3/../../../../pic32mx/lib\libpic32.a(defaultinterrupt.o)
 .debug_info    0x0020c6b4       0xf2 f:/software_installations/mplab_xc32/bin/bin/../../lib/gcc/pic32mx/4.8.3/../../../../pic32mx/lib\libpic32.a(default-cache-err-exception-handler.o)
 .debug_info    0x0020c7a6      0x102 f:/software_installations/mplab_xc32/bin/bin/../../lib/gcc/pic32mx/4.8.3/../../../../pic32mx/lib\libpic32.a(default-simple-tlb-refill-exception-handler.o)
 .debug_info    0x0020c8a8      0x762 f:/software_installations/mplab_xc32/bin/bin/../../lib/gcc/pic32mx/4.8.3\libgcc.a(_udivdi3.o)
 .debug_info    0x0020d00a      0x79f f:/software_installations/mplab_xc32/bin/bin/../../lib/gcc/pic32mx/4.8.3\libgcc.a(_umoddi3.o)
 .debug_info    0x0020d7a9      0x12f f:/software_installations/mplab_xc32/bin/bin/../../lib/gcc/pic32mx/4.8.3/../../../../pic32mx/lib\libpic32.a(sbrk.o)
 .debug_info    0x0020d8d8       0xc5 f:/software_installations/mplab_xc32/bin/bin/../../lib/gcc/pic32mx/4.8.3/../../../../pic32mx/lib\libpic32.a(_mon_getc.o)
 .debug_info    0x0020d99d       0xc7 f:/software_installations/mplab_xc32/bin/bin/../../lib/gcc/pic32mx/4.8.3/../../../../pic32mx/lib\libpic32.a(_mon_write.o)
 .debug_info    0x0020da64       0xc5 f:/software_installations/mplab_xc32/bin/bin/../../lib/gcc/pic32mx/4.8.3/../../../../pic32mx/lib\libpic32.a(_mon_putc.o)

.debug_abbrev   0x00000000    0x1c0b9
 *.elf(.debug_abbrev)
 *(.debug_abbrev)
 .debug_abbrev  0x00000000      0x209 build/pic32mz_da_sk_intddr_meb2/production/_ext/1360937237/app.o
 .debug_abbrev  0x00000209       0x93 build/pic32mz_da_sk_intddr_meb2/production/_ext/1360937237/main.o
 .debug_abbrev  0x0000029c      0x4b3 build/pic32mz_da_sk_intddr_meb2/production/_ext/475095144/drv_i2c_bb_a.o
 .debug_abbrev  0x0000074f      0x3c3 build/pic32mz_da_sk_intddr_meb2/production/_ext/475095144/drv_i2c_bb.o
 .debug_abbrev  0x00000b12      0x4aa build/pic32mz_da_sk_intddr_meb2/production/_ext/1177928576/drv_mxt336t.o
 .debug_abbrev  0x00000fbc      0x367 build/pic32mz_da_sk_intddr_meb2/production/_ext/1847583374/gfx.o
 .debug_abbrev  0x00001323       0xd9 build/pic32mz_da_sk_intddr_meb2/production/_ext/1847583374/gfx_color.o
 .debug_abbrev  0x000013fc      0x1c2 build/pic32mz_da_sk_intddr_meb2/production/_ext/1847583374/gfx_context.o
 .debug_abbrev  0x000015be      0x3d0 build/pic32mz_da_sk_intddr_meb2/production/_ext/1847583374/gfx_default_impl.o
 .debug_abbrev  0x0000198e      0x125 build/pic32mz_da_sk_intddr_meb2/production/_ext/1847583374/gfx_display.o
 .debug_abbrev  0x00001ab3      0x1b0 build/pic32mz_da_sk_intddr_meb2/production/_ext/1847583374/gfx_driver_interface.o
 .debug_abbrev  0x00001c63      0x293 build/pic32mz_da_sk_intddr_meb2/production/_ext/1847583374/gfx_get.o
 .debug_abbrev  0x00001ef6       0x9f build/pic32mz_da_sk_intddr_meb2/production/_ext/1847583374/gfx_interface.o
 .debug_abbrev  0x00001f95      0x2a0 build/pic32mz_da_sk_intddr_meb2/production/_ext/1847583374/gfx_layer.o
 .debug_abbrev  0x00002235      0x2dd build/pic32mz_da_sk_intddr_meb2/production/_ext/1847583374/gfx_pixel_buffer.o
 .debug_abbrev  0x00002512      0x16f build/pic32mz_da_sk_intddr_meb2/production/_ext/1847583374/gfx_rect.o
 .debug_abbrev  0x00002681      0x204 build/pic32mz_da_sk_intddr_meb2/production/_ext/1847583374/gfx_util.o
 .debug_abbrev  0x00002885      0x24b build/pic32mz_da_sk_intddr_meb2/production/_ext/1847583374/gfx_set.o
 .debug_abbrev  0x00002ad0      0x16a build/pic32mz_da_sk_intddr_meb2/production/_ext/1847583374/gfx_color_blend.o
 .debug_abbrev  0x00002c3a      0x2b3 build/pic32mz_da_sk_intddr_meb2/production/_ext/1847583374/gfx_color_convert.o
 .debug_abbrev  0x00002eed      0x1e5 build/pic32mz_da_sk_intddr_meb2/production/_ext/1847583374/gfx_color_lerp.o
 .debug_abbrev  0x000030d2      0x111 build/pic32mz_da_sk_intddr_meb2/production/_ext/1847583374/gfx_color_value.o
 .debug_abbrev  0x000031e3      0x2b3 build/pic32mz_da_sk_intddr_meb2/production/_ext/1847583374/gfx_draw_blit.o
 .debug_abbrev  0x00003496      0x292 build/pic32mz_da_sk_intddr_meb2/production/_ext/1847583374/gfx_draw_circle.o
 .debug_abbrev  0x00003728      0x344 build/pic32mz_da_sk_intddr_meb2/production/_ext/1847583374/gfx_draw_line.o
 .debug_abbrev  0x00003a6c      0x284 build/pic32mz_da_sk_intddr_meb2/production/_ext/1847583374/gfx_draw_pixel.o
 .debug_abbrev  0x00003cf0      0x2c4 build/pic32mz_da_sk_intddr_meb2/production/_ext/1847583374/gfx_draw_rect.o
 .debug_abbrev  0x00003fb4      0x1eb build/pic32mz_da_sk_intddr_meb2/production/_ext/1847583374/gfx_math.o
 .debug_abbrev  0x0000419f      0x2ca build/pic32mz_da_sk_intddr_meb2/production/_ext/1847583374/gfx_draw_stretchblit.o
 .debug_abbrev  0x00004469       0xd8 build/pic32mz_da_sk_intddr_meb2/production/_ext/1847583374/gfx_processor_interface.o
 .debug_abbrev  0x00004541      0x34c build/pic32mz_da_sk_intddr_meb2/production/_ext/1847583374/gfx_draw_arc.o
 .debug_abbrev  0x0000488d      0x2a8 build/pic32mz_da_sk_intddr_meb2/production/_ext/1847583374/gfx_draw_ellipse.o
 .debug_abbrev  0x00004b35      0x282 build/pic32mz_da_sk_intddr_meb2/production/_ext/1907747181/libaria.o
 .debug_abbrev  0x00004db7      0x4ae build/pic32mz_da_sk_intddr_meb2/production/_ext/1907747181/libaria_context.o
 .debug_abbrev  0x00005265      0x3b8 build/pic32mz_da_sk_intddr_meb2/production/_ext/1907747181/libaria_context_paint.o
 .debug_abbrev  0x0000561d      0x1ad build/pic32mz_da_sk_intddr_meb2/production/_ext/1907747181/libaria_draw.o
 .debug_abbrev  0x000057ca      0x2c6 build/pic32mz_da_sk_intddr_meb2/production/_ext/1907747181/libaria_editwidget.o
 .debug_abbrev  0x00005a90      0x2dc build/pic32mz_da_sk_intddr_meb2/production/_ext/1907747181/libaria_event.o
 .debug_abbrev  0x00005d6c      0x305 build/pic32mz_da_sk_intddr_meb2/production/_ext/1907747181/libaria_input.o
 .debug_abbrev  0x00006071      0x3f7 build/pic32mz_da_sk_intddr_meb2/production/_ext/1907747181/libaria_layer.o
 .debug_abbrev  0x00006468      0x2d1 build/pic32mz_da_sk_intddr_meb2/production/_ext/1907747181/libaria_list.o
 .debug_abbrev  0x00006739      0x184 build/pic32mz_da_sk_intddr_meb2/production/_ext/1907747181/libaria_scheme.o
 .debug_abbrev  0x000068bd      0x336 build/pic32mz_da_sk_intddr_meb2/production/_ext/1907747181/libaria_screen.o
 .debug_abbrev  0x00006bf3      0x41a build/pic32mz_da_sk_intddr_meb2/production/_ext/1907747181/libaria_string.o
 .debug_abbrev  0x0000700d      0x3f6 build/pic32mz_da_sk_intddr_meb2/production/_ext/1907747181/libaria_utils.o
 .debug_abbrev  0x00007403      0x4a2 build/pic32mz_da_sk_intddr_meb2/production/_ext/1907747181/libaria_widget.o
 .debug_abbrev  0x000078a5      0x254 build/pic32mz_da_sk_intddr_meb2/production/_ext/1907747181/libaria_widget_skin_classic.o
 .debug_abbrev  0x00007af9      0x40d build/pic32mz_da_sk_intddr_meb2/production/_ext/1907747181/libaria_widget_button.o
 .debug_abbrev  0x00007f06      0x367 build/pic32mz_da_sk_intddr_meb2/production/_ext/1907747181/libaria_widget_button_skin_classic.o
 .debug_abbrev  0x0000826d      0x3f8 build/pic32mz_da_sk_intddr_meb2/production/_ext/1907747181/libaria_widget_checkbox.o
 .debug_abbrev  0x00008665      0x385 build/pic32mz_da_sk_intddr_meb2/production/_ext/1907747181/libaria_widget_checkbox_skin_classic.o
 .debug_abbrev  0x000089ea      0x283 build/pic32mz_da_sk_intddr_meb2/production/_ext/1907747181/libaria_widget_circle.o
 .debug_abbrev  0x00008c6d      0x2b2 build/pic32mz_da_sk_intddr_meb2/production/_ext/1907747181/libaria_widget_circle_skin_classic.o
 .debug_abbrev  0x00008f1f      0x283 build/pic32mz_da_sk_intddr_meb2/production/_ext/1907747181/libaria_widget_drawsurface.o
 .debug_abbrev  0x000091a2      0x299 build/pic32mz_da_sk_intddr_meb2/production/_ext/1907747181/libaria_widget_drawsurface_skin_classic.o
 .debug_abbrev  0x0000943b      0x283 build/pic32mz_da_sk_intddr_meb2/production/_ext/1907747181/libaria_widget_gradient.o
 .debug_abbrev  0x000096be      0x2b2 build/pic32mz_da_sk_intddr_meb2/production/_ext/1907747181/libaria_widget_gradient_skin_classic.o
 .debug_abbrev  0x00009970      0x34d build/pic32mz_da_sk_intddr_meb2/production/_ext/1907747181/libaria_widget_groupbox.o
 .debug_abbrev  0x00009cbd      0x33e build/pic32mz_da_sk_intddr_meb2/production/_ext/1907747181/libaria_widget_groupbox_skin_classic.o
 .debug_abbrev  0x00009ffb      0x317 build/pic32mz_da_sk_intddr_meb2/production/_ext/1907747181/libaria_widget_image.o
 .debug_abbrev  0x0000a312      0x2e6 build/pic32mz_da_sk_intddr_meb2/production/_ext/1907747181/libaria_widget_image_skin_classic.o
 .debug_abbrev  0x0000a5f8      0x2fa build/pic32mz_da_sk_intddr_meb2/production/_ext/1907747181/libaria_widget_imagesequence.o
 .debug_abbrev  0x0000a8f2      0x2db build/pic32mz_da_sk_intddr_meb2/production/_ext/1907747181/libaria_widget_imagesequence_skin_classic.o
 .debug_abbrev  0x0000abcd      0x38a build/pic32mz_da_sk_intddr_meb2/production/_ext/1907747181/libaria_widget_keypad.o
 .debug_abbrev  0x0000af57      0x27d build/pic32mz_da_sk_intddr_meb2/production/_ext/1907747181/libaria_widget_keypad_skin_classic.o
 .debug_abbrev  0x0000b1d4      0x32c build/pic32mz_da_sk_intddr_meb2/production/_ext/1907747181/libaria_widget_label.o
 .debug_abbrev  0x0000b500      0x34d build/pic32mz_da_sk_intddr_meb2/production/_ext/1907747181/libaria_widget_label_skin_classic.o
 .debug_abbrev  0x0000b84d      0x2a1 build/pic32mz_da_sk_intddr_meb2/production/_ext/1907747181/libaria_widget_line.o
 .debug_abbrev  0x0000baee      0x2b2 build/pic32mz_da_sk_intddr_meb2/production/_ext/1907747181/libaria_widget_line_skin_classic.o
 .debug_abbrev  0x0000bda0      0x4a9 build/pic32mz_da_sk_intddr_meb2/production/_ext/1907747181/libaria_widget_list.o
 .debug_abbrev  0x0000c249      0x3bc build/pic32mz_da_sk_intddr_meb2/production/_ext/1907747181/libaria_widget_list_skin_classic.o
 .debug_abbrev  0x0000c605      0x4df build/pic32mz_da_sk_intddr_meb2/production/_ext/1907747181/libaria_widget_listwheel.o
 .debug_abbrev  0x0000cae4      0x459 build/pic32mz_da_sk_intddr_meb2/production/_ext/1907747181/libaria_widget_listwheel_skin_classic.o
 .debug_abbrev  0x0000cf3d      0x30b build/pic32mz_da_sk_intddr_meb2/production/_ext/1907747181/libaria_widget_progressbar.o
 .debug_abbrev  0x0000d248      0x2b2 build/pic32mz_da_sk_intddr_meb2/production/_ext/1907747181/libaria_widget_progressbar_skin_classic.o
 .debug_abbrev  0x0000d4fa      0x41d build/pic32mz_da_sk_intddr_meb2/production/_ext/1907747181/libaria_widget_radiobutton.o
 .debug_abbrev  0x0000d917      0x3f0 build/pic32mz_da_sk_intddr_meb2/production/_ext/1907747181/libaria_widget_radiobutton_skin_classic.o
 .debug_abbrev  0x0000dd07      0x2b4 build/pic32mz_da_sk_intddr_meb2/production/_ext/1907747181/libaria_radiobutton_group.o
 .debug_abbrev  0x0000dfbb      0x2d3 build/pic32mz_da_sk_intddr_meb2/production/_ext/1907747181/libaria_widget_rectangle.o
 .debug_abbrev  0x0000e28e      0x2c5 build/pic32mz_da_sk_intddr_meb2/production/_ext/1907747181/libaria_widget_rectangle_skin_classic.o
 .debug_abbrev  0x0000e553      0x38f build/pic32mz_da_sk_intddr_meb2/production/_ext/1907747181/libaria_widget_scrollbar.o
 .debug_abbrev  0x0000e8e2      0x351 build/pic32mz_da_sk_intddr_meb2/production/_ext/1907747181/libaria_widget_scrollbar_skin_classic.o
 .debug_abbrev  0x0000ec33      0x38d build/pic32mz_da_sk_intddr_meb2/production/_ext/1907747181/libaria_widget_slider.o
 .debug_abbrev  0x0000efc0      0x2ce build/pic32mz_da_sk_intddr_meb2/production/_ext/1907747181/libaria_widget_slider_skin_classic.o
 .debug_abbrev  0x0000f28e      0x45e build/pic32mz_da_sk_intddr_meb2/production/_ext/1907747181/libaria_widget_textfield.o
 .debug_abbrev  0x0000f6ec      0x2df build/pic32mz_da_sk_intddr_meb2/production/_ext/1907747181/libaria_widget_textfield_skin_classic.o
 .debug_abbrev  0x0000f9cb      0x2f2 build/pic32mz_da_sk_intddr_meb2/production/_ext/1907747181/libaria_widget_touchtest.o
 .debug_abbrev  0x0000fcbd      0x2f4 build/pic32mz_da_sk_intddr_meb2/production/_ext/1907747181/libaria_widget_touchtest_skin_classic.o
 .debug_abbrev  0x0000ffb1      0x32c build/pic32mz_da_sk_intddr_meb2/production/_ext/1907747181/libaria_widget_window.o
 .debug_abbrev  0x000102dd      0x37c build/pic32mz_da_sk_intddr_meb2/production/_ext/1907747181/libaria_widget_window_skin_classic.o
 .debug_abbrev  0x00010659      0x2a4 build/pic32mz_da_sk_intddr_meb2/production/_ext/1907747181/libaria_array.o
 .debug_abbrev  0x000108fd      0x2db build/pic32mz_da_sk_intddr_meb2/production/_ext/1907747181/libaria_rectarray.o
 .debug_abbrev  0x00010bd8      0x2bf build/pic32mz_da_sk_intddr_meb2/production/_ext/1907747181/libaria_widget_skin_classic_common.o
 .debug_abbrev  0x00010e97      0x292 build/pic32mz_da_sk_intddr_meb2/production/_ext/1907747181/libaria_widget_arc.o
 .debug_abbrev  0x00011129      0x2d7 build/pic32mz_da_sk_intddr_meb2/production/_ext/1907747181/libaria_widget_arc_skin_classic.o
 .debug_abbrev  0x00011400      0x350 build/pic32mz_da_sk_intddr_meb2/production/_ext/1907747181/libaria_widget_circular_gauge.o
 .debug_abbrev  0x00011750      0x38c build/pic32mz_da_sk_intddr_meb2/production/_ext/1907747181/libaria_widget_circular_gauge_skin_classic.o
 .debug_abbrev  0x00011adc      0x40f build/pic32mz_da_sk_intddr_meb2/production/_ext/1907747181/libaria_widget_circular_slider.o
 .debug_abbrev  0x00011eeb      0x329 build/pic32mz_da_sk_intddr_meb2/production/_ext/1907747181/libaria_widget_circular_slider_skin_classic.o
 .debug_abbrev  0x00012214      0x445 build/pic32mz_da_sk_intddr_meb2/production/_ext/1907747181/libaria_widget_pie_chart.o
 .debug_abbrev  0x00012659      0x345 build/pic32mz_da_sk_intddr_meb2/production/_ext/1907747181/libaria_widget_pie_chart_skin_classic.o
 .debug_abbrev  0x0001299e      0x361 build/pic32mz_da_sk_intddr_meb2/production/_ext/1907747181/libaria_widget_bar_graph.o
 .debug_abbrev  0x00012cff      0x43b build/pic32mz_da_sk_intddr_meb2/production/_ext/1907747181/libaria_widget_bar_graph_skin_classic.o
 .debug_abbrev  0x0001313a      0x361 build/pic32mz_da_sk_intddr_meb2/production/_ext/1907747181/libaria_widget_line_graph.o
 .debug_abbrev  0x0001349b      0x421 build/pic32mz_da_sk_intddr_meb2/production/_ext/1907747181/libaria_widget_line_graph_skin_classic.o
 .debug_abbrev  0x000138bc      0x358 build/pic32mz_da_sk_intddr_meb2/production/_ext/1907747181/libaria_widget_imageplus.o
 .debug_abbrev  0x00013c14      0x2c1 build/pic32mz_da_sk_intddr_meb2/production/_ext/1907747181/libaria_widget_imageplus_skin_classic.o
 .debug_abbrev  0x00013ed5      0x48c build/pic32mz_da_sk_intddr_meb2/production/_ext/1907747181/libaria_widget_radial_menu.o
 .debug_abbrev  0x00014361      0x361 build/pic32mz_da_sk_intddr_meb2/production/_ext/1907747181/libaria_widget_radial_menu_skin_classic.o
 .debug_abbrev  0x000146c2      0x233 build/pic32mz_da_sk_intddr_meb2/production/_ext/1597685232/gfxu_image.o
 .debug_abbrev  0x000148f5      0x27b build/pic32mz_da_sk_intddr_meb2/production/_ext/1597685232/gfxu_image_png_external.o
 .debug_abbrev  0x00014b70      0x2c2 build/pic32mz_da_sk_intddr_meb2/production/_ext/1597685232/gfxu_image_png_internal.o
 .debug_abbrev  0x00014e32      0x254 build/pic32mz_da_sk_intddr_meb2/production/_ext/1597685232/gfxu_image_jpg_internal.o
 .debug_abbrev  0x00015086      0x2cb build/pic32mz_da_sk_intddr_meb2/production/_ext/1597685232/gfxu_image_raw_external.o
 .debug_abbrev  0x00015351      0x245 build/pic32mz_da_sk_intddr_meb2/production/_ext/1597685232/gfxu_image_raw_internal.o
 .debug_abbrev  0x00015596      0x323 build/pic32mz_da_sk_intddr_meb2/production/_ext/1597685232/gfxu_image_rle_external.o
 .debug_abbrev  0x000158b9      0x2cb build/pic32mz_da_sk_intddr_meb2/production/_ext/1597685232/gfxu_image_rle_internal.o
 .debug_abbrev  0x00015b84      0x212 build/pic32mz_da_sk_intddr_meb2/production/_ext/1597685232/gfxu_image_utils.o
 .debug_abbrev  0x00015d96      0x139 build/pic32mz_da_sk_intddr_meb2/production/_ext/1597685232/gfxu_palette.o
 .debug_abbrev  0x00015ecf      0x215 build/pic32mz_da_sk_intddr_meb2/production/_ext/1597685232/gfxu_string.o
 .debug_abbrev  0x000160e4      0x2eb build/pic32mz_da_sk_intddr_meb2/production/_ext/1597685232/gfxu_string_external.o
 .debug_abbrev  0x000163cf      0x1bc build/pic32mz_da_sk_intddr_meb2/production/_ext/1597685232/gfxu_string_internal.o
 .debug_abbrev  0x0001658b      0x2cc build/pic32mz_da_sk_intddr_meb2/production/_ext/1597685232/gfxu_string_query.o
 .debug_abbrev  0x00016857      0x32a build/pic32mz_da_sk_intddr_meb2/production/_ext/1597685232/gfxu_string_utils.o
 .debug_abbrev  0x00016b81      0x3f8 build/pic32mz_da_sk_intddr_meb2/production/_ext/1597685232/gfxu_image_jpg_common.o
 .debug_abbrev  0x00016f79      0x234 build/pic32mz_da_sk_intddr_meb2/production/_ext/1597685232/gfxu_image_jpg_external.o
 .debug_abbrev  0x000171ad      0x2d3 build/pic32mz_da_sk_intddr_meb2/production/_ext/1597685232/gfxu_stringbuffer_external.o
 .debug_abbrev  0x00017480      0x29c build/pic32mz_da_sk_intddr_meb2/production/_ext/2137108136/sys_debug.o
 .debug_abbrev  0x0001771c      0x1df build/pic32mz_da_sk_intddr_meb2/production/_ext/252650337/sys_input.o
 .debug_abbrev  0x000178fb       0xc5 build/pic32mz_da_sk_intddr_meb2/production/_ext/252650337/sys_input_listener.o
 .debug_abbrev  0x000179c0      0x223 build/pic32mz_da_sk_intddr_meb2/production/_ext/1042686532/sys_int_pic32.o
 .debug_abbrev  0x00017be3       0xb1 build/pic32mz_da_sk_intddr_meb2/production/_ext/426253641/jidctint.o
 .debug_abbrev  0x00017c94      0x520 build/pic32mz_da_sk_intddr_meb2/production/_ext/493934858/lodepng.o
 .debug_abbrev  0x000181b4      0x2fc build/pic32mz_da_sk_intddr_meb2/production/_ext/418582516/drv_usart_mapping.o
 .debug_abbrev  0x000184b0      0x42f build/pic32mz_da_sk_intddr_meb2/production/_ext/418582516/drv_usart_static.o
 .debug_abbrev  0x000188df      0x2c8 build/pic32mz_da_sk_intddr_meb2/production/_ext/418582516/drv_usart_static_byte_model.o
 .debug_abbrev  0x00018ba7      0x581 build/pic32mz_da_sk_intddr_meb2/production/_ext/1094895838/drv_gfx_glcd_static.o
 .debug_abbrev  0x00019128      0x30c build/pic32mz_da_sk_intddr_meb2/production/_ext/590040425/libaria_harmony.o
 .debug_abbrev  0x00019434      0x316 build/pic32mz_da_sk_intddr_meb2/production/_ext/590040425/libaria_init.o
 .debug_abbrev  0x0001974a      0x169 build/pic32mz_da_sk_intddr_meb2/production/_ext/590040425/libaria_events.o
 .debug_abbrev  0x000198b3      0x169 build/pic32mz_da_sk_intddr_meb2/production/_ext/590040425/libaria_macros.o
 .debug_abbrev  0x00019a1c       0xda build/pic32mz_da_sk_intddr_meb2/production/_ext/1719547748/gfx_display_def.o
 .debug_abbrev  0x00019af6      0x197 build/pic32mz_da_sk_intddr_meb2/production/_ext/1719547748/gfx_driver_def.o
 .debug_abbrev  0x00019c8d       0xf8 build/pic32mz_da_sk_intddr_meb2/production/_ext/1719547748/gfx_processor_def.o
 .debug_abbrev  0x00019d85      0x372 build/pic32mz_da_sk_intddr_meb2/production/_ext/370156264/sys_clk_pic32mz.o
 .debug_abbrev  0x0001a0f7      0x2c2 build/pic32mz_da_sk_intddr_meb2/production/_ext/1796496159/sys_devcon.o
 .debug_abbrev  0x0001a3b9      0x290 build/pic32mz_da_sk_intddr_meb2/production/_ext/1796496159/sys_devcon_pic32mz.o
 .debug_abbrev  0x0001a649      0x2be build/pic32mz_da_sk_intddr_meb2/production/_ext/730466360/sys_ports_static.o
 .debug_abbrev  0x0001a907      0x2be build/pic32mz_da_sk_intddr_meb2/production/_ext/639474099/sys_console_static.o
 .debug_abbrev  0x0001abc5      0x258 build/pic32mz_da_sk_intddr_meb2/production/_ext/327666056/sys_memory_ddr_static.o
 .debug_abbrev  0x0001ae1d       0x4c build/pic32mz_da_sk_intddr_meb2/production/_ext/85614229/sys_memory_static.o
 .debug_abbrev  0x0001ae69       0x5e build/pic32mz_da_sk_intddr_meb2/production/_ext/1547055377/bsp.o
 .debug_abbrev  0x0001aec7      0x39d build/pic32mz_da_sk_intddr_meb2/production/_ext/1653314881/system_init.o
 .debug_abbrev  0x0001b264      0x25d build/pic32mz_da_sk_intddr_meb2/production/_ext/1653314881/system_interrupt.o
 .debug_abbrev  0x0001b4c1      0x20f build/pic32mz_da_sk_intddr_meb2/production/_ext/1653314881/general_exception_handler.o
 .debug_abbrev  0x0001b6d0       0x14 build/pic32mz_da_sk_intddr_meb2/production/_ext/1653314881/general-exception-context.o
 .debug_abbrev  0x0001b6e4      0x200 build/pic32mz_da_sk_intddr_meb2/production/_ext/1653314881/fassert.o
 .debug_abbrev  0x0001b8e4      0x1f5 build/pic32mz_da_sk_intddr_meb2/production/_ext/1653314881/system_tasks.o
 .debug_abbrev  0x0001bad9      0x143 build/pic32mz_da_sk_intddr_meb2/production/_ext/1021385576/gfx_assets.o
 .debug_abbrev  0x0001bc1c       0x62 f:/software_installations/mplab_xc32/bin/bin/../../lib/gcc/pic32mx/4.8.3\libgcc.a(floatunsisf.o)
 .debug_abbrev  0x0001bc7e       0x28 f:/software_installations/mplab_xc32/bin/bin/../../lib/gcc/pic32mx/4.8.3/../../../../pic32mx/lib\libpic32.a(default-bootstrap-exception-handler.o)
 .debug_abbrev  0x0001bca6       0x28 f:/software_installations/mplab_xc32/bin/bin/../../lib/gcc/pic32mx/4.8.3/../../../../pic32mx/lib\libpic32.a(default-on-reset.o)
 .debug_abbrev  0x0001bcce       0x28 f:/software_installations/mplab_xc32/bin/bin/../../lib/gcc/pic32mx/4.8.3/../../../../pic32mx/lib\libpic32.a(default-on-bootstrap.o)
 .debug_abbrev  0x0001bcf6       0x28 f:/software_installations/mplab_xc32/bin/bin/../../lib/gcc/pic32mx/4.8.3/../../../../pic32mx/lib\libpic32.a(defaultinterrupt.o)
 .debug_abbrev  0x0001bd1e       0x28 f:/software_installations/mplab_xc32/bin/bin/../../lib/gcc/pic32mx/4.8.3/../../../../pic32mx/lib\libpic32.a(default-cache-err-exception-handler.o)
 .debug_abbrev  0x0001bd46       0x28 f:/software_installations/mplab_xc32/bin/bin/../../lib/gcc/pic32mx/4.8.3/../../../../pic32mx/lib\libpic32.a(default-simple-tlb-refill-exception-handler.o)
 .debug_abbrev  0x0001bd6e      0x138 f:/software_installations/mplab_xc32/bin/bin/../../lib/gcc/pic32mx/4.8.3\libgcc.a(_udivdi3.o)
 .debug_abbrev  0x0001bea6      0x147 f:/software_installations/mplab_xc32/bin/bin/../../lib/gcc/pic32mx/4.8.3\libgcc.a(_umoddi3.o)
 .debug_abbrev  0x0001bfed       0x54 f:/software_installations/mplab_xc32/bin/bin/../../lib/gcc/pic32mx/4.8.3/../../../../pic32mx/lib\libpic32.a(sbrk.o)
 .debug_abbrev  0x0001c041       0x28 f:/software_installations/mplab_xc32/bin/bin/../../lib/gcc/pic32mx/4.8.3/../../../../pic32mx/lib\libpic32.a(_mon_getc.o)
 .debug_abbrev  0x0001c069       0x28 f:/software_installations/mplab_xc32/bin/bin/../../lib/gcc/pic32mx/4.8.3/../../../../pic32mx/lib\libpic32.a(_mon_write.o)
 .debug_abbrev  0x0001c091       0x28 f:/software_installations/mplab_xc32/bin/bin/../../lib/gcc/pic32mx/4.8.3/../../../../pic32mx/lib\libpic32.a(_mon_putc.o)

.debug_line     0x00000000    0x33d49
 *.elf(.debug_line)
 *(.debug_line)
 .debug_line    0x00000000      0x28f build/pic32mz_da_sk_intddr_meb2/production/_ext/1360937237/app.o
 .debug_line    0x0000028f       0xc7 build/pic32mz_da_sk_intddr_meb2/production/_ext/1360937237/main.o
 .debug_line    0x00000356     0x150c build/pic32mz_da_sk_intddr_meb2/production/_ext/475095144/drv_i2c_bb_a.o
 .debug_line    0x00001862      0xa82 build/pic32mz_da_sk_intddr_meb2/production/_ext/475095144/drv_i2c_bb.o
 .debug_line    0x000022e4      0x732 build/pic32mz_da_sk_intddr_meb2/production/_ext/1177928576/drv_mxt336t.o
 .debug_line    0x00002a16      0x47b build/pic32mz_da_sk_intddr_meb2/production/_ext/1847583374/gfx.o
 .debug_line    0x00002e91      0x1b6 build/pic32mz_da_sk_intddr_meb2/production/_ext/1847583374/gfx_color.o
 .debug_line    0x00003047      0x240 build/pic32mz_da_sk_intddr_meb2/production/_ext/1847583374/gfx_context.o
 .debug_line    0x00003287      0xbae build/pic32mz_da_sk_intddr_meb2/production/_ext/1847583374/gfx_default_impl.o
 .debug_line    0x00003e35      0x17c build/pic32mz_da_sk_intddr_meb2/production/_ext/1847583374/gfx_display.o
 .debug_line    0x00003fb1      0x26a build/pic32mz_da_sk_intddr_meb2/production/_ext/1847583374/gfx_driver_interface.o
 .debug_line    0x0000421b      0x60c build/pic32mz_da_sk_intddr_meb2/production/_ext/1847583374/gfx_get.o
 .debug_line    0x00004827      0x1a9 build/pic32mz_da_sk_intddr_meb2/production/_ext/1847583374/gfx_interface.o
 .debug_line    0x000049d0      0x378 build/pic32mz_da_sk_intddr_meb2/production/_ext/1847583374/gfx_layer.o
 .debug_line    0x00004d48      0x4e9 build/pic32mz_da_sk_intddr_meb2/production/_ext/1847583374/gfx_pixel_buffer.o
 .debug_line    0x00005231      0x2a9 build/pic32mz_da_sk_intddr_meb2/production/_ext/1847583374/gfx_rect.o
 .debug_line    0x000054da      0x300 build/pic32mz_da_sk_intddr_meb2/production/_ext/1847583374/gfx_util.o
 .debug_line    0x000057da      0x587 build/pic32mz_da_sk_intddr_meb2/production/_ext/1847583374/gfx_set.o
 .debug_line    0x00005d61      0x1cb build/pic32mz_da_sk_intddr_meb2/production/_ext/1847583374/gfx_color_blend.o
 .debug_line    0x00005f2c      0x6f6 build/pic32mz_da_sk_intddr_meb2/production/_ext/1847583374/gfx_color_convert.o
 .debug_line    0x00006622      0x284 build/pic32mz_da_sk_intddr_meb2/production/_ext/1847583374/gfx_color_lerp.o
 .debug_line    0x000068a6      0x173 build/pic32mz_da_sk_intddr_meb2/production/_ext/1847583374/gfx_color_value.o
 .debug_line    0x00006a19      0x329 build/pic32mz_da_sk_intddr_meb2/production/_ext/1847583374/gfx_draw_blit.o
 .debug_line    0x00006d42      0x281 build/pic32mz_da_sk_intddr_meb2/production/_ext/1847583374/gfx_draw_circle.o
 .debug_line    0x00006fc3      0x380 build/pic32mz_da_sk_intddr_meb2/production/_ext/1847583374/gfx_draw_line.o
 .debug_line    0x00007343      0x2a5 build/pic32mz_da_sk_intddr_meb2/production/_ext/1847583374/gfx_draw_pixel.o
 .debug_line    0x000075e8      0x387 build/pic32mz_da_sk_intddr_meb2/production/_ext/1847583374/gfx_draw_rect.o
 .debug_line    0x0000796f      0x371 build/pic32mz_da_sk_intddr_meb2/production/_ext/1847583374/gfx_math.o
 .debug_line    0x00007ce0      0x338 build/pic32mz_da_sk_intddr_meb2/production/_ext/1847583374/gfx_draw_stretchblit.o
 .debug_line    0x00008018      0x122 build/pic32mz_da_sk_intddr_meb2/production/_ext/1847583374/gfx_processor_interface.o
 .debug_line    0x0000813a      0x492 build/pic32mz_da_sk_intddr_meb2/production/_ext/1847583374/gfx_draw_arc.o
 .debug_line    0x000085cc      0x29e build/pic32mz_da_sk_intddr_meb2/production/_ext/1847583374/gfx_draw_ellipse.o
 .debug_line    0x0000886a      0x3ec build/pic32mz_da_sk_intddr_meb2/production/_ext/1907747181/libaria.o
 .debug_line    0x00008c56      0x799 build/pic32mz_da_sk_intddr_meb2/production/_ext/1907747181/libaria_context.o
 .debug_line    0x000093ef      0x51c build/pic32mz_da_sk_intddr_meb2/production/_ext/1907747181/libaria_context_paint.o
 .debug_line    0x0000990b      0x264 build/pic32mz_da_sk_intddr_meb2/production/_ext/1907747181/libaria_draw.o
 .debug_line    0x00009b6f      0x405 build/pic32mz_da_sk_intddr_meb2/production/_ext/1907747181/libaria_editwidget.o
 .debug_line    0x00009f74      0x3f0 build/pic32mz_da_sk_intddr_meb2/production/_ext/1907747181/libaria_event.o
 .debug_line    0x0000a364      0x56f build/pic32mz_da_sk_intddr_meb2/production/_ext/1907747181/libaria_input.o
 .debug_line    0x0000a8d3      0x793 build/pic32mz_da_sk_intddr_meb2/production/_ext/1907747181/libaria_layer.o
 .debug_line    0x0000b066      0x51b build/pic32mz_da_sk_intddr_meb2/production/_ext/1907747181/libaria_list.o
 .debug_line    0x0000b581      0x1ee build/pic32mz_da_sk_intddr_meb2/production/_ext/1907747181/libaria_scheme.o
 .debug_line    0x0000b76f      0x59b build/pic32mz_da_sk_intddr_meb2/production/_ext/1907747181/libaria_screen.o
 .debug_line    0x0000bd0a      0x84c build/pic32mz_da_sk_intddr_meb2/production/_ext/1907747181/libaria_string.o
 .debug_line    0x0000c556      0x768 build/pic32mz_da_sk_intddr_meb2/production/_ext/1907747181/libaria_utils.o
 .debug_line    0x0000ccbe      0xa91 build/pic32mz_da_sk_intddr_meb2/production/_ext/1907747181/libaria_widget.o
 .debug_line    0x0000d74f      0x3f0 build/pic32mz_da_sk_intddr_meb2/production/_ext/1907747181/libaria_widget_skin_classic.o
 .debug_line    0x0000db3f      0x756 build/pic32mz_da_sk_intddr_meb2/production/_ext/1907747181/libaria_widget_button.o
 .debug_line    0x0000e295      0x659 build/pic32mz_da_sk_intddr_meb2/production/_ext/1907747181/libaria_widget_button_skin_classic.o
 .debug_line    0x0000e8ee      0x6b8 build/pic32mz_da_sk_intddr_meb2/production/_ext/1907747181/libaria_widget_checkbox.o
 .debug_line    0x0000efa6      0x5f1 build/pic32mz_da_sk_intddr_meb2/production/_ext/1907747181/libaria_widget_checkbox_skin_classic.o
 .debug_line    0x0000f597      0x43e build/pic32mz_da_sk_intddr_meb2/production/_ext/1907747181/libaria_widget_circle.o
 .debug_line    0x0000f9d5      0x4e1 build/pic32mz_da_sk_intddr_meb2/production/_ext/1907747181/libaria_widget_circle_skin_classic.o
 .debug_line    0x0000feb6      0x417 build/pic32mz_da_sk_intddr_meb2/production/_ext/1907747181/libaria_widget_drawsurface.o
 .debug_line    0x000102cd      0x46e build/pic32mz_da_sk_intddr_meb2/production/_ext/1907747181/libaria_widget_drawsurface_skin_classic.o
 .debug_line    0x0001073b      0x412 build/pic32mz_da_sk_intddr_meb2/production/_ext/1907747181/libaria_widget_gradient.o
 .debug_line    0x00010b4d      0x4d7 build/pic32mz_da_sk_intddr_meb2/production/_ext/1907747181/libaria_widget_gradient_skin_classic.o
 .debug_line    0x00011024      0x49d build/pic32mz_da_sk_intddr_meb2/production/_ext/1907747181/libaria_widget_groupbox.o
 .debug_line    0x000114c1      0x58d build/pic32mz_da_sk_intddr_meb2/production/_ext/1907747181/libaria_widget_groupbox_skin_classic.o
 .debug_line    0x00011a4e      0x507 build/pic32mz_da_sk_intddr_meb2/production/_ext/1907747181/libaria_widget_image.o
 .debug_line    0x00011f55      0x50a build/pic32mz_da_sk_intddr_meb2/production/_ext/1907747181/libaria_widget_image_skin_classic.o
 .debug_line    0x0001245f      0x63b build/pic32mz_da_sk_intddr_meb2/production/_ext/1907747181/libaria_widget_imagesequence.o
 .debug_line    0x00012a9a      0x512 build/pic32mz_da_sk_intddr_meb2/production/_ext/1907747181/libaria_widget_imagesequence_skin_classic.o
 .debug_line    0x00012fac      0x6f8 build/pic32mz_da_sk_intddr_meb2/production/_ext/1907747181/libaria_widget_keypad.o
 .debug_line    0x000136a4      0x44b build/pic32mz_da_sk_intddr_meb2/production/_ext/1907747181/libaria_widget_keypad_skin_classic.o
 .debug_line    0x00013aef      0x4d7 build/pic32mz_da_sk_intddr_meb2/production/_ext/1907747181/libaria_widget_label.o
 .debug_line    0x00013fc6      0x58b build/pic32mz_da_sk_intddr_meb2/production/_ext/1907747181/libaria_widget_label_skin_classic.o
 .debug_line    0x00014551      0x439 build/pic32mz_da_sk_intddr_meb2/production/_ext/1907747181/libaria_widget_line.o
 .debug_line    0x0001498a      0x4e5 build/pic32mz_da_sk_intddr_meb2/production/_ext/1907747181/libaria_widget_line_skin_classic.o
 .debug_line    0x00014e6f      0x909 build/pic32mz_da_sk_intddr_meb2/production/_ext/1907747181/libaria_widget_list.o
 .debug_line    0x00015778      0x6ce build/pic32mz_da_sk_intddr_meb2/production/_ext/1907747181/libaria_widget_list_skin_classic.o
 .debug_line    0x00015e46      0x9c4 build/pic32mz_da_sk_intddr_meb2/production/_ext/1907747181/libaria_widget_listwheel.o
 .debug_line    0x0001680a      0x7ee build/pic32mz_da_sk_intddr_meb2/production/_ext/1907747181/libaria_widget_listwheel_skin_classic.o
 .debug_line    0x00016ff8      0x4b7 build/pic32mz_da_sk_intddr_meb2/production/_ext/1907747181/libaria_widget_progressbar.o
 .debug_line    0x000174af      0x527 build/pic32mz_da_sk_intddr_meb2/production/_ext/1907747181/libaria_widget_progressbar_skin_classic.o
 .debug_line    0x000179d6      0x731 build/pic32mz_da_sk_intddr_meb2/production/_ext/1907747181/libaria_widget_radiobutton.o
 .debug_line    0x00018107      0x67d build/pic32mz_da_sk_intddr_meb2/production/_ext/1907747181/libaria_widget_radiobutton_skin_classic.o
 .debug_line    0x00018784      0x474 build/pic32mz_da_sk_intddr_meb2/production/_ext/1907747181/libaria_radiobutton_group.o
 .debug_line    0x00018bf8      0x406 build/pic32mz_da_sk_intddr_meb2/production/_ext/1907747181/libaria_widget_rectangle.o
 .debug_line    0x00018ffe      0x531 build/pic32mz_da_sk_intddr_meb2/production/_ext/1907747181/libaria_widget_rectangle_skin_classic.o
 .debug_line    0x0001952f      0x6dd build/pic32mz_da_sk_intddr_meb2/production/_ext/1907747181/libaria_widget_scrollbar.o
 .debug_line    0x00019c0c      0x607 build/pic32mz_da_sk_intddr_meb2/production/_ext/1907747181/libaria_widget_scrollbar_skin_classic.o
 .debug_line    0x0001a213      0x65b build/pic32mz_da_sk_intddr_meb2/production/_ext/1907747181/libaria_widget_slider.o
 .debug_line    0x0001a86e      0x500 build/pic32mz_da_sk_intddr_meb2/production/_ext/1907747181/libaria_widget_slider_skin_classic.o
 .debug_line    0x0001ad6e      0x6c5 build/pic32mz_da_sk_intddr_meb2/production/_ext/1907747181/libaria_widget_textfield.o
 .debug_line    0x0001b433      0x565 build/pic32mz_da_sk_intddr_meb2/production/_ext/1907747181/libaria_widget_textfield_skin_classic.o
 .debug_line    0x0001b998      0x4f5 build/pic32mz_da_sk_intddr_meb2/production/_ext/1907747181/libaria_widget_touchtest.o
 .debug_line    0x0001be8d      0x52b build/pic32mz_da_sk_intddr_meb2/production/_ext/1907747181/libaria_widget_touchtest_skin_classic.o
 .debug_line    0x0001c3b8      0x50a build/pic32mz_da_sk_intddr_meb2/production/_ext/1907747181/libaria_widget_window.o
 .debug_line    0x0001c8c2      0x5e1 build/pic32mz_da_sk_intddr_meb2/production/_ext/1907747181/libaria_widget_window_skin_classic.o
 .debug_line    0x0001cea3      0x521 build/pic32mz_da_sk_intddr_meb2/production/_ext/1907747181/libaria_array.o
 .debug_line    0x0001d3c4      0x574 build/pic32mz_da_sk_intddr_meb2/production/_ext/1907747181/libaria_rectarray.o
 .debug_line    0x0001d938      0x64c build/pic32mz_da_sk_intddr_meb2/production/_ext/1907747181/libaria_widget_skin_classic_common.o
 .debug_line    0x0001df84      0x4c9 build/pic32mz_da_sk_intddr_meb2/production/_ext/1907747181/libaria_widget_arc.o
 .debug_line    0x0001e44d      0x51e build/pic32mz_da_sk_intddr_meb2/production/_ext/1907747181/libaria_widget_arc_skin_classic.o
 .debug_line    0x0001e96b      0x865 build/pic32mz_da_sk_intddr_meb2/production/_ext/1907747181/libaria_widget_circular_gauge.o
 .debug_line    0x0001f1d0      0x69e build/pic32mz_da_sk_intddr_meb2/production/_ext/1907747181/libaria_widget_circular_gauge_skin_classic.o
 .debug_line    0x0001f86e      0x836 build/pic32mz_da_sk_intddr_meb2/production/_ext/1907747181/libaria_widget_circular_slider.o
 .debug_line    0x000200a4      0x55e build/pic32mz_da_sk_intddr_meb2/production/_ext/1907747181/libaria_widget_circular_slider_skin_classic.o
 .debug_line    0x00020602      0x6d5 build/pic32mz_da_sk_intddr_meb2/production/_ext/1907747181/libaria_widget_pie_chart.o
 .debug_line    0x00020cd7      0x5a6 build/pic32mz_da_sk_intddr_meb2/production/_ext/1907747181/libaria_widget_pie_chart_skin_classic.o
 .debug_line    0x0002127d      0x875 build/pic32mz_da_sk_intddr_meb2/production/_ext/1907747181/libaria_widget_bar_graph.o
 .debug_line    0x00021af2      0x794 build/pic32mz_da_sk_intddr_meb2/production/_ext/1907747181/libaria_widget_bar_graph_skin_classic.o
 .debug_line    0x00022286      0x98b build/pic32mz_da_sk_intddr_meb2/production/_ext/1907747181/libaria_widget_line_graph.o
 .debug_line    0x00022c11      0x8db build/pic32mz_da_sk_intddr_meb2/production/_ext/1907747181/libaria_widget_line_graph_skin_classic.o
 .debug_line    0x000234ec      0x69b build/pic32mz_da_sk_intddr_meb2/production/_ext/1907747181/libaria_widget_imageplus.o
 .debug_line    0x00023b87      0x54b build/pic32mz_da_sk_intddr_meb2/production/_ext/1907747181/libaria_widget_imageplus_skin_classic.o
 .debug_line    0x000240d2      0x9ab build/pic32mz_da_sk_intddr_meb2/production/_ext/1907747181/libaria_widget_radial_menu.o
 .debug_line    0x00024a7d      0x58f build/pic32mz_da_sk_intddr_meb2/production/_ext/1907747181/libaria_widget_radial_menu_skin_classic.o
 .debug_line    0x0002500c      0x312 build/pic32mz_da_sk_intddr_meb2/production/_ext/1597685232/gfxu_image.o
 .debug_line    0x0002531e      0x36e build/pic32mz_da_sk_intddr_meb2/production/_ext/1597685232/gfxu_image_png_external.o
 .debug_line    0x0002568c      0x398 build/pic32mz_da_sk_intddr_meb2/production/_ext/1597685232/gfxu_image_png_internal.o
 .debug_line    0x00025a24      0x308 build/pic32mz_da_sk_intddr_meb2/production/_ext/1597685232/gfxu_image_jpg_internal.o
 .debug_line    0x00025d2c      0x37e build/pic32mz_da_sk_intddr_meb2/production/_ext/1597685232/gfxu_image_raw_external.o
 .debug_line    0x000260aa      0x28e build/pic32mz_da_sk_intddr_meb2/production/_ext/1597685232/gfxu_image_raw_internal.o
 .debug_line    0x00026338      0x3c6 build/pic32mz_da_sk_intddr_meb2/production/_ext/1597685232/gfxu_image_rle_external.o
 .debug_line    0x000266fe      0x356 build/pic32mz_da_sk_intddr_meb2/production/_ext/1597685232/gfxu_image_rle_internal.o
 .debug_line    0x00026a54      0x35b build/pic32mz_da_sk_intddr_meb2/production/_ext/1597685232/gfxu_image_utils.o
 .debug_line    0x00026daf      0x21d build/pic32mz_da_sk_intddr_meb2/production/_ext/1597685232/gfxu_palette.o
 .debug_line    0x00026fcc      0x320 build/pic32mz_da_sk_intddr_meb2/production/_ext/1597685232/gfxu_string.o
 .debug_line    0x000272ec      0x305 build/pic32mz_da_sk_intddr_meb2/production/_ext/1597685232/gfxu_string_external.o
 .debug_line    0x000275f1      0x271 build/pic32mz_da_sk_intddr_meb2/production/_ext/1597685232/gfxu_string_internal.o
 .debug_line    0x00027862      0x406 build/pic32mz_da_sk_intddr_meb2/production/_ext/1597685232/gfxu_string_query.o
 .debug_line    0x00027c68      0x529 build/pic32mz_da_sk_intddr_meb2/production/_ext/1597685232/gfxu_string_utils.o
 .debug_line    0x00028191      0x5c1 build/pic32mz_da_sk_intddr_meb2/production/_ext/1597685232/gfxu_image_jpg_common.o
 .debug_line    0x00028752      0x2c2 build/pic32mz_da_sk_intddr_meb2/production/_ext/1597685232/gfxu_image_jpg_external.o
 .debug_line    0x00028a14      0x310 build/pic32mz_da_sk_intddr_meb2/production/_ext/1597685232/gfxu_stringbuffer_external.o
 .debug_line    0x00028d24      0x365 build/pic32mz_da_sk_intddr_meb2/production/_ext/2137108136/sys_debug.o
 .debug_line    0x00029089      0x30f build/pic32mz_da_sk_intddr_meb2/production/_ext/252650337/sys_input.o
 .debug_line    0x00029398      0x213 build/pic32mz_da_sk_intddr_meb2/production/_ext/252650337/sys_input_listener.o
 .debug_line    0x000295ab      0x2e2 build/pic32mz_da_sk_intddr_meb2/production/_ext/1042686532/sys_int_pic32.o
 .debug_line    0x0002988d      0x1d3 build/pic32mz_da_sk_intddr_meb2/production/_ext/426253641/jidctint.o
 .debug_line    0x00029a60     0x1d11 build/pic32mz_da_sk_intddr_meb2/production/_ext/493934858/lodepng.o
 .debug_line    0x0002b771      0x55c build/pic32mz_da_sk_intddr_meb2/production/_ext/418582516/drv_usart_mapping.o
 .debug_line    0x0002bccd      0x813 build/pic32mz_da_sk_intddr_meb2/production/_ext/418582516/drv_usart_static.o
 .debug_line    0x0002c4e0      0x3de build/pic32mz_da_sk_intddr_meb2/production/_ext/418582516/drv_usart_static_byte_model.o
 .debug_line    0x0002c8be      0xc29 build/pic32mz_da_sk_intddr_meb2/production/_ext/1094895838/drv_gfx_glcd_static.o
 .debug_line    0x0002d4e7      0x63e build/pic32mz_da_sk_intddr_meb2/production/_ext/590040425/libaria_harmony.o
 .debug_line    0x0002db25      0x5c9 build/pic32mz_da_sk_intddr_meb2/production/_ext/590040425/libaria_init.o
 .debug_line    0x0002e0ee      0x122 build/pic32mz_da_sk_intddr_meb2/production/_ext/590040425/libaria_events.o
 .debug_line    0x0002e210      0x122 build/pic32mz_da_sk_intddr_meb2/production/_ext/590040425/libaria_macros.o
 .debug_line    0x0002e332      0x1ba build/pic32mz_da_sk_intddr_meb2/production/_ext/1719547748/gfx_display_def.o
 .debug_line    0x0002e4ec      0x28a build/pic32mz_da_sk_intddr_meb2/production/_ext/1719547748/gfx_driver_def.o
 .debug_line    0x0002e776      0x1c7 build/pic32mz_da_sk_intddr_meb2/production/_ext/1719547748/gfx_processor_def.o
 .debug_line    0x0002e93d      0x7d9 build/pic32mz_da_sk_intddr_meb2/production/_ext/370156264/sys_clk_pic32mz.o
 .debug_line    0x0002f116      0x686 build/pic32mz_da_sk_intddr_meb2/production/_ext/1796496159/sys_devcon.o
 .debug_line    0x0002f79c      0x5b8 build/pic32mz_da_sk_intddr_meb2/production/_ext/1796496159/sys_devcon_pic32mz.o
 .debug_line    0x0002fd54      0xb83 build/pic32mz_da_sk_intddr_meb2/production/_ext/730466360/sys_ports_static.o
 .debug_line    0x000308d7      0x4d1 build/pic32mz_da_sk_intddr_meb2/production/_ext/639474099/sys_console_static.o
 .debug_line    0x00030da8      0x776 build/pic32mz_da_sk_intddr_meb2/production/_ext/327666056/sys_memory_ddr_static.o
 .debug_line    0x0003151e      0x175 build/pic32mz_da_sk_intddr_meb2/production/_ext/85614229/sys_memory_static.o
 .debug_line    0x00031693      0x14a build/pic32mz_da_sk_intddr_meb2/production/_ext/1547055377/bsp.o
 .debug_line    0x000317dd      0xad7 build/pic32mz_da_sk_intddr_meb2/production/_ext/1653314881/system_init.o
 .debug_line    0x000322b4      0x480 build/pic32mz_da_sk_intddr_meb2/production/_ext/1653314881/system_interrupt.o
 .debug_line    0x00032734      0x2b0 build/pic32mz_da_sk_intddr_meb2/production/_ext/1653314881/general_exception_handler.o
 .debug_line    0x000329e4       0xbe build/pic32mz_da_sk_intddr_meb2/production/_ext/1653314881/general-exception-context.o
 .debug_line    0x00032aa2      0x2e1 build/pic32mz_da_sk_intddr_meb2/production/_ext/1653314881/fassert.o
 .debug_line    0x00032d83      0x50f build/pic32mz_da_sk_intddr_meb2/production/_ext/1653314881/system_tasks.o
 .debug_line    0x00033292      0x239 build/pic32mz_da_sk_intddr_meb2/production/_ext/1021385576/gfx_assets.o
 .debug_line    0x000334cb       0x97 f:/software_installations/mplab_xc32/bin/bin/../../lib/gcc/pic32mx/4.8.3\libgcc.a(floatunsisf.o)
 .debug_line    0x00033562       0xa4 f:/software_installations/mplab_xc32/bin/bin/../../lib/gcc/pic32mx/4.8.3/../../../../pic32mx/lib\libpic32.a(default-bootstrap-exception-handler.o)
 .debug_line    0x00033606       0x91 f:/software_installations/mplab_xc32/bin/bin/../../lib/gcc/pic32mx/4.8.3/../../../../pic32mx/lib\libpic32.a(default-on-reset.o)
 .debug_line    0x00033697       0x95 f:/software_installations/mplab_xc32/bin/bin/../../lib/gcc/pic32mx/4.8.3/../../../../pic32mx/lib\libpic32.a(default-on-bootstrap.o)
 .debug_line    0x0003372c       0xa3 f:/software_installations/mplab_xc32/bin/bin/../../lib/gcc/pic32mx/4.8.3/../../../../pic32mx/lib\libpic32.a(defaultinterrupt.o)
 .debug_line    0x000337cf       0xa4 f:/software_installations/mplab_xc32/bin/bin/../../lib/gcc/pic32mx/4.8.3/../../../../pic32mx/lib\libpic32.a(default-cache-err-exception-handler.o)
 .debug_line    0x00033873       0xac f:/software_installations/mplab_xc32/bin/bin/../../lib/gcc/pic32mx/4.8.3/../../../../pic32mx/lib\libpic32.a(default-simple-tlb-refill-exception-handler.o)
 .debug_line    0x0003391f       0xfa f:/software_installations/mplab_xc32/bin/bin/../../lib/gcc/pic32mx/4.8.3\libgcc.a(_udivdi3.o)
 .debug_line    0x00033a19      0x10c f:/software_installations/mplab_xc32/bin/bin/../../lib/gcc/pic32mx/4.8.3\libgcc.a(_umoddi3.o)
 .debug_line    0x00033b25       0x85 f:/software_installations/mplab_xc32/bin/bin/../../lib/gcc/pic32mx/4.8.3/../../../../pic32mx/lib\libpic32.a(sbrk.o)
 .debug_line    0x00033baa       0x8a f:/software_installations/mplab_xc32/bin/bin/../../lib/gcc/pic32mx/4.8.3/../../../../pic32mx/lib\libpic32.a(_mon_getc.o)
 .debug_line    0x00033c34       0x8b f:/software_installations/mplab_xc32/bin/bin/../../lib/gcc/pic32mx/4.8.3/../../../../pic32mx/lib\libpic32.a(_mon_write.o)
 .debug_line    0x00033cbf        0x0 f:/software_installations/mplab_xc32/bin/bin/../../lib/gcc/pic32mx/4.8.3/../../../../pic32mx/lib\libpic32.a(xc32_uart.o)
 .debug_line    0x00033cbf       0x8a f:/software_installations/mplab_xc32/bin/bin/../../lib/gcc/pic32mx/4.8.3/../../../../pic32mx/lib\libpic32.a(_mon_putc.o)

.debug_frame    0x00000000     0xdd98
 *.elf(.debug_frame)
 *(.debug_frame)
 .debug_frame   0x00000000       0x38 build/pic32mz_da_sk_intddr_meb2/production/_ext/1360937237/app.o
 .debug_frame   0x00000038       0x28 build/pic32mz_da_sk_intddr_meb2/production/_ext/1360937237/main.o
 .debug_frame   0x00000060      0x2a0 build/pic32mz_da_sk_intddr_meb2/production/_ext/475095144/drv_i2c_bb_a.o
 .debug_frame   0x00000300      0x130 build/pic32mz_da_sk_intddr_meb2/production/_ext/475095144/drv_i2c_bb.o
 .debug_frame   0x00000430       0xf8 build/pic32mz_da_sk_intddr_meb2/production/_ext/1177928576/drv_mxt336t.o
 .debug_frame   0x00000528      0x198 build/pic32mz_da_sk_intddr_meb2/production/_ext/1847583374/gfx.o
 .debug_frame   0x000006c0       0x60 build/pic32mz_da_sk_intddr_meb2/production/_ext/1847583374/gfx_color.o
 .debug_frame   0x00000720       0x40 build/pic32mz_da_sk_intddr_meb2/production/_ext/1847583374/gfx_context.o
 .debug_frame   0x00000760      0xa4c build/pic32mz_da_sk_intddr_meb2/production/_ext/1847583374/gfx_default_impl.o
 .debug_frame   0x000011ac       0x20 build/pic32mz_da_sk_intddr_meb2/production/_ext/1847583374/gfx_display.o
 .debug_frame   0x000011cc       0x48 build/pic32mz_da_sk_intddr_meb2/production/_ext/1847583374/gfx_driver_interface.o
 .debug_frame   0x00001214      0x46c build/pic32mz_da_sk_intddr_meb2/production/_ext/1847583374/gfx_get.o
 .debug_frame   0x00001680       0xd4 build/pic32mz_da_sk_intddr_meb2/production/_ext/1847583374/gfx_layer.o
 .debug_frame   0x00001754      0x2d8 build/pic32mz_da_sk_intddr_meb2/production/_ext/1847583374/gfx_pixel_buffer.o
 .debug_frame   0x00001a2c       0xe8 build/pic32mz_da_sk_intddr_meb2/production/_ext/1847583374/gfx_rect.o
 .debug_frame   0x00001b14      0x140 build/pic32mz_da_sk_intddr_meb2/production/_ext/1847583374/gfx_util.o
 .debug_frame   0x00001c54      0x3f8 build/pic32mz_da_sk_intddr_meb2/production/_ext/1847583374/gfx_set.o
 .debug_frame   0x0000204c       0x2c build/pic32mz_da_sk_intddr_meb2/production/_ext/1847583374/gfx_color_blend.o
 .debug_frame   0x00002078      0x464 build/pic32mz_da_sk_intddr_meb2/production/_ext/1847583374/gfx_color_convert.o
 .debug_frame   0x000024dc      0x138 build/pic32mz_da_sk_intddr_meb2/production/_ext/1847583374/gfx_color_lerp.o
 .debug_frame   0x00002614       0x2c build/pic32mz_da_sk_intddr_meb2/production/_ext/1847583374/gfx_color_value.o
 .debug_frame   0x00002640       0xbc build/pic32mz_da_sk_intddr_meb2/production/_ext/1847583374/gfx_draw_blit.o
 .debug_frame   0x000026fc       0x54 build/pic32mz_da_sk_intddr_meb2/production/_ext/1847583374/gfx_draw_circle.o
 .debug_frame   0x00002750      0x108 build/pic32mz_da_sk_intddr_meb2/production/_ext/1847583374/gfx_draw_line.o
 .debug_frame   0x00002858       0x88 build/pic32mz_da_sk_intddr_meb2/production/_ext/1847583374/gfx_draw_pixel.o
 .debug_frame   0x000028e0       0xf8 build/pic32mz_da_sk_intddr_meb2/production/_ext/1847583374/gfx_draw_rect.o
 .debug_frame   0x000029d8      0x1bc build/pic32mz_da_sk_intddr_meb2/production/_ext/1847583374/gfx_math.o
 .debug_frame   0x00002b94       0x8c build/pic32mz_da_sk_intddr_meb2/production/_ext/1847583374/gfx_draw_stretchblit.o
 .debug_frame   0x00002c20       0xb8 build/pic32mz_da_sk_intddr_meb2/production/_ext/1847583374/gfx_draw_arc.o
 .debug_frame   0x00002cd8       0x58 build/pic32mz_da_sk_intddr_meb2/production/_ext/1847583374/gfx_draw_ellipse.o
 .debug_frame   0x00002d30       0x58 build/pic32mz_da_sk_intddr_meb2/production/_ext/1907747181/libaria.o
 .debug_frame   0x00002d88      0x2e4 build/pic32mz_da_sk_intddr_meb2/production/_ext/1907747181/libaria_context.o
 .debug_frame   0x0000306c       0x88 build/pic32mz_da_sk_intddr_meb2/production/_ext/1907747181/libaria_context_paint.o
 .debug_frame   0x000030f4       0x8c build/pic32mz_da_sk_intddr_meb2/production/_ext/1907747181/libaria_draw.o
 .debug_frame   0x00003180      0x15c build/pic32mz_da_sk_intddr_meb2/production/_ext/1907747181/libaria_editwidget.o
 .debug_frame   0x000032dc       0x94 build/pic32mz_da_sk_intddr_meb2/production/_ext/1907747181/libaria_event.o
 .debug_frame   0x00003370      0x124 build/pic32mz_da_sk_intddr_meb2/production/_ext/1907747181/libaria_input.o
 .debug_frame   0x00003494      0x2f4 build/pic32mz_da_sk_intddr_meb2/production/_ext/1907747181/libaria_layer.o
 .debug_frame   0x00003788      0x150 build/pic32mz_da_sk_intddr_meb2/production/_ext/1907747181/libaria_list.o
 .debug_frame   0x000038d8       0x34 build/pic32mz_da_sk_intddr_meb2/production/_ext/1907747181/libaria_scheme.o
 .debug_frame   0x0000390c      0x174 build/pic32mz_da_sk_intddr_meb2/production/_ext/1907747181/libaria_screen.o
 .debug_frame   0x00003a80      0x408 build/pic32mz_da_sk_intddr_meb2/production/_ext/1907747181/libaria_string.o
 .debug_frame   0x00003e88      0x2b8 build/pic32mz_da_sk_intddr_meb2/production/_ext/1907747181/libaria_utils.o
 .debug_frame   0x00004140      0x648 build/pic32mz_da_sk_intddr_meb2/production/_ext/1907747181/libaria_widget.o
 .debug_frame   0x00004788       0x58 build/pic32mz_da_sk_intddr_meb2/production/_ext/1907747181/libaria_widget_skin_classic.o
 .debug_frame   0x000047e0      0x2d8 build/pic32mz_da_sk_intddr_meb2/production/_ext/1907747181/libaria_widget_button.o
 .debug_frame   0x00004ab8      0x158 build/pic32mz_da_sk_intddr_meb2/production/_ext/1907747181/libaria_widget_button_skin_classic.o
 .debug_frame   0x00004c10      0x2a8 build/pic32mz_da_sk_intddr_meb2/production/_ext/1907747181/libaria_widget_checkbox.o
 .debug_frame   0x00004eb8      0x12c build/pic32mz_da_sk_intddr_meb2/production/_ext/1907747181/libaria_widget_checkbox_skin_classic.o
 .debug_frame   0x00004fe4       0xb4 build/pic32mz_da_sk_intddr_meb2/production/_ext/1907747181/libaria_widget_circle.o
 .debug_frame   0x00005098       0x8c build/pic32mz_da_sk_intddr_meb2/production/_ext/1907747181/libaria_widget_circle_skin_classic.o
 .debug_frame   0x00005124       0x88 build/pic32mz_da_sk_intddr_meb2/production/_ext/1907747181/libaria_widget_drawsurface.o
 .debug_frame   0x000051ac       0x88 build/pic32mz_da_sk_intddr_meb2/production/_ext/1907747181/libaria_widget_drawsurface_skin_classic.o
 .debug_frame   0x00005234       0x8c build/pic32mz_da_sk_intddr_meb2/production/_ext/1907747181/libaria_widget_gradient.o
 .debug_frame   0x000052c0       0x78 build/pic32mz_da_sk_intddr_meb2/production/_ext/1907747181/libaria_widget_gradient_skin_classic.o
 .debug_frame   0x00005338       0xe0 build/pic32mz_da_sk_intddr_meb2/production/_ext/1907747181/libaria_widget_groupbox.o
 .debug_frame   0x00005418      0x108 build/pic32mz_da_sk_intddr_meb2/production/_ext/1907747181/libaria_widget_groupbox_skin_classic.o
 .debug_frame   0x00005520      0x114 build/pic32mz_da_sk_intddr_meb2/production/_ext/1907747181/libaria_widget_image.o
 .debug_frame   0x00005634       0xcc build/pic32mz_da_sk_intddr_meb2/production/_ext/1907747181/libaria_widget_image_skin_classic.o
 .debug_frame   0x00005700      0x220 build/pic32mz_da_sk_intddr_meb2/production/_ext/1907747181/libaria_widget_imagesequence.o
 .debug_frame   0x00005920       0xcc build/pic32mz_da_sk_intddr_meb2/production/_ext/1907747181/libaria_widget_imagesequence_skin_classic.o
 .debug_frame   0x000059ec      0x380 build/pic32mz_da_sk_intddr_meb2/production/_ext/1907747181/libaria_widget_keypad.o
 .debug_frame   0x00005d6c       0x88 build/pic32mz_da_sk_intddr_meb2/production/_ext/1907747181/libaria_widget_keypad_skin_classic.o
 .debug_frame   0x00005df4      0x11c build/pic32mz_da_sk_intddr_meb2/production/_ext/1907747181/libaria_widget_label.o
 .debug_frame   0x00005f10       0xd8 build/pic32mz_da_sk_intddr_meb2/production/_ext/1907747181/libaria_widget_label_skin_classic.o
 .debug_frame   0x00005fe8       0xa8 build/pic32mz_da_sk_intddr_meb2/production/_ext/1907747181/libaria_widget_line.o
 .debug_frame   0x00006090       0x8c build/pic32mz_da_sk_intddr_meb2/production/_ext/1907747181/libaria_widget_line_skin_classic.o
 .debug_frame   0x0000611c      0x440 build/pic32mz_da_sk_intddr_meb2/production/_ext/1907747181/libaria_widget_list.o
 .debug_frame   0x0000655c      0x1ac build/pic32mz_da_sk_intddr_meb2/production/_ext/1907747181/libaria_widget_list_skin_classic.o
 .debug_frame   0x00006708      0x4f8 build/pic32mz_da_sk_intddr_meb2/production/_ext/1907747181/libaria_widget_listwheel.o
 .debug_frame   0x00006c00      0x1cc build/pic32mz_da_sk_intddr_meb2/production/_ext/1907747181/libaria_widget_listwheel_skin_classic.o
 .debug_frame   0x00006dcc       0xd8 build/pic32mz_da_sk_intddr_meb2/production/_ext/1907747181/libaria_widget_progressbar.o
 .debug_frame   0x00006ea4       0xb4 build/pic32mz_da_sk_intddr_meb2/production/_ext/1907747181/libaria_widget_progressbar_skin_classic.o
 .debug_frame   0x00006f58      0x2e0 build/pic32mz_da_sk_intddr_meb2/production/_ext/1907747181/libaria_widget_radiobutton.o
 .debug_frame   0x00007238      0x130 build/pic32mz_da_sk_intddr_meb2/production/_ext/1907747181/libaria_widget_radiobutton_skin_classic.o
 .debug_frame   0x00007368       0x98 build/pic32mz_da_sk_intddr_meb2/production/_ext/1907747181/libaria_radiobutton_group.o
 .debug_frame   0x00007400       0x6c build/pic32mz_da_sk_intddr_meb2/production/_ext/1907747181/libaria_widget_rectangle.o
 .debug_frame   0x0000746c       0xac build/pic32mz_da_sk_intddr_meb2/production/_ext/1907747181/libaria_widget_rectangle_skin_classic.o
 .debug_frame   0x00007518      0x2b8 build/pic32mz_da_sk_intddr_meb2/production/_ext/1907747181/libaria_widget_scrollbar.o
 .debug_frame   0x000077d0      0x138 build/pic32mz_da_sk_intddr_meb2/production/_ext/1907747181/libaria_widget_scrollbar_skin_classic.o
 .debug_frame   0x00007908      0x254 build/pic32mz_da_sk_intddr_meb2/production/_ext/1907747181/libaria_widget_slider.o
 .debug_frame   0x00007b5c       0xe0 build/pic32mz_da_sk_intddr_meb2/production/_ext/1907747181/libaria_widget_slider_skin_classic.o
 .debug_frame   0x00007c3c      0x2f4 build/pic32mz_da_sk_intddr_meb2/production/_ext/1907747181/libaria_widget_textfield.o
 .debug_frame   0x00007f30      0x104 build/pic32mz_da_sk_intddr_meb2/production/_ext/1907747181/libaria_widget_textfield_skin_classic.o
 .debug_frame   0x00008034      0x114 build/pic32mz_da_sk_intddr_meb2/production/_ext/1907747181/libaria_widget_touchtest.o
 .debug_frame   0x00008148       0xb8 build/pic32mz_da_sk_intddr_meb2/production/_ext/1907747181/libaria_widget_touchtest_skin_classic.o
 .debug_frame   0x00008200      0x140 build/pic32mz_da_sk_intddr_meb2/production/_ext/1907747181/libaria_widget_window.o
 .debug_frame   0x00008340      0x160 build/pic32mz_da_sk_intddr_meb2/production/_ext/1907747181/libaria_widget_window_skin_classic.o
 .debug_frame   0x000084a0      0x198 build/pic32mz_da_sk_intddr_meb2/production/_ext/1907747181/libaria_array.o
 .debug_frame   0x00008638      0x1d8 build/pic32mz_da_sk_intddr_meb2/production/_ext/1907747181/libaria_rectarray.o
 .debug_frame   0x00008810      0x2d0 build/pic32mz_da_sk_intddr_meb2/production/_ext/1907747181/libaria_widget_skin_classic_common.o
 .debug_frame   0x00008ae0      0x148 build/pic32mz_da_sk_intddr_meb2/production/_ext/1907747181/libaria_widget_arc.o
 .debug_frame   0x00008c28       0xac build/pic32mz_da_sk_intddr_meb2/production/_ext/1907747181/libaria_widget_arc_skin_classic.o
 .debug_frame   0x00008cd4      0x4a4 build/pic32mz_da_sk_intddr_meb2/production/_ext/1907747181/libaria_widget_circular_gauge.o
 .debug_frame   0x00009178       0xdc build/pic32mz_da_sk_intddr_meb2/production/_ext/1907747181/libaria_widget_circular_gauge_skin_classic.o
 .debug_frame   0x00009254      0x34c build/pic32mz_da_sk_intddr_meb2/production/_ext/1907747181/libaria_widget_circular_slider.o
 .debug_frame   0x000095a0       0x90 build/pic32mz_da_sk_intddr_meb2/production/_ext/1907747181/libaria_widget_circular_slider_skin_classic.o
 .debug_frame   0x00009630      0x2e8 build/pic32mz_da_sk_intddr_meb2/production/_ext/1907747181/libaria_widget_pie_chart.o
 .debug_frame   0x00009918       0x9c build/pic32mz_da_sk_intddr_meb2/production/_ext/1907747181/libaria_widget_pie_chart_skin_classic.o
 .debug_frame   0x000099b4      0x4e8 build/pic32mz_da_sk_intddr_meb2/production/_ext/1907747181/libaria_widget_bar_graph.o
 .debug_frame   0x00009e9c      0x120 build/pic32mz_da_sk_intddr_meb2/production/_ext/1907747181/libaria_widget_bar_graph_skin_classic.o
 .debug_frame   0x00009fbc      0x61c build/pic32mz_da_sk_intddr_meb2/production/_ext/1907747181/libaria_widget_line_graph.o
 .debug_frame   0x0000a5d8      0x140 build/pic32mz_da_sk_intddr_meb2/production/_ext/1907747181/libaria_widget_line_graph_skin_classic.o
 .debug_frame   0x0000a718      0x244 build/pic32mz_da_sk_intddr_meb2/production/_ext/1907747181/libaria_widget_imageplus.o
 .debug_frame   0x0000a95c       0xac build/pic32mz_da_sk_intddr_meb2/production/_ext/1907747181/libaria_widget_imageplus_skin_classic.o
 .debug_frame   0x0000aa08      0x3f0 build/pic32mz_da_sk_intddr_meb2/production/_ext/1907747181/libaria_widget_radial_menu.o
 .debug_frame   0x0000adf8       0xb0 build/pic32mz_da_sk_intddr_meb2/production/_ext/1907747181/libaria_widget_radial_menu_skin_classic.o
 .debug_frame   0x0000aea8       0x48 build/pic32mz_da_sk_intddr_meb2/production/_ext/1597685232/gfxu_image.o
 .debug_frame   0x0000aef0       0x38 build/pic32mz_da_sk_intddr_meb2/production/_ext/1597685232/gfxu_image_png_external.o
 .debug_frame   0x0000af28       0x7c build/pic32mz_da_sk_intddr_meb2/production/_ext/1597685232/gfxu_image_png_internal.o
 .debug_frame   0x0000afa4       0x48 build/pic32mz_da_sk_intddr_meb2/production/_ext/1597685232/gfxu_image_jpg_internal.o
 .debug_frame   0x0000afec       0x78 build/pic32mz_da_sk_intddr_meb2/production/_ext/1597685232/gfxu_image_raw_external.o
 .debug_frame   0x0000b064       0x30 build/pic32mz_da_sk_intddr_meb2/production/_ext/1597685232/gfxu_image_raw_internal.o
 .debug_frame   0x0000b094       0xac build/pic32mz_da_sk_intddr_meb2/production/_ext/1597685232/gfxu_image_rle_external.o
 .debug_frame   0x0000b140       0x3c build/pic32mz_da_sk_intddr_meb2/production/_ext/1597685232/gfxu_image_rle_internal.o
 .debug_frame   0x0000b17c      0x11c build/pic32mz_da_sk_intddr_meb2/production/_ext/1597685232/gfxu_image_utils.o
 .debug_frame   0x0000b298       0x20 build/pic32mz_da_sk_intddr_meb2/production/_ext/1597685232/gfxu_palette.o
 .debug_frame   0x0000b2b8       0xd0 build/pic32mz_da_sk_intddr_meb2/production/_ext/1597685232/gfxu_string.o
 .debug_frame   0x0000b388       0x74 build/pic32mz_da_sk_intddr_meb2/production/_ext/1597685232/gfxu_string_external.o
 .debug_frame   0x0000b3fc       0x98 build/pic32mz_da_sk_intddr_meb2/production/_ext/1597685232/gfxu_string_internal.o
 .debug_frame   0x0000b494      0x1f4 build/pic32mz_da_sk_intddr_meb2/production/_ext/1597685232/gfxu_string_query.o
 .debug_frame   0x0000b688      0x230 build/pic32mz_da_sk_intddr_meb2/production/_ext/1597685232/gfxu_string_utils.o
 .debug_frame   0x0000b8b8      0x174 build/pic32mz_da_sk_intddr_meb2/production/_ext/1597685232/gfxu_image_jpg_common.o
 .debug_frame   0x0000ba2c       0x50 build/pic32mz_da_sk_intddr_meb2/production/_ext/1597685232/gfxu_image_jpg_external.o
 .debug_frame   0x0000ba7c       0x74 build/pic32mz_da_sk_intddr_meb2/production/_ext/1597685232/gfxu_stringbuffer_external.o
 .debug_frame   0x0000baf0       0xb4 build/pic32mz_da_sk_intddr_meb2/production/_ext/2137108136/sys_debug.o
 .debug_frame   0x0000bba4      0x12c build/pic32mz_da_sk_intddr_meb2/production/_ext/252650337/sys_input.o
 .debug_frame   0x0000bcd0       0xc0 build/pic32mz_da_sk_intddr_meb2/production/_ext/252650337/sys_input_listener.o
 .debug_frame   0x0000bd90       0x90 build/pic32mz_da_sk_intddr_meb2/production/_ext/1042686532/sys_int_pic32.o
 .debug_frame   0x0000be20       0x2c build/pic32mz_da_sk_intddr_meb2/production/_ext/426253641/jidctint.o
 .debug_frame   0x0000be4c      0xd0c build/pic32mz_da_sk_intddr_meb2/production/_ext/493934858/lodepng.o
 .debug_frame   0x0000cb58      0x234 build/pic32mz_da_sk_intddr_meb2/production/_ext/418582516/drv_usart_mapping.o
 .debug_frame   0x0000cd8c       0xd0 build/pic32mz_da_sk_intddr_meb2/production/_ext/418582516/drv_usart_static.o
 .debug_frame   0x0000ce5c       0x70 build/pic32mz_da_sk_intddr_meb2/production/_ext/418582516/drv_usart_static_byte_model.o
 .debug_frame   0x0000cecc      0x260 build/pic32mz_da_sk_intddr_meb2/production/_ext/1094895838/drv_gfx_glcd_static.o
 .debug_frame   0x0000d12c       0x88 build/pic32mz_da_sk_intddr_meb2/production/_ext/590040425/libaria_harmony.o
 .debug_frame   0x0000d1b4       0x44 build/pic32mz_da_sk_intddr_meb2/production/_ext/590040425/libaria_init.o
 .debug_frame   0x0000d1f8       0x20 build/pic32mz_da_sk_intddr_meb2/production/_ext/1719547748/gfx_driver_def.o
 .debug_frame   0x0000d218       0x20 build/pic32mz_da_sk_intddr_meb2/production/_ext/1719547748/gfx_processor_def.o
 .debug_frame   0x0000d238       0xa0 build/pic32mz_da_sk_intddr_meb2/production/_ext/370156264/sys_clk_pic32mz.o
 .debug_frame   0x0000d2d8       0xe8 build/pic32mz_da_sk_intddr_meb2/production/_ext/1796496159/sys_devcon.o
 .debug_frame   0x0000d3c0      0x220 build/pic32mz_da_sk_intddr_meb2/production/_ext/1796496159/sys_devcon_pic32mz.o
 .debug_frame   0x0000d5e0      0x278 build/pic32mz_da_sk_intddr_meb2/production/_ext/730466360/sys_ports_static.o
 .debug_frame   0x0000d858       0xb4 build/pic32mz_da_sk_intddr_meb2/production/_ext/639474099/sys_console_static.o
 .debug_frame   0x0000d90c       0x20 build/pic32mz_da_sk_intddr_meb2/production/_ext/327666056/sys_memory_ddr_static.o
 .debug_frame   0x0000d92c       0x28 build/pic32mz_da_sk_intddr_meb2/production/_ext/85614229/sys_memory_static.o
 .debug_frame   0x0000d954       0x20 build/pic32mz_da_sk_intddr_meb2/production/_ext/1547055377/bsp.o
 .debug_frame   0x0000d974       0x2c build/pic32mz_da_sk_intddr_meb2/production/_ext/1653314881/system_init.o
 .debug_frame   0x0000d9a0      0x128 build/pic32mz_da_sk_intddr_meb2/production/_ext/1653314881/system_interrupt.o
 .debug_frame   0x0000dac8       0x28 build/pic32mz_da_sk_intddr_meb2/production/_ext/1653314881/general_exception_handler.o
 .debug_frame   0x0000daf0       0x30 build/pic32mz_da_sk_intddr_meb2/production/_ext/1653314881/fassert.o
 .debug_frame   0x0000db20       0x2c build/pic32mz_da_sk_intddr_meb2/production/_ext/1653314881/system_tasks.o
 .debug_frame   0x0000db4c       0x28 f:/software_installations/mplab_xc32/bin/bin/../../lib/gcc/pic32mx/4.8.3\libgcc.a(floatunsisf.o)
 .debug_frame   0x0000db74       0x2c f:/software_installations/mplab_xc32/bin/bin/../../lib/gcc/pic32mx/4.8.3/../../../../pic32mx/lib\libpic32.a(default-bootstrap-exception-handler.o)
 .debug_frame   0x0000dba0       0x20 f:/software_installations/mplab_xc32/bin/bin/../../lib/gcc/pic32mx/4.8.3/../../../../pic32mx/lib\libpic32.a(default-on-reset.o)
 .debug_frame   0x0000dbc0       0x20 f:/software_installations/mplab_xc32/bin/bin/../../lib/gcc/pic32mx/4.8.3/../../../../pic32mx/lib\libpic32.a(default-on-bootstrap.o)
 .debug_frame   0x0000dbe0       0x20 f:/software_installations/mplab_xc32/bin/bin/../../lib/gcc/pic32mx/4.8.3/../../../../pic32mx/lib\libpic32.a(defaultinterrupt.o)
 .debug_frame   0x0000dc00       0x2c f:/software_installations/mplab_xc32/bin/bin/../../lib/gcc/pic32mx/4.8.3/../../../../pic32mx/lib\libpic32.a(default-cache-err-exception-handler.o)
 .debug_frame   0x0000dc2c       0x2c f:/software_installations/mplab_xc32/bin/bin/../../lib/gcc/pic32mx/4.8.3/../../../../pic32mx/lib\libpic32.a(default-simple-tlb-refill-exception-handler.o)
 .debug_frame   0x0000dc58       0x20 f:/software_installations/mplab_xc32/bin/bin/../../lib/gcc/pic32mx/4.8.3\libgcc.a(_udivdi3.o)
 .debug_frame   0x0000dc78       0x20 f:/software_installations/mplab_xc32/bin/bin/../../lib/gcc/pic32mx/4.8.3\libgcc.a(_umoddi3.o)
 .debug_frame   0x0000dc98       0x84 f:/software_installations/mplab_xc32/bin/bin/../../lib/gcc/pic32mx/4.8.3/../../../../pic32mx/lib\libpic32.a(sbrk.o)
 .debug_frame   0x0000dd1c       0x28 f:/software_installations/mplab_xc32/bin/bin/../../lib/gcc/pic32mx/4.8.3/../../../../pic32mx/lib\libpic32.a(_mon_getc.o)
 .debug_frame   0x0000dd44       0x2c f:/software_installations/mplab_xc32/bin/bin/../../lib/gcc/pic32mx/4.8.3/../../../../pic32mx/lib\libpic32.a(_mon_write.o)
 .debug_frame   0x0000dd70       0x28 f:/software_installations/mplab_xc32/bin/bin/../../lib/gcc/pic32mx/4.8.3/../../../../pic32mx/lib\libpic32.a(_mon_putc.o)

.debug_str      0x00000000     0x40be
 *.elf(.debug_str)
 *(.debug_str)
 .debug_str     0x00000000        0x0 build/pic32mz_da_sk_intddr_meb2/production/_ext/1360937237/app.o
 .debug_str     0x00000000        0x0 build/pic32mz_da_sk_intddr_meb2/production/_ext/1360937237/main.o
 .debug_str     0x00000000      0x171 build/pic32mz_da_sk_intddr_meb2/production/_ext/475095144/drv_i2c_bb_a.o
 .debug_str     0x00000171      0x139 build/pic32mz_da_sk_intddr_meb2/production/_ext/475095144/drv_i2c_bb.o
 .debug_str     0x000002aa       0x4d build/pic32mz_da_sk_intddr_meb2/production/_ext/1177928576/drv_mxt336t.o
 .debug_str     0x000002f7       0x77 build/pic32mz_da_sk_intddr_meb2/production/_ext/1847583374/gfx.o
 .debug_str     0x0000036e        0x0 build/pic32mz_da_sk_intddr_meb2/production/_ext/1847583374/gfx_color.o
 .debug_str     0x0000036e       0x5a build/pic32mz_da_sk_intddr_meb2/production/_ext/1847583374/gfx_context.o
 .debug_str     0x000003c8       0xf0 build/pic32mz_da_sk_intddr_meb2/production/_ext/1847583374/gfx_default_impl.o
 .debug_str     0x000004b8       0x23 build/pic32mz_da_sk_intddr_meb2/production/_ext/1847583374/gfx_display.o
 .debug_str     0x000004db       0x68 build/pic32mz_da_sk_intddr_meb2/production/_ext/1847583374/gfx_driver_interface.o
 .debug_str     0x00000543       0xa2 build/pic32mz_da_sk_intddr_meb2/production/_ext/1847583374/gfx_get.o
 .debug_str     0x000005e5        0x0 build/pic32mz_da_sk_intddr_meb2/production/_ext/1847583374/gfx_interface.o
 .debug_str     0x000005e5       0x7c build/pic32mz_da_sk_intddr_meb2/production/_ext/1847583374/gfx_layer.o
 .debug_str     0x00000661       0x54 build/pic32mz_da_sk_intddr_meb2/production/_ext/1847583374/gfx_pixel_buffer.o
 .debug_str     0x000006b5        0xe build/pic32mz_da_sk_intddr_meb2/production/_ext/1847583374/gfx_rect.o
 .debug_str     0x000006c3       0x23 build/pic32mz_da_sk_intddr_meb2/production/_ext/1847583374/gfx_util.o
 .debug_str     0x000006e6       0x95 build/pic32mz_da_sk_intddr_meb2/production/_ext/1847583374/gfx_set.o
 .debug_str     0x0000077b        0x0 build/pic32mz_da_sk_intddr_meb2/production/_ext/1847583374/gfx_color_blend.o
 .debug_str     0x0000077b       0x73 build/pic32mz_da_sk_intddr_meb2/production/_ext/1847583374/gfx_color_convert.o
 .debug_str     0x000007ee       0x19 build/pic32mz_da_sk_intddr_meb2/production/_ext/1847583374/gfx_color_lerp.o
 .debug_str     0x00000807        0x0 build/pic32mz_da_sk_intddr_meb2/production/_ext/1847583374/gfx_color_value.o
 .debug_str     0x00000807       0xa4 build/pic32mz_da_sk_intddr_meb2/production/_ext/1847583374/gfx_draw_blit.o
 .debug_str     0x000008ab       0x60 build/pic32mz_da_sk_intddr_meb2/production/_ext/1847583374/gfx_draw_circle.o
 .debug_str     0x0000090b       0x73 build/pic32mz_da_sk_intddr_meb2/production/_ext/1847583374/gfx_draw_line.o
 .debug_str     0x0000097e       0x68 build/pic32mz_da_sk_intddr_meb2/production/_ext/1847583374/gfx_draw_pixel.o
 .debug_str     0x000009e6       0x7f build/pic32mz_da_sk_intddr_meb2/production/_ext/1847583374/gfx_draw_rect.o
 .debug_str     0x00000a65        0x8 build/pic32mz_da_sk_intddr_meb2/production/_ext/1847583374/gfx_math.o
 .debug_str     0x00000a6d       0xb2 build/pic32mz_da_sk_intddr_meb2/production/_ext/1847583374/gfx_draw_stretchblit.o
 .debug_str     0x00000b1f        0x0 build/pic32mz_da_sk_intddr_meb2/production/_ext/1847583374/gfx_processor_interface.o
 .debug_str     0x00000b1f       0x8e build/pic32mz_da_sk_intddr_meb2/production/_ext/1847583374/gfx_draw_arc.o
 .debug_str     0x00000bad       0x7e build/pic32mz_da_sk_intddr_meb2/production/_ext/1847583374/gfx_draw_ellipse.o
 .debug_str     0x00000c2b       0x4d build/pic32mz_da_sk_intddr_meb2/production/_ext/1907747181/libaria.o
 .debug_str     0x00000c78       0x9e build/pic32mz_da_sk_intddr_meb2/production/_ext/1907747181/libaria_context.o
 .debug_str     0x00000d16       0x82 build/pic32mz_da_sk_intddr_meb2/production/_ext/1907747181/libaria_context_paint.o
 .debug_str     0x00000d98       0x3e build/pic32mz_da_sk_intddr_meb2/production/_ext/1907747181/libaria_draw.o
 .debug_str     0x00000dd6       0x43 build/pic32mz_da_sk_intddr_meb2/production/_ext/1907747181/libaria_editwidget.o
 .debug_str     0x00000e19       0x41 build/pic32mz_da_sk_intddr_meb2/production/_ext/1907747181/libaria_event.o
 .debug_str     0x00000e5a       0x61 build/pic32mz_da_sk_intddr_meb2/production/_ext/1907747181/libaria_input.o
 .debug_str     0x00000ebb       0x69 build/pic32mz_da_sk_intddr_meb2/production/_ext/1907747181/libaria_layer.o
 .debug_str     0x00000f24       0x44 build/pic32mz_da_sk_intddr_meb2/production/_ext/1907747181/libaria_list.o
 .debug_str     0x00000f68        0x0 build/pic32mz_da_sk_intddr_meb2/production/_ext/1907747181/libaria_scheme.o
 .debug_str     0x00000f68       0x58 build/pic32mz_da_sk_intddr_meb2/production/_ext/1907747181/libaria_screen.o
 .debug_str     0x00000fc0       0x78 build/pic32mz_da_sk_intddr_meb2/production/_ext/1907747181/libaria_string.o
 .debug_str     0x00001038       0xf0 build/pic32mz_da_sk_intddr_meb2/production/_ext/1907747181/libaria_utils.o
 .debug_str     0x00001128       0x81 build/pic32mz_da_sk_intddr_meb2/production/_ext/1907747181/libaria_widget.o
 .debug_str     0x000011a9       0x39 build/pic32mz_da_sk_intddr_meb2/production/_ext/1907747181/libaria_widget_skin_classic.o
 .debug_str     0x000011e2       0x9e build/pic32mz_da_sk_intddr_meb2/production/_ext/1907747181/libaria_widget_button.o
 .debug_str     0x00001280       0xa6 build/pic32mz_da_sk_intddr_meb2/production/_ext/1907747181/libaria_widget_button_skin_classic.o
 .debug_str     0x00001326       0x90 build/pic32mz_da_sk_intddr_meb2/production/_ext/1907747181/libaria_widget_checkbox.o
 .debug_str     0x000013b6       0xab build/pic32mz_da_sk_intddr_meb2/production/_ext/1907747181/libaria_widget_checkbox_skin_classic.o
 .debug_str     0x00001461       0x42 build/pic32mz_da_sk_intddr_meb2/production/_ext/1907747181/libaria_widget_circle.o
 .debug_str     0x000014a3       0x54 build/pic32mz_da_sk_intddr_meb2/production/_ext/1907747181/libaria_widget_circle_skin_classic.o
 .debug_str     0x000014f7       0x42 build/pic32mz_da_sk_intddr_meb2/production/_ext/1907747181/libaria_widget_drawsurface.o
 .debug_str     0x00001539       0x42 build/pic32mz_da_sk_intddr_meb2/production/_ext/1907747181/libaria_widget_drawsurface_skin_classic.o
 .debug_str     0x0000157b       0x42 build/pic32mz_da_sk_intddr_meb2/production/_ext/1907747181/libaria_widget_gradient.o
 .debug_str     0x000015bd       0x54 build/pic32mz_da_sk_intddr_meb2/production/_ext/1907747181/libaria_widget_gradient_skin_classic.o
 .debug_str     0x00001611       0x54 build/pic32mz_da_sk_intddr_meb2/production/_ext/1907747181/libaria_widget_groupbox.o
 .debug_str     0x00001665       0x82 build/pic32mz_da_sk_intddr_meb2/production/_ext/1907747181/libaria_widget_groupbox_skin_classic.o
 .debug_str     0x000016e7       0x65 build/pic32mz_da_sk_intddr_meb2/production/_ext/1907747181/libaria_widget_image.o
 .debug_str     0x0000174c       0x83 build/pic32mz_da_sk_intddr_meb2/production/_ext/1907747181/libaria_widget_image_skin_classic.o
 .debug_str     0x000017cf       0x53 build/pic32mz_da_sk_intddr_meb2/production/_ext/1907747181/libaria_widget_imagesequence.o
 .debug_str     0x00001822       0x83 build/pic32mz_da_sk_intddr_meb2/production/_ext/1907747181/libaria_widget_imagesequence_skin_classic.o
 .debug_str     0x000018a5       0x7b build/pic32mz_da_sk_intddr_meb2/production/_ext/1907747181/libaria_widget_keypad.o
 .debug_str     0x00001920       0x4a build/pic32mz_da_sk_intddr_meb2/production/_ext/1907747181/libaria_widget_keypad_skin_classic.o
 .debug_str     0x0000196a       0x54 build/pic32mz_da_sk_intddr_meb2/production/_ext/1907747181/libaria_widget_label.o
 .debug_str     0x000019be       0x79 build/pic32mz_da_sk_intddr_meb2/production/_ext/1907747181/libaria_widget_label_skin_classic.o
 .debug_str     0x00001a37       0x47 build/pic32mz_da_sk_intddr_meb2/production/_ext/1907747181/libaria_widget_line.o
 .debug_str     0x00001a7e       0x54 build/pic32mz_da_sk_intddr_meb2/production/_ext/1907747181/libaria_widget_line_skin_classic.o
 .debug_str     0x00001ad2       0xaa build/pic32mz_da_sk_intddr_meb2/production/_ext/1907747181/libaria_widget_list.o
 .debug_str     0x00001b7c       0xb6 build/pic32mz_da_sk_intddr_meb2/production/_ext/1907747181/libaria_widget_list_skin_classic.o
 .debug_str     0x00001c32       0xa7 build/pic32mz_da_sk_intddr_meb2/production/_ext/1907747181/libaria_widget_listwheel.o
 .debug_str     0x00001cd9       0xf0 build/pic32mz_da_sk_intddr_meb2/production/_ext/1907747181/libaria_widget_listwheel_skin_classic.o
 .debug_str     0x00001dc9       0x54 build/pic32mz_da_sk_intddr_meb2/production/_ext/1907747181/libaria_widget_progressbar.o
 .debug_str     0x00001e1d       0x54 build/pic32mz_da_sk_intddr_meb2/production/_ext/1907747181/libaria_widget_progressbar_skin_classic.o
 .debug_str     0x00001e71       0xca build/pic32mz_da_sk_intddr_meb2/production/_ext/1907747181/libaria_widget_radiobutton.o
 .debug_str     0x00001f3b       0xb7 build/pic32mz_da_sk_intddr_meb2/production/_ext/1907747181/libaria_widget_radiobutton_skin_classic.o
 .debug_str     0x00001ff2       0x77 build/pic32mz_da_sk_intddr_meb2/production/_ext/1907747181/libaria_radiobutton_group.o
 .debug_str     0x00002069       0x47 build/pic32mz_da_sk_intddr_meb2/production/_ext/1907747181/libaria_widget_rectangle.o
 .debug_str     0x000020b0       0x54 build/pic32mz_da_sk_intddr_meb2/production/_ext/1907747181/libaria_widget_rectangle_skin_classic.o
 .debug_str     0x00002104       0x5e build/pic32mz_da_sk_intddr_meb2/production/_ext/1907747181/libaria_widget_scrollbar.o
 .debug_str     0x00002162       0x7f build/pic32mz_da_sk_intddr_meb2/production/_ext/1907747181/libaria_widget_scrollbar_skin_classic.o
 .debug_str     0x000021e1       0x59 build/pic32mz_da_sk_intddr_meb2/production/_ext/1907747181/libaria_widget_slider.o
 .debug_str     0x0000223a       0x6a build/pic32mz_da_sk_intddr_meb2/production/_ext/1907747181/libaria_widget_slider_skin_classic.o
 .debug_str     0x000022a4       0x84 build/pic32mz_da_sk_intddr_meb2/production/_ext/1907747181/libaria_widget_textfield.o
 .debug_str     0x00002328       0x86 build/pic32mz_da_sk_intddr_meb2/production/_ext/1907747181/libaria_widget_textfield_skin_classic.o
 .debug_str     0x000023ae       0x59 build/pic32mz_da_sk_intddr_meb2/production/_ext/1907747181/libaria_widget_touchtest.o
 .debug_str     0x00002407       0x76 build/pic32mz_da_sk_intddr_meb2/production/_ext/1907747181/libaria_widget_touchtest_skin_classic.o
 .debug_str     0x0000247d       0x65 build/pic32mz_da_sk_intddr_meb2/production/_ext/1907747181/libaria_widget_window.o
 .debug_str     0x000024e2       0xac build/pic32mz_da_sk_intddr_meb2/production/_ext/1907747181/libaria_widget_window_skin_classic.o
 .debug_str     0x0000258e       0x39 build/pic32mz_da_sk_intddr_meb2/production/_ext/1907747181/libaria_array.o
 .debug_str     0x000025c7       0x42 build/pic32mz_da_sk_intddr_meb2/production/_ext/1907747181/libaria_rectarray.o
 .debug_str     0x00002609       0x9c build/pic32mz_da_sk_intddr_meb2/production/_ext/1907747181/libaria_widget_skin_classic_common.o
 .debug_str     0x000026a5       0x4c build/pic32mz_da_sk_intddr_meb2/production/_ext/1907747181/libaria_widget_arc.o
 .debug_str     0x000026f1       0x54 build/pic32mz_da_sk_intddr_meb2/production/_ext/1907747181/libaria_widget_arc_skin_classic.o
 .debug_str     0x00002745       0xbb build/pic32mz_da_sk_intddr_meb2/production/_ext/1907747181/libaria_widget_circular_gauge.o
 .debug_str     0x00002800       0xf3 build/pic32mz_da_sk_intddr_meb2/production/_ext/1907747181/libaria_widget_circular_gauge_skin_classic.o
 .debug_str     0x000028f3       0x94 build/pic32mz_da_sk_intddr_meb2/production/_ext/1907747181/libaria_widget_circular_slider.o
 .debug_str     0x00002987       0x6d build/pic32mz_da_sk_intddr_meb2/production/_ext/1907747181/libaria_widget_circular_slider_skin_classic.o
 .debug_str     0x000029f4       0x94 build/pic32mz_da_sk_intddr_meb2/production/_ext/1907747181/libaria_widget_pie_chart.o
 .debug_str     0x00002a88       0x8f build/pic32mz_da_sk_intddr_meb2/production/_ext/1907747181/libaria_widget_pie_chart_skin_classic.o
 .debug_str     0x00002b17       0xa4 build/pic32mz_da_sk_intddr_meb2/production/_ext/1907747181/libaria_widget_bar_graph.o
 .debug_str     0x00002bbb      0x104 build/pic32mz_da_sk_intddr_meb2/production/_ext/1907747181/libaria_widget_bar_graph_skin_classic.o
 .debug_str     0x00002cbf       0xa4 build/pic32mz_da_sk_intddr_meb2/production/_ext/1907747181/libaria_widget_line_graph.o
 .debug_str     0x00002d63      0x11d build/pic32mz_da_sk_intddr_meb2/production/_ext/1907747181/libaria_widget_line_graph_skin_classic.o
 .debug_str     0x00002e80       0x80 build/pic32mz_da_sk_intddr_meb2/production/_ext/1907747181/libaria_widget_imageplus.o
 .debug_str     0x00002f00       0x5e build/pic32mz_da_sk_intddr_meb2/production/_ext/1907747181/libaria_widget_imageplus_skin_classic.o
 .debug_str     0x00002f5e       0x95 build/pic32mz_da_sk_intddr_meb2/production/_ext/1907747181/libaria_widget_radial_menu.o
 .debug_str     0x00002ff3       0x66 build/pic32mz_da_sk_intddr_meb2/production/_ext/1907747181/libaria_widget_radial_menu_skin_classic.o
 .debug_str     0x00003059        0xd build/pic32mz_da_sk_intddr_meb2/production/_ext/1597685232/gfxu_image.o
 .debug_str     0x00003066       0x7c build/pic32mz_da_sk_intddr_meb2/production/_ext/1597685232/gfxu_image_png_external.o
 .debug_str     0x000030e2       0x7c build/pic32mz_da_sk_intddr_meb2/production/_ext/1597685232/gfxu_image_png_internal.o
 .debug_str     0x0000315e        0xf build/pic32mz_da_sk_intddr_meb2/production/_ext/1597685232/gfxu_image_jpg_internal.o
 .debug_str     0x0000316d       0x1b build/pic32mz_da_sk_intddr_meb2/production/_ext/1597685232/gfxu_image_raw_external.o
 .debug_str     0x00003188       0x3e build/pic32mz_da_sk_intddr_meb2/production/_ext/1597685232/gfxu_image_raw_internal.o
 .debug_str     0x000031c6       0x1b build/pic32mz_da_sk_intddr_meb2/production/_ext/1597685232/gfxu_image_rle_external.o
 .debug_str     0x000031e1       0xb8 build/pic32mz_da_sk_intddr_meb2/production/_ext/1597685232/gfxu_image_rle_internal.o
 .debug_str     0x00003299        0x6 build/pic32mz_da_sk_intddr_meb2/production/_ext/1597685232/gfxu_image_utils.o
 .debug_str     0x0000329f        0x0 build/pic32mz_da_sk_intddr_meb2/production/_ext/1597685232/gfxu_palette.o
 .debug_str     0x0000329f       0x4a build/pic32mz_da_sk_intddr_meb2/production/_ext/1597685232/gfxu_string.o
 .debug_str     0x000032e9       0x38 build/pic32mz_da_sk_intddr_meb2/production/_ext/1597685232/gfxu_string_external.o
 .debug_str     0x00003321       0x4c build/pic32mz_da_sk_intddr_meb2/production/_ext/1597685232/gfxu_string_internal.o
 .debug_str     0x0000336d       0x52 build/pic32mz_da_sk_intddr_meb2/production/_ext/1597685232/gfxu_string_query.o
 .debug_str     0x000033bf       0xc0 build/pic32mz_da_sk_intddr_meb2/production/_ext/1597685232/gfxu_string_utils.o
 .debug_str     0x0000347f       0x32 build/pic32mz_da_sk_intddr_meb2/production/_ext/1597685232/gfxu_image_jpg_common.o
 .debug_str     0x000034b1        0xf build/pic32mz_da_sk_intddr_meb2/production/_ext/1597685232/gfxu_image_jpg_external.o
 .debug_str     0x000034c0       0x31 build/pic32mz_da_sk_intddr_meb2/production/_ext/1597685232/gfxu_stringbuffer_external.o
 .debug_str     0x000034f1       0x12 build/pic32mz_da_sk_intddr_meb2/production/_ext/2137108136/sys_debug.o
 .debug_str     0x00003503        0x6 build/pic32mz_da_sk_intddr_meb2/production/_ext/252650337/sys_input.o
 .debug_str     0x00003509        0x0 build/pic32mz_da_sk_intddr_meb2/production/_ext/252650337/sys_input_listener.o
 .debug_str     0x00003509       0x1d build/pic32mz_da_sk_intddr_meb2/production/_ext/1042686532/sys_int_pic32.o
 .debug_str     0x00003526        0x0 build/pic32mz_da_sk_intddr_meb2/production/_ext/426253641/jidctint.o
 .debug_str     0x00003526      0x482 build/pic32mz_da_sk_intddr_meb2/production/_ext/493934858/lodepng.o
 .debug_str     0x000039a8       0x23 build/pic32mz_da_sk_intddr_meb2/production/_ext/418582516/drv_usart_mapping.o
 .debug_str     0x000039cb       0xdf build/pic32mz_da_sk_intddr_meb2/production/_ext/418582516/drv_usart_static.o
 .debug_str     0x00003aaa        0xc build/pic32mz_da_sk_intddr_meb2/production/_ext/418582516/drv_usart_static_byte_model.o
 .debug_str     0x00003ab6      0x232 build/pic32mz_da_sk_intddr_meb2/production/_ext/1094895838/drv_gfx_glcd_static.o
 .debug_str     0x00003ce8       0x4d build/pic32mz_da_sk_intddr_meb2/production/_ext/590040425/libaria_harmony.o
 .debug_str     0x00003d35       0x71 build/pic32mz_da_sk_intddr_meb2/production/_ext/590040425/libaria_init.o
 .debug_str     0x00003da6        0x0 build/pic32mz_da_sk_intddr_meb2/production/_ext/590040425/libaria_events.o
 .debug_str     0x00003da6        0x0 build/pic32mz_da_sk_intddr_meb2/production/_ext/590040425/libaria_macros.o
 .debug_str     0x00003da6       0x23 build/pic32mz_da_sk_intddr_meb2/production/_ext/1719547748/gfx_display_def.o
 .debug_str     0x00003dc9       0x68 build/pic32mz_da_sk_intddr_meb2/production/_ext/1719547748/gfx_driver_def.o
 .debug_str     0x00003e31        0x0 build/pic32mz_da_sk_intddr_meb2/production/_ext/1719547748/gfx_processor_def.o
 .debug_str     0x00003e31       0x75 build/pic32mz_da_sk_intddr_meb2/production/_ext/370156264/sys_clk_pic32mz.o
 .debug_str     0x00003ea6       0x16 build/pic32mz_da_sk_intddr_meb2/production/_ext/1796496159/sys_devcon.o
 .debug_str     0x00003ebc       0x1a build/pic32mz_da_sk_intddr_meb2/production/_ext/1796496159/sys_devcon_pic32mz.o
 .debug_str     0x00003ed6       0xcd build/pic32mz_da_sk_intddr_meb2/production/_ext/730466360/sys_ports_static.o
 .debug_str     0x00003fa3       0x16 build/pic32mz_da_sk_intddr_meb2/production/_ext/639474099/sys_console_static.o
 .debug_str     0x00003fb9       0x8f build/pic32mz_da_sk_intddr_meb2/production/_ext/327666056/sys_memory_ddr_static.o
 .debug_str     0x00004048        0x0 build/pic32mz_da_sk_intddr_meb2/production/_ext/85614229/sys_memory_static.o
 .debug_str     0x00004048        0x0 build/pic32mz_da_sk_intddr_meb2/production/_ext/1547055377/bsp.o
 .debug_str     0x00004048       0x4c build/pic32mz_da_sk_intddr_meb2/production/_ext/1653314881/system_init.o
 .debug_str     0x00004094        0x0 build/pic32mz_da_sk_intddr_meb2/production/_ext/1653314881/system_interrupt.o
 .debug_str     0x00004094        0x0 build/pic32mz_da_sk_intddr_meb2/production/_ext/1653314881/general_exception_handler.o
 .debug_str     0x00004094        0x0 build/pic32mz_da_sk_intddr_meb2/production/_ext/1653314881/fassert.o
 .debug_str     0x00004094        0x0 build/pic32mz_da_sk_intddr_meb2/production/_ext/1653314881/system_tasks.o
 .debug_str     0x00004094       0x2a build/pic32mz_da_sk_intddr_meb2/production/_ext/1021385576/gfx_assets.o
 .debug_str     0x000040be        0x0 f:/software_installations/mplab_xc32/bin/bin/../../lib/gcc/pic32mx/4.8.3\libgcc.a(floatunsisf.o)
 .debug_str     0x000040be        0x0 f:/software_installations/mplab_xc32/bin/bin/../../lib/gcc/pic32mx/4.8.3/../../../../pic32mx/lib\libpic32.a(default-bootstrap-exception-handler.o)
 .debug_str     0x000040be        0x0 f:/software_installations/mplab_xc32/bin/bin/../../lib/gcc/pic32mx/4.8.3/../../../../pic32mx/lib\libpic32.a(default-on-reset.o)
 .debug_str     0x000040be        0x0 f:/software_installations/mplab_xc32/bin/bin/../../lib/gcc/pic32mx/4.8.3/../../../../pic32mx/lib\libpic32.a(default-on-bootstrap.o)
 .debug_str     0x000040be        0x0 f:/software_installations/mplab_xc32/bin/bin/../../lib/gcc/pic32mx/4.8.3/../../../../pic32mx/lib\libpic32.a(defaultinterrupt.o)
 .debug_str     0x000040be        0x0 f:/software_installations/mplab_xc32/bin/bin/../../lib/gcc/pic32mx/4.8.3/../../../../pic32mx/lib\libpic32.a(default-cache-err-exception-handler.o)
 .debug_str     0x000040be        0x0 f:/software_installations/mplab_xc32/bin/bin/../../lib/gcc/pic32mx/4.8.3/../../../../pic32mx/lib\libpic32.a(default-simple-tlb-refill-exception-handler.o)
 .debug_str     0x000040be        0x0 f:/software_installations/mplab_xc32/bin/bin/../../lib/gcc/pic32mx/4.8.3\libgcc.a(_udivdi3.o)
 .debug_str     0x000040be        0x0 f:/software_installations/mplab_xc32/bin/bin/../../lib/gcc/pic32mx/4.8.3\libgcc.a(_umoddi3.o)
 .debug_str     0x000040be        0x0 f:/software_installations/mplab_xc32/bin/bin/../../lib/gcc/pic32mx/4.8.3/../../../../pic32mx/lib\libpic32.a(sbrk.o)
 .debug_str     0x000040be        0x0 f:/software_installations/mplab_xc32/bin/bin/../../lib/gcc/pic32mx/4.8.3/../../../../pic32mx/lib\libpic32.a(_mon_getc.o)
 .debug_str     0x000040be        0x0 f:/software_installations/mplab_xc32/bin/bin/../../lib/gcc/pic32mx/4.8.3/../../../../pic32mx/lib\libpic32.a(_mon_write.o)
 .debug_str     0x000040be        0x0 f:/software_installations/mplab_xc32/bin/bin/../../lib/gcc/pic32mx/4.8.3/../../../../pic32mx/lib\libpic32.a(xc32_uart.o)
 .debug_str     0x000040be        0x0 f:/software_installations/mplab_xc32/bin/bin/../../lib/gcc/pic32mx/4.8.3/../../../../pic32mx/lib\libpic32.a(_mon_putc.o)

.debug_loc      0x00000000    0x4d274
 *.elf(.debug_loc)
 *(.debug_loc)
 .debug_loc     0x00000000       0x14 build/pic32mz_da_sk_intddr_meb2/production/_ext/1360937237/app.o
 .debug_loc     0x00000014     0x30a0 build/pic32mz_da_sk_intddr_meb2/production/_ext/475095144/drv_i2c_bb_a.o
 .debug_loc     0x000030b4     0x1a93 build/pic32mz_da_sk_intddr_meb2/production/_ext/475095144/drv_i2c_bb.o
 .debug_loc     0x00004b47      0xae7 build/pic32mz_da_sk_intddr_meb2/production/_ext/1177928576/drv_mxt336t.o
 .debug_loc     0x0000562e      0x7ca build/pic32mz_da_sk_intddr_meb2/production/_ext/1847583374/gfx.o
 .debug_loc     0x00005df8       0xa5 build/pic32mz_da_sk_intddr_meb2/production/_ext/1847583374/gfx_color.o
 .debug_loc     0x00005e9d     0x1631 build/pic32mz_da_sk_intddr_meb2/production/_ext/1847583374/gfx_default_impl.o
 .debug_loc     0x000074ce     0x1023 build/pic32mz_da_sk_intddr_meb2/production/_ext/1847583374/gfx_get.o
 .debug_loc     0x000084f1      0xb0c build/pic32mz_da_sk_intddr_meb2/production/_ext/1847583374/gfx_layer.o
 .debug_loc     0x00008ffd     0x103f build/pic32mz_da_sk_intddr_meb2/production/_ext/1847583374/gfx_pixel_buffer.o
 .debug_loc     0x0000a03c      0x76b build/pic32mz_da_sk_intddr_meb2/production/_ext/1847583374/gfx_rect.o
 .debug_loc     0x0000a7a7      0x8e1 build/pic32mz_da_sk_intddr_meb2/production/_ext/1847583374/gfx_util.o
 .debug_loc     0x0000b088     0x10aa build/pic32mz_da_sk_intddr_meb2/production/_ext/1847583374/gfx_set.o
 .debug_loc     0x0000c132      0x805 build/pic32mz_da_sk_intddr_meb2/production/_ext/1847583374/gfx_color_blend.o
 .debug_loc     0x0000c937     0x1706 build/pic32mz_da_sk_intddr_meb2/production/_ext/1847583374/gfx_color_convert.o
 .debug_loc     0x0000e03d      0xf44 build/pic32mz_da_sk_intddr_meb2/production/_ext/1847583374/gfx_color_lerp.o
 .debug_loc     0x0000ef81       0x4d build/pic32mz_da_sk_intddr_meb2/production/_ext/1847583374/gfx_color_value.o
 .debug_loc     0x0000efce      0x571 build/pic32mz_da_sk_intddr_meb2/production/_ext/1847583374/gfx_draw_blit.o
 .debug_loc     0x0000f53f      0x23a build/pic32mz_da_sk_intddr_meb2/production/_ext/1847583374/gfx_draw_circle.o
 .debug_loc     0x0000f779      0x85c build/pic32mz_da_sk_intddr_meb2/production/_ext/1847583374/gfx_draw_line.o
 .debug_loc     0x0000ffd5      0x217 build/pic32mz_da_sk_intddr_meb2/production/_ext/1847583374/gfx_draw_pixel.o
 .debug_loc     0x000101ec      0x381 build/pic32mz_da_sk_intddr_meb2/production/_ext/1847583374/gfx_draw_rect.o
 .debug_loc     0x0001056d      0x89e build/pic32mz_da_sk_intddr_meb2/production/_ext/1847583374/gfx_math.o
 .debug_loc     0x00010e0b      0x800 build/pic32mz_da_sk_intddr_meb2/production/_ext/1847583374/gfx_draw_stretchblit.o
 .debug_loc     0x0001160b      0xb73 build/pic32mz_da_sk_intddr_meb2/production/_ext/1847583374/gfx_draw_arc.o
 .debug_loc     0x0001217e      0x3d3 build/pic32mz_da_sk_intddr_meb2/production/_ext/1847583374/gfx_draw_ellipse.o
 .debug_loc     0x00012551       0x34 build/pic32mz_da_sk_intddr_meb2/production/_ext/1907747181/libaria.o
 .debug_loc     0x00012585      0x8cf build/pic32mz_da_sk_intddr_meb2/production/_ext/1907747181/libaria_context.o
 .debug_loc     0x00012e54      0x249 build/pic32mz_da_sk_intddr_meb2/production/_ext/1907747181/libaria_context_paint.o
 .debug_loc     0x0001309d      0x288 build/pic32mz_da_sk_intddr_meb2/production/_ext/1907747181/libaria_draw.o
 .debug_loc     0x00013325       0xd2 build/pic32mz_da_sk_intddr_meb2/production/_ext/1907747181/libaria_editwidget.o
 .debug_loc     0x000133f7      0x128 build/pic32mz_da_sk_intddr_meb2/production/_ext/1907747181/libaria_event.o
 .debug_loc     0x0001351f      0x6c5 build/pic32mz_da_sk_intddr_meb2/production/_ext/1907747181/libaria_input.o
 .debug_loc     0x00013be4      0x80f build/pic32mz_da_sk_intddr_meb2/production/_ext/1907747181/libaria_layer.o
 .debug_loc     0x000143f3      0x69e build/pic32mz_da_sk_intddr_meb2/production/_ext/1907747181/libaria_list.o
 .debug_loc     0x00014a91       0x58 build/pic32mz_da_sk_intddr_meb2/production/_ext/1907747181/libaria_scheme.o
 .debug_loc     0x00014ae9      0x2dd build/pic32mz_da_sk_intddr_meb2/production/_ext/1907747181/libaria_screen.o
 .debug_loc     0x00014dc6     0x139b build/pic32mz_da_sk_intddr_meb2/production/_ext/1907747181/libaria_string.o
 .debug_loc     0x00016161     0x12f5 build/pic32mz_da_sk_intddr_meb2/production/_ext/1907747181/libaria_utils.o
 .debug_loc     0x00017456     0x130d build/pic32mz_da_sk_intddr_meb2/production/_ext/1907747181/libaria_widget.o
 .debug_loc     0x00018763       0xbb build/pic32mz_da_sk_intddr_meb2/production/_ext/1907747181/libaria_widget_skin_classic.o
 .debug_loc     0x0001881e      0x812 build/pic32mz_da_sk_intddr_meb2/production/_ext/1907747181/libaria_widget_button.o
 .debug_loc     0x00019030      0x570 build/pic32mz_da_sk_intddr_meb2/production/_ext/1907747181/libaria_widget_button_skin_classic.o
 .debug_loc     0x000195a0      0x62c build/pic32mz_da_sk_intddr_meb2/production/_ext/1907747181/libaria_widget_checkbox.o
 .debug_loc     0x00019bcc      0x353 build/pic32mz_da_sk_intddr_meb2/production/_ext/1907747181/libaria_widget_checkbox_skin_classic.o
 .debug_loc     0x00019f1f      0x199 build/pic32mz_da_sk_intddr_meb2/production/_ext/1907747181/libaria_widget_circle.o
 .debug_loc     0x0001a0b8      0x110 build/pic32mz_da_sk_intddr_meb2/production/_ext/1907747181/libaria_widget_circle_skin_classic.o
 .debug_loc     0x0001a1c8       0xeb build/pic32mz_da_sk_intddr_meb2/production/_ext/1907747181/libaria_widget_drawsurface.o
 .debug_loc     0x0001a2b3       0xe4 build/pic32mz_da_sk_intddr_meb2/production/_ext/1907747181/libaria_widget_drawsurface_skin_classic.o
 .debug_loc     0x0001a397       0xeb build/pic32mz_da_sk_intddr_meb2/production/_ext/1907747181/libaria_widget_gradient.o
 .debug_loc     0x0001a482      0x125 build/pic32mz_da_sk_intddr_meb2/production/_ext/1907747181/libaria_widget_gradient_skin_classic.o
 .debug_loc     0x0001a5a7      0x201 build/pic32mz_da_sk_intddr_meb2/production/_ext/1907747181/libaria_widget_groupbox.o
 .debug_loc     0x0001a7a8      0x4b0 build/pic32mz_da_sk_intddr_meb2/production/_ext/1907747181/libaria_widget_groupbox_skin_classic.o
 .debug_loc     0x0001ac58      0x224 build/pic32mz_da_sk_intddr_meb2/production/_ext/1907747181/libaria_widget_image.o
 .debug_loc     0x0001ae7c      0x1c0 build/pic32mz_da_sk_intddr_meb2/production/_ext/1907747181/libaria_widget_image_skin_classic.o
 .debug_loc     0x0001b03c      0x57b build/pic32mz_da_sk_intddr_meb2/production/_ext/1907747181/libaria_widget_imagesequence.o
 .debug_loc     0x0001b5b7      0x1c0 build/pic32mz_da_sk_intddr_meb2/production/_ext/1907747181/libaria_widget_imagesequence_skin_classic.o
 .debug_loc     0x0001b777     0x124e build/pic32mz_da_sk_intddr_meb2/production/_ext/1907747181/libaria_widget_keypad.o
 .debug_loc     0x0001c9c5      0x10b build/pic32mz_da_sk_intddr_meb2/production/_ext/1907747181/libaria_widget_keypad_skin_classic.o
 .debug_loc     0x0001cad0      0x298 build/pic32mz_da_sk_intddr_meb2/production/_ext/1907747181/libaria_widget_label.o
 .debug_loc     0x0001cd68      0x36a build/pic32mz_da_sk_intddr_meb2/production/_ext/1907747181/libaria_widget_label_skin_classic.o
 .debug_loc     0x0001d0d2      0x1d3 build/pic32mz_da_sk_intddr_meb2/production/_ext/1907747181/libaria_widget_line.o
 .debug_loc     0x0001d2a5      0x110 build/pic32mz_da_sk_intddr_meb2/production/_ext/1907747181/libaria_widget_line_skin_classic.o
 .debug_loc     0x0001d3b5     0x129a build/pic32mz_da_sk_intddr_meb2/production/_ext/1907747181/libaria_widget_list.o
 .debug_loc     0x0001e64f      0x5f3 build/pic32mz_da_sk_intddr_meb2/production/_ext/1907747181/libaria_widget_list_skin_classic.o
 .debug_loc     0x0001ec42     0x1168 build/pic32mz_da_sk_intddr_meb2/production/_ext/1907747181/libaria_widget_listwheel.o
 .debug_loc     0x0001fdaa      0xd48 build/pic32mz_da_sk_intddr_meb2/production/_ext/1907747181/libaria_widget_listwheel_skin_classic.o
 .debug_loc     0x00020af2      0x1c8 build/pic32mz_da_sk_intddr_meb2/production/_ext/1907747181/libaria_widget_progressbar.o
 .debug_loc     0x00020cba      0x5ed build/pic32mz_da_sk_intddr_meb2/production/_ext/1907747181/libaria_widget_progressbar_skin_classic.o
 .debug_loc     0x000212a7      0x6aa build/pic32mz_da_sk_intddr_meb2/production/_ext/1907747181/libaria_widget_radiobutton.o
 .debug_loc     0x00021951      0x444 build/pic32mz_da_sk_intddr_meb2/production/_ext/1907747181/libaria_widget_radiobutton_skin_classic.o
 .debug_loc     0x00021d95      0x20d build/pic32mz_da_sk_intddr_meb2/production/_ext/1907747181/libaria_radiobutton_group.o
 .debug_loc     0x00021fa2       0xe2 build/pic32mz_da_sk_intddr_meb2/production/_ext/1907747181/libaria_widget_rectangle.o
 .debug_loc     0x00022084      0x192 build/pic32mz_da_sk_intddr_meb2/production/_ext/1907747181/libaria_widget_rectangle_skin_classic.o
 .debug_loc     0x00022216      0x712 build/pic32mz_da_sk_intddr_meb2/production/_ext/1907747181/libaria_widget_scrollbar.o
 .debug_loc     0x00022928      0x530 build/pic32mz_da_sk_intddr_meb2/production/_ext/1907747181/libaria_widget_scrollbar_skin_classic.o
 .debug_loc     0x00022e58      0x6c7 build/pic32mz_da_sk_intddr_meb2/production/_ext/1907747181/libaria_widget_slider.o
 .debug_loc     0x0002351f      0x43d build/pic32mz_da_sk_intddr_meb2/production/_ext/1907747181/libaria_widget_slider_skin_classic.o
 .debug_loc     0x0002395c      0x5ce build/pic32mz_da_sk_intddr_meb2/production/_ext/1907747181/libaria_widget_textfield.o
 .debug_loc     0x00023f2a      0x2b2 build/pic32mz_da_sk_intddr_meb2/production/_ext/1907747181/libaria_widget_textfield_skin_classic.o
 .debug_loc     0x000241dc      0x264 build/pic32mz_da_sk_intddr_meb2/production/_ext/1907747181/libaria_widget_touchtest.o
 .debug_loc     0x00024440      0x2c4 build/pic32mz_da_sk_intddr_meb2/production/_ext/1907747181/libaria_widget_touchtest_skin_classic.o
 .debug_loc     0x00024704      0x2ba build/pic32mz_da_sk_intddr_meb2/production/_ext/1907747181/libaria_widget_window.o
 .debug_loc     0x000249be      0x3c2 build/pic32mz_da_sk_intddr_meb2/production/_ext/1907747181/libaria_widget_window_skin_classic.o
 .debug_loc     0x00024d80      0x4ee build/pic32mz_da_sk_intddr_meb2/production/_ext/1907747181/libaria_array.o
 .debug_loc     0x0002526e      0x56b build/pic32mz_da_sk_intddr_meb2/production/_ext/1907747181/libaria_rectarray.o
 .debug_loc     0x000257d9      0xc8a build/pic32mz_da_sk_intddr_meb2/production/_ext/1907747181/libaria_widget_skin_classic_common.o
 .debug_loc     0x00026463      0x247 build/pic32mz_da_sk_intddr_meb2/production/_ext/1907747181/libaria_widget_arc.o
 .debug_loc     0x000266aa      0x195 build/pic32mz_da_sk_intddr_meb2/production/_ext/1907747181/libaria_widget_arc_skin_classic.o
 .debug_loc     0x0002683f      0xf0a build/pic32mz_da_sk_intddr_meb2/production/_ext/1907747181/libaria_widget_circular_gauge.o
 .debug_loc     0x00027749      0x536 build/pic32mz_da_sk_intddr_meb2/production/_ext/1907747181/libaria_widget_circular_gauge_skin_classic.o
 .debug_loc     0x00027c7f      0xcda build/pic32mz_da_sk_intddr_meb2/production/_ext/1907747181/libaria_widget_circular_slider.o
 .debug_loc     0x00028959      0x1fa build/pic32mz_da_sk_intddr_meb2/production/_ext/1907747181/libaria_widget_circular_slider_skin_classic.o
 .debug_loc     0x00028b53      0xda5 build/pic32mz_da_sk_intddr_meb2/production/_ext/1907747181/libaria_widget_pie_chart.o
 .debug_loc     0x000298f8      0x27c build/pic32mz_da_sk_intddr_meb2/production/_ext/1907747181/libaria_widget_pie_chart_skin_classic.o
 .debug_loc     0x00029b74     0x123a build/pic32mz_da_sk_intddr_meb2/production/_ext/1907747181/libaria_widget_bar_graph.o
 .debug_loc     0x0002adae     0x101a build/pic32mz_da_sk_intddr_meb2/production/_ext/1907747181/libaria_widget_bar_graph_skin_classic.o
 .debug_loc     0x0002bdc8     0x182b build/pic32mz_da_sk_intddr_meb2/production/_ext/1907747181/libaria_widget_line_graph.o
 .debug_loc     0x0002d5f3     0x1885 build/pic32mz_da_sk_intddr_meb2/production/_ext/1907747181/libaria_widget_line_graph_skin_classic.o
 .debug_loc     0x0002ee78      0x508 build/pic32mz_da_sk_intddr_meb2/production/_ext/1907747181/libaria_widget_imageplus.o
 .debug_loc     0x0002f380      0x27b build/pic32mz_da_sk_intddr_meb2/production/_ext/1907747181/libaria_widget_imageplus_skin_classic.o
 .debug_loc     0x0002f5fb     0x1656 build/pic32mz_da_sk_intddr_meb2/production/_ext/1907747181/libaria_widget_radial_menu.o
 .debug_loc     0x00030c51      0x297 build/pic32mz_da_sk_intddr_meb2/production/_ext/1907747181/libaria_widget_radial_menu_skin_classic.o
 .debug_loc     0x00030ee8      0x2a2 build/pic32mz_da_sk_intddr_meb2/production/_ext/1597685232/gfxu_image.o
 .debug_loc     0x0003118a      0x24c build/pic32mz_da_sk_intddr_meb2/production/_ext/1597685232/gfxu_image_png_external.o
 .debug_loc     0x000313d6      0x2bd build/pic32mz_da_sk_intddr_meb2/production/_ext/1597685232/gfxu_image_png_internal.o
 .debug_loc     0x00031693      0x230 build/pic32mz_da_sk_intddr_meb2/production/_ext/1597685232/gfxu_image_jpg_internal.o
 .debug_loc     0x000318c3      0x4bb build/pic32mz_da_sk_intddr_meb2/production/_ext/1597685232/gfxu_image_raw_external.o
 .debug_loc     0x00031d7e      0x297 build/pic32mz_da_sk_intddr_meb2/production/_ext/1597685232/gfxu_image_raw_internal.o
 .debug_loc     0x00032015      0x5b8 build/pic32mz_da_sk_intddr_meb2/production/_ext/1597685232/gfxu_image_rle_external.o
 .debug_loc     0x000325cd      0x694 build/pic32mz_da_sk_intddr_meb2/production/_ext/1597685232/gfxu_image_rle_internal.o
 .debug_loc     0x00032c61      0x260 build/pic32mz_da_sk_intddr_meb2/production/_ext/1597685232/gfxu_image_utils.o
 .debug_loc     0x00032ec1      0xcfd build/pic32mz_da_sk_intddr_meb2/production/_ext/1597685232/gfxu_string.o
 .debug_loc     0x00033bbe      0x37c build/pic32mz_da_sk_intddr_meb2/production/_ext/1597685232/gfxu_string_external.o
 .debug_loc     0x00033f3a      0x63f build/pic32mz_da_sk_intddr_meb2/production/_ext/1597685232/gfxu_string_internal.o
 .debug_loc     0x00034579     0x1192 build/pic32mz_da_sk_intddr_meb2/production/_ext/1597685232/gfxu_string_query.o
 .debug_loc     0x0003570b     0x1b15 build/pic32mz_da_sk_intddr_meb2/production/_ext/1597685232/gfxu_string_utils.o
 .debug_loc     0x00037220      0xa09 build/pic32mz_da_sk_intddr_meb2/production/_ext/1597685232/gfxu_image_jpg_common.o
 .debug_loc     0x00037c29      0x2a0 build/pic32mz_da_sk_intddr_meb2/production/_ext/1597685232/gfxu_image_jpg_external.o
 .debug_loc     0x00037ec9      0x3d8 build/pic32mz_da_sk_intddr_meb2/production/_ext/1597685232/gfxu_stringbuffer_external.o
 .debug_loc     0x000382a1       0xe3 build/pic32mz_da_sk_intddr_meb2/production/_ext/2137108136/sys_debug.o
 .debug_loc     0x00038384      0x124 build/pic32mz_da_sk_intddr_meb2/production/_ext/252650337/sys_input.o
 .debug_loc     0x000384a8       0x7c build/pic32mz_da_sk_intddr_meb2/production/_ext/1042686532/sys_int_pic32.o
 .debug_loc     0x00038524     0x146c build/pic32mz_da_sk_intddr_meb2/production/_ext/426253641/jidctint.o
 .debug_loc     0x00039990     0xf53a build/pic32mz_da_sk_intddr_meb2/production/_ext/493934858/lodepng.o
 .debug_loc     0x00048eca      0x6d6 build/pic32mz_da_sk_intddr_meb2/production/_ext/418582516/drv_usart_mapping.o
 .debug_loc     0x000495a0      0x466 build/pic32mz_da_sk_intddr_meb2/production/_ext/418582516/drv_usart_static.o
 .debug_loc     0x00049a06       0x13 build/pic32mz_da_sk_intddr_meb2/production/_ext/418582516/drv_usart_static_byte_model.o
 .debug_loc     0x00049a19     0x1136 build/pic32mz_da_sk_intddr_meb2/production/_ext/1094895838/drv_gfx_glcd_static.o
 .debug_loc     0x0004ab4f       0x84 build/pic32mz_da_sk_intddr_meb2/production/_ext/590040425/libaria_harmony.o
 .debug_loc     0x0004abd3       0x5d build/pic32mz_da_sk_intddr_meb2/production/_ext/590040425/libaria_init.o
 .debug_loc     0x0004ac30       0x97 build/pic32mz_da_sk_intddr_meb2/production/_ext/370156264/sys_clk_pic32mz.o
 .debug_loc     0x0004acc7       0xf0 build/pic32mz_da_sk_intddr_meb2/production/_ext/1796496159/sys_devcon.o
 .debug_loc     0x0004adb7      0x3fd build/pic32mz_da_sk_intddr_meb2/production/_ext/1796496159/sys_devcon_pic32mz.o
 .debug_loc     0x0004b1b4      0x7de build/pic32mz_da_sk_intddr_meb2/production/_ext/730466360/sys_ports_static.o
 .debug_loc     0x0004b992      0x1a9 build/pic32mz_da_sk_intddr_meb2/production/_ext/639474099/sys_console_static.o
 .debug_loc     0x0004bb3b       0x20 build/pic32mz_da_sk_intddr_meb2/production/_ext/327666056/sys_memory_ddr_static.o
 .debug_loc     0x0004bb5b       0x21 build/pic32mz_da_sk_intddr_meb2/production/_ext/1653314881/system_init.o
 .debug_loc     0x0004bb7c       0x21 build/pic32mz_da_sk_intddr_meb2/production/_ext/1653314881/general_exception_handler.o
 .debug_loc     0x0004bb9d       0x78 build/pic32mz_da_sk_intddr_meb2/production/_ext/1653314881/fassert.o
 .debug_loc     0x0004bc15       0x74 f:/software_installations/mplab_xc32/bin/bin/../../lib/gcc/pic32mx/4.8.3\libgcc.a(floatunsisf.o)
 .debug_loc     0x0004bc89       0x2c f:/software_installations/mplab_xc32/bin/bin/../../lib/gcc/pic32mx/4.8.3/../../../../pic32mx/lib\libpic32.a(default-bootstrap-exception-handler.o)
 .debug_loc     0x0004bcb5       0x2c f:/software_installations/mplab_xc32/bin/bin/../../lib/gcc/pic32mx/4.8.3/../../../../pic32mx/lib\libpic32.a(default-cache-err-exception-handler.o)
 .debug_loc     0x0004bce1       0x2c f:/software_installations/mplab_xc32/bin/bin/../../lib/gcc/pic32mx/4.8.3/../../../../pic32mx/lib\libpic32.a(default-simple-tlb-refill-exception-handler.o)
 .debug_loc     0x0004bd0d      0xa6a f:/software_installations/mplab_xc32/bin/bin/../../lib/gcc/pic32mx/4.8.3\libgcc.a(_udivdi3.o)
 .debug_loc     0x0004c777      0xa3d f:/software_installations/mplab_xc32/bin/bin/../../lib/gcc/pic32mx/4.8.3\libgcc.a(_umoddi3.o)
 .debug_loc     0x0004d1b4       0x60 f:/software_installations/mplab_xc32/bin/bin/../../lib/gcc/pic32mx/4.8.3/../../../../pic32mx/lib\libpic32.a(sbrk.o)
 .debug_loc     0x0004d214       0x20 f:/software_installations/mplab_xc32/bin/bin/../../lib/gcc/pic32mx/4.8.3/../../../../pic32mx/lib\libpic32.a(_mon_getc.o)
 .debug_loc     0x0004d234       0x20 f:/software_installations/mplab_xc32/bin/bin/../../lib/gcc/pic32mx/4.8.3/../../../../pic32mx/lib\libpic32.a(_mon_write.o)
 .debug_loc     0x0004d254       0x20 f:/software_installations/mplab_xc32/bin/bin/../../lib/gcc/pic32mx/4.8.3/../../../../pic32mx/lib\libpic32.a(_mon_putc.o)

.debug_macinfo
 *.elf(.debug_macinfo)
 *(.debug_macinfo)

.debug_weaknames
 *.elf(.debug_weaknames)
 *(.debug_weaknames)

.debug_funcnames
 *.elf(.debug_funcnames)
 *(.debug_funcnames)

.debug_typenames
 *.elf(.debug_typenames)
 *(.debug_typenames)

.debug_varnames
 *.elf(.debug_varnames)
 *(.debug_varnames)

.debug_pubtypes
 *.elf(.debug_pubtypes)
 *(.debug_pubtypes)

.debug_ranges   0x00000000     0x6e00
 *.elf(.debug_ranges)
 *(.debug_ranges)
 .debug_ranges  0x00000000       0x18 build/pic32mz_da_sk_intddr_meb2/production/_ext/1360937237/app.o
 .debug_ranges  0x00000018       0x10 build/pic32mz_da_sk_intddr_meb2/production/_ext/1360937237/main.o
 .debug_ranges  0x00000028      0x150 build/pic32mz_da_sk_intddr_meb2/production/_ext/475095144/drv_i2c_bb_a.o
 .debug_ranges  0x00000178       0x68 build/pic32mz_da_sk_intddr_meb2/production/_ext/475095144/drv_i2c_bb.o
 .debug_ranges  0x000001e0      0x120 build/pic32mz_da_sk_intddr_meb2/production/_ext/1177928576/drv_mxt336t.o
 .debug_ranges  0x00000300       0x70 build/pic32mz_da_sk_intddr_meb2/production/_ext/1847583374/gfx.o
 .debug_ranges  0x00000370       0x30 build/pic32mz_da_sk_intddr_meb2/production/_ext/1847583374/gfx_color.o
 .debug_ranges  0x000003a0       0x20 build/pic32mz_da_sk_intddr_meb2/production/_ext/1847583374/gfx_context.o
 .debug_ranges  0x000003c0      0x358 build/pic32mz_da_sk_intddr_meb2/production/_ext/1847583374/gfx_default_impl.o
 .debug_ranges  0x00000718       0x10 build/pic32mz_da_sk_intddr_meb2/production/_ext/1847583374/gfx_display.o
 .debug_ranges  0x00000728       0x20 build/pic32mz_da_sk_intddr_meb2/production/_ext/1847583374/gfx_driver_interface.o
 .debug_ranges  0x00000748      0x180 build/pic32mz_da_sk_intddr_meb2/production/_ext/1847583374/gfx_get.o
 .debug_ranges  0x000008c8       0x60 build/pic32mz_da_sk_intddr_meb2/production/_ext/1847583374/gfx_layer.o
 .debug_ranges  0x00000928       0xf0 build/pic32mz_da_sk_intddr_meb2/production/_ext/1847583374/gfx_pixel_buffer.o
 .debug_ranges  0x00000a18       0x60 build/pic32mz_da_sk_intddr_meb2/production/_ext/1847583374/gfx_rect.o
 .debug_ranges  0x00000a78       0x98 build/pic32mz_da_sk_intddr_meb2/production/_ext/1847583374/gfx_util.o
 .debug_ranges  0x00000b10      0x158 build/pic32mz_da_sk_intddr_meb2/production/_ext/1847583374/gfx_set.o
 .debug_ranges  0x00000c68       0x80 build/pic32mz_da_sk_intddr_meb2/production/_ext/1847583374/gfx_color_blend.o
 .debug_ranges  0x00000ce8      0x1f8 build/pic32mz_da_sk_intddr_meb2/production/_ext/1847583374/gfx_color_convert.o
 .debug_ranges  0x00000ee0       0x50 build/pic32mz_da_sk_intddr_meb2/production/_ext/1847583374/gfx_color_lerp.o
 .debug_ranges  0x00000f30       0x10 build/pic32mz_da_sk_intddr_meb2/production/_ext/1847583374/gfx_color_value.o
 .debug_ranges  0x00000f40       0x30 build/pic32mz_da_sk_intddr_meb2/production/_ext/1847583374/gfx_draw_blit.o
 .debug_ranges  0x00000f70       0x18 build/pic32mz_da_sk_intddr_meb2/production/_ext/1847583374/gfx_draw_circle.o
 .debug_ranges  0x00000f88       0x70 build/pic32mz_da_sk_intddr_meb2/production/_ext/1847583374/gfx_draw_line.o
 .debug_ranges  0x00000ff8       0x28 build/pic32mz_da_sk_intddr_meb2/production/_ext/1847583374/gfx_draw_pixel.o
 .debug_ranges  0x00001020       0x58 build/pic32mz_da_sk_intddr_meb2/production/_ext/1847583374/gfx_draw_rect.o
 .debug_ranges  0x00001078       0xa8 build/pic32mz_da_sk_intddr_meb2/production/_ext/1847583374/gfx_math.o
 .debug_ranges  0x00001120       0x20 build/pic32mz_da_sk_intddr_meb2/production/_ext/1847583374/gfx_draw_stretchblit.o
 .debug_ranges  0x00001140       0x38 build/pic32mz_da_sk_intddr_meb2/production/_ext/1847583374/gfx_draw_arc.o
 .debug_ranges  0x00001178       0x18 build/pic32mz_da_sk_intddr_meb2/production/_ext/1847583374/gfx_draw_ellipse.o
 .debug_ranges  0x00001190       0x20 build/pic32mz_da_sk_intddr_meb2/production/_ext/1907747181/libaria.o
 .debug_ranges  0x000011b0      0x108 build/pic32mz_da_sk_intddr_meb2/production/_ext/1907747181/libaria_context.o
 .debug_ranges  0x000012b8       0x28 build/pic32mz_da_sk_intddr_meb2/production/_ext/1907747181/libaria_context_paint.o
 .debug_ranges  0x000012e0       0x28 build/pic32mz_da_sk_intddr_meb2/production/_ext/1907747181/libaria_draw.o
 .debug_ranges  0x00001308       0x88 build/pic32mz_da_sk_intddr_meb2/production/_ext/1907747181/libaria_editwidget.o
 .debug_ranges  0x00001390       0x48 build/pic32mz_da_sk_intddr_meb2/production/_ext/1907747181/libaria_event.o
 .debug_ranges  0x000013d8       0x58 build/pic32mz_da_sk_intddr_meb2/production/_ext/1907747181/libaria_input.o
 .debug_ranges  0x00001430      0x128 build/pic32mz_da_sk_intddr_meb2/production/_ext/1907747181/libaria_layer.o
 .debug_ranges  0x00001558       0x70 build/pic32mz_da_sk_intddr_meb2/production/_ext/1907747181/libaria_list.o
 .debug_ranges  0x000015c8       0x10 build/pic32mz_da_sk_intddr_meb2/production/_ext/1907747181/libaria_scheme.o
 .debug_ranges  0x000015d8       0x90 build/pic32mz_da_sk_intddr_meb2/production/_ext/1907747181/libaria_screen.o
 .debug_ranges  0x00001668      0x150 build/pic32mz_da_sk_intddr_meb2/production/_ext/1907747181/libaria_string.o
 .debug_ranges  0x000017b8      0x108 build/pic32mz_da_sk_intddr_meb2/production/_ext/1907747181/libaria_utils.o
 .debug_ranges  0x000018c0      0x240 build/pic32mz_da_sk_intddr_meb2/production/_ext/1907747181/libaria_widget.o
 .debug_ranges  0x00001b00       0x20 build/pic32mz_da_sk_intddr_meb2/production/_ext/1907747181/libaria_widget_skin_classic.o
 .debug_ranges  0x00001b20      0x108 build/pic32mz_da_sk_intddr_meb2/production/_ext/1907747181/libaria_widget_button.o
 .debug_ranges  0x00001c28       0x60 build/pic32mz_da_sk_intddr_meb2/production/_ext/1907747181/libaria_widget_button_skin_classic.o
 .debug_ranges  0x00001c88       0xf8 build/pic32mz_da_sk_intddr_meb2/production/_ext/1907747181/libaria_widget_checkbox.o
 .debug_ranges  0x00001d80       0x58 build/pic32mz_da_sk_intddr_meb2/production/_ext/1907747181/libaria_widget_checkbox_skin_classic.o
 .debug_ranges  0x00001dd8       0x40 build/pic32mz_da_sk_intddr_meb2/production/_ext/1907747181/libaria_widget_circle.o
 .debug_ranges  0x00001e18       0x30 build/pic32mz_da_sk_intddr_meb2/production/_ext/1907747181/libaria_widget_circle_skin_classic.o
 .debug_ranges  0x00001e48       0x30 build/pic32mz_da_sk_intddr_meb2/production/_ext/1907747181/libaria_widget_drawsurface.o
 .debug_ranges  0x00001e78       0x30 build/pic32mz_da_sk_intddr_meb2/production/_ext/1907747181/libaria_widget_drawsurface_skin_classic.o
 .debug_ranges  0x00001ea8       0x30 build/pic32mz_da_sk_intddr_meb2/production/_ext/1907747181/libaria_widget_gradient.o
 .debug_ranges  0x00001ed8       0x28 build/pic32mz_da_sk_intddr_meb2/production/_ext/1907747181/libaria_widget_gradient_skin_classic.o
 .debug_ranges  0x00001f00       0x48 build/pic32mz_da_sk_intddr_meb2/production/_ext/1907747181/libaria_widget_groupbox.o
 .debug_ranges  0x00001f48       0x50 build/pic32mz_da_sk_intddr_meb2/production/_ext/1907747181/libaria_widget_groupbox_skin_classic.o
 .debug_ranges  0x00001f98       0x68 build/pic32mz_da_sk_intddr_meb2/production/_ext/1907747181/libaria_widget_image.o
 .debug_ranges  0x00002000       0x40 build/pic32mz_da_sk_intddr_meb2/production/_ext/1907747181/libaria_widget_image_skin_classic.o
 .debug_ranges  0x00002040       0xd0 build/pic32mz_da_sk_intddr_meb2/production/_ext/1907747181/libaria_widget_imagesequence.o
 .debug_ranges  0x00002110       0x40 build/pic32mz_da_sk_intddr_meb2/production/_ext/1907747181/libaria_widget_imagesequence_skin_classic.o
 .debug_ranges  0x00002150       0xf8 build/pic32mz_da_sk_intddr_meb2/production/_ext/1907747181/libaria_widget_keypad.o
 .debug_ranges  0x00002248       0x30 build/pic32mz_da_sk_intddr_meb2/production/_ext/1907747181/libaria_widget_keypad_skin_classic.o
 .debug_ranges  0x00002278       0x60 build/pic32mz_da_sk_intddr_meb2/production/_ext/1907747181/libaria_widget_label.o
 .debug_ranges  0x000022d8       0x40 build/pic32mz_da_sk_intddr_meb2/production/_ext/1907747181/libaria_widget_label_skin_classic.o
 .debug_ranges  0x00002318       0x40 build/pic32mz_da_sk_intddr_meb2/production/_ext/1907747181/libaria_widget_line.o
 .debug_ranges  0x00002358       0x30 build/pic32mz_da_sk_intddr_meb2/production/_ext/1907747181/libaria_widget_line_skin_classic.o
 .debug_ranges  0x00002388      0x178 build/pic32mz_da_sk_intddr_meb2/production/_ext/1907747181/libaria_widget_list.o
 .debug_ranges  0x00002500       0x80 build/pic32mz_da_sk_intddr_meb2/production/_ext/1907747181/libaria_widget_list_skin_classic.o
 .debug_ranges  0x00002580      0x208 build/pic32mz_da_sk_intddr_meb2/production/_ext/1907747181/libaria_widget_listwheel.o
 .debug_ranges  0x00002788       0xe0 build/pic32mz_da_sk_intddr_meb2/production/_ext/1907747181/libaria_widget_listwheel_skin_classic.o
 .debug_ranges  0x00002868       0x50 build/pic32mz_da_sk_intddr_meb2/production/_ext/1907747181/libaria_widget_progressbar.o
 .debug_ranges  0x000028b8       0x38 build/pic32mz_da_sk_intddr_meb2/production/_ext/1907747181/libaria_widget_progressbar_skin_classic.o
 .debug_ranges  0x000028f0      0x108 build/pic32mz_da_sk_intddr_meb2/production/_ext/1907747181/libaria_widget_radiobutton.o
 .debug_ranges  0x000029f8       0x70 build/pic32mz_da_sk_intddr_meb2/production/_ext/1907747181/libaria_widget_radiobutton_skin_classic.o
 .debug_ranges  0x00002a68       0x30 build/pic32mz_da_sk_intddr_meb2/production/_ext/1907747181/libaria_radiobutton_group.o
 .debug_ranges  0x00002a98       0x28 build/pic32mz_da_sk_intddr_meb2/production/_ext/1907747181/libaria_widget_rectangle.o
 .debug_ranges  0x00002ac0       0x38 build/pic32mz_da_sk_intddr_meb2/production/_ext/1907747181/libaria_widget_rectangle_skin_classic.o
 .debug_ranges  0x00002af8       0xf0 build/pic32mz_da_sk_intddr_meb2/production/_ext/1907747181/libaria_widget_scrollbar.o
 .debug_ranges  0x00002be8       0x60 build/pic32mz_da_sk_intddr_meb2/production/_ext/1907747181/libaria_widget_scrollbar_skin_classic.o
 .debug_ranges  0x00002c48       0xd0 build/pic32mz_da_sk_intddr_meb2/production/_ext/1907747181/libaria_widget_slider.o
 .debug_ranges  0x00002d18       0x48 build/pic32mz_da_sk_intddr_meb2/production/_ext/1907747181/libaria_widget_slider_skin_classic.o
 .debug_ranges  0x00002d60      0x100 build/pic32mz_da_sk_intddr_meb2/production/_ext/1907747181/libaria_widget_textfield.o
 .debug_ranges  0x00002e60       0x50 build/pic32mz_da_sk_intddr_meb2/production/_ext/1907747181/libaria_widget_textfield_skin_classic.o
 .debug_ranges  0x00002eb0       0x60 build/pic32mz_da_sk_intddr_meb2/production/_ext/1907747181/libaria_widget_touchtest.o
 .debug_ranges  0x00002f10       0x38 build/pic32mz_da_sk_intddr_meb2/production/_ext/1907747181/libaria_widget_touchtest_skin_classic.o
 .debug_ranges  0x00002f48       0x68 build/pic32mz_da_sk_intddr_meb2/production/_ext/1907747181/libaria_widget_window.o
 .debug_ranges  0x00002fb0       0x68 build/pic32mz_da_sk_intddr_meb2/production/_ext/1907747181/libaria_widget_window_skin_classic.o
 .debug_ranges  0x00003018       0x90 build/pic32mz_da_sk_intddr_meb2/production/_ext/1907747181/libaria_array.o
 .debug_ranges  0x000030a8       0x90 build/pic32mz_da_sk_intddr_meb2/production/_ext/1907747181/libaria_rectarray.o
 .debug_ranges  0x00003138       0xc8 build/pic32mz_da_sk_intddr_meb2/production/_ext/1907747181/libaria_widget_skin_classic_common.o
 .debug_ranges  0x00003200       0x70 build/pic32mz_da_sk_intddr_meb2/production/_ext/1907747181/libaria_widget_arc.o
 .debug_ranges  0x00003270       0x38 build/pic32mz_da_sk_intddr_meb2/production/_ext/1907747181/libaria_widget_arc_skin_classic.o
 .debug_ranges  0x000032a8      0x170 build/pic32mz_da_sk_intddr_meb2/production/_ext/1907747181/libaria_widget_circular_gauge.o
 .debug_ranges  0x00003418       0x58 build/pic32mz_da_sk_intddr_meb2/production/_ext/1907747181/libaria_widget_circular_gauge_skin_classic.o
 .debug_ranges  0x00003470      0x130 build/pic32mz_da_sk_intddr_meb2/production/_ext/1907747181/libaria_widget_circular_slider.o
 .debug_ranges  0x000035a0       0x30 build/pic32mz_da_sk_intddr_meb2/production/_ext/1907747181/libaria_widget_circular_slider_skin_classic.o
 .debug_ranges  0x000035d0      0x170 build/pic32mz_da_sk_intddr_meb2/production/_ext/1907747181/libaria_widget_pie_chart.o
 .debug_ranges  0x00003740       0x48 build/pic32mz_da_sk_intddr_meb2/production/_ext/1907747181/libaria_widget_pie_chart_skin_classic.o
 .debug_ranges  0x00003788      0x178 build/pic32mz_da_sk_intddr_meb2/production/_ext/1907747181/libaria_widget_bar_graph.o
 .debug_ranges  0x00003900      0x198 build/pic32mz_da_sk_intddr_meb2/production/_ext/1907747181/libaria_widget_bar_graph_skin_classic.o
 .debug_ranges  0x00003a98      0x1c8 build/pic32mz_da_sk_intddr_meb2/production/_ext/1907747181/libaria_widget_line_graph.o
 .debug_ranges  0x00003c60      0x320 build/pic32mz_da_sk_intddr_meb2/production/_ext/1907747181/libaria_widget_line_graph_skin_classic.o
 .debug_ranges  0x00003f80       0xd8 build/pic32mz_da_sk_intddr_meb2/production/_ext/1907747181/libaria_widget_imageplus.o
 .debug_ranges  0x00004058       0x38 build/pic32mz_da_sk_intddr_meb2/production/_ext/1907747181/libaria_widget_imageplus_skin_classic.o
 .debug_ranges  0x00004090      0x1a8 build/pic32mz_da_sk_intddr_meb2/production/_ext/1907747181/libaria_widget_radial_menu.o
 .debug_ranges  0x00004238       0x58 build/pic32mz_da_sk_intddr_meb2/production/_ext/1907747181/libaria_widget_radial_menu_skin_classic.o
 .debug_ranges  0x00004290       0x18 build/pic32mz_da_sk_intddr_meb2/production/_ext/1597685232/gfxu_image.o
 .debug_ranges  0x000042a8       0x10 build/pic32mz_da_sk_intddr_meb2/production/_ext/1597685232/gfxu_image_png_external.o
 .debug_ranges  0x000042b8       0x28 build/pic32mz_da_sk_intddr_meb2/production/_ext/1597685232/gfxu_image_png_internal.o
 .debug_ranges  0x000042e0       0x18 build/pic32mz_da_sk_intddr_meb2/production/_ext/1597685232/gfxu_image_jpg_internal.o
 .debug_ranges  0x000042f8       0x90 build/pic32mz_da_sk_intddr_meb2/production/_ext/1597685232/gfxu_image_raw_external.o
 .debug_ranges  0x00004388       0x48 build/pic32mz_da_sk_intddr_meb2/production/_ext/1597685232/gfxu_image_raw_internal.o
 .debug_ranges  0x000043d0       0xb0 build/pic32mz_da_sk_intddr_meb2/production/_ext/1597685232/gfxu_image_rle_external.o
 .debug_ranges  0x00004480       0x28 build/pic32mz_da_sk_intddr_meb2/production/_ext/1597685232/gfxu_image_rle_internal.o
 .debug_ranges  0x000044a8       0x78 build/pic32mz_da_sk_intddr_meb2/production/_ext/1597685232/gfxu_image_utils.o
 .debug_ranges  0x00004520       0x10 build/pic32mz_da_sk_intddr_meb2/production/_ext/1597685232/gfxu_palette.o
 .debug_ranges  0x00004530       0x38 build/pic32mz_da_sk_intddr_meb2/production/_ext/1597685232/gfxu_string.o
 .debug_ranges  0x00004568       0x90 build/pic32mz_da_sk_intddr_meb2/production/_ext/1597685232/gfxu_string_external.o
 .debug_ranges  0x000045f8       0x28 build/pic32mz_da_sk_intddr_meb2/production/_ext/1597685232/gfxu_string_internal.o
 .debug_ranges  0x00004620       0x70 build/pic32mz_da_sk_intddr_meb2/production/_ext/1597685232/gfxu_string_query.o
 .debug_ranges  0x00004690       0xb0 build/pic32mz_da_sk_intddr_meb2/production/_ext/1597685232/gfxu_string_utils.o
 .debug_ranges  0x00004740       0xd8 build/pic32mz_da_sk_intddr_meb2/production/_ext/1597685232/gfxu_image_jpg_common.o
 .debug_ranges  0x00004818       0x18 build/pic32mz_da_sk_intddr_meb2/production/_ext/1597685232/gfxu_image_jpg_external.o
 .debug_ranges  0x00004830       0x70 build/pic32mz_da_sk_intddr_meb2/production/_ext/1597685232/gfxu_stringbuffer_external.o
 .debug_ranges  0x000048a0       0x50 build/pic32mz_da_sk_intddr_meb2/production/_ext/2137108136/sys_debug.o
 .debug_ranges  0x000048f0       0x88 build/pic32mz_da_sk_intddr_meb2/production/_ext/252650337/sys_input.o
 .debug_ranges  0x00004978       0x60 build/pic32mz_da_sk_intddr_meb2/production/_ext/252650337/sys_input_listener.o
 .debug_ranges  0x000049d8       0x50 build/pic32mz_da_sk_intddr_meb2/production/_ext/1042686532/sys_int_pic32.o
 .debug_ranges  0x00004a28       0x10 build/pic32mz_da_sk_intddr_meb2/production/_ext/426253641/jidctint.o
 .debug_ranges  0x00004a38     0x1ae0 build/pic32mz_da_sk_intddr_meb2/production/_ext/493934858/lodepng.o
 .debug_ranges  0x00006518       0xa0 build/pic32mz_da_sk_intddr_meb2/production/_ext/418582516/drv_usart_mapping.o
 .debug_ranges  0x000065b8       0x90 build/pic32mz_da_sk_intddr_meb2/production/_ext/418582516/drv_usart_static.o
 .debug_ranges  0x00006648       0x38 build/pic32mz_da_sk_intddr_meb2/production/_ext/418582516/drv_usart_static_byte_model.o
 .debug_ranges  0x00006680      0x148 build/pic32mz_da_sk_intddr_meb2/production/_ext/1094895838/drv_gfx_glcd_static.o
 .debug_ranges  0x000067c8       0x30 build/pic32mz_da_sk_intddr_meb2/production/_ext/590040425/libaria_harmony.o
 .debug_ranges  0x000067f8       0x18 build/pic32mz_da_sk_intddr_meb2/production/_ext/590040425/libaria_init.o
 .debug_ranges  0x00006810       0x10 build/pic32mz_da_sk_intddr_meb2/production/_ext/1719547748/gfx_driver_def.o
 .debug_ranges  0x00006820       0x10 build/pic32mz_da_sk_intddr_meb2/production/_ext/1719547748/gfx_processor_def.o
 .debug_ranges  0x00006830       0x40 build/pic32mz_da_sk_intddr_meb2/production/_ext/370156264/sys_clk_pic32mz.o
 .debug_ranges  0x00006870       0x68 build/pic32mz_da_sk_intddr_meb2/production/_ext/1796496159/sys_devcon.o
 .debug_ranges  0x000068d8       0xd8 build/pic32mz_da_sk_intddr_meb2/production/_ext/1796496159/sys_devcon_pic32mz.o
 .debug_ranges  0x000069b0      0x138 build/pic32mz_da_sk_intddr_meb2/production/_ext/730466360/sys_ports_static.o
 .debug_ranges  0x00006ae8       0x50 build/pic32mz_da_sk_intddr_meb2/production/_ext/639474099/sys_console_static.o
 .debug_ranges  0x00006b38       0x10 build/pic32mz_da_sk_intddr_meb2/production/_ext/327666056/sys_memory_ddr_static.o
 .debug_ranges  0x00006b48       0x10 build/pic32mz_da_sk_intddr_meb2/production/_ext/85614229/sys_memory_static.o
 .debug_ranges  0x00006b58       0x10 build/pic32mz_da_sk_intddr_meb2/production/_ext/1547055377/bsp.o
 .debug_ranges  0x00006b68       0x10 build/pic32mz_da_sk_intddr_meb2/production/_ext/1653314881/system_init.o
 .debug_ranges  0x00006b78       0x28 build/pic32mz_da_sk_intddr_meb2/production/_ext/1653314881/system_interrupt.o
 .debug_ranges  0x00006ba0       0x10 build/pic32mz_da_sk_intddr_meb2/production/_ext/1653314881/general_exception_handler.o
 .debug_ranges  0x00006bb0       0x10 build/pic32mz_da_sk_intddr_meb2/production/_ext/1653314881/fassert.o
 .debug_ranges  0x00006bc0       0x10 build/pic32mz_da_sk_intddr_meb2/production/_ext/1653314881/system_tasks.o
 .debug_ranges  0x00006bd0       0x10 f:/software_installations/mplab_xc32/bin/bin/../../lib/gcc/pic32mx/4.8.3/../../../../pic32mx/lib\libpic32.a(default-bootstrap-exception-handler.o)
 .debug_ranges  0x00006be0       0x10 f:/software_installations/mplab_xc32/bin/bin/../../lib/gcc/pic32mx/4.8.3/../../../../pic32mx/lib\libpic32.a(default-on-reset.o)
 .debug_ranges  0x00006bf0       0x10 f:/software_installations/mplab_xc32/bin/bin/../../lib/gcc/pic32mx/4.8.3/../../../../pic32mx/lib\libpic32.a(default-on-bootstrap.o)
 .debug_ranges  0x00006c00       0x10 f:/software_installations/mplab_xc32/bin/bin/../../lib/gcc/pic32mx/4.8.3/../../../../pic32mx/lib\libpic32.a(defaultinterrupt.o)
 .debug_ranges  0x00006c10       0x10 f:/software_installations/mplab_xc32/bin/bin/../../lib/gcc/pic32mx/4.8.3/../../../../pic32mx/lib\libpic32.a(default-cache-err-exception-handler.o)
 .debug_ranges  0x00006c20       0x10 f:/software_installations/mplab_xc32/bin/bin/../../lib/gcc/pic32mx/4.8.3/../../../../pic32mx/lib\libpic32.a(default-simple-tlb-refill-exception-handler.o)
 .debug_ranges  0x00006c30       0x98 f:/software_installations/mplab_xc32/bin/bin/../../lib/gcc/pic32mx/4.8.3\libgcc.a(_udivdi3.o)
 .debug_ranges  0x00006cc8       0xd8 f:/software_installations/mplab_xc32/bin/bin/../../lib/gcc/pic32mx/4.8.3\libgcc.a(_umoddi3.o)
 .debug_ranges  0x00006da0       0x30 f:/software_installations/mplab_xc32/bin/bin/../../lib/gcc/pic32mx/4.8.3/../../../../pic32mx/lib\libpic32.a(sbrk.o)
 .debug_ranges  0x00006dd0       0x10 f:/software_installations/mplab_xc32/bin/bin/../../lib/gcc/pic32mx/4.8.3/../../../../pic32mx/lib\libpic32.a(_mon_getc.o)
 .debug_ranges  0x00006de0       0x10 f:/software_installations/mplab_xc32/bin/bin/../../lib/gcc/pic32mx/4.8.3/../../../../pic32mx/lib\libpic32.a(_mon_write.o)
 .debug_ranges  0x00006df0       0x10 f:/software_installations/mplab_xc32/bin/bin/../../lib/gcc/pic32mx/4.8.3/../../../../pic32mx/lib\libpic32.a(_mon_putc.o)

.gnu.attributes
                0x00000000       0x10
 *(.gnu.attributes)
 .gnu.attributes
                0x00000000       0x10 build/pic32mz_da_sk_intddr_meb2/production/_ext/1360937237/app.o
 .gnu.attributes
                0x00000010       0x10 build/pic32mz_da_sk_intddr_meb2/production/_ext/1360937237/main.o
 .gnu.attributes
                0x00000020       0x10 build/pic32mz_da_sk_intddr_meb2/production/_ext/475095144/drv_i2c_bb_a.o
 .gnu.attributes
                0x00000030       0x10 build/pic32mz_da_sk_intddr_meb2/production/_ext/475095144/drv_i2c_bb.o
 .gnu.attributes
                0x00000040       0x10 build/pic32mz_da_sk_intddr_meb2/production/_ext/1177928576/drv_mxt336t.o
 .gnu.attributes
                0x00000050       0x10 build/pic32mz_da_sk_intddr_meb2/production/_ext/1847583374/gfx.o
 .gnu.attributes
                0x00000060       0x10 build/pic32mz_da_sk_intddr_meb2/production/_ext/1847583374/gfx_color.o
 .gnu.attributes
                0x00000070       0x10 build/pic32mz_da_sk_intddr_meb2/production/_ext/1847583374/gfx_context.o
 .gnu.attributes
                0x00000080       0x10 build/pic32mz_da_sk_intddr_meb2/production/_ext/1847583374/gfx_default_impl.o
 .gnu.attributes
                0x00000090       0x10 build/pic32mz_da_sk_intddr_meb2/production/_ext/1847583374/gfx_display.o
 .gnu.attributes
                0x000000a0       0x10 build/pic32mz_da_sk_intddr_meb2/production/_ext/1847583374/gfx_driver_interface.o
 .gnu.attributes
                0x000000b0       0x10 build/pic32mz_da_sk_intddr_meb2/production/_ext/1847583374/gfx_get.o
 .gnu.attributes
                0x000000c0       0x10 build/pic32mz_da_sk_intddr_meb2/production/_ext/1847583374/gfx_interface.o
 .gnu.attributes
                0x000000d0       0x10 build/pic32mz_da_sk_intddr_meb2/production/_ext/1847583374/gfx_layer.o
 .gnu.attributes
                0x000000e0       0x10 build/pic32mz_da_sk_intddr_meb2/production/_ext/1847583374/gfx_pixel_buffer.o
 .gnu.attributes
                0x000000f0       0x10 build/pic32mz_da_sk_intddr_meb2/production/_ext/1847583374/gfx_rect.o
 .gnu.attributes
                0x00000100       0x10 build/pic32mz_da_sk_intddr_meb2/production/_ext/1847583374/gfx_util.o
 .gnu.attributes
                0x00000110       0x10 build/pic32mz_da_sk_intddr_meb2/production/_ext/1847583374/gfx_set.o
 .gnu.attributes
                0x00000120       0x10 build/pic32mz_da_sk_intddr_meb2/production/_ext/1847583374/gfx_color_blend.o
 .gnu.attributes
                0x00000130       0x10 build/pic32mz_da_sk_intddr_meb2/production/_ext/1847583374/gfx_color_convert.o
 .gnu.attributes
                0x00000140       0x10 build/pic32mz_da_sk_intddr_meb2/production/_ext/1847583374/gfx_color_lerp.o
 .gnu.attributes
                0x00000150       0x10 build/pic32mz_da_sk_intddr_meb2/production/_ext/1847583374/gfx_color_value.o
 .gnu.attributes
                0x00000160       0x10 build/pic32mz_da_sk_intddr_meb2/production/_ext/1847583374/gfx_draw_blit.o
 .gnu.attributes
                0x00000170       0x10 build/pic32mz_da_sk_intddr_meb2/production/_ext/1847583374/gfx_draw_circle.o
 .gnu.attributes
                0x00000180       0x10 build/pic32mz_da_sk_intddr_meb2/production/_ext/1847583374/gfx_draw_line.o
 .gnu.attributes
                0x00000190       0x10 build/pic32mz_da_sk_intddr_meb2/production/_ext/1847583374/gfx_draw_pixel.o
 .gnu.attributes
                0x000001a0       0x10 build/pic32mz_da_sk_intddr_meb2/production/_ext/1847583374/gfx_draw_rect.o
 .gnu.attributes
                0x000001b0       0x10 build/pic32mz_da_sk_intddr_meb2/production/_ext/1847583374/gfx_math.o
 .gnu.attributes
                0x000001c0       0x10 build/pic32mz_da_sk_intddr_meb2/production/_ext/1847583374/gfx_draw_stretchblit.o
 .gnu.attributes
                0x000001d0       0x10 build/pic32mz_da_sk_intddr_meb2/production/_ext/1847583374/gfx_processor_interface.o
 .gnu.attributes
                0x000001e0       0x10 build/pic32mz_da_sk_intddr_meb2/production/_ext/1847583374/gfx_draw_arc.o
 .gnu.attributes
                0x000001f0       0x10 build/pic32mz_da_sk_intddr_meb2/production/_ext/1847583374/gfx_draw_ellipse.o
 .gnu.attributes
                0x00000200       0x10 build/pic32mz_da_sk_intddr_meb2/production/_ext/1907747181/libaria.o
 .gnu.attributes
                0x00000210       0x10 build/pic32mz_da_sk_intddr_meb2/production/_ext/1907747181/libaria_context.o
 .gnu.attributes
                0x00000220       0x10 build/pic32mz_da_sk_intddr_meb2/production/_ext/1907747181/libaria_context_paint.o
 .gnu.attributes
                0x00000230       0x10 build/pic32mz_da_sk_intddr_meb2/production/_ext/1907747181/libaria_draw.o
 .gnu.attributes
                0x00000240       0x10 build/pic32mz_da_sk_intddr_meb2/production/_ext/1907747181/libaria_editwidget.o
 .gnu.attributes
                0x00000250       0x10 build/pic32mz_da_sk_intddr_meb2/production/_ext/1907747181/libaria_event.o
 .gnu.attributes
                0x00000260       0x10 build/pic32mz_da_sk_intddr_meb2/production/_ext/1907747181/libaria_input.o
 .gnu.attributes
                0x00000270       0x10 build/pic32mz_da_sk_intddr_meb2/production/_ext/1907747181/libaria_layer.o
 .gnu.attributes
                0x00000280       0x10 build/pic32mz_da_sk_intddr_meb2/production/_ext/1907747181/libaria_list.o
 .gnu.attributes
                0x00000290       0x10 build/pic32mz_da_sk_intddr_meb2/production/_ext/1907747181/libaria_scheme.o
 .gnu.attributes
                0x000002a0       0x10 build/pic32mz_da_sk_intddr_meb2/production/_ext/1907747181/libaria_screen.o
 .gnu.attributes
                0x000002b0       0x10 build/pic32mz_da_sk_intddr_meb2/production/_ext/1907747181/libaria_string.o
 .gnu.attributes
                0x000002c0       0x10 build/pic32mz_da_sk_intddr_meb2/production/_ext/1907747181/libaria_utils.o
 .gnu.attributes
                0x000002d0       0x10 build/pic32mz_da_sk_intddr_meb2/production/_ext/1907747181/libaria_widget.o
 .gnu.attributes
                0x000002e0       0x10 build/pic32mz_da_sk_intddr_meb2/production/_ext/1907747181/libaria_widget_skin_classic.o
 .gnu.attributes
                0x000002f0       0x10 build/pic32mz_da_sk_intddr_meb2/production/_ext/1907747181/libaria_widget_button.o
 .gnu.attributes
                0x00000300       0x10 build/pic32mz_da_sk_intddr_meb2/production/_ext/1907747181/libaria_widget_button_skin_classic.o
 .gnu.attributes
                0x00000310       0x10 build/pic32mz_da_sk_intddr_meb2/production/_ext/1907747181/libaria_widget_checkbox.o
 .gnu.attributes
                0x00000320       0x10 build/pic32mz_da_sk_intddr_meb2/production/_ext/1907747181/libaria_widget_checkbox_skin_classic.o
 .gnu.attributes
                0x00000330       0x10 build/pic32mz_da_sk_intddr_meb2/production/_ext/1907747181/libaria_widget_circle.o
 .gnu.attributes
                0x00000340       0x10 build/pic32mz_da_sk_intddr_meb2/production/_ext/1907747181/libaria_widget_circle_skin_classic.o
 .gnu.attributes
                0x00000350       0x10 build/pic32mz_da_sk_intddr_meb2/production/_ext/1907747181/libaria_widget_drawsurface.o
 .gnu.attributes
                0x00000360       0x10 build/pic32mz_da_sk_intddr_meb2/production/_ext/1907747181/libaria_widget_drawsurface_skin_classic.o
 .gnu.attributes
                0x00000370       0x10 build/pic32mz_da_sk_intddr_meb2/production/_ext/1907747181/libaria_widget_gradient.o
 .gnu.attributes
                0x00000380       0x10 build/pic32mz_da_sk_intddr_meb2/production/_ext/1907747181/libaria_widget_gradient_skin_classic.o
 .gnu.attributes
                0x00000390       0x10 build/pic32mz_da_sk_intddr_meb2/production/_ext/1907747181/libaria_widget_groupbox.o
 .gnu.attributes
                0x000003a0       0x10 build/pic32mz_da_sk_intddr_meb2/production/_ext/1907747181/libaria_widget_groupbox_skin_classic.o
 .gnu.attributes
                0x000003b0       0x10 build/pic32mz_da_sk_intddr_meb2/production/_ext/1907747181/libaria_widget_image.o
 .gnu.attributes
                0x000003c0       0x10 build/pic32mz_da_sk_intddr_meb2/production/_ext/1907747181/libaria_widget_image_skin_classic.o
 .gnu.attributes
                0x000003d0       0x10 build/pic32mz_da_sk_intddr_meb2/production/_ext/1907747181/libaria_widget_imagesequence.o
 .gnu.attributes
                0x000003e0       0x10 build/pic32mz_da_sk_intddr_meb2/production/_ext/1907747181/libaria_widget_imagesequence_skin_classic.o
 .gnu.attributes
                0x000003f0       0x10 build/pic32mz_da_sk_intddr_meb2/production/_ext/1907747181/libaria_widget_keypad.o
 .gnu.attributes
                0x00000400       0x10 build/pic32mz_da_sk_intddr_meb2/production/_ext/1907747181/libaria_widget_keypad_skin_classic.o
 .gnu.attributes
                0x00000410       0x10 build/pic32mz_da_sk_intddr_meb2/production/_ext/1907747181/libaria_widget_label.o
 .gnu.attributes
                0x00000420       0x10 build/pic32mz_da_sk_intddr_meb2/production/_ext/1907747181/libaria_widget_label_skin_classic.o
 .gnu.attributes
                0x00000430       0x10 build/pic32mz_da_sk_intddr_meb2/production/_ext/1907747181/libaria_widget_line.o
 .gnu.attributes
                0x00000440       0x10 build/pic32mz_da_sk_intddr_meb2/production/_ext/1907747181/libaria_widget_line_skin_classic.o
 .gnu.attributes
                0x00000450       0x10 build/pic32mz_da_sk_intddr_meb2/production/_ext/1907747181/libaria_widget_list.o
 .gnu.attributes
                0x00000460       0x10 build/pic32mz_da_sk_intddr_meb2/production/_ext/1907747181/libaria_widget_list_skin_classic.o
 .gnu.attributes
                0x00000470       0x10 build/pic32mz_da_sk_intddr_meb2/production/_ext/1907747181/libaria_widget_listwheel.o
 .gnu.attributes
                0x00000480       0x10 build/pic32mz_da_sk_intddr_meb2/production/_ext/1907747181/libaria_widget_listwheel_skin_classic.o
 .gnu.attributes
                0x00000490       0x10 build/pic32mz_da_sk_intddr_meb2/production/_ext/1907747181/libaria_widget_progressbar.o
 .gnu.attributes
                0x000004a0       0x10 build/pic32mz_da_sk_intddr_meb2/production/_ext/1907747181/libaria_widget_progressbar_skin_classic.o
 .gnu.attributes
                0x000004b0       0x10 build/pic32mz_da_sk_intddr_meb2/production/_ext/1907747181/libaria_widget_radiobutton.o
 .gnu.attributes
                0x000004c0       0x10 build/pic32mz_da_sk_intddr_meb2/production/_ext/1907747181/libaria_widget_radiobutton_skin_classic.o
 .gnu.attributes
                0x000004d0       0x10 build/pic32mz_da_sk_intddr_meb2/production/_ext/1907747181/libaria_radiobutton_group.o
 .gnu.attributes
                0x000004e0       0x10 build/pic32mz_da_sk_intddr_meb2/production/_ext/1907747181/libaria_widget_rectangle.o
 .gnu.attributes
                0x000004f0       0x10 build/pic32mz_da_sk_intddr_meb2/production/_ext/1907747181/libaria_widget_rectangle_skin_classic.o
 .gnu.attributes
                0x00000500       0x10 build/pic32mz_da_sk_intddr_meb2/production/_ext/1907747181/libaria_widget_scrollbar.o
 .gnu.attributes
                0x00000510       0x10 build/pic32mz_da_sk_intddr_meb2/production/_ext/1907747181/libaria_widget_scrollbar_skin_classic.o
 .gnu.attributes
                0x00000520       0x10 build/pic32mz_da_sk_intddr_meb2/production/_ext/1907747181/libaria_widget_slider.o
 .gnu.attributes
                0x00000530       0x10 build/pic32mz_da_sk_intddr_meb2/production/_ext/1907747181/libaria_widget_slider_skin_classic.o
 .gnu.attributes
                0x00000540       0x10 build/pic32mz_da_sk_intddr_meb2/production/_ext/1907747181/libaria_widget_textfield.o
 .gnu.attributes
                0x00000550       0x10 build/pic32mz_da_sk_intddr_meb2/production/_ext/1907747181/libaria_widget_textfield_skin_classic.o
 .gnu.attributes
                0x00000560       0x10 build/pic32mz_da_sk_intddr_meb2/production/_ext/1907747181/libaria_widget_touchtest.o
 .gnu.attributes
                0x00000570       0x10 build/pic32mz_da_sk_intddr_meb2/production/_ext/1907747181/libaria_widget_touchtest_skin_classic.o
 .gnu.attributes
                0x00000580       0x10 build/pic32mz_da_sk_intddr_meb2/production/_ext/1907747181/libaria_widget_window.o
 .gnu.attributes
                0x00000590       0x10 build/pic32mz_da_sk_intddr_meb2/production/_ext/1907747181/libaria_widget_window_skin_classic.o
 .gnu.attributes
                0x000005a0       0x10 build/pic32mz_da_sk_intddr_meb2/production/_ext/1907747181/libaria_array.o
 .gnu.attributes
                0x000005b0       0x10 build/pic32mz_da_sk_intddr_meb2/production/_ext/1907747181/libaria_rectarray.o
 .gnu.attributes
                0x000005c0       0x10 build/pic32mz_da_sk_intddr_meb2/production/_ext/1907747181/libaria_widget_skin_classic_common.o
 .gnu.attributes
                0x000005d0       0x10 build/pic32mz_da_sk_intddr_meb2/production/_ext/1907747181/libaria_widget_arc.o
 .gnu.attributes
                0x000005e0       0x10 build/pic32mz_da_sk_intddr_meb2/production/_ext/1907747181/libaria_widget_arc_skin_classic.o
 .gnu.attributes
                0x000005f0       0x10 build/pic32mz_da_sk_intddr_meb2/production/_ext/1907747181/libaria_widget_circular_gauge.o
 .gnu.attributes
                0x00000600       0x10 build/pic32mz_da_sk_intddr_meb2/production/_ext/1907747181/libaria_widget_circular_gauge_skin_classic.o
 .gnu.attributes
                0x00000610       0x10 build/pic32mz_da_sk_intddr_meb2/production/_ext/1907747181/libaria_widget_circular_slider.o
 .gnu.attributes
                0x00000620       0x10 build/pic32mz_da_sk_intddr_meb2/production/_ext/1907747181/libaria_widget_circular_slider_skin_classic.o
 .gnu.attributes
                0x00000630       0x10 build/pic32mz_da_sk_intddr_meb2/production/_ext/1907747181/libaria_widget_pie_chart.o
 .gnu.attributes
                0x00000640       0x10 build/pic32mz_da_sk_intddr_meb2/production/_ext/1907747181/libaria_widget_pie_chart_skin_classic.o
 .gnu.attributes
                0x00000650       0x10 build/pic32mz_da_sk_intddr_meb2/production/_ext/1907747181/libaria_widget_bar_graph.o
 .gnu.attributes
                0x00000660       0x10 build/pic32mz_da_sk_intddr_meb2/production/_ext/1907747181/libaria_widget_bar_graph_skin_classic.o
 .gnu.attributes
                0x00000670       0x10 build/pic32mz_da_sk_intddr_meb2/production/_ext/1907747181/libaria_widget_line_graph.o
 .gnu.attributes
                0x00000680       0x10 build/pic32mz_da_sk_intddr_meb2/production/_ext/1907747181/libaria_widget_line_graph_skin_classic.o
 .gnu.attributes
                0x00000690       0x10 build/pic32mz_da_sk_intddr_meb2/production/_ext/1907747181/libaria_widget_imageplus.o
 .gnu.attributes
                0x000006a0       0x10 build/pic32mz_da_sk_intddr_meb2/production/_ext/1907747181/libaria_widget_imageplus_skin_classic.o
 .gnu.attributes
                0x000006b0       0x10 build/pic32mz_da_sk_intddr_meb2/production/_ext/1907747181/libaria_widget_radial_menu.o
 .gnu.attributes
                0x000006c0       0x10 build/pic32mz_da_sk_intddr_meb2/production/_ext/1907747181/libaria_widget_radial_menu_skin_classic.o
 .gnu.attributes
                0x000006d0       0x10 build/pic32mz_da_sk_intddr_meb2/production/_ext/1597685232/gfxu_image.o
 .gnu.attributes
                0x000006e0       0x10 build/pic32mz_da_sk_intddr_meb2/production/_ext/1597685232/gfxu_image_png_external.o
 .gnu.attributes
                0x000006f0       0x10 build/pic32mz_da_sk_intddr_meb2/production/_ext/1597685232/gfxu_image_png_internal.o
 .gnu.attributes
                0x00000700       0x10 build/pic32mz_da_sk_intddr_meb2/production/_ext/1597685232/gfxu_image_jpg_internal.o
 .gnu.attributes
                0x00000710       0x10 build/pic32mz_da_sk_intddr_meb2/production/_ext/1597685232/gfxu_image_raw_external.o
 .gnu.attributes
                0x00000720       0x10 build/pic32mz_da_sk_intddr_meb2/production/_ext/1597685232/gfxu_image_raw_internal.o
 .gnu.attributes
                0x00000730       0x10 build/pic32mz_da_sk_intddr_meb2/production/_ext/1597685232/gfxu_image_rle_external.o
 .gnu.attributes
                0x00000740       0x10 build/pic32mz_da_sk_intddr_meb2/production/_ext/1597685232/gfxu_image_rle_internal.o
 .gnu.attributes
                0x00000750       0x10 build/pic32mz_da_sk_intddr_meb2/production/_ext/1597685232/gfxu_image_utils.o
 .gnu.attributes
                0x00000760       0x10 build/pic32mz_da_sk_intddr_meb2/production/_ext/1597685232/gfxu_palette.o
 .gnu.attributes
                0x00000770       0x10 build/pic32mz_da_sk_intddr_meb2/production/_ext/1597685232/gfxu_string.o
 .gnu.attributes
                0x00000780       0x10 build/pic32mz_da_sk_intddr_meb2/production/_ext/1597685232/gfxu_string_external.o
 .gnu.attributes
                0x00000790       0x10 build/pic32mz_da_sk_intddr_meb2/production/_ext/1597685232/gfxu_string_internal.o
 .gnu.attributes
                0x000007a0       0x10 build/pic32mz_da_sk_intddr_meb2/production/_ext/1597685232/gfxu_string_query.o
 .gnu.attributes
                0x000007b0       0x10 build/pic32mz_da_sk_intddr_meb2/production/_ext/1597685232/gfxu_string_utils.o
 .gnu.attributes
                0x000007c0       0x10 build/pic32mz_da_sk_intddr_meb2/production/_ext/1597685232/gfxu_image_jpg_common.o
 .gnu.attributes
                0x000007d0       0x10 build/pic32mz_da_sk_intddr_meb2/production/_ext/1597685232/gfxu_image_jpg_external.o
 .gnu.attributes
                0x000007e0       0x10 build/pic32mz_da_sk_intddr_meb2/production/_ext/1597685232/gfxu_stringbuffer_external.o
 .gnu.attributes
                0x000007f0       0x10 build/pic32mz_da_sk_intddr_meb2/production/_ext/2137108136/sys_debug.o
 .gnu.attributes
                0x00000800       0x10 build/pic32mz_da_sk_intddr_meb2/production/_ext/252650337/sys_input.o
 .gnu.attributes
                0x00000810       0x10 build/pic32mz_da_sk_intddr_meb2/production/_ext/252650337/sys_input_listener.o
 .gnu.attributes
                0x00000820       0x10 build/pic32mz_da_sk_intddr_meb2/production/_ext/1042686532/sys_int_pic32.o
 .gnu.attributes
                0x00000830       0x10 build/pic32mz_da_sk_intddr_meb2/production/_ext/426253641/jidctint.o
 .gnu.attributes
                0x00000840       0x10 build/pic32mz_da_sk_intddr_meb2/production/_ext/493934858/lodepng.o
 .gnu.attributes
                0x00000850       0x10 build/pic32mz_da_sk_intddr_meb2/production/_ext/418582516/drv_usart_mapping.o
 .gnu.attributes
                0x00000860       0x10 build/pic32mz_da_sk_intddr_meb2/production/_ext/418582516/drv_usart_static.o
 .gnu.attributes
                0x00000870       0x10 build/pic32mz_da_sk_intddr_meb2/production/_ext/418582516/drv_usart_static_byte_model.o
 .gnu.attributes
                0x00000880       0x10 build/pic32mz_da_sk_intddr_meb2/production/_ext/1094895838/drv_gfx_glcd_static.o
 .gnu.attributes
                0x00000890       0x10 build/pic32mz_da_sk_intddr_meb2/production/_ext/590040425/libaria_harmony.o
 .gnu.attributes
                0x000008a0       0x10 build/pic32mz_da_sk_intddr_meb2/production/_ext/590040425/libaria_init.o
 .gnu.attributes
                0x000008b0       0x10 build/pic32mz_da_sk_intddr_meb2/production/_ext/590040425/libaria_events.o
 .gnu.attributes
                0x000008c0       0x10 build/pic32mz_da_sk_intddr_meb2/production/_ext/590040425/libaria_macros.o
 .gnu.attributes
                0x000008d0       0x10 build/pic32mz_da_sk_intddr_meb2/production/_ext/1719547748/gfx_display_def.o
 .gnu.attributes
                0x000008e0       0x10 build/pic32mz_da_sk_intddr_meb2/production/_ext/1719547748/gfx_driver_def.o
 .gnu.attributes
                0x000008f0       0x10 build/pic32mz_da_sk_intddr_meb2/production/_ext/1719547748/gfx_processor_def.o
 .gnu.attributes
                0x00000900       0x10 build/pic32mz_da_sk_intddr_meb2/production/_ext/370156264/sys_clk_pic32mz.o
 .gnu.attributes
                0x00000910       0x10 build/pic32mz_da_sk_intddr_meb2/production/_ext/1796496159/sys_devcon.o
 .gnu.attributes
                0x00000920       0x10 build/pic32mz_da_sk_intddr_meb2/production/_ext/1796496159/sys_devcon_pic32mz.o
 .gnu.attributes
                0x00000930       0x10 build/pic32mz_da_sk_intddr_meb2/production/_ext/730466360/sys_ports_static.o
 .gnu.attributes
                0x00000940       0x10 build/pic32mz_da_sk_intddr_meb2/production/_ext/639474099/sys_console_static.o
 .gnu.attributes
                0x00000950       0x10 build/pic32mz_da_sk_intddr_meb2/production/_ext/327666056/sys_memory_ddr_static.o
 .gnu.attributes
                0x00000960       0x10 build/pic32mz_da_sk_intddr_meb2/production/_ext/85614229/sys_memory_static.o
 .gnu.attributes
                0x00000970       0x10 build/pic32mz_da_sk_intddr_meb2/production/_ext/1547055377/bsp.o
 .gnu.attributes
                0x00000980       0x10 build/pic32mz_da_sk_intddr_meb2/production/_ext/1653314881/system_init.o
 .gnu.attributes
                0x00000990       0x10 build/pic32mz_da_sk_intddr_meb2/production/_ext/1653314881/system_interrupt.o
 .gnu.attributes
                0x000009a0       0x10 build/pic32mz_da_sk_intddr_meb2/production/_ext/1653314881/general_exception_handler.o
 .gnu.attributes
                0x000009b0       0x10 build/pic32mz_da_sk_intddr_meb2/production/_ext/1653314881/fassert.o
 .gnu.attributes
                0x000009c0       0x10 build/pic32mz_da_sk_intddr_meb2/production/_ext/1653314881/system_tasks.o
 .gnu.attributes
                0x000009d0       0x10 build/pic32mz_da_sk_intddr_meb2/production/_ext/1021385576/gfx_assets.o
 .gnu.attributes
                0x000009e0       0x10 f:/software_installations/mplab_xc32/bin/bin/../../lib/gcc/pic32mx/4.8.3\libgcc.a(floatunsisf.o)
 .gnu.attributes
                0x000009f0       0x10 f:/software_installations/mplab_xc32/bin/bin/../../lib/gcc/pic32mx/4.8.3/../../../../pic32mx/lib\libpic32.a(default-bootstrap-exception-handler.o)
 .gnu.attributes
                0x00000a00       0x10 f:/software_installations/mplab_xc32/bin/bin/../../lib/gcc/pic32mx/4.8.3/../../../../pic32mx/lib\libpic32.a(default-on-reset.o)
 .gnu.attributes
                0x00000a10       0x10 f:/software_installations/mplab_xc32/bin/bin/../../lib/gcc/pic32mx/4.8.3/../../../../pic32mx/lib\libpic32.a(default-on-bootstrap.o)
 .gnu.attributes
                0x00000a20       0x10 f:/software_installations/mplab_xc32/bin/bin/../../lib/gcc/pic32mx/4.8.3/../../../../pic32mx/lib\libpic32.a(defaultinterrupt.o)
 .gnu.attributes
                0x00000a30       0x10 f:/software_installations/mplab_xc32/bin/bin/../../lib/gcc/pic32mx/4.8.3/../../../../pic32mx/lib\libpic32.a(default-cache-err-exception-handler.o)
 .gnu.attributes
                0x00000a40       0x10 f:/software_installations/mplab_xc32/bin/bin/../../lib/gcc/pic32mx/4.8.3/../../../../pic32mx/lib\libpic32.a(default-simple-tlb-refill-exception-handler.o)
 .gnu.attributes
                0x00000a50       0x10 f:/software_installations/mplab_xc32/bin/bin/../../lib/gcc/pic32mx/4.8.3/../../../../pic32mx/lib\liblega-c.a(malloc.o)
 .gnu.attributes
                0x00000a60       0x10 f:/software_installations/mplab_xc32/bin/bin/../../lib/gcc/pic32mx/4.8.3/../../../../pic32mx/lib\liblega-c.a(malloc_realloc.o)
 .gnu.attributes
                0x00000a70       0x10 f:/software_installations/mplab_xc32/bin/bin/../../lib/gcc/pic32mx/4.8.3/../../../../pic32mx/lib\liblega-c.a(malloc_calloc.o)
 .gnu.attributes
                0x00000a80       0x10 f:/software_installations/mplab_xc32/bin/bin/../../lib/gcc/pic32mx/4.8.3/../../../../pic32mx/lib\liblega-c.a(errno.o)
 .gnu.attributes
                0x00000a90       0x10 f:/software_installations/mplab_xc32/bin/bin/../../lib/gcc/pic32mx/4.8.3/../../../../pic32mx/lib\liblega-c.a(sprintf_cdnopuxX.eo)
 .gnu.attributes
                0x00000aa0       0x10 f:/software_installations/mplab_xc32/bin/bin/../../lib/gcc/pic32mx/4.8.3/../../../../pic32mx/lib\liblega-c.a(vsnprintf.o)
 .gnu.attributes
                0x00000ab0       0x10 f:/software_installations/mplab_xc32/bin/bin/../../lib/gcc/pic32mx/4.8.3/../../../../pic32mx/lib\liblega-c.a(memmove.o)
 .gnu.attributes
                0x00000ac0       0x10 f:/software_installations/mplab_xc32/bin/bin/../../lib/gcc/pic32mx/4.8.3/../../../../pic32mx/lib\liblega-c.a(_doprnt_cdnopuxX.eo)
 .gnu.attributes
                0x00000ad0       0x10 f:/software_installations/mplab_xc32/bin/bin/../../lib/gcc/pic32mx/4.8.3/../../../../pic32mx/lib\liblega-c.a(_doprnt.o)
 .gnu.attributes
                0x00000ae0       0x10 f:/software_installations/mplab_xc32/bin/bin/../../lib/gcc/pic32mx/4.8.3/../../../../pic32mx/lib\liblega-c.a(_iobdata.o)
 .gnu.attributes
                0x00000af0       0x10 f:/software_installations/mplab_xc32/bin/bin/../../lib/gcc/pic32mx/4.8.3/../../../../pic32mx/lib\liblega-c.a(_iobfuncs.o)
 .gnu.attributes
                0x00000b00       0x10 f:/software_installations/mplab_xc32/bin/bin/../../lib/gcc/pic32mx/4.8.3/../../../../pic32mx/lib\liblega-c.a(_iobstring.o)
 .gnu.attributes
                0x00000b10       0x10 f:/software_installations/mplab_xc32/bin/bin/../../lib/gcc/pic32mx/4.8.3/../../../../pic32mx/lib\liblega-c.a(fputc.o)
 .gnu.attributes
                0x00000b20       0x10 f:/software_installations/mplab_xc32/bin/bin/../../lib/gcc/pic32mx/4.8.3\libgcc.a(_udivdi3.o)
 .gnu.attributes
                0x00000b30       0x10 f:/software_installations/mplab_xc32/bin/bin/../../lib/gcc/pic32mx/4.8.3\libgcc.a(_umoddi3.o)
 .gnu.attributes
                0x00000b40       0x10 f:/software_installations/mplab_xc32/bin/bin/../../lib/gcc/pic32mx/4.8.3/../../../../pic32mx/lib\libpic32.a(sbrk.o)
 .gnu.attributes
                0x00000b50       0x10 f:/software_installations/mplab_xc32/bin/bin/../../lib/gcc/pic32mx/4.8.3/../../../../pic32mx/lib\libpic32.a(_mon_getc.o)
 .gnu.attributes
                0x00000b60       0x10 f:/software_installations/mplab_xc32/bin/bin/../../lib/gcc/pic32mx/4.8.3/../../../../pic32mx/lib\libpic32.a(_mon_write.o)
 .gnu.attributes
                0x00000b70       0x10 f:/software_installations/mplab_xc32/bin/bin/../../lib/gcc/pic32mx/4.8.3/../../../../pic32mx/lib\libpic32.a(xc32_uart.o)
 .gnu.attributes
                0x00000b80       0x10 f:/software_installations/mplab_xc32/bin/bin/../../lib/gcc/pic32mx/4.8.3/../../../../pic32mx/lib\libpic32.a(_mon_putc.o)
                0x9d000000                PROVIDE (__pic32_init_cache_program_base_addr, 0x9d000000)
                0x80000000                PROVIDE (__pic32_init_cache_data_base_addr, 0x80000000)
                0xd0000000                PROVIDE (__pic32_init_sqi_kseg2_virtual_base_addr, 0xd0000000)
                0x30000000                PROVIDE (__pic32_init_sqi_kseg2_physical_base_addr, 0x30000000)
                0x0000001f                PROVIDE (__pic32_init_sqi_kseg2_entrylo0_bitset, 0x1f)
                0xd0000000                __pic32_tlb_0_entryhi = __pic32_init_sqi_kseg2_virtual_base_addr
                0x00c0001f                __pic32_tlb_0_entrylo0 = ((__pic32_init_sqi_kseg2_physical_base_addr >> 0x6) | __pic32_init_sqi_kseg2_entrylo0_bitset)
                0x00c4001f                __pic32_tlb_0_entrylo1 = (__pic32_tlb_0_entrylo0 | ((__pic32_init_sqi_kseg2_physical_base_addr + 0x1000000) >> 0x6))
                0xd2000000                __pic32_tlb_1_entryhi = (__pic32_init_sqi_kseg2_virtual_base_addr + 0x2000000)
                0x00c8001f                __pic32_tlb_1_entrylo0 = (((__pic32_init_sqi_kseg2_physical_base_addr + 0x2000000) >> 0x6) | __pic32_init_sqi_kseg2_entrylo0_bitset)
                0x00cc001f                __pic32_tlb_1_entrylo1 = (__pic32_tlb_1_entrylo0 | 0x40000)
                0xf0000000                PROVIDE (__pic32_init_sqi_kseg3_virtual_base_addr, 0xf0000000)
                0x30000000                PROVIDE (__pic32_init_sqi_kseg3_physical_base_addr, 0x30000000)
                0x00000017                PROVIDE (__pic32_init_sqi_kseg3_entrylo0_bitset, 0x17)
                0xf0000000                __pic32_tlb_2_entryhi = __pic32_init_sqi_kseg3_virtual_base_addr
                0x00c00017                __pic32_tlb_2_entrylo0 = ((__pic32_init_sqi_kseg3_physical_base_addr >> 0x6) | __pic32_init_sqi_kseg3_entrylo0_bitset)
                0x00c40017                __pic32_tlb_2_entrylo1 = (__pic32_tlb_2_entrylo0 | ((__pic32_init_sqi_kseg3_physical_base_addr + 0x1000000) >> 0x6))
                0xf2000000                __pic32_tlb_3_entryhi = (__pic32_init_sqi_kseg3_virtual_base_addr + 0x2000000)
                0x00c80017                __pic32_tlb_3_entrylo0 = (((__pic32_init_sqi_kseg3_physical_base_addr + 0x2000000) >> 0x6) | __pic32_init_sqi_kseg3_entrylo0_bitset)
                0x00cc0017                __pic32_tlb_3_entrylo1 = (__pic32_tlb_3_entrylo0 | 0x40000)
                0xc0000000                PROVIDE (__pic32_init_ebi_kseg2_virtual_base_addr, 0xc0000000)
                0x20000000                PROVIDE (__pic32_init_ebi_kseg2_physical_base_addr, 0x20000000)
                0x0000001f                PROVIDE (__pic32_init_ebi_kseg2_entrylo0_bitset, 0x1f)
                0xc0000000                __pic32_tlb_4_entryhi = __pic32_init_ebi_kseg2_virtual_base_addr
                0x0080001f                __pic32_tlb_4_entrylo0 = ((__pic32_init_ebi_kseg2_physical_base_addr >> 0x6) | __pic32_init_ebi_kseg2_entrylo0_bitset)
                0x0084001f                __pic32_tlb_4_entrylo1 = (__pic32_tlb_4_entrylo0 | ((__pic32_init_ebi_kseg2_physical_base_addr + 0x1000000) >> 0x6))
                0xc2000000                __pic32_tlb_5_entryhi = (__pic32_init_ebi_kseg2_virtual_base_addr + 0x2000000)
                0x0088001f                __pic32_tlb_5_entrylo0 = (((__pic32_init_ebi_kseg2_physical_base_addr + 0x2000000) >> 0x6) | __pic32_init_ebi_kseg2_entrylo0_bitset)
                0x008c001f                __pic32_tlb_5_entrylo1 = (__pic32_tlb_5_entrylo0 | 0x40000)
                0xe0000000                PROVIDE (__pic32_init_ebi_kseg3_virtual_base_addr, 0xe0000000)
                0x20000000                PROVIDE (__pic32_init_ebi_kseg3_physical_base_addr, 0x20000000)
                0x00000017                PROVIDE (__pic32_init_ebi_kseg3_entrylo0_bitset, 0x17)
                0xe0000000                __pic32_tlb_6_entryhi = __pic32_init_ebi_kseg3_virtual_base_addr
                0x00800017                __pic32_tlb_6_entrylo0 = ((__pic32_init_ebi_kseg3_physical_base_addr >> 0x6) | __pic32_init_ebi_kseg3_entrylo0_bitset)
                0x00840017                __pic32_tlb_6_entrylo1 = (__pic32_tlb_6_entrylo0 | ((__pic32_init_ebi_kseg3_physical_base_addr + 0x1000000) >> 0x6))
                0xe2000000                __pic32_tlb_7_entryhi = (__pic32_init_ebi_kseg3_virtual_base_addr + 0x2000000)
                0x00880017                __pic32_tlb_7_entrylo0 = (((__pic32_init_ebi_kseg3_physical_base_addr + 0x2000000) >> 0x6) | __pic32_init_ebi_kseg3_entrylo0_bitset)
                0x008c0017                __pic32_tlb_7_entrylo1 = (__pic32_tlb_7_entrylo0 | 0x40000)

.tlb_init_values
                0xbfc0064c       0x60
                0xbfc0064c                . = ALIGN (0x4)
                0xbfc0064c                __pic32_tlb_init_values_begin = ABSOLUTE (.)
                0xbfc0064c        0x4 LONG 0xd0000000 __pic32_tlb_0_entryhi
                0xbfc00650        0x4 LONG 0xc0001f __pic32_tlb_0_entrylo0
                0xbfc00654        0x4 LONG 0xc4001f __pic32_tlb_0_entrylo1
                0xbfc00658        0x4 LONG 0xd2000000 __pic32_tlb_1_entryhi
                0xbfc0065c        0x4 LONG 0xc8001f __pic32_tlb_1_entrylo0
                0xbfc00660        0x4 LONG 0xcc001f __pic32_tlb_1_entrylo1
                0xbfc00664        0x4 LONG 0xf0000000 __pic32_tlb_2_entryhi
                0xbfc00668        0x4 LONG 0xc00017 __pic32_tlb_2_entrylo0
                0xbfc0066c        0x4 LONG 0xc40017 __pic32_tlb_2_entrylo1
                0xbfc00670        0x4 LONG 0xf2000000 __pic32_tlb_3_entryhi
                0xbfc00674        0x4 LONG 0xc80017 __pic32_tlb_3_entrylo0
                0xbfc00678        0x4 LONG 0xcc0017 __pic32_tlb_3_entrylo1
                0xbfc0067c        0x4 LONG 0xc0000000 __pic32_tlb_4_entryhi
                0xbfc00680        0x4 LONG 0x80001f __pic32_tlb_4_entrylo0
                0xbfc00684        0x4 LONG 0x84001f __pic32_tlb_4_entrylo1
                0xbfc00688        0x4 LONG 0xc2000000 __pic32_tlb_5_entryhi
                0xbfc0068c        0x4 LONG 0x88001f __pic32_tlb_5_entrylo0
                0xbfc00690        0x4 LONG 0x8c001f __pic32_tlb_5_entrylo1
                0xbfc00694        0x4 LONG 0xe0000000 __pic32_tlb_6_entryhi
                0xbfc00698        0x4 LONG 0x800017 __pic32_tlb_6_entrylo0
                0xbfc0069c        0x4 LONG 0x840017 __pic32_tlb_6_entrylo1
                0xbfc006a0        0x4 LONG 0xe2000000 __pic32_tlb_7_entryhi
                0xbfc006a4        0x4 LONG 0x880017 __pic32_tlb_7_entrylo0
                0xbfc006a8        0x4 LONG 0x8c0017 __pic32_tlb_7_entrylo1
                0xbfc006ac                __pic32_tlb_init_values_end = ABSOLUTE (.)
                0x00000008                __pic32_tlb_init_values_count = 0x8
LOAD f:/software_installations/mplab_xc32/bin/bin/../../lib/gcc/pic32mx/4.8.3\libgcc.a
START GROUP
LOAD f:/software_installations/mplab_xc32/bin/bin/../../lib/gcc/pic32mx/4.8.3/../../../../pic32mx/lib\libpic32.a
LOAD f:/software_installations/mplab_xc32/bin/bin/../../lib/gcc/pic32mx/4.8.3/../../../../pic32mx/lib\libdebug.a
LOAD f:/software_installations/mplab_xc32/bin/bin/../../lib/gcc/pic32mx/4.8.3/../../../../pic32mx/lib\libpic32.a
LOAD f:/software_installations/mplab_xc32/bin/bin/../../lib/gcc/pic32mx/4.8.3/../../../../pic32mx/lib\liblega-c.a
LOAD f:/software_installations/mplab_xc32/bin/bin/../../lib/gcc/pic32mx/4.8.3/../../../../pic32mx/lib\libm.a
LOAD f:/software_installations/mplab_xc32/bin/bin/../../lib/gcc/pic32mx/4.8.3/../../../../pic32mx/lib\libe.a
LOAD f:/software_installations/mplab_xc32/bin/bin/../../lib/gcc/pic32mx/4.8.3/../../../../pic32mx/lib\libdspr2.a
LOAD f:/software_installations/mplab_xc32/bin/bin/../../lib/gcc/pic32mx/4.8.3/../../../../pic32mx/lib\libdsp.a
LOAD f:/software_installations/mplab_xc32/bin/bin/../../lib/gcc/pic32mx/4.8.3\libgcc.a
LOAD f:/software_installations/mplab_xc32/bin/bin/../../lib/gcc/pic32mx/4.8.3/../../../../pic32mx/lib\libpic32.a
END GROUP
LOAD f:/software_installations/mplab_xc32/bin/bin/../../lib/gcc/pic32mx/4.8.3\libgcc.a
OUTPUT(dist/pic32mz_da_sk_intddr_meb2/production/aria_quickstart.X.production.elf elf32-tradlittlemips)
LOAD stack
LOAD data_init

.reginfo        0x00000000       0x18
 .reginfo       0x00000000       0x18 f:/software_installations/mplab_xc32/bin/bin/../../lib/gcc/pic32mx/4.8.3/../../../../pic32mx/lib/./proc/32MZ2064DAG176/crt0_mips32r2.o

.stack          0x80009448      0x400
 .stack         0x80009448      0x400 stack

.__vector_offset_BF810540_data
                0xbf810540      0x19c
 .__vector_offset_BF810540_data
                0xbf810540      0x19c f:/software_installations/mplab_xc32/bin/bin/../../lib/gcc/pic32mx/4.8.3/../../../../pic32mx/lib/./proc/32MZ2064DAG176\vector_offset_init.o

.__vector_offset_BF8106F4_data
                0xbf8106f4      0x154
 .__vector_offset_BF8106F4_data
                0xbf8106f4      0x154 f:/software_installations/mplab_xc32/bin/bin/../../lib/gcc/pic32mx/4.8.3/../../../../pic32mx/lib/./proc/32MZ2064DAG176\vector_offset_init.o

.__vector_offset_BF81084C_data
                0xbf81084c       0x24
 .__vector_offset_BF81084C_data
                0xbf81084c       0x24 f:/software_installations/mplab_xc32/bin/bin/../../lib/gcc/pic32mx/4.8.3/../../../../pic32mx/lib/./proc/32MZ2064DAG176\vector_offset_init.o

.__vector_offset_BF810874_data
                0xbf810874       0x1c
 .__vector_offset_BF810874_data
                0xbf810874       0x1c f:/software_installations/mplab_xc32/bin/bin/../../lib/gcc/pic32mx/4.8.3/../../../../pic32mx/lib/./proc/32MZ2064DAG176\vector_offset_init.o

.__vector_offset_BF8106E0_data
                0xbf8106e0        0xc
 .__vector_offset_BF8106E0_data
                0xbf8106e0        0xc f:/software_installations/mplab_xc32/bin/bin/../../lib/gcc/pic32mx/4.8.3/../../../../pic32mx/lib/./proc/32MZ2064DAG176\vector_offset_init.o

.__vector_offset_BF810898_data
                0xbf810898        0x8
 .__vector_offset_BF810898_data
                0xbf810898        0x8 f:/software_installations/mplab_xc32/bin/bin/../../lib/gcc/pic32mx/4.8.3/../../../../pic32mx/lib/./proc/32MZ2064DAG176\vector_offset_init.o

.bss            0x8000069c     0x49fc
 .bss           0x8000069c     0x4000 build/pic32mz_da_sk_intddr_meb2/production/_ext/2137108136/sys_debug.o
 .bss           0x8000469c      0x9fc build/pic32mz_da_sk_intddr_meb2/production/_ext/1597685232/gfxu_image_jpg_internal.o

.bss            0x80005098      0x9fc
 .bss           0x80005098      0x9fc build/pic32mz_da_sk_intddr_meb2/production/_ext/1597685232/gfxu_image_jpg_external.o

.data           0x80005a94      0x410
 .data          0x80005a94      0x410 f:/software_installations/mplab_xc32/bin/bin/../../lib/gcc/pic32mx/4.8.3/../../../../pic32mx/lib\liblega-c.a(malloc.o)
                0x80005a94                malloc_sbrk_base
                0x80005a98                malloc_trim_threshold
                0x80005a9c                malloc_av_

.bss            0x80005ea4      0x254
 .bss           0x80005ea4      0x254 build/pic32mz_da_sk_intddr_meb2/production/_ext/475095144/drv_i2c_bb_a.o

.data           0x800060f8      0x35c
 .data          0x800060f8      0x1e4 build/pic32mz_da_sk_intddr_meb2/production/_ext/1847583374/gfx_color_convert.o
                0x800060f8                color_convert_table
 .data          0x800062dc      0x178 build/pic32mz_da_sk_intddr_meb2/production/_ext/1847583374/gfx_interface.o
                0x800062dc                GFX_InterfaceTable

.data           0x80006454      0x260
 .data          0x80006454      0x160 build/pic32mz_da_sk_intddr_meb2/production/_ext/1847583374/gfx_color.o
                0x80006454                GFX_ColorInfo
 .data          0x800065b4      0x100 build/pic32mz_da_sk_intddr_meb2/production/_ext/1021385576/gfx_assets.o
                0x800065b4                stringTable
                0x800065dc                stringTable_data
                0x80006610                TimesNewRoman12
                0x80006638                TimesNewRoman12_lookup_72_75
                0x80006644                TimesNewRoman18
                0x8000666c                TimesNewRoman18_lookup_72_75
                0x8000667c                NewHarmonyLogo

.bss            0x800066b4       0xe4
 .bss           0x800066b4       0xe4 build/pic32mz_da_sk_intddr_meb2/production/_ext/1094895838/drv_gfx_glcd_static.o
                0x8000678c                waitForAlphaSetting

.data           0x80006798       0xd4
 .data          0x80006798       0xd4 f:/software_installations/mplab_xc32/bin/bin/../../lib/gcc/pic32mx/4.8.3/../../../../pic32mx/lib\liblega-c.a(_iobdata.o)

.bss            0x8000686c       0xd0
 .bss           0x8000686c       0x88 f:/software_installations/mplab_xc32/bin/bin/../../lib/gcc/pic32mx/4.8.3/../../../../pic32mx/lib\liblega-c.a(_iobdata.o)
 .bss           0x800068f4       0x48 build/pic32mz_da_sk_intddr_meb2/production/_ext/1177928576/drv_mxt336t.o

.data           0x8000693c       0x7c
 .data          0x8000693c       0x44 build/pic32mz_da_sk_intddr_meb2/production/_ext/1597685232/gfxu_image_utils.o
                0x8000693c                calcOffset
                0x80006954                getDiscreteValue
 .data          0x80006980       0x38 build/pic32mz_da_sk_intddr_meb2/production/_ext/1847583374/gfx_pixel_buffer.o
                0x80006980                pixelSet_FnTable
                0x80006990                pixelGet_FnTable
                0x800069a0                indexGet_FnTable

.bss            0x800069b8       0x34
 .bss           0x800069b8       0x34 f:/software_installations/mplab_xc32/bin/bin/../../lib/gcc/pic32mx/4.8.3/../../../../pic32mx/lib\liblega-c.a(malloc.o)
                0x800069b8                malloc_current_mallinfo
                0x800069e0                malloc_max_total_mem
                0x800069e4                malloc_max_sbrked_mem
                0x800069e8                malloc_top_pad

.data           0x800069ec       0x5c
 .data          0x800069ec       0x30 build/pic32mz_da_sk_intddr_meb2/production/_ext/1719547748/gfx_display_def.o
                0x800069ec                GFX_DisplayInfoList
 .data          0x80006a1c       0x2c build/pic32mz_da_sk_intddr_meb2/production/_ext/1847583374/gfx_color_lerp.o
                0x80006a1c                color_lerp_table

.bss            0x80006a48       0x24
 .bss           0x80006a48       0x24 f:/software_installations/mplab_xc32/bin/bin/../../lib/gcc/pic32mx/4.8.3/../../../../pic32mx/lib\libpic32.a(sbrk.o)
                0x80006a64                _maxbrk
                0x80006a68                _minbrk

.data           0x80006a6c       0x18
 .data          0x80006a6c        0xc build/pic32mz_da_sk_intddr_meb2/production/_ext/1597685232/gfxu_string_utils.o
                0x80006a6c                decodeGlyph
 .data          0x80006a78        0xc build/pic32mz_da_sk_intddr_meb2/production/_ext/1653314881/system_init.o
                0x80006a78                debugInit

._debug_exception
                0xbfc00480       0x2c
 ._debug_exception
                0xbfc00480       0x2c f:/software_installations/mplab_xc32/bin/bin/../../lib/gcc/pic32mx/4.8.3/../../../../pic32mx/lib\debug-exception-return.o
                0xbfc00480                __DbgExecReturn

.rodata         0x9d000270     0x36ac
 .rodata        0x9d000270     0x2008 build/pic32mz_da_sk_intddr_meb2/production/_ext/1021385576/gfx_assets.o
                0x9d000270                TimesNewRoman12_data
                0x9d00036c                TimesNewRoman18_data
                0x9d00053c                NewHarmonyLogo_data
 .rodata        0x9d002278     0x16a4 build/pic32mz_da_sk_intddr_meb2/production/_ext/493934858/lodepng.o
                0x9d003694                lodepng_default_decompress_settings
                0x9d0036a4                lodepng_default_compress_settings

.text.lodepng_decode
                0x9d00391c     0x15c4
 .text.lodepng_decode
                0x9d00391c     0x15c4 build/pic32mz_da_sk_intddr_meb2/production/_ext/493934858/lodepng.o
                0x9d00391c                lodepng_decode

.dinit          0x9d004ee0     0x1380
 .dinit         0x9d004ee0     0x1380 data_init

.text.cpuDrawArc_Fill
                0x9d006260      0xef4
 .text.cpuDrawArc_Fill
                0x9d006260      0xef4 build/pic32mz_da_sk_intddr_meb2/production/_ext/1847583374/gfx_draw_arc.o
                0x9d006260                cpuDrawArc_Fill

.text._fconvert
                0x9d007154      0xd34
 .text._fconvert
                0x9d007154      0xd34 f:/software_installations/mplab_xc32/bin/bin/../../lib/gcc/pic32mx/4.8.3/../../../../pic32mx/lib\liblega-c.a(_doprnt.o)

.text.do_print  0x9d007e88      0xb10
 .text.do_print
                0x9d007e88      0xb10 f:/software_installations/mplab_xc32/bin/bin/../../lib/gcc/pic32mx/4.8.3/../../../../pic32mx/lib\liblega-c.a(_doprnt.o)
                0x9d007e88                do_print

.text.DRV_I2C_BB_Tasks
                0x9d008998      0xac0
 .text.DRV_I2C_BB_Tasks
                0x9d008998      0xac0 build/pic32mz_da_sk_intddr_meb2/production/_ext/475095144/drv_i2c_bb.o
                0x9d008998                DRV_I2C_BB_Tasks

.text.JPEG_bPaintOneBlock
                0x9d009458      0x98c
 .text.JPEG_bPaintOneBlock
                0x9d009458      0x98c build/pic32mz_da_sk_intddr_meb2/production/_ext/1597685232/gfxu_image_jpg_common.o
                0x9d009458                JPEG_bPaintOneBlock

.text.lodepng_inflate
                0x9d009de4      0x978
 .text.lodepng_inflate
                0x9d009de4      0x978 build/pic32mz_da_sk_intddr_meb2/production/_ext/493934858/lodepng.o
                0x9d009de4                lodepng_inflate

.text.JPEG_bReadHeader
                0x9d00a75c      0x890
 .text.JPEG_bReadHeader
                0x9d00a75c      0x890 build/pic32mz_da_sk_intddr_meb2/production/_ext/1597685232/gfxu_image_jpg_common.o
                0x9d00a75c                JPEG_bReadHeader

.text.malloc    0x9d00afec      0x800
 .text.malloc   0x9d00afec      0x800 f:/software_installations/mplab_xc32/bin/bin/../../lib/gcc/pic32mx/4.8.3/../../../../pic32mx/lib\liblega-c.a(malloc.o)
                0x9d00afec                malloc

.text.DRV_MXT336T_Tasks
                0x9d00b7ec      0x7c4
 .text.DRV_MXT336T_Tasks
                0x9d00b7ec      0x7c4 build/pic32mz_da_sk_intddr_meb2/production/_ext/1177928576/drv_mxt336t.o
                0x9d00b7ec                DRV_MXT336T_Tasks

.text.SYS_MEMORY_DDR_Initialize
                0x9d00bfb0      0x6c8
 .text.SYS_MEMORY_DDR_Initialize
                0x9d00bfb0      0x6c8 build/pic32mz_da_sk_intddr_meb2/production/_ext/327666056/sys_memory_ddr_static.o
                0x9d00bfb0                SYS_MEMORY_DDR_Initialize

.text.jpeg_idct_islow
                0x9d00c678      0x6b8
 .text.jpeg_idct_islow
                0x9d00c678      0x6b8 build/pic32mz_da_sk_intddr_meb2/production/_ext/426253641/jidctint.o
                0x9d00c678                jpeg_idct_islow

.text.SYS_PORTS_Initialize
                0x9d00cd30      0x658
 .text.SYS_PORTS_Initialize
                0x9d00cd30      0x658 build/pic32mz_da_sk_intddr_meb2/production/_ext/730466360/sys_ports_static.o
                0x9d00cd30                SYS_PORTS_Initialize

.text.contextDefInitialization
                0x9d00d388      0x620
 .text.contextDefInitialization
                0x9d00d388      0x620 build/pic32mz_da_sk_intddr_meb2/production/_ext/1847583374/gfx_default_impl.o
                0x9d00d388                contextDefInitialization

.text.glcdInitialize
                0x9d00d9a8      0x5c0
 .text.glcdInitialize
                0x9d00d9a8      0x5c0 build/pic32mz_da_sk_intddr_meb2/production/_ext/1094895838/drv_gfx_glcd_static.o

.text.realloc   0x9d00df68      0x584
 .text.realloc  0x9d00df68      0x584 f:/software_installations/mplab_xc32/bin/bin/../../lib/gcc/pic32mx/4.8.3/../../../../pic32mx/lib\liblega-c.a(malloc_realloc.o)
                0x9d00df68                realloc

.text.drawMultiLineString
                0x9d00e4ec      0x550
 .text.drawMultiLineString
                0x9d00e4ec      0x550 build/pic32mz_da_sk_intddr_meb2/production/_ext/1907747181/libaria_widget_label_skin_classic.o

.text.getPixelColorsRGBA8
                0x9d00ea3c      0x540
 .text.getPixelColorsRGBA8
                0x9d00ea3c      0x540 build/pic32mz_da_sk_intddr_meb2/production/_ext/493934858/lodepng.o

.text.lodepng_convert
                0x9d00ef7c      0x538
 .text.lodepng_convert
                0x9d00ef7c      0x538 build/pic32mz_da_sk_intddr_meb2/production/_ext/493934858/lodepng.o
                0x9d00ef7c                lodepng_convert

.text._laContext_ShowScreen
                0x9d00f4b4      0x4b0
 .text._laContext_ShowScreen
                0x9d00f4b4      0x4b0 build/pic32mz_da_sk_intddr_meb2/production/_ext/1907747181/libaria_context.o
                0x9d00f4b4                _laContext_ShowScreen

.text           0x9d00f964      0x8bc
 .text          0x9d00f964      0x464 f:/software_installations/mplab_xc32/bin/bin/../../lib/gcc/pic32mx/4.8.3\libgcc.a(_umoddi3.o)
                0x9d00f964                __umoddi3
 .text          0x9d00fdc8      0x458 f:/software_installations/mplab_xc32/bin/bin/../../lib/gcc/pic32mx/4.8.3\libgcc.a(_udivdi3.o)
                0x9d00fdc8                __udivdi3

.text.run       0x9d010220      0x450
 .text.run      0x9d010220      0x450 build/pic32mz_da_sk_intddr_meb2/production/_ext/1597685232/gfxu_image_raw_external.o

.text.cpuDrawStretchBlit_Bilinear
                0x9d010670      0x440
 .text.cpuDrawStretchBlit_Bilinear
                0x9d010670      0x440 build/pic32mz_da_sk_intddr_meb2/production/_ext/1847583374/gfx_draw_stretchblit.o
                0x9d010670                cpuDrawStretchBlit_Bilinear

.text.GFXU_DrawImageRLEInternal
                0x9d010ab0      0x428
 .text.GFXU_DrawImageRLEInternal
                0x9d010ab0      0x428 build/pic32mz_da_sk_intddr_meb2/production/_ext/1597685232/gfxu_image_rle_internal.o
                0x9d010ab0                GFXU_DrawImageRLEInternal

.text.run       0x9d010ed8      0x414
 .text.run      0x9d010ed8      0x414 build/pic32mz_da_sk_intddr_meb2/production/_ext/1597685232/gfxu_image_rle_external.o

.text.getPixelColorRGBA8
                0x9d0112ec      0x400
 .text.getPixelColorRGBA8
                0x9d0112ec      0x400 build/pic32mz_da_sk_intddr_meb2/production/_ext/493934858/lodepng.o

.text.drawMultiLineString
                0x9d0116ec      0x3fc
 .text.drawMultiLineString
                0x9d0116ec      0x3fc build/pic32mz_da_sk_intddr_meb2/production/_ext/1907747181/libaria_widget_button_skin_classic.o

.text.laWidget_SkinClassic_FillRoundCornerRect
                0x9d011ae8      0x3e8
 .text.laWidget_SkinClassic_FillRoundCornerRect
                0x9d011ae8      0x3e8 build/pic32mz_da_sk_intddr_meb2/production/_ext/1907747181/libaria_widget_skin_classic_common.o
                0x9d011ae8                laWidget_SkinClassic_FillRoundCornerRect

.text.DRV_I2C_Initialize
                0x9d011ed0      0x3a4
 .text.DRV_I2C_Initialize
                0x9d011ed0      0x3a4 build/pic32mz_da_sk_intddr_meb2/production/_ext/475095144/drv_i2c_bb_a.o
                0x9d011ed0                DRV_I2C_Initialize

.text._laContext_PaintWidget
                0x9d012274      0x39c
 .text._laContext_PaintWidget
                0x9d012274      0x39c build/pic32mz_da_sk_intddr_meb2/production/_ext/1907747181/libaria_context_paint.o
                0x9d012274                _laContext_PaintWidget

.text.laWidget_SkinClassic_DrawRoundCornerLineBorder
                0x9d012610      0x398
 .text.laWidget_SkinClassic_DrawRoundCornerLineBorder
                0x9d012610      0x398 build/pic32mz_da_sk_intddr_meb2/production/_ext/1907747181/libaria_widget_skin_classic_common.o
                0x9d012610                laWidget_SkinClassic_DrawRoundCornerLineBorder

.text.unfilter  0x9d0129a8      0x390
 .text.unfilter
                0x9d0129a8      0x390 build/pic32mz_da_sk_intddr_meb2/production/_ext/493934858/lodepng.o

.text.HuffmanTree_makeFromLengths2
                0x9d012d38      0x350
 .text.HuffmanTree_makeFromLengths2
                0x9d012d38      0x350 build/pic32mz_da_sk_intddr_meb2/production/_ext/493934858/lodepng.o

.text.run       0x9d013088      0x34c
 .text.run      0x9d013088      0x34c build/pic32mz_da_sk_intddr_meb2/production/_ext/1597685232/gfxu_string_external.o

.text.GFX_Open  0x9d0133d4      0x334
 .text.GFX_Open
                0x9d0133d4      0x334 build/pic32mz_da_sk_intddr_meb2/production/_ext/1847583374/gfx.o
                0x9d0133d4                GFX_Open

.text.GFXU_DrawImage
                0x9d013708      0x330
 .text.GFXU_DrawImage
                0x9d013708      0x330 build/pic32mz_da_sk_intddr_meb2/production/_ext/1597685232/gfxu_image.o
                0x9d013708                GFXU_DrawImage

.text.cpuDrawStretchBlit_NearestNeighbor
                0x9d013a38      0x310
 .text.cpuDrawStretchBlit_NearestNeighbor
                0x9d013a38      0x310 build/pic32mz_da_sk_intddr_meb2/production/_ext/1847583374/gfx_draw_stretchblit.o
                0x9d013a38                cpuDrawStretchBlit_NearestNeighbor

.text.run       0x9d013d48      0x300
 .text.run      0x9d013d48      0x300 build/pic32mz_da_sk_intddr_meb2/production/_ext/1597685232/gfxu_stringbuffer_external.o

.text.GFXU_DrawImageJpgInternal
                0x9d014048      0x2d4
 .text.GFXU_DrawImageJpgInternal
                0x9d014048      0x2d4 build/pic32mz_da_sk_intddr_meb2/production/_ext/1597685232/gfxu_image_jpg_internal.o
                0x9d014048                GFXU_DrawImageJpgInternal

.text.JPEG_bDecodeOneBlock
                0x9d01431c      0x2c0
 .text.JPEG_bDecodeOneBlock
                0x9d01431c      0x2c0 build/pic32mz_da_sk_intddr_meb2/production/_ext/1597685232/gfxu_image_jpg_common.o
                0x9d01431c                JPEG_bDecodeOneBlock

.text.GFXU_DrawImagePngExternal
                0x9d0145dc      0x2bc
 .text.GFXU_DrawImagePngExternal
                0x9d0145dc      0x2bc build/pic32mz_da_sk_intddr_meb2/production/_ext/1597685232/gfxu_image_png_external.o
                0x9d0145dc                GFXU_DrawImagePngExternal

.text.GFXU_DrawImageJpgExternal
                0x9d014898      0x2a4
 .text.GFXU_DrawImageJpgExternal
                0x9d014898      0x2a4 build/pic32mz_da_sk_intddr_meb2/production/_ext/1597685232/gfxu_image_jpg_external.o
                0x9d014898                GFXU_DrawImageJpgExternal

.text._IntHandlerVSync
                0x9d014b3c      0x2a4
 .text._IntHandlerVSync
                0x9d014b3c      0x2a4 build/pic32mz_da_sk_intddr_meb2/production/_ext/1094895838/drv_gfx_glcd_static.o
                0x9d014b3c                _IntHandlerVSync

.text.laUtils_ArrangeRectangleRelative
                0x9d014de0      0x28c
 .text.laUtils_ArrangeRectangleRelative
                0x9d014de0      0x28c build/pic32mz_da_sk_intddr_meb2/production/_ext/1907747181/libaria_utils.o
                0x9d014de0                laUtils_ArrangeRectangleRelative

.text.cpuDrawLine
                0x9d01506c      0x280
 .text.cpuDrawLine
                0x9d01506c      0x280 build/pic32mz_da_sk_intddr_meb2/production/_ext/1847583374/gfx_draw_line.o
                0x9d01506c                cpuDrawLine

.text.GFX_DrawDirectBlit
                0x9d0152ec      0x27c
 .text.GFX_DrawDirectBlit
                0x9d0152ec      0x27c build/pic32mz_da_sk_intddr_meb2/production/_ext/1847583374/gfx_draw_blit.o
                0x9d0152ec                GFX_DrawDirectBlit

.text.free      0x9d015568      0x27c
 .text.free     0x9d015568      0x27c f:/software_installations/mplab_xc32/bin/bin/../../lib/gcc/pic32mx/4.8.3/../../../../pic32mx/lib\liblega-c.a(malloc.o)
                0x9d015568                free

.text.fpsubadd  0x9d0157e4      0x278
 .text.fpsubadd
                0x9d0157e4      0x278 f:/software_installations/mplab_xc32/bin/bin/../../lib/gcc/pic32mx/4.8.3/../../../../pic32mx/lib\libm.a(fp32subadd.o)
                0x9d0157e4                fpsub
                0x9d0157e4                __subsf3
                0x9d0157ec                __addsf3
                0x9d0157ec                fpadd

.text.GFX_DrawBlit
                0x9d015a5c      0x250
 .text.GFX_DrawBlit
                0x9d015a5c      0x250 build/pic32mz_da_sk_intddr_meb2/production/_ext/1847583374/gfx_draw_blit.o
                0x9d015a5c                GFX_DrawBlit

.text.lodepng_inspect
                0x9d015cac      0x24c
 .text.lodepng_inspect
                0x9d015cac      0x24c build/pic32mz_da_sk_intddr_meb2/production/_ext/493934858/lodepng.o
                0x9d015cac                lodepng_inspect

.text._laContext_Paint
                0x9d015ef8      0x238
 .text._laContext_Paint
                0x9d015ef8      0x238 build/pic32mz_da_sk_intddr_meb2/production/_ext/1907747181/libaria_context_paint.o
                0x9d015ef8                _laContext_Paint

.text.GFXU_DrawImageRawInternal
                0x9d016130      0x230
 .text.GFXU_DrawImageRawInternal
                0x9d016130      0x230 build/pic32mz_da_sk_intddr_meb2/production/_ext/1597685232/gfxu_image_raw_internal.o
                0x9d016130                GFXU_DrawImageRawInternal

.text.fp32div   0x9d016360      0x230
 .text.fp32div  0x9d016360      0x230 f:/software_installations/mplab_xc32/bin/bin/../../lib/gcc/pic32mx/4.8.3/../../../../pic32mx/lib\libm.a(fp32div.o)
                0x9d016360                fpdiv
                0x9d016360                __divsf3

.text.GFX_DrawLine
                0x9d016590      0x224
 .text.GFX_DrawLine
                0x9d016590      0x224 build/pic32mz_da_sk_intddr_meb2/production/_ext/1847583374/gfx_draw_line.o
                0x9d016590                GFX_DrawLine

.text.getPixelColorRGBA16
                0x9d0167b4      0x224
 .text.getPixelColorRGBA16
                0x9d0167b4      0x224 build/pic32mz_da_sk_intddr_meb2/production/_ext/493934858/lodepng.o

.text.GFXU_DrawImagePngInternal
                0x9d0169d8      0x21c
 .text.GFXU_DrawImagePngInternal
                0x9d0169d8      0x21c build/pic32mz_da_sk_intddr_meb2/production/_ext/1597685232/gfxu_image_png_internal.o
                0x9d0169d8                GFXU_DrawImagePngInternal

.text._laLayer_Preframe
                0x9d016bf4      0x200
 .text._laLayer_Preframe
                0x9d016bf4      0x200 build/pic32mz_da_sk_intddr_meb2/production/_ext/1907747181/libaria_layer.o
                0x9d016bf4                _laLayer_Preframe

.text.laUtils_ArrangeRectangle
                0x9d016df4      0x1fc
 .text.laUtils_ArrangeRectangle
                0x9d016df4      0x1fc build/pic32mz_da_sk_intddr_meb2/production/_ext/1907747181/libaria_utils.o
                0x9d016df4                laUtils_ArrangeRectangle

.text.GFXU_DecodeUTF8
                0x9d016ff0      0x1f8
 .text.GFXU_DecodeUTF8
                0x9d016ff0      0x1f8 build/pic32mz_da_sk_intddr_meb2/production/_ext/1597685232/gfxu_string_utils.o
                0x9d016ff0                GFXU_DecodeUTF8

.text.GFXU_DrawUnknownGlyph
                0x9d0171e8      0x1f4
 .text.GFXU_DrawUnknownGlyph
                0x9d0171e8      0x1f4 build/pic32mz_da_sk_intddr_meb2/production/_ext/1597685232/gfxu_string_utils.o
                0x9d0171e8                GFXU_DrawUnknownGlyph

.text.SYS_INP_Tasks
                0x9d0173dc      0x1f4
 .text.SYS_INP_Tasks
                0x9d0173dc      0x1f4 build/pic32mz_da_sk_intddr_meb2/production/_ext/252650337/sys_input.o
                0x9d0173dc                SYS_INP_Tasks

.text.lodepng_add_itext
                0x9d0175d0      0x1f0
 .text.lodepng_add_itext
                0x9d0175d0      0x1f0 build/pic32mz_da_sk_intddr_meb2/production/_ext/493934858/lodepng.o
                0x9d0175d0                lodepng_add_itext

.text.ScreenCreate_default
                0x9d0177c0      0x1ec
 .text.ScreenCreate_default
                0x9d0177c0      0x1ec build/pic32mz_da_sk_intddr_meb2/production/_ext/590040425/libaria_init.o

.text.lodepng_zlib_decompress
                0x9d0179ac      0x1dc
 .text.lodepng_zlib_decompress
                0x9d0179ac      0x1dc build/pic32mz_da_sk_intddr_meb2/production/_ext/493934858/lodepng.o
                0x9d0179ac                lodepng_zlib_decompress

.text._DRV_I2C_QueueSlotGet
                0x9d017b88      0x1d8
 .text._DRV_I2C_QueueSlotGet
                0x9d017b88      0x1d8 build/pic32mz_da_sk_intddr_meb2/production/_ext/475095144/drv_i2c_bb_a.o
                0x9d017b88                _DRV_I2C_QueueSlotGet

.text._laButtonWidget_InvalidateBorderAreas
                0x9d017d60      0x1d8
 .text._laButtonWidget_InvalidateBorderAreas
                0x9d017d60      0x1d8 build/pic32mz_da_sk_intddr_meb2/production/_ext/1907747181/libaria_widget_button_skin_classic.o
                0x9d017d60                _laButtonWidget_InvalidateBorderAreas

.text.cpuDrawRect_Gradient_LeftRight
                0x9d017f38      0x1d4
 .text.cpuDrawRect_Gradient_LeftRight
                0x9d017f38      0x1d4 build/pic32mz_da_sk_intddr_meb2/production/_ext/1847583374/gfx_draw_rect.o
                0x9d017f38                cpuDrawRect_Gradient_LeftRight

.text.cpuDrawRect_Gradient_TopBottom
                0x9d01810c      0x1d4
 .text.cpuDrawRect_Gradient_TopBottom
                0x9d01810c      0x1d4 build/pic32mz_da_sk_intddr_meb2/production/_ext/1847583374/gfx_draw_rect.o
                0x9d01810c                cpuDrawRect_Gradient_TopBottom

.text.GFXU_DrawGlyph
                0x9d0182e0      0x1c8
 .text.GFXU_DrawGlyph
                0x9d0182e0      0x1c8 build/pic32mz_da_sk_intddr_meb2/production/_ext/1597685232/gfxu_string_utils.o
                0x9d0182e0                GFXU_DrawGlyph

.text.SYS_CLK_Initialize
                0x9d0184a8      0x1bc
 .text.SYS_CLK_Initialize
                0x9d0184a8      0x1bc build/pic32mz_da_sk_intddr_meb2/production/_ext/370156264/sys_clk_pic32mz.o
                0x9d0184a8                SYS_CLK_Initialize

.text.fp32mul   0x9d018664      0x1bc
 .text.fp32mul  0x9d018664      0x1bc f:/software_installations/mplab_xc32/bin/bin/../../lib/gcc/pic32mx/4.8.3/../../../../pic32mx/lib\libm.a(fp32mul.o)
                0x9d018664                __mulsf3
                0x9d018664                fpmul

.text.GFX_DrawRect
                0x9d018820      0x1b8
 .text.GFX_DrawRect
                0x9d018820      0x1b8 build/pic32mz_da_sk_intddr_meb2/production/_ext/1847583374/gfx_draw_rect.o
                0x9d018820                GFX_DrawRect

.text.GFX_DrawArc
                0x9d0189d8      0x1b8
 .text.GFX_DrawArc
                0x9d0189d8      0x1b8 build/pic32mz_da_sk_intddr_meb2/production/_ext/1847583374/gfx_draw_arc.o
                0x9d0189d8                GFX_DrawArc

.text._IntHandlerDrvI2CMasterInstance0
                0x9d018b90      0x1b8
 .text._IntHandlerDrvI2CMasterInstance0
                0x9d018b90      0x1b8 build/pic32mz_da_sk_intddr_meb2/production/_ext/1653314881/system_interrupt.o
                0x9d018b90                _IntHandlerDrvI2CMasterInstance0

.text._IntHandlerExternalInterruptInstance0
                0x9d018d48      0x1b8
 .text._IntHandlerExternalInterruptInstance0
                0x9d018d48      0x1b8 build/pic32mz_da_sk_intddr_meb2/production/_ext/1653314881/system_interrupt.o
                0x9d018d48                _IntHandlerExternalInterruptInstance0

.text.touchMoved
                0x9d018f00      0x1b4
 .text.touchMoved
                0x9d018f00      0x1b4 build/pic32mz_da_sk_intddr_meb2/production/_ext/1907747181/libaria_widget_button.o

.text.laWidget_SkinClassic_InvalidateBorderAreas
                0x9d0190b4      0x1b4
 .text.laWidget_SkinClassic_InvalidateBorderAreas
                0x9d0190b4      0x1b4 build/pic32mz_da_sk_intddr_meb2/production/_ext/1907747181/libaria_widget_skin_classic_common.o
                0x9d0190b4                laWidget_SkinClassic_InvalidateBorderAreas

.text.DRV_I2C_BB_Initialize
                0x9d019268      0x1ac
 .text.DRV_I2C_BB_Initialize
                0x9d019268      0x1ac build/pic32mz_da_sk_intddr_meb2/production/_ext/475095144/drv_i2c_bb.o
                0x9d019268                DRV_I2C_BB_Initialize

.text._laButtonWidget_GetImageRect
                0x9d019414      0x1a8
 .text._laButtonWidget_GetImageRect
                0x9d019414      0x1a8 build/pic32mz_da_sk_intddr_meb2/production/_ext/1907747181/libaria_widget_button_skin_classic.o
                0x9d019414                _laButtonWidget_GetImageRect

.text.DRV_I2C_Receive
                0x9d0195bc      0x1a4
 .text.DRV_I2C_Receive
                0x9d0195bc      0x1a4 build/pic32mz_da_sk_intddr_meb2/production/_ext/475095144/drv_i2c_bb_a.o
                0x9d0195bc                DRV_I2C_Receive

.text.laScheme_Initialize
                0x9d019760      0x1a4
 .text.laScheme_Initialize
                0x9d019760      0x1a4 build/pic32mz_da_sk_intddr_meb2/production/_ext/1907747181/libaria_scheme.o
                0x9d019760                laScheme_Initialize

.text           0x9d019904      0x1a0
 .text          0x9d019904      0x1a0 f:/software_installations/mplab_xc32/bin/bin/../../lib/gcc/pic32mx/4.8.3/../../../../pic32mx/lib\libpic32.a(strcpy.o)
                0x9d019904                strcpy

.text.DRV_I2C_Transmit
                0x9d019aa4      0x19c
 .text.DRV_I2C_Transmit
                0x9d019aa4      0x19c build/pic32mz_da_sk_intddr_meb2/production/_ext/475095144/drv_i2c_bb_a.o
                0x9d019aa4                DRV_I2C_Transmit

.text.cpuDrawBlit
                0x9d019c40      0x19c
 .text.cpuDrawBlit
                0x9d019c40      0x19c build/pic32mz_da_sk_intddr_meb2/production/_ext/1847583374/gfx_draw_blit.o
                0x9d019c40                cpuDrawBlit

.text.Adam7_getpassvalues
                0x9d019ddc      0x19c
 .text.Adam7_getpassvalues
                0x9d019ddc      0x19c build/pic32mz_da_sk_intddr_meb2/production/_ext/493934858/lodepng.o

.text.laInput_InjectTouchMoved
                0x9d019f78      0x194
 .text.laInput_InjectTouchMoved
                0x9d019f78      0x194 build/pic32mz_da_sk_intddr_meb2/production/_ext/1907747181/libaria_input.o
                0x9d019f78                laInput_InjectTouchMoved

.text.SYS_Initialize
                0x9d01a10c      0x194
 .text.SYS_Initialize
                0x9d01a10c      0x194 build/pic32mz_da_sk_intddr_meb2/production/_ext/1653314881/system_init.o
                0x9d01a10c                SYS_Initialize

.text._sbrk_init
                0x9d01a2a0      0x194
 .text._sbrk_init
                0x9d01a2a0      0x194 f:/software_installations/mplab_xc32/bin/bin/../../lib/gcc/pic32mx/4.8.3/../../../../pic32mx/lib\libpic32.a(sbrk.o)
                0x9d01a2a0                _sbrk_init

.text._laButtonWidget_GetTextRect
                0x9d01a434      0x190
 .text._laButtonWidget_GetTextRect
                0x9d01a434      0x190 build/pic32mz_da_sk_intddr_meb2/production/_ext/1907747181/libaria_widget_button_skin_classic.o
                0x9d01a434                _laButtonWidget_GetTextRect

.text.GFXU_GetStringLineRect
                0x9d01a5c4      0x190
 .text.GFXU_GetStringLineRect
                0x9d01a5c4      0x190 build/pic32mz_da_sk_intddr_meb2/production/_ext/1597685232/gfxu_string_query.o
                0x9d01a5c4                GFXU_GetStringLineRect

.text.defColorModeSet
                0x9d01a754      0x18c
 .text.defColorModeSet
                0x9d01a754      0x18c build/pic32mz_da_sk_intddr_meb2/production/_ext/1847583374/gfx_default_impl.o
                0x9d01a754                defColorModeSet

.text.cpuDrawLine_Thick
                0x9d01a8e0      0x188
 .text.cpuDrawLine_Thick
                0x9d01a8e0      0x188 build/pic32mz_da_sk_intddr_meb2/production/_ext/1847583374/gfx_draw_line.o
                0x9d01a8e0                cpuDrawLine_Thick

.text.cpuDrawLine_Normal
                0x9d01aa68      0x184
 .text.cpuDrawLine_Normal
                0x9d01aa68      0x184 build/pic32mz_da_sk_intddr_meb2/production/_ext/1847583374/gfx_draw_line.o
                0x9d01aa68                cpuDrawLine_Normal

.text.laContext_Create
                0x9d01abec      0x184
 .text.laContext_Create
                0x9d01abec      0x184 build/pic32mz_da_sk_intddr_meb2/production/_ext/1907747181/libaria_context.o
                0x9d01abec                laContext_Create

.text.cpuDrawEllipse_Line
                0x9d01ad70      0x180
 .text.cpuDrawEllipse_Line
                0x9d01ad70      0x180 build/pic32mz_da_sk_intddr_meb2/production/_ext/1847583374/gfx_draw_ellipse.o
                0x9d01ad70                cpuDrawEllipse_Line

.text.cpuDrawDirectBlit
                0x9d01aef0      0x17c
 .text.cpuDrawDirectBlit
                0x9d01aef0      0x17c build/pic32mz_da_sk_intddr_meb2/production/_ext/1847583374/gfx_draw_blit.o
                0x9d01aef0                cpuDrawDirectBlit

.text.touchUp   0x9d01b06c      0x178
 .text.touchUp  0x9d01b06c      0x178 build/pic32mz_da_sk_intddr_meb2/production/_ext/1907747181/libaria_widget_button.o

.text.colorModeSet
                0x9d01b1e4      0x178
 .text.colorModeSet
                0x9d01b1e4      0x178 build/pic32mz_da_sk_intddr_meb2/production/_ext/1094895838/drv_gfx_glcd_static.o

.text.GFXU_CompareString
                0x9d01b35c      0x16c
 .text.GFXU_CompareString
                0x9d01b35c      0x16c build/pic32mz_da_sk_intddr_meb2/production/_ext/1597685232/gfxu_string_utils.o
                0x9d01b35c                GFXU_CompareString

.text           0x9d01b4c8      0x2d0
 .text          0x9d01b4c8      0x168 f:/software_installations/mplab_xc32/bin/bin/../../lib/gcc/pic32mx/4.8.3/../../../../pic32mx/lib\libpic32.a(memcpy.o)
                0x9d01b4c8                memcpy
 .text          0x9d01b630      0x168 f:/software_installations/mplab_xc32/bin/bin/../../lib/gcc/pic32mx/4.8.3/../../../../pic32mx/lib\libpic32.a(strlen.o)
                0x9d01b630                strlen

.text.GFX_Close
                0x9d01b798      0x164
 .text.GFX_Close
                0x9d01b798      0x164 build/pic32mz_da_sk_intddr_meb2/production/_ext/1847583374/gfx.o
                0x9d01b798                GFX_Close

.text.GFX_RectSplit
                0x9d01b8fc      0x164
 .text.GFX_RectSplit
                0x9d01b8fc      0x164 build/pic32mz_da_sk_intddr_meb2/production/_ext/1847583374/gfx_rect.o
                0x9d01b8fc                GFX_RectSplit

.text.cpuDrawPixel
                0x9d01ba60      0x15c
 .text.cpuDrawPixel
                0x9d01ba60      0x15c build/pic32mz_da_sk_intddr_meb2/production/_ext/1847583374/gfx_draw_pixel.o
                0x9d01ba60                cpuDrawPixel

.text.drawImage
                0x9d01bbbc      0x15c
 .text.drawImage
                0x9d01bbbc      0x15c build/pic32mz_da_sk_intddr_meb2/production/_ext/1907747181/libaria_widget_image_skin_classic.o

.text.laRectArray_SortBySize
                0x9d01bd18      0x15c
 .text.laRectArray_SortBySize
                0x9d01bd18      0x15c build/pic32mz_da_sk_intddr_meb2/production/_ext/1907747181/libaria_rectarray.o
                0x9d01bd18                laRectArray_SortBySize

.text.GFX_UtilPointFromOrientedSpace
                0x9d01be74      0x158
 .text.GFX_UtilPointFromOrientedSpace
                0x9d01be74      0x158 build/pic32mz_da_sk_intddr_meb2/production/_ext/1847583374/gfx_util.o
                0x9d01be74                GFX_UtilPointFromOrientedSpace

.text.rleReadRequestCompleted
                0x9d01bfcc      0x158
 .text.rleReadRequestCompleted
                0x9d01bfcc      0x158 build/pic32mz_da_sk_intddr_meb2/production/_ext/1597685232/gfxu_image_rle_external.o

.text.getArcSoftEdgeColor
                0x9d01c124      0x154
 .text.getArcSoftEdgeColor
                0x9d01c124      0x154 build/pic32mz_da_sk_intddr_meb2/production/_ext/1847583374/gfx_draw_arc.o
                0x9d01c124                getArcSoftEdgeColor

.text._laImageWidget_GetImageRect
                0x9d01c278      0x150
 .text._laImageWidget_GetImageRect
                0x9d01c278      0x150 build/pic32mz_da_sk_intddr_meb2/production/_ext/1907747181/libaria_widget_image_skin_classic.o
                0x9d01c278                _laImageWidget_GetImageRect

.text.GFXU_GetCharStringLineRect
                0x9d01c3c8      0x14c
 .text.GFXU_GetCharStringLineRect
                0x9d01c3c8      0x14c build/pic32mz_da_sk_intddr_meb2/production/_ext/1597685232/gfxu_string_query.o
                0x9d01c3c8                GFXU_GetCharStringLineRect

.text.cpuDrawCircle_Line
                0x9d01c514      0x148
 .text.cpuDrawCircle_Line
                0x9d01c514      0x148 build/pic32mz_da_sk_intddr_meb2/production/_ext/1847583374/gfx_draw_circle.o
                0x9d01c514                cpuDrawCircle_Line

.text.GFX_ColorBlend_RGBA_8888
                0x9d01c65c      0x144
 .text.GFX_ColorBlend_RGBA_8888
                0x9d01c65c      0x144 build/pic32mz_da_sk_intddr_meb2/production/_ext/1847583374/gfx_color_blend.o
                0x9d01c65c                GFX_ColorBlend_RGBA_8888

.text.GFX_SineCosineGet
                0x9d01c7a0      0x144
 .text.GFX_SineCosineGet
                0x9d01c7a0      0x144 build/pic32mz_da_sk_intddr_meb2/production/_ext/1847583374/gfx_math.o
                0x9d01c7a0                GFX_SineCosineGet

.text.laString_DrawSubStringClipped
                0x9d01c8e4      0x144
 .text.laString_DrawSubStringClipped
                0x9d01c8e4      0x144 build/pic32mz_da_sk_intddr_meb2/production/_ext/1907747181/libaria_string.o
                0x9d01c8e4                laString_DrawSubStringClipped

.text.JPEG_bGet1Bit
                0x9d01ca28      0x144
 .text.JPEG_bGet1Bit
                0x9d01ca28      0x144 build/pic32mz_da_sk_intddr_meb2/production/_ext/1597685232/gfxu_image_jpg_common.o

.text.cpuDrawRect_Fill
                0x9d01cb6c      0x140
 .text.cpuDrawRect_Fill
                0x9d01cb6c      0x140 build/pic32mz_da_sk_intddr_meb2/production/_ext/1847583374/gfx_draw_rect.o
                0x9d01cb6c                cpuDrawRect_Fill

.text.DRV_USART0_Initialize
                0x9d01ccac      0x13c
 .text.DRV_USART0_Initialize
                0x9d01ccac      0x13c build/pic32mz_da_sk_intddr_meb2/production/_ext/418582516/drv_usart_static.o
                0x9d01ccac                DRV_USART0_Initialize

.text._outcnvrt
                0x9d01cde8      0x13c
 .text._outcnvrt
                0x9d01cde8      0x13c f:/software_installations/mplab_xc32/bin/bin/../../lib/gcc/pic32mx/4.8.3/../../../../pic32mx/lib\liblega-c.a(_doprnt.o)

.text.GFXU_DrawSubStringClipped
                0x9d01cf24      0x138
 .text.GFXU_DrawSubStringClipped
                0x9d01cf24      0x138 build/pic32mz_da_sk_intddr_meb2/production/_ext/1597685232/gfxu_string.o
                0x9d01cf24                GFXU_DrawSubStringClipped

.text.GFX_PixelBufferAreaGet_Unsafe
                0x9d01d05c      0x134
 .text.GFX_PixelBufferAreaGet_Unsafe
                0x9d01d05c      0x134 build/pic32mz_da_sk_intddr_meb2/production/_ext/1847583374/gfx_pixel_buffer.o
                0x9d01d05c                GFX_PixelBufferAreaGet_Unsafe

.text.laInput_InjectTouchDown
                0x9d01d190      0x134
 .text.laInput_InjectTouchDown
                0x9d01d190      0x134 build/pic32mz_da_sk_intddr_meb2/production/_ext/1907747181/libaria_input.o
                0x9d01d190                laInput_InjectTouchDown

.text._laLayer_AddDamageRectToList
                0x9d01d2c4      0x134
 .text._laLayer_AddDamageRectToList
                0x9d01d2c4      0x134 build/pic32mz_da_sk_intddr_meb2/production/_ext/1907747181/libaria_layer.o
                0x9d01d2c4                _laLayer_AddDamageRectToList

.text.GFX_DrawPixel
                0x9d01d3f8      0x130
 .text.GFX_DrawPixel
                0x9d01d3f8      0x130 build/pic32mz_da_sk_intddr_meb2/production/_ext/1847583374/gfx_draw_pixel.o
                0x9d01d3f8                GFX_DrawPixel

.text.setLayerAttributes
                0x9d01d528      0x130
 .text.setLayerAttributes
                0x9d01d528      0x130 build/pic32mz_da_sk_intddr_meb2/production/_ext/1907747181/libaria_screen.o

.text._laWidget_Constructor
                0x9d01d658      0x130
 .text._laWidget_Constructor
                0x9d01d658      0x130 build/pic32mz_da_sk_intddr_meb2/production/_ext/1907747181/libaria_widget.o
                0x9d01d658                _laWidget_Constructor

.text._laWidget_Invalidate
                0x9d01d788      0x130
 .text._laWidget_Invalidate
                0x9d01d788      0x130 build/pic32mz_da_sk_intddr_meb2/production/_ext/1907747181/libaria_widget.o
                0x9d01d788                _laWidget_Invalidate

.text.laWidget_SkinClassic_DrawBevelBorderRight
                0x9d01d8b8      0x130
 .text.laWidget_SkinClassic_DrawBevelBorderRight
                0x9d01d8b8      0x130 build/pic32mz_da_sk_intddr_meb2/production/_ext/1907747181/libaria_widget_skin_classic_common.o
                0x9d01d8b8                laWidget_SkinClassic_DrawBevelBorderRight

.text.laWidget_SkinClassic_DrawBevelBorderBottom
                0x9d01d9e8      0x130
 .text.laWidget_SkinClassic_DrawBevelBorderBottom
                0x9d01d9e8      0x130 build/pic32mz_da_sk_intddr_meb2/production/_ext/1907747181/libaria_widget_skin_classic_common.o
                0x9d01d9e8                laWidget_SkinClassic_DrawBevelBorderBottom

.text.GFXU_DrawImageRawExternal
                0x9d01db18      0x130
 .text.GFXU_DrawImageRawExternal
                0x9d01db18      0x130 build/pic32mz_da_sk_intddr_meb2/production/_ext/1597685232/gfxu_image_raw_external.o
                0x9d01db18                GFXU_DrawImageRawExternal

.text.GFXU_DrawImageRLEExternal
                0x9d01dc48      0x130
 .text.GFXU_DrawImageRLEExternal
                0x9d01dc48      0x130 build/pic32mz_da_sk_intddr_meb2/production/_ext/1597685232/gfxu_image_rle_external.o
                0x9d01dc48                GFXU_DrawImageRLEExternal

.text.rounded.isra.0
                0x9d01dd78      0x130
 .text.rounded.isra.0
                0x9d01dd78      0x130 f:/software_installations/mplab_xc32/bin/bin/../../lib/gcc/pic32mx/4.8.3/../../../../pic32mx/lib\liblega-c.a(_doprnt.o)

.text.laEvent_ProcessEvents
                0x9d01dea8      0x12c
 .text.laEvent_ProcessEvents
                0x9d01dea8      0x12c build/pic32mz_da_sk_intddr_meb2/production/_ext/1907747181/libaria_event.o
                0x9d01dea8                laEvent_ProcessEvents

.text.GFX_RectClipAdj
                0x9d01dfd4      0x128
 .text.GFX_RectClipAdj
                0x9d01dfd4      0x128 build/pic32mz_da_sk_intddr_meb2/production/_ext/1847583374/gfx_rect.o
                0x9d01dfd4                GFX_RectClipAdj

.text.cpuDrawRect_Line
                0x9d01e0fc      0x128
 .text.cpuDrawRect_Line
                0x9d01e0fc      0x128 build/pic32mz_da_sk_intddr_meb2/production/_ext/1847583374/gfx_draw_rect.o
                0x9d01e0fc                cpuDrawRect_Line

.text.checkColorValidity
                0x9d01e224      0x128
 .text.checkColorValidity
                0x9d01e224      0x128 build/pic32mz_da_sk_intddr_meb2/production/_ext/493934858/lodepng.o

.text.GFX_LayerFromOrientedSpace
                0x9d01e34c      0x124
 .text.GFX_LayerFromOrientedSpace
                0x9d01e34c      0x124 build/pic32mz_da_sk_intddr_meb2/production/_ext/1847583374/gfx_layer.o
                0x9d01e34c                GFX_LayerFromOrientedSpace

.text.laWidget_SkinClassic_DrawBevelBorderLeft
                0x9d01e470      0x124
 .text.laWidget_SkinClassic_DrawBevelBorderLeft
                0x9d01e470      0x124 build/pic32mz_da_sk_intddr_meb2/production/_ext/1907747181/libaria_widget_skin_classic_common.o
                0x9d01e470                laWidget_SkinClassic_DrawBevelBorderLeft

.text.laWidget_SkinClassic_DrawBevelBorderTop
                0x9d01e594      0x124
 .text.laWidget_SkinClassic_DrawBevelBorderTop
                0x9d01e594      0x124 build/pic32mz_da_sk_intddr_meb2/production/_ext/1907747181/libaria_widget_skin_classic_common.o
                0x9d01e594                laWidget_SkinClassic_DrawBevelBorderTop

.text.nextState
                0x9d01e6b8      0x120
 .text.nextState
                0x9d01e6b8      0x120 build/pic32mz_da_sk_intddr_meb2/production/_ext/1907747181/libaria_widget_button_skin_classic.o

.text.drawImage
                0x9d01e7d8      0x120
 .text.drawImage
                0x9d01e7d8      0x120 build/pic32mz_da_sk_intddr_meb2/production/_ext/1907747181/libaria_widget_button_skin_classic.o

.text.GFXU_DrawStringBufferExternal
                0x9d01e8f8      0x120
 .text.GFXU_DrawStringBufferExternal
                0x9d01e8f8      0x120 build/pic32mz_da_sk_intddr_meb2/production/_ext/1597685232/gfxu_stringbuffer_external.o
                0x9d01e8f8                GFXU_DrawStringBufferExternal

.text.laLayer_New
                0x9d01ea18      0x118
 .text.laLayer_New
                0x9d01ea18      0x118 build/pic32mz_da_sk_intddr_meb2/production/_ext/1907747181/libaria_layer.o
                0x9d01ea18                laLayer_New

.text.GFX_UtilPointToOrientedSpace
                0x9d01eb30      0x114
 .text.GFX_UtilPointToOrientedSpace
                0x9d01eb30      0x114 build/pic32mz_da_sk_intddr_meb2/production/_ext/1847583374/gfx_util.o
                0x9d01eb30                GFX_UtilPointToOrientedSpace

.text._laLabelWidget_GetTextRect
                0x9d01ec44      0x114
 .text._laLabelWidget_GetTextRect
                0x9d01ec44      0x114 build/pic32mz_da_sk_intddr_meb2/production/_ext/1907747181/libaria_widget_label_skin_classic.o
                0x9d01ec44                _laLabelWidget_GetTextRect

.text.lodepng_add_text
                0x9d01ed58      0x114
 .text.lodepng_add_text
                0x9d01ed58      0x114 build/pic32mz_da_sk_intddr_meb2/production/_ext/493934858/lodepng.o
                0x9d01ed58                lodepng_add_text

.text.defDestroy
                0x9d01ee6c      0x110
 .text.defDestroy
                0x9d01ee6c      0x110 build/pic32mz_da_sk_intddr_meb2/production/_ext/1847583374/gfx_default_impl.o
                0x9d01ee6c                defDestroy

.text.drawPaletteData
                0x9d01ef7c      0x110
 .text.drawPaletteData
                0x9d01ef7c      0x110 build/pic32mz_da_sk_intddr_meb2/production/_ext/1597685232/gfxu_image_rle_external.o

.text.GFXU_DrawStringExternal
                0x9d01f08c      0x110
 .text.GFXU_DrawStringExternal
                0x9d01f08c      0x110 build/pic32mz_da_sk_intddr_meb2/production/_ext/1597685232/gfxu_string_external.o
                0x9d01f08c                GFXU_DrawStringExternal

.text.layerBufferCountSet
                0x9d01f19c      0x110
 .text.layerBufferCountSet
                0x9d01f19c      0x110 build/pic32mz_da_sk_intddr_meb2/production/_ext/1094895838/drv_gfx_glcd_static.o

.text.general_exception
                0x9d01f2ac      0x110
 .text.general_exception
                0x9d01f2ac      0x110 build/pic32mz_da_sk_intddr_meb2/production/_ext/1653314881/general-exception-context.o
                0x9d01f2ac                _general_exception_context

.text.defLayerBufferCountSet
                0x9d01f3bc      0x10c
 .text.defLayerBufferCountSet
                0x9d01f3bc      0x10c build/pic32mz_da_sk_intddr_meb2/production/_ext/1847583374/gfx_default_impl.o
                0x9d01f3bc                defLayerBufferCountSet

.text.laRectArray_MergeSimilar
                0x9d01f4c8      0x10c
 .text.laRectArray_MergeSimilar
                0x9d01f4c8      0x10c build/pic32mz_da_sk_intddr_meb2/production/_ext/1907747181/libaria_rectarray.o
                0x9d01f4c8                laRectArray_MergeSimilar

.text.GFXU_DecodeAndDrawSubString
                0x9d01f5d4      0x10c
 .text.GFXU_DecodeAndDrawSubString
                0x9d01f5d4      0x10c build/pic32mz_da_sk_intddr_meb2/production/_ext/1597685232/gfxu_string_utils.o
                0x9d01f5d4                GFXU_DecodeAndDrawSubString

.text.layerBufferAllocate
                0x9d01f6e0      0x108
 .text.layerBufferAllocate
                0x9d01f6e0      0x108 build/pic32mz_da_sk_intddr_meb2/production/_ext/1847583374/gfx_default_impl.o

.text.laInput_InjectTouchUp
                0x9d01f7e8      0x108
 .text.laInput_InjectTouchUp
                0x9d01f7e8      0x108 build/pic32mz_da_sk_intddr_meb2/production/_ext/1907747181/libaria_input.o
                0x9d01f7e8                laInput_InjectTouchUp

.text.laWidget_SetSize
                0x9d01f8f0      0x108
 .text.laWidget_SetSize
                0x9d01f8f0      0x108 build/pic32mz_da_sk_intddr_meb2/production/_ext/1907747181/libaria_widget.o
                0x9d01f8f0                laWidget_SetSize

.text.layerSwapped
                0x9d01f9f8      0x104
 .text.layerSwapped
                0x9d01f9f8      0x104 build/pic32mz_da_sk_intddr_meb2/production/_ext/1094895838/drv_gfx_glcd_static.o
                0x9d01f9f8                layerSwapped

.text.SYS_DEVCON_PerformanceConfig
                0x9d01fafc      0x104
 .text.SYS_DEVCON_PerformanceConfig
                0x9d01fafc      0x104 build/pic32mz_da_sk_intddr_meb2/production/_ext/1796496159/sys_devcon_pic32mz.o
                0x9d01fafc                SYS_DEVCON_PerformanceConfig

.text.malloc_trim
                0x9d01fc00      0x104
 .text.malloc_trim
                0x9d01fc00      0x104 f:/software_installations/mplab_xc32/bin/bin/../../lib/gcc/pic32mx/4.8.3/../../../../pic32mx/lib\liblega-c.a(malloc.o)
                0x9d01fc00                malloc_trim

.text.GFX_EllipsePoint
                0x9d01fd04      0x100
 .text.GFX_EllipsePoint
                0x9d01fd04      0x100 build/pic32mz_da_sk_intddr_meb2/production/_ext/1847583374/gfx_math.o
                0x9d01fd04                GFX_EllipsePoint

.text.color_tree_add
                0x9d01fe04      0x100
 .text.color_tree_add
                0x9d01fe04      0x100 build/pic32mz_da_sk_intddr_meb2/production/_ext/493934858/lodepng.o

.text.calloc    0x9d01ff04      0x100
 .text.calloc   0x9d01ff04      0x100 f:/software_installations/mplab_xc32/bin/bin/../../lib/gcc/pic32mx/4.8.3/../../../../pic32mx/lib\liblega-c.a(malloc_calloc.o)
                0x9d01ff04                calloc

.text.dptofp    0x9d020004      0x100
 .text.dptofp   0x9d020004      0x100 f:/software_installations/mplab_xc32/bin/bin/../../lib/gcc/pic32mx/4.8.3/../../../../pic32mx/lib\libm.a(dptofp.o)
                0x9d020004                __truncdfsf2
                0x9d020004                dptofp

.text.DRV_I2C_MasterBufferReadXE
                0x9d020104       0xfc
 .text.DRV_I2C_MasterBufferReadXE
                0x9d020104       0xfc build/pic32mz_da_sk_intddr_meb2/production/_ext/475095144/drv_i2c_bb.o
                0x9d020104                DRV_I2C_MasterBufferReadXE

.text.defDrawBlendModeSet
                0x9d020200       0xfc
 .text.defDrawBlendModeSet
                0x9d020200       0xfc build/pic32mz_da_sk_intddr_meb2/production/_ext/1847583374/gfx_default_impl.o
                0x9d020200                defDrawBlendModeSet

.text.laString_Compare
                0x9d0202fc       0xfc
 .text.laString_Compare
                0x9d0202fc       0xfc build/pic32mz_da_sk_intddr_meb2/production/_ext/1907747181/libaria_string.o
                0x9d0202fc                laString_Compare

.text.laWidget_SetPosition
                0x9d0203f8       0xfc
 .text.laWidget_SetPosition
                0x9d0203f8       0xfc build/pic32mz_da_sk_intddr_meb2/production/_ext/1907747181/libaria_widget.o
                0x9d0203f8                laWidget_SetPosition

.text._flsbuf_simple
                0x9d0204f4       0xfc
 .text._flsbuf_simple
                0x9d0204f4       0xfc f:/software_installations/mplab_xc32/bin/bin/../../lib/gcc/pic32mx/4.8.3/../../../../pic32mx/lib\liblega-c.a(_iobfuncs.o)
                0x9d0204f4                _flsbuf_simple

.text.DRV_I2C_MasterBufferWriteXE
                0x9d0205f0       0xf8
 .text.DRV_I2C_MasterBufferWriteXE
                0x9d0205f0       0xf8 build/pic32mz_da_sk_intddr_meb2/production/_ext/475095144/drv_i2c_bb.o
                0x9d0205f0                DRV_I2C_MasterBufferWriteXE

.text.GFX_LayerToOrientedSpace
                0x9d0206e8       0xf8
 .text.GFX_LayerToOrientedSpace
                0x9d0206e8       0xf8 build/pic32mz_da_sk_intddr_meb2/production/_ext/1847583374/gfx_layer.o
                0x9d0206e8                GFX_LayerToOrientedSpace

.text.arcsOverlapQuadrant
                0x9d0207e0       0xf8
 .text.arcsOverlapQuadrant
                0x9d0207e0       0xf8 build/pic32mz_da_sk_intddr_meb2/production/_ext/1847583374/gfx_draw_arc.o
                0x9d0207e0                arcsOverlapQuadrant

.text.SYS_DEBUG_Print
                0x9d0208d8       0xf8
 .text.SYS_DEBUG_Print
                0x9d0208d8       0xf8 build/pic32mz_da_sk_intddr_meb2/production/_ext/2137108136/sys_debug.o
                0x9d0208d8                SYS_DEBUG_Print

.text.laList_Remove
                0x9d0209d0       0xf4
 .text.laList_Remove
                0x9d0209d0       0xf4 build/pic32mz_da_sk_intddr_meb2/production/_ext/1907747181/libaria_list.o
                0x9d0209d0                laList_Remove

.text.la_strcmp
                0x9d020ac4       0xf4
 .text.la_strcmp
                0x9d020ac4       0xf4 build/pic32mz_da_sk_intddr_meb2/production/_ext/1907747181/libaria_string.o
                0x9d020ac4                la_strcmp

.text.GFXU_DrawSubStringBufferInternal
                0x9d020bb8       0xf4
 .text.GFXU_DrawSubStringBufferInternal
                0x9d020bb8       0xf4 build/pic32mz_da_sk_intddr_meb2/production/_ext/1597685232/gfxu_string_internal.o
                0x9d020bb8                GFXU_DrawSubStringBufferInternal

.text.laString_Copy
                0x9d000010       0xf0
 .text.laString_Copy
                0x9d000010       0xf0 build/pic32mz_da_sk_intddr_meb2/production/_ext/1907747181/libaria_string.o
                0x9d000010                laString_Copy

.text.DRV_I2C_Open
                0x9d020cac       0xec
 .text.DRV_I2C_Open
                0x9d020cac       0xec build/pic32mz_da_sk_intddr_meb2/production/_ext/475095144/drv_i2c_bb_a.o
                0x9d020cac                DRV_I2C_Open

.text.GFX_DrawPixelByDrawState
                0x9d020d98       0xec
 .text.GFX_DrawPixelByDrawState
                0x9d020d98       0xec build/pic32mz_da_sk_intddr_meb2/production/_ext/1847583374/gfx_draw_pixel.o
                0x9d020d98                GFX_DrawPixelByDrawState

.text.pickChild
                0x9d020e84       0xec
 .text.pickChild
                0x9d020e84       0xec build/pic32mz_da_sk_intddr_meb2/production/_ext/1907747181/libaria_utils.o

.text.updateDirtyFlags
                0x9d020f70       0xe8
 .text.updateDirtyFlags
                0x9d020f70       0xe8 build/pic32mz_da_sk_intddr_meb2/production/_ext/1907747181/libaria_context_paint.o

.text.laUtils_WidgetIsOccluded
                0x9d021058       0xe8
 .text.laUtils_WidgetIsOccluded
                0x9d021058       0xe8 build/pic32mz_da_sk_intddr_meb2/production/_ext/1907747181/libaria_utils.o
                0x9d021058                laUtils_WidgetIsOccluded

.text.getRLEDataAtIndex
                0x9d021140       0xe8
 .text.getRLEDataAtIndex
                0x9d021140       0xe8 build/pic32mz_da_sk_intddr_meb2/production/_ext/1597685232/gfxu_image_utils.o
                0x9d021140                getRLEDataAtIndex

.text.lodepng_color_mode_copy
                0x9d021228       0xe4
 .text.lodepng_color_mode_copy
                0x9d021228       0xe4 build/pic32mz_da_sk_intddr_meb2/production/_ext/493934858/lodepng.o
                0x9d021228                lodepng_color_mode_copy

.text.libaria_initialize
                0x9d02130c       0xe4
 .text.libaria_initialize
                0x9d02130c       0xe4 build/pic32mz_da_sk_intddr_meb2/production/_ext/590040425/libaria_init.o
                0x9d02130c                libaria_initialize

.text._mon_getc
                0x9d0213f0       0xe4
 .text._mon_getc
                0x9d0213f0       0xe4 f:/software_installations/mplab_xc32/bin/bin/../../lib/gcc/pic32mx/4.8.3/../../../../pic32mx/lib\libpic32.a(_mon_getc.o)
                0x9d0213f0                _mon_getc

.text.GFX_PixelBufferCreate
                0x9d0214d4       0xe0
 .text.GFX_PixelBufferCreate
                0x9d0214d4       0xe0 build/pic32mz_da_sk_intddr_meb2/production/_ext/1847583374/gfx_pixel_buffer.o
                0x9d0214d4                GFX_PixelBufferCreate

.text.defMirroringSet
                0x9d0215b4       0xdc
 .text.defMirroringSet
                0x9d0215b4       0xdc build/pic32mz_da_sk_intddr_meb2/production/_ext/1847583374/gfx_default_impl.o
                0x9d0215b4                defMirroringSet

.text.touchDown
                0x9d021690       0xdc
 .text.touchDown
                0x9d021690       0xdc build/pic32mz_da_sk_intddr_meb2/production/_ext/1907747181/libaria_widget_button.o

.text.lodepng_color_mode_equal
                0x9d02176c       0xdc
 .text.lodepng_color_mode_equal
                0x9d02176c       0xdc build/pic32mz_da_sk_intddr_meb2/production/_ext/493934858/lodepng.o

.text.defInitialize
                0x9d021848       0xd8
 .text.defInitialize
                0x9d021848       0xd8 build/pic32mz_da_sk_intddr_meb2/production/_ext/1847583374/gfx_default_impl.o
                0x9d021848                defInitialize

.text.defOrientationSet
                0x9d021920       0xd8
 .text.defOrientationSet
                0x9d021920       0xd8 build/pic32mz_da_sk_intddr_meb2/production/_ext/1847583374/gfx_default_impl.o
                0x9d021920                defOrientationSet

.text._cache_err_exception_context
                0x9d0219f8       0xd8
 .text._cache_err_exception_context
                0x9d0219f8       0xd8 f:/software_installations/mplab_xc32/bin/bin/../../lib/gcc/pic32mx/4.8.3/../../../../pic32mx/lib\libpic32.a(cache-err-exception.o)
                0x9d0219f8                _cache_err_exception_context

.text.simple_tlb_refill_context
                0x9d021ad0       0xd8
 .text.simple_tlb_refill_context
                0x9d021ad0       0xd8 f:/software_installations/mplab_xc32/bin/bin/../../lib/gcc/pic32mx/4.8.3/../../../../pic32mx/lib\libpic32.a(simple-tlb-refill-exception.o)
                0x9d021ad0                _simple_tlb_refill_exception_context

.text.transformCoordinate
                0x9d021ba8       0xd4
 .text.transformCoordinate
                0x9d021ba8       0xd4 build/pic32mz_da_sk_intddr_meb2/production/_ext/1907747181/libaria_input.o
                0x9d021ba8                transformCoordinate

.text.laLayer_AddDamageRect
                0x9d021c7c       0xd4
 .text.laLayer_AddDamageRect
                0x9d021c7c       0xd4 build/pic32mz_da_sk_intddr_meb2/production/_ext/1907747181/libaria_layer.o
                0x9d021c7c                laLayer_AddDamageRect

.text.drawBackground
                0x9d021d50       0xd4
 .text.drawBackground
                0x9d021d50       0xd4 build/pic32mz_da_sk_intddr_meb2/production/_ext/1907747181/libaria_widget_skin_classic.o

.text.laRectArray_RemoveDuplicates
                0x9d021e24       0xd4
 .text.laRectArray_RemoveDuplicates
                0x9d021e24       0xd4 build/pic32mz_da_sk_intddr_meb2/production/_ext/1907747181/libaria_rectarray.o
                0x9d021e24                laRectArray_RemoveDuplicates

.text.generateFixedLitLenTree
                0x9d021ef8       0xd4
 .text.generateFixedLitLenTree
                0x9d021ef8       0xd4 build/pic32mz_da_sk_intddr_meb2/production/_ext/493934858/lodepng.o

.text.libm      0x9d021fcc       0xd4
 .text.libm     0x9d021fcc       0xd4 f:/software_installations/mplab_xc32/bin/bin/../../lib/gcc/pic32mx/4.8.3/../../../../pic32mx/lib\libm.a(fpmodf.o)
                0x9d021fcc                modff
                0x9d021fcc                fpmodf

.text._mon_putc
                0x9d0220a0       0xd4
 .text._mon_putc
                0x9d0220a0       0xd4 f:/software_installations/mplab_xc32/bin/bin/../../lib/gcc/pic32mx/4.8.3/../../../../pic32mx/lib\libpic32.a(_mon_putc.o)
                0x9d0220a0                _mon_putc

.text.laWidget_SetBackgroundType
                0x9d022174       0xd0
 .text.laWidget_SetBackgroundType
                0x9d022174       0xd0 build/pic32mz_da_sk_intddr_meb2/production/_ext/1907747181/libaria_widget.o
                0x9d022174                laWidget_SetBackgroundType

.text.nextState
                0x9d022244       0xd0
 .text.nextState
                0x9d022244       0xd0 build/pic32mz_da_sk_intddr_meb2/production/_ext/1907747181/libaria_widget_label_skin_classic.o

.text.color_tree_get
                0x9d022314       0xcc
 .text.color_tree_get
                0x9d022314       0xcc build/pic32mz_da_sk_intddr_meb2/production/_ext/493934858/lodepng.o

.text._laButtonWidget_Constructor
                0x9d0223e0       0xc8
 .text._laButtonWidget_Constructor
                0x9d0223e0       0xc8 build/pic32mz_da_sk_intddr_meb2/production/_ext/1907747181/libaria_widget_button.o
                0x9d0223e0                _laButtonWidget_Constructor

.text.laRectArray_RemoveOverlapping
                0x9d0224a8       0xc8
 .text.laRectArray_RemoveOverlapping
                0x9d0224a8       0xc8 build/pic32mz_da_sk_intddr_meb2/production/_ext/1907747181/libaria_rectarray.o
                0x9d0224a8                laRectArray_RemoveOverlapping

.text.LodePNGIText_cleanup
                0x9d022570       0xc8
 .text.LodePNGIText_cleanup
                0x9d022570       0xc8 build/pic32mz_da_sk_intddr_meb2/production/_ext/493934858/lodepng.o

.text.lodepng_chunk_append
                0x9d022638       0xc8
 .text.lodepng_chunk_append
                0x9d022638       0xc8 build/pic32mz_da_sk_intddr_meb2/production/_ext/493934858/lodepng.o
                0x9d022638                lodepng_chunk_append

.text._sbrk     0x9d022700       0xc8
 .text._sbrk    0x9d022700       0xc8 f:/software_installations/mplab_xc32/bin/bin/../../lib/gcc/pic32mx/4.8.3/../../../../pic32mx/lib\libpic32.a(sbrk.o)
                0x9d022700                _sbrk

.text.GFX_RectCombine
                0x9d0227c8       0xc4
 .text.GFX_RectCombine
                0x9d0227c8       0xc4 build/pic32mz_da_sk_intddr_meb2/production/_ext/1847583374/gfx_rect.o
                0x9d0227c8                GFX_RectCombine

.text.handleTouchDown
                0x9d02288c       0xc4
 .text.handleTouchDown
                0x9d02288c       0xc4 build/pic32mz_da_sk_intddr_meb2/production/_ext/1907747181/libaria_input.o
                0x9d02288c                handleTouchDown

.text._laLayer_FinishFrame
                0x9d022950       0xc4
 .text._laLayer_FinishFrame
                0x9d022950       0xc4 build/pic32mz_da_sk_intddr_meb2/production/_ext/1907747181/libaria_layer.o
                0x9d022950                _laLayer_FinishFrame

.text.laWidget_SkinClassic_DrawBlit
                0x9d022a14       0xc4
 .text.laWidget_SkinClassic_DrawBlit
                0x9d022a14       0xc4 build/pic32mz_da_sk_intddr_meb2/production/_ext/1907747181/libaria_widget_skin_classic_common.o
                0x9d022a14                laWidget_SkinClassic_DrawBlit

.text.laString_GetLineRect
                0x9d022ad8       0xc0
 .text.laString_GetLineRect
                0x9d022ad8       0xc0 build/pic32mz_da_sk_intddr_meb2/production/_ext/1907747181/libaria_string.o
                0x9d022ad8                laString_GetLineRect

.text.laWidget_SkinClassic_DrawLineBorderRight
                0x9d022b98       0xc0
 .text.laWidget_SkinClassic_DrawLineBorderRight
                0x9d022b98       0xc0 build/pic32mz_da_sk_intddr_meb2/production/_ext/1907747181/libaria_widget_skin_classic_common.o
                0x9d022b98                laWidget_SkinClassic_DrawLineBorderRight

.text.removePaddingBits
                0x9d022c58       0xc0
 .text.removePaddingBits
                0x9d022c58       0xc0 build/pic32mz_da_sk_intddr_meb2/production/_ext/493934858/lodepng.o

.text._DRV_I2C_QueuePush
                0x9d022d18       0xbc
 .text._DRV_I2C_QueuePush
                0x9d022d18       0xbc build/pic32mz_da_sk_intddr_meb2/production/_ext/475095144/drv_i2c_bb_a.o
                0x9d022d18                _DRV_I2C_QueuePush

.text.defLayerBufferAddressSet
                0x9d022dd4       0xbc
 .text.defLayerBufferAddressSet
                0x9d022dd4       0xbc build/pic32mz_da_sk_intddr_meb2/production/_ext/1847583374/gfx_default_impl.o
                0x9d022dd4                defLayerBufferAddressSet

.text.laString_GetMultiLineRect
                0x9d022e90       0xbc
 .text.laString_GetMultiLineRect
                0x9d022e90       0xbc build/pic32mz_da_sk_intddr_meb2/production/_ext/1907747181/libaria_string.o
                0x9d022e90                laString_GetMultiLineRect

.text.GFXU_DrawCharSubStringClipped
                0x9d022f4c       0xbc
 .text.GFXU_DrawCharSubStringClipped
                0x9d022f4c       0xbc build/pic32mz_da_sk_intddr_meb2/production/_ext/1597685232/gfxu_string.o
                0x9d022f4c                GFXU_DrawCharSubStringClipped

.text.JPEG_bGetNextHuffByte
                0x9d023008       0xbc
 .text.JPEG_bGetNextHuffByte
                0x9d023008       0xbc build/pic32mz_da_sk_intddr_meb2/production/_ext/1597685232/gfxu_image_jpg_common.o

.text.layerBufferAllocate
                0x9d0230c4       0xbc
 .text.layerBufferAllocate
                0x9d0230c4       0xbc build/pic32mz_da_sk_intddr_meb2/production/_ext/1094895838/drv_gfx_glcd_static.o

.tlb.__pic32_tlb_init_ebi_sqi
                0x9d023180       0xbc
 .tlb.__pic32_tlb_init_ebi_sqi
                0x9d023180       0xbc f:/software_installations/mplab_xc32/bin/bin/../../lib/gcc/pic32mx/4.8.3/../../../../pic32mx/lib\libpic32.a(pic32_init_tlb_ebi_sqi.o)
                0x9d023180                __pic32_tlb_init_ebi_sqi

.rodata         0x9d02323c       0xb8
 .rodata        0x9d02323c       0xb8 build/pic32mz_da_sk_intddr_meb2/production/_ext/1847583374/gfx_math.o
                0x9d02323c                _CosineTable

.text._laButtonWidget_Paint
                0x9d0232f4       0xb8
 .text._laButtonWidget_Paint
                0x9d0232f4       0xb8 build/pic32mz_da_sk_intddr_meb2/production/_ext/1907747181/libaria_widget_button_skin_classic.o
                0x9d0232f4                _laButtonWidget_Paint

.text.laWidget_SkinClassic_DrawLineBorderBottom
                0x9d0233ac       0xb8
 .text.laWidget_SkinClassic_DrawLineBorderBottom
                0x9d0233ac       0xb8 build/pic32mz_da_sk_intddr_meb2/production/_ext/1907747181/libaria_widget_skin_classic_common.o
                0x9d0233ac                laWidget_SkinClassic_DrawLineBorderBottom

.text.GFX_RectsAreSimilar
                0x9d023464       0xb4
 .text.GFX_RectsAreSimilar
                0x9d023464       0xb4 build/pic32mz_da_sk_intddr_meb2/production/_ext/1847583374/gfx_rect.o
                0x9d023464                GFX_RectsAreSimilar

.text._laImageWidget_Paint
                0x9d023518       0xb4
 .text._laImageWidget_Paint
                0x9d023518       0xb4 build/pic32mz_da_sk_intddr_meb2/production/_ext/1907747181/libaria_widget_image_skin_classic.o
                0x9d023518                _laImageWidget_Paint

.text._laLabelWidget_Paint
                0x9d0235cc       0xb4
 .text._laLabelWidget_Paint
                0x9d0235cc       0xb4 build/pic32mz_da_sk_intddr_meb2/production/_ext/1907747181/libaria_widget_label_skin_classic.o
                0x9d0235cc                _laLabelWidget_Paint

.text.laWidget_SkinClassic_DrawLineBorderLeft
                0x9d023680       0xb4
 .text.laWidget_SkinClassic_DrawLineBorderLeft
                0x9d023680       0xb4 build/pic32mz_da_sk_intddr_meb2/production/_ext/1907747181/libaria_widget_skin_classic_common.o
                0x9d023680                laWidget_SkinClassic_DrawLineBorderLeft

.text.drawGlyphRow8bpp
                0x9d023734       0xb4
 .text.drawGlyphRow8bpp
                0x9d023734       0xb4 build/pic32mz_da_sk_intddr_meb2/production/_ext/1597685232/gfxu_string_utils.o
                0x9d023734                drawGlyphRow8bpp

.text.layerAlphaAmountSet
                0x9d0237e8       0xb4
 .text.layerAlphaAmountSet
                0x9d0237e8       0xb4 build/pic32mz_da_sk_intddr_meb2/production/_ext/1094895838/drv_gfx_glcd_static.o

.text.lerp_argb8888
                0x9d02389c       0xb0
 .text.lerp_argb8888
                0x9d02389c       0xb0 build/pic32mz_da_sk_intddr_meb2/production/_ext/1847583374/gfx_color_lerp.o

.text.lerp_rgba8888
                0x9d02394c       0xb0
 .text.lerp_rgba8888
                0x9d02394c       0xb0 build/pic32mz_da_sk_intddr_meb2/production/_ext/1847583374/gfx_color_lerp.o

.text.nextState
                0x9d0239fc       0xb0
 .text.nextState
                0x9d0239fc       0xb0 build/pic32mz_da_sk_intddr_meb2/production/_ext/1907747181/libaria_widget_image_skin_classic.o

.text._shuffleLeft
                0x9d023aac       0xb0
 .text._shuffleLeft
                0x9d023aac       0xb0 build/pic32mz_da_sk_intddr_meb2/production/_ext/1907747181/libaria_rectarray.o

.text.laRectArray_PushBack
                0x9d023b5c       0xb0
 .text.laRectArray_PushBack
                0x9d023b5c       0xb0 build/pic32mz_da_sk_intddr_meb2/production/_ext/1907747181/libaria_rectarray.o
                0x9d023b5c                laRectArray_PushBack

.text.GFXU_DrawSubStringInternal
                0x9d023c0c       0xb0
 .text.GFXU_DrawSubStringInternal
                0x9d023c0c       0xb0 build/pic32mz_da_sk_intddr_meb2/production/_ext/1597685232/gfxu_string_internal.o
                0x9d023c0c                GFXU_DrawSubStringInternal

.text.GFXU_FontGetLookupTableEntry
                0x9d023cbc       0xb0
 .text.GFXU_FontGetLookupTableEntry
                0x9d023cbc       0xb0 build/pic32mz_da_sk_intddr_meb2/production/_ext/1597685232/gfxu_string_utils.o
                0x9d023cbc                GFXU_FontGetLookupTableEntry

.text.GFX_PixelBufferAreaGet
                0x9d023d6c       0xac
 .text.GFX_PixelBufferAreaGet
                0x9d023d6c       0xac build/pic32mz_da_sk_intddr_meb2/production/_ext/1847583374/gfx_pixel_buffer.o
                0x9d023d6c                GFX_PixelBufferAreaGet

.text.findNextLayer
                0x9d023e18       0xac
 .text.findNextLayer
                0x9d023e18       0xac build/pic32mz_da_sk_intddr_meb2/production/_ext/1907747181/libaria_context_paint.o

.text.laWidget_GetCumulativeAlphaAmount
                0x9d023ec4       0xac
 .text.laWidget_GetCumulativeAlphaAmount
                0x9d023ec4       0xac build/pic32mz_da_sk_intddr_meb2/production/_ext/1907747181/libaria_widget.o
                0x9d023ec4                laWidget_GetCumulativeAlphaAmount

.text.laArray_Destroy
                0x9d023f70       0xac
 .text.laArray_Destroy
                0x9d023f70       0xac build/pic32mz_da_sk_intddr_meb2/production/_ext/1907747181/libaria_array.o
                0x9d023f70                laArray_Destroy

.text.laWidget_SkinClassic_DrawLineBorderTop
                0x9d02401c       0xac
 .text.laWidget_SkinClassic_DrawLineBorderTop
                0x9d02401c       0xac build/pic32mz_da_sk_intddr_meb2/production/_ext/1907747181/libaria_widget_skin_classic_common.o
                0x9d02401c                laWidget_SkinClassic_DrawLineBorderTop

.text.drawGlyphRow1bpp
                0x9d0240c8       0xac
 .text.drawGlyphRow1bpp
                0x9d0240c8       0xac build/pic32mz_da_sk_intddr_meb2/production/_ext/1597685232/gfxu_string_utils.o
                0x9d0240c8                drawGlyphRow1bpp

.text.fputc     0x9d024174       0xac
 .text.fputc    0x9d024174       0xac f:/software_installations/mplab_xc32/bin/bin/../../lib/gcc/pic32mx/4.8.3/../../../../pic32mx/lib\liblega-c.a(fputc.o)
                0x9d024174                fputc

.text.laScreen_New
                0x9d024220       0xa8
 .text.laScreen_New
                0x9d024220       0xa8 build/pic32mz_da_sk_intddr_meb2/production/_ext/1907747181/libaria_screen.o
                0x9d024220                laScreen_New

.text.layerSizeSet
                0x9d0242c8       0xa8
 .text.layerSizeSet
                0x9d0242c8       0xa8 build/pic32mz_da_sk_intddr_meb2/production/_ext/1094895838/drv_gfx_glcd_static.o

.text.layerPositionSet
                0x9d024370       0xa8
 .text.layerPositionSet
                0x9d024370       0xa8 build/pic32mz_da_sk_intddr_meb2/production/_ext/1094895838/drv_gfx_glcd_static.o

.text           0x9d024418       0xa8
 .text          0x9d024418       0xa8 f:/software_installations/mplab_xc32/bin/bin/../../lib/gcc/pic32mx/4.8.3/../../../../pic32mx/lib\libpic32.a(memset.o)
                0x9d024418                memset

.text.DRV_MXT336T_Open
                0x9d0244c0       0xa4
 .text.DRV_MXT336T_Open
                0x9d0244c0       0xa4 build/pic32mz_da_sk_intddr_meb2/production/_ext/1177928576/drv_mxt336t.o
                0x9d0244c0                DRV_MXT336T_Open

.text._laLayer_InvalidateChildren
                0x9d024564       0xa4
 .text._laLayer_InvalidateChildren
                0x9d024564       0xa4 build/pic32mz_da_sk_intddr_meb2/production/_ext/1907747181/libaria_layer.o
                0x9d024564                _laLayer_InvalidateChildren

.text.laWidget_RectToLayerSpace
                0x9d024608       0xa4
 .text.laWidget_RectToLayerSpace
                0x9d024608       0xa4 build/pic32mz_da_sk_intddr_meb2/production/_ext/1907747181/libaria_widget.o
                0x9d024608                laWidget_RectToLayerSpace

.text.invalidateContents
                0x9d0246ac       0xa4
 .text.invalidateContents
                0x9d0246ac       0xa4 build/pic32mz_da_sk_intddr_meb2/production/_ext/1907747181/libaria_widget_button.o

.text.laRectArray_Copy
                0x9d024750       0xa4
 .text.laRectArray_Copy
                0x9d024750       0xa4 build/pic32mz_da_sk_intddr_meb2/production/_ext/1907747181/libaria_rectarray.o
                0x9d024750                laRectArray_Copy

.text.StartI2C  0x9d0247f4       0xa0
 .text.StartI2C
                0x9d0247f4       0xa0 build/pic32mz_da_sk_intddr_meb2/production/_ext/475095144/drv_i2c_bb.o
                0x9d0247f4                StartI2C

.text.DRV_MXT336T_Initialize
                0x9d024894       0xa0
 .text.DRV_MXT336T_Initialize
                0x9d024894       0xa0 build/pic32mz_da_sk_intddr_meb2/production/_ext/1177928576/drv_mxt336t.o
                0x9d024894                DRV_MXT336T_Initialize

.text._laWidget_Destructor
                0x9d024934       0xa0
 .text._laWidget_Destructor
                0x9d024934       0xa0 build/pic32mz_da_sk_intddr_meb2/production/_ext/1907747181/libaria_widget.o
                0x9d024934                _laWidget_Destructor

.text.laWidget_AddChild
                0x9d0249d4       0xa0
 .text.laWidget_AddChild
                0x9d0249d4       0xa0 build/pic32mz_da_sk_intddr_meb2/production/_ext/1907747181/libaria_widget.o
                0x9d0249d4                laWidget_AddChild

.text.laWidget_SkinClassic_Draw2x2BeveledBorder
                0x9d024a74       0xa0
 .text.laWidget_SkinClassic_Draw2x2BeveledBorder
                0x9d024a74       0xa0 build/pic32mz_da_sk_intddr_meb2/production/_ext/1907747181/libaria_widget_skin_classic_common.o
                0x9d024a74                laWidget_SkinClassic_Draw2x2BeveledBorder

.text.imageReadRequestCompleted
                0x9d024b14       0xa0
 .text.imageReadRequestCompleted
                0x9d024b14       0xa0 build/pic32mz_da_sk_intddr_meb2/production/_ext/1597685232/gfxu_image_raw_external.o

.text.GFXU_DecodeUTF16
                0x9d024bb4       0xa0
 .text.GFXU_DecodeUTF16
                0x9d024bb4       0xa0 build/pic32mz_da_sk_intddr_meb2/production/_ext/1597685232/gfxu_string_utils.o
                0x9d024bb4                GFXU_DecodeUTF16

.text.HuffmanTree_makeFromLengths
                0x9d024c54       0xa0
 .text.HuffmanTree_makeFromLengths
                0x9d024c54       0xa0 build/pic32mz_da_sk_intddr_meb2/production/_ext/493934858/lodepng.o

.text.layerEnabledSet
                0x9d024cf4       0xa0
 .text.layerEnabledSet
                0x9d024cf4       0xa0 build/pic32mz_da_sk_intddr_meb2/production/_ext/1094895838/drv_gfx_glcd_static.o

.text._DRV_I2C_QueuePop
                0x9d024d94       0x9c
 .text._DRV_I2C_QueuePop
                0x9d024d94       0x9c build/pic32mz_da_sk_intddr_meb2/production/_ext/475095144/drv_i2c_bb_a.o
                0x9d024d94                _DRV_I2C_QueuePop

.text.GFX_ColorBilerp
                0x9d024e30       0x9c
 .text.GFX_ColorBilerp
                0x9d024e30       0x9c build/pic32mz_da_sk_intddr_meb2/production/_ext/1847583374/gfx_color_lerp.o
                0x9d024e30                GFX_ColorBilerp

.text.rejectPixel
                0x9d024ecc       0x9c
 .text.rejectPixel
                0x9d024ecc       0x9c build/pic32mz_da_sk_intddr_meb2/production/_ext/1847583374/gfx_draw_pixel.o

.text.repl      0x9d024f68       0x9c
 .text.repl     0x9d024f68       0x9c f:/software_installations/mplab_xc32/bin/bin/../../lib/gcc/pic32mx/4.8.3/../../../../pic32mx/lib\liblega-c.a(_doprnt.o)

.text.fpcmp     0x9d025004       0x9c
 .text.fpcmp    0x9d025004       0x9c f:/software_installations/mplab_xc32/bin/bin/../../lib/gcc/pic32mx/4.8.3/../../../../pic32mx/lib\libm.a(fpcmp.o)
                0x9d025004                __lesf2
                0x9d025004                fpcmp
                0x9d025004                __eqsf2
                0x9d025004                __gtsf2
                0x9d025004                __gesf2
                0x9d025004                __nesf2
                0x9d025004                __ltsf2

.text.lerp_rgba5551
                0x9d0250a0       0x98
 .text.lerp_rgba5551
                0x9d0250a0       0x98 build/pic32mz_da_sk_intddr_meb2/production/_ext/1847583374/gfx_color_lerp.o

.text._laContext_UpdateWidget
                0x9d025138       0x98
 .text._laContext_UpdateWidget
                0x9d025138       0x98 build/pic32mz_da_sk_intddr_meb2/production/_ext/1907747181/libaria_context.o
                0x9d025138                _laContext_UpdateWidget

.text.LibAria_Initialize
                0x9d0251d0       0x98
 .text.LibAria_Initialize
                0x9d0251d0       0x98 build/pic32mz_da_sk_intddr_meb2/production/_ext/590040425/libaria_harmony.o
                0x9d0251d0                LibAria_Initialize

.text.GFX_PixelBufferClipRect
                0x9d025268       0x94
 .text.GFX_PixelBufferClipRect
                0x9d025268       0x94 build/pic32mz_da_sk_intddr_meb2/production/_ext/1847583374/gfx_pixel_buffer.o
                0x9d025268                GFX_PixelBufferClipRect

.text.laContext_SetActiveScreen
                0x9d0252fc       0x94
 .text.laContext_SetActiveScreen
                0x9d0252fc       0x94 build/pic32mz_da_sk_intddr_meb2/production/_ext/1907747181/libaria_context.o
                0x9d0252fc                laContext_SetActiveScreen

.text._laLayer_Moved
                0x9d025390       0x94
 .text._laLayer_Moved
                0x9d025390       0x94 build/pic32mz_da_sk_intddr_meb2/production/_ext/1907747181/libaria_layer.o
                0x9d025390                _laLayer_Moved

.text._laLayer_Resized
                0x9d025424       0x94
 .text._laLayer_Resized
                0x9d025424       0x94 build/pic32mz_da_sk_intddr_meb2/production/_ext/1907747181/libaria_layer.o
                0x9d025424                _laLayer_Resized

.text.laList_PushBack
                0x9d0254b8       0x94
 .text.laList_PushBack
                0x9d0254b8       0x94 build/pic32mz_da_sk_intddr_meb2/production/_ext/1907747181/libaria_list.o
                0x9d0254b8                laList_PushBack

.text.laUtils_ClipRectToParent
                0x9d02554c       0x94
 .text.laUtils_ClipRectToParent
                0x9d02554c       0x94 build/pic32mz_da_sk_intddr_meb2/production/_ext/1907747181/libaria_utils.o
                0x9d02554c                laUtils_ClipRectToParent

.text.laArray_Resize
                0x9d0255e0       0x94
 .text.laArray_Resize
                0x9d0255e0       0x94 build/pic32mz_da_sk_intddr_meb2/production/_ext/1907747181/libaria_array.o
                0x9d0255e0                laArray_Resize

.text.laArray_PushBack
                0x9d025674       0x94
 .text.laArray_PushBack
                0x9d025674       0x94 build/pic32mz_da_sk_intddr_meb2/production/_ext/1907747181/libaria_array.o
                0x9d025674                laArray_PushBack

.text.laArray_Free
                0x9d025708       0x94
 .text.laArray_Free
                0x9d025708       0x94 build/pic32mz_da_sk_intddr_meb2/production/_ext/1907747181/libaria_array.o
                0x9d025708                laArray_Free

.text.laRectArray_Resize
                0x9d02579c       0x94
 .text.laRectArray_Resize
                0x9d02579c       0x94 build/pic32mz_da_sk_intddr_meb2/production/_ext/1907747181/libaria_rectarray.o
                0x9d02579c                laRectArray_Resize

.text.laWidget_SkinClassic_FillRect
                0x9d025830       0x94
 .text.laWidget_SkinClassic_FillRect
                0x9d025830       0x94 build/pic32mz_da_sk_intddr_meb2/production/_ext/1907747181/libaria_widget_skin_classic_common.o
                0x9d025830                laWidget_SkinClassic_FillRect

.text.GFXU_FontGetGlyphInfo
                0x9d0258c4       0x94
 .text.GFXU_FontGetGlyphInfo
                0x9d0258c4       0x94 build/pic32mz_da_sk_intddr_meb2/production/_ext/1597685232/gfxu_string_utils.o
                0x9d0258c4                GFXU_FontGetGlyphInfo

.text.laContext_RedrawAll
                0x9d025958       0x90
 .text.laContext_RedrawAll
                0x9d025958       0x90 build/pic32mz_da_sk_intddr_meb2/production/_ext/1907747181/libaria_context.o
                0x9d025958                laContext_RedrawAll

.text.laContext_SetEditWidget
                0x9d0259e8       0x90
 .text.laContext_SetEditWidget
                0x9d0259e8       0x90 build/pic32mz_da_sk_intddr_meb2/production/_ext/1907747181/libaria_context.o
                0x9d0259e8                laContext_SetEditWidget

.text.laUtils_PickFromLayer
                0x9d025a78       0x90
 .text.laUtils_PickFromLayer
                0x9d025a78       0x90 build/pic32mz_da_sk_intddr_meb2/production/_ext/1907747181/libaria_utils.o
                0x9d025a78                laUtils_PickFromLayer

.text.laWidget_DeleteAllDescendants
                0x9d025b08       0x90
 .text.laWidget_DeleteAllDescendants
                0x9d025b08       0x90 build/pic32mz_da_sk_intddr_meb2/production/_ext/1907747181/libaria_widget.o
                0x9d025b08                laWidget_DeleteAllDescendants

.text.laWidget_SkinClassic_Draw1x2BeveledBorder
                0x9d025b98       0x90
 .text.laWidget_SkinClassic_Draw1x2BeveledBorder
                0x9d025b98       0x90 build/pic32mz_da_sk_intddr_meb2/production/_ext/1907747181/libaria_widget_skin_classic_common.o
                0x9d025b98                laWidget_SkinClassic_Draw1x2BeveledBorder

.text.LodePNGText_cleanup
                0x9d025c28       0x90
 .text.LodePNGText_cleanup
                0x9d025c28       0x90 build/pic32mz_da_sk_intddr_meb2/production/_ext/493934858/lodepng.o

.text.layerSwapPending
                0x9d025cb8       0x90
 .text.layerSwapPending
                0x9d025cb8       0x90 build/pic32mz_da_sk_intddr_meb2/production/_ext/1094895838/drv_gfx_glcd_static.o

.text.layerBufferAddressSet
                0x9d025d48       0x90
 .text.layerBufferAddressSet
                0x9d025d48       0x90 build/pic32mz_da_sk_intddr_meb2/production/_ext/1094895838/drv_gfx_glcd_static.o

.text._RegWrite16
                0x9d025dd8       0x8c
 .text._RegWrite16
                0x9d025dd8       0x8c build/pic32mz_da_sk_intddr_meb2/production/_ext/1177928576/drv_mxt336t.o

.text.defLayerPositionSet
                0x9d025e64       0x8c
 .text.defLayerPositionSet
                0x9d025e64       0x8c build/pic32mz_da_sk_intddr_meb2/production/_ext/1847583374/gfx_default_impl.o
                0x9d025e64                defLayerPositionSet

.text.GFX_RectClip
                0x9d025ef0       0x8c
 .text.GFX_RectClip
                0x9d025ef0       0x8c build/pic32mz_da_sk_intddr_meb2/production/_ext/1847583374/gfx_rect.o
                0x9d025ef0                GFX_RectClip

.text.laList_Destroy
                0x9d025f7c       0x8c
 .text.laList_Destroy
                0x9d025f7c       0x8c build/pic32mz_da_sk_intddr_meb2/production/_ext/1907747181/libaria_list.o
                0x9d025f7c                laList_Destroy

.text.GFXU_StringLookup
                0x9d026008       0x8c
 .text.GFXU_StringLookup
                0x9d026008       0x8c build/pic32mz_da_sk_intddr_meb2/production/_ext/1597685232/gfxu_string_utils.o
                0x9d026008                GFXU_StringLookup

.text.lodepng_decode_memory
                0x9d026094       0x8c
 .text.lodepng_decode_memory
                0x9d026094       0x8c build/pic32mz_da_sk_intddr_meb2/production/_ext/493934858/lodepng.o
                0x9d026094                lodepng_decode_memory

.text._IntHandlerChangeNotification_PortB
                0x9d026120       0x8c
 .text._IntHandlerChangeNotification_PortB
                0x9d026120       0x8c build/pic32mz_da_sk_intddr_meb2/production/_ext/1653314881/system_interrupt.o
                0x9d026120                _IntHandlerChangeNotification_PortB

.text._IntHandlerChangeNotification_PortF
                0x9d0261ac       0x8c
 .text._IntHandlerChangeNotification_PortF
                0x9d0261ac       0x8c build/pic32mz_da_sk_intddr_meb2/production/_ext/1653314881/system_interrupt.o
                0x9d0261ac                _IntHandlerChangeNotification_PortF

.rodata         0x9d026238       0x8c
 .rodata        0x9d026238       0x8c build/pic32mz_da_sk_intddr_meb2/production/_ext/1653314881/general_exception_handler.o

.text.defDrawPaletteSet
                0x9d0262c4       0x88
 .text.defDrawPaletteSet
                0x9d0262c4       0x88 build/pic32mz_da_sk_intddr_meb2/production/_ext/1847583374/gfx_default_impl.o
                0x9d0262c4                defDrawPaletteSet

.text.defGlobalAlphaBlend
                0x9d02634c       0x88
 .text.defGlobalAlphaBlend
                0x9d02634c       0x88 build/pic32mz_da_sk_intddr_meb2/production/_ext/1847583374/gfx_default_impl.o
                0x9d02634c                defGlobalAlphaBlend

.text.defPixelArrayGet
                0x9d0263d4       0x88
 .text.defPixelArrayGet
                0x9d0263d4       0x88 build/pic32mz_da_sk_intddr_meb2/production/_ext/1847583374/gfx_default_impl.o
                0x9d0263d4                defPixelArrayGet

.text.waitImage
                0x9d02645c       0x88
 .text.waitImage
                0x9d02645c       0x88 build/pic32mz_da_sk_intddr_meb2/production/_ext/1907747181/libaria_widget_image_skin_classic.o

.text.lodepng_chunk_type_equals
                0x9d0264e4       0x88
 .text.lodepng_chunk_type_equals
                0x9d0264e4       0x88 build/pic32mz_da_sk_intddr_meb2/production/_ext/493934858/lodepng.o
                0x9d0264e4                lodepng_chunk_type_equals

.text.GFX_ReadPixelArray
                0x9d02656c       0x84
 .text.GFX_ReadPixelArray
                0x9d02656c       0x84 build/pic32mz_da_sk_intddr_meb2/production/_ext/1847583374/gfx.o
                0x9d02656c                GFX_ReadPixelArray

.text.GFX_PolarToXY
                0x9d0265f0       0x84
 .text.GFX_PolarToXY
                0x9d0265f0       0x84 build/pic32mz_da_sk_intddr_meb2/production/_ext/1847583374/gfx_math.o
                0x9d0265f0                GFX_PolarToXY

.text.laButtonWidget_SetText
                0x9d026674       0x84
 .text.laButtonWidget_SetText
                0x9d026674       0x84 build/pic32mz_da_sk_intddr_meb2/production/_ext/1907747181/libaria_widget_button.o
                0x9d026674                laButtonWidget_SetText

.text.JPEG_bGenerateHuffmanTables
                0x9d0266f8       0x84
 .text.JPEG_bGenerateHuffmanTables
                0x9d0266f8       0x84 build/pic32mz_da_sk_intddr_meb2/production/_ext/1597685232/gfxu_image_jpg_common.o
                0x9d0266f8                JPEG_bGenerateHuffmanTables

.text.SYS_INP_AddListener
                0x9d02677c       0x84
 .text.SYS_INP_AddListener
                0x9d02677c       0x84 build/pic32mz_da_sk_intddr_meb2/production/_ext/252650337/sys_input.o
                0x9d02677c                SYS_INP_AddListener

.text.uivector_resize
                0x9d026800       0x84
 .text.uivector_resize
                0x9d026800       0x84 build/pic32mz_da_sk_intddr_meb2/production/_ext/493934858/lodepng.o

.text.string_set
                0x9d026884       0x84
 .text.string_set
                0x9d026884       0x84 build/pic32mz_da_sk_intddr_meb2/production/_ext/493934858/lodepng.o

.text.lodepng_info_init
                0x9d026908       0x84
 .text.lodepng_info_init
                0x9d026908       0x84 build/pic32mz_da_sk_intddr_meb2/production/_ext/493934858/lodepng.o
                0x9d026908                lodepng_info_init

.text           0x9d02698c       0x84
 .text          0x9d02698c       0x84 f:/software_installations/mplab_xc32/bin/bin/../../lib/gcc/pic32mx/4.8.3/../../../../pic32mx/lib\libpic32.a(pic32_data_init.o)
                0x9d02698c                __pic32_data_init

.text.layerBufferFree
                0x9d026a10       0x80
 .text.layerBufferFree
                0x9d026a10       0x80 build/pic32mz_da_sk_intddr_meb2/production/_ext/1847583374/gfx_default_impl.o

.text.defLayerSwapSet
                0x9d026a90       0x80
 .text.defLayerSwapSet
                0x9d026a90       0x80 build/pic32mz_da_sk_intddr_meb2/production/_ext/1847583374/gfx_default_impl.o
                0x9d026a90                defLayerSwapSet

.text.get_displayInfo
                0x9d026b10       0x80
 .text.get_displayInfo
                0x9d026b10       0x80 build/pic32mz_da_sk_intddr_meb2/production/_ext/1847583374/gfx_get.o
                0x9d026b10                get_displayInfo

.text.lerp_rgb888
                0x9d026b90       0x80
 .text.lerp_rgb888
                0x9d026b90       0x80 build/pic32mz_da_sk_intddr_meb2/production/_ext/1847583374/gfx_color_lerp.o

.text.lerp_rgb565
                0x9d026c10       0x80
 .text.lerp_rgb565
                0x9d026c10       0x80 build/pic32mz_da_sk_intddr_meb2/production/_ext/1847583374/gfx_color_lerp.o

.text.lerp_rgb332
                0x9d026c90       0x80
 .text.lerp_rgb332
                0x9d026c90       0x80 build/pic32mz_da_sk_intddr_meb2/production/_ext/1847583374/gfx_color_lerp.o

.text.rejectBlit
                0x9d026d10       0x80
 .text.rejectBlit
                0x9d026d10       0x80 build/pic32mz_da_sk_intddr_meb2/production/_ext/1847583374/gfx_draw_blit.o

.text._laLayer_Paint
                0x9d026d90       0x80
 .text._laLayer_Paint
                0x9d026d90       0x80 build/pic32mz_da_sk_intddr_meb2/production/_ext/1907747181/libaria_layer.o
                0x9d026d90                _laLayer_Paint

.text.laUtils_WidgetLayerRect
                0x9d026e10       0x80
 .text.laUtils_WidgetLayerRect
                0x9d026e10       0x80 build/pic32mz_da_sk_intddr_meb2/production/_ext/1907747181/libaria_utils.o
                0x9d026e10                laUtils_WidgetLayerRect

.text.laWidget_SkinClassic_DrawStandardLineBorder
                0x9d026e90       0x80
 .text.laWidget_SkinClassic_DrawStandardLineBorder
                0x9d026e90       0x80 build/pic32mz_da_sk_intddr_meb2/production/_ext/1907747181/libaria_widget_skin_classic_common.o
                0x9d026e90                laWidget_SkinClassic_DrawStandardLineBorder

.text.uivector_resizev
                0x9d026f10       0x80
 .text.uivector_resizev
                0x9d026f10       0x80 build/pic32mz_da_sk_intddr_meb2/production/_ext/493934858/lodepng.o

.text.generateFixedDistanceTree
                0x9d026f90       0x80
 .text.generateFixedDistanceTree
                0x9d026f90       0x80 build/pic32mz_da_sk_intddr_meb2/production/_ext/493934858/lodepng.o

.text.getColorModeStrideSize
                0x9d027010       0x80
 .text.getColorModeStrideSize
                0x9d027010       0x80 build/pic32mz_da_sk_intddr_meb2/production/_ext/1094895838/drv_gfx_glcd_static.o

.text._fflush_simple
                0x9d027090       0x80
 .text._fflush_simple
                0x9d027090       0x80 f:/software_installations/mplab_xc32/bin/bin/../../lib/gcc/pic32mx/4.8.3/../../../../pic32mx/lib\liblega-c.a(_iobfuncs.o)
                0x9d027090                _fflush_simple

.text._fwrite_simple
                0x9d027110       0x80
 .text._fwrite_simple
                0x9d027110       0x80 f:/software_installations/mplab_xc32/bin/bin/../../lib/gcc/pic32mx/4.8.3/../../../../pic32mx/lib\liblega-c.a(_iobfuncs.o)
                0x9d027110                _fwrite_simple

.text.fptoli    0x9d027190       0x80
 .text.fptoli   0x9d027190       0x80 f:/software_installations/mplab_xc32/bin/bin/../../lib/gcc/pic32mx/4.8.3/../../../../pic32mx/lib\libm.a(fptoli.o)
                0x9d027190                __fixsfsi
                0x9d027190                fptoli
                0x9d027190                fptosi

.text.GFX_LayerSwap
                0x9d027210       0x7c
 .text.GFX_LayerSwap
                0x9d027210       0x7c build/pic32mz_da_sk_intddr_meb2/production/_ext/1847583374/gfx_layer.o
                0x9d027210                GFX_LayerSwap

.text.cpuDrawLine_Horz
                0x9d02728c       0x7c
 .text.cpuDrawLine_Horz
                0x9d02728c       0x7c build/pic32mz_da_sk_intddr_meb2/production/_ext/1847583374/gfx_draw_line.o
                0x9d02728c                cpuDrawLine_Horz

.text.cpuDrawLine_Vert
                0x9d027308       0x7c
 .text.cpuDrawLine_Vert
                0x9d027308       0x7c build/pic32mz_da_sk_intddr_meb2/production/_ext/1847583374/gfx_draw_line.o
                0x9d027308                cpuDrawLine_Vert

.text.GFX_PercentOf
                0x9d027384       0x7c
 .text.GFX_PercentOf
                0x9d027384       0x7c build/pic32mz_da_sk_intddr_meb2/production/_ext/1847583374/gfx_math.o
                0x9d027384                GFX_PercentOf

.text.laString_GetHeight
                0x9d027400       0x7c
 .text.laString_GetHeight
                0x9d027400       0x7c build/pic32mz_da_sk_intddr_meb2/production/_ext/1907747181/libaria_string.o
                0x9d027400                laString_GetHeight

.text.laString_GetAscent
                0x9d02747c       0x7c
 .text.laString_GetAscent
                0x9d02747c       0x7c build/pic32mz_da_sk_intddr_meb2/production/_ext/1907747181/libaria_string.o
                0x9d02747c                laString_GetAscent

.text.laLabelWidget_SetText
                0x9d0274f8       0x7c
 .text.laLabelWidget_SetText
                0x9d0274f8       0x7c build/pic32mz_da_sk_intddr_meb2/production/_ext/1907747181/libaria_widget_label.o
                0x9d0274f8                laLabelWidget_SetText

.text.laWidget_SkinClassic_DrawBackground
                0x9d027574       0x7c
 .text.laWidget_SkinClassic_DrawBackground
                0x9d027574       0x7c build/pic32mz_da_sk_intddr_meb2/production/_ext/1907747181/libaria_widget_skin_classic_common.o
                0x9d027574                laWidget_SkinClassic_DrawBackground

.text.readBitsFromReversedStream
                0x9d0275f0       0x7c
 .text.readBitsFromReversedStream
                0x9d0275f0       0x7c build/pic32mz_da_sk_intddr_meb2/production/_ext/493934858/lodepng.o

.text.fptoul    0x9d02766c       0x7c
 .text.fptoul   0x9d02766c       0x7c f:/software_installations/mplab_xc32/bin/bin/../../lib/gcc/pic32mx/4.8.3/../../../../pic32mx/lib\libm.a(fptoul.o)
                0x9d02766c                fptoui
                0x9d02766c                fptoul
                0x9d02766c                __fixunssfsi

.text.defAlphaChannelBlend
                0x9d0276e8       0x78
 .text.defAlphaChannelBlend
                0x9d0276e8       0x78 build/pic32mz_da_sk_intddr_meb2/production/_ext/1847583374/gfx_default_impl.o
                0x9d0276e8                defAlphaChannelBlend

.text._laLabelWidget_Constructor
                0x9d027760       0x78
 .text._laLabelWidget_Constructor
                0x9d027760       0x78 build/pic32mz_da_sk_intddr_meb2/production/_ext/1907747181/libaria_widget_label.o
                0x9d027760                _laLabelWidget_Constructor

.text.laArray_Find
                0x9d0277d8       0x78
 .text.laArray_Find
                0x9d0277d8       0x78 build/pic32mz_da_sk_intddr_meb2/production/_ext/1907747181/libaria_array.o
                0x9d0277d8                laArray_Find

.text.GFXU_StringIndexLookup
                0x9d027850       0x78
 .text.GFXU_StringIndexLookup
                0x9d027850       0x78 build/pic32mz_da_sk_intddr_meb2/production/_ext/1597685232/gfxu_string_utils.o
                0x9d027850                GFXU_StringIndexLookup

.text.huffmanDecodeSymbol
                0x9d0278c8       0x78
 .text.huffmanDecodeSymbol
                0x9d0278c8       0x78 build/pic32mz_da_sk_intddr_meb2/production/_ext/493934858/lodepng.o

.text.addColorBits
                0x9d027940       0x78
 .text.addColorBits
                0x9d027940       0x78 build/pic32mz_da_sk_intddr_meb2/production/_ext/493934858/lodepng.o

.text.paethPredictor
                0x9d0279b8       0x78
 .text.paethPredictor
                0x9d0279b8       0x78 build/pic32mz_da_sk_intddr_meb2/production/_ext/493934858/lodepng.o

.text.GFX_RectContainsRect
                0x9d027a30       0x74
 .text.GFX_RectContainsRect
                0x9d027a30       0x74 build/pic32mz_da_sk_intddr_meb2/production/_ext/1847583374/gfx_rect.o
                0x9d027a30                GFX_RectContainsRect

.text.GFX_RectIntersects
                0x9d027aa4       0x74
 .text.GFX_RectIntersects
                0x9d027aa4       0x74 build/pic32mz_da_sk_intddr_meb2/production/_ext/1847583374/gfx_rect.o
                0x9d027aa4                GFX_RectIntersects

.text._laContext_Update
                0x9d027b18       0x74
 .text._laContext_Update
                0x9d027b18       0x74 build/pic32mz_da_sk_intddr_meb2/production/_ext/1907747181/libaria_context.o
                0x9d027b18                _laContext_Update

.text.laContext_SetFocusWidget
                0x9d027b8c       0x74
 .text.laContext_SetFocusWidget
                0x9d027b8c       0x74 build/pic32mz_da_sk_intddr_meb2/production/_ext/1907747181/libaria_context.o
                0x9d027b8c                laContext_SetFocusWidget

.text.laLayer_SetBufferCount
                0x9d027c00       0x74
 .text.laLayer_SetBufferCount
                0x9d027c00       0x74 build/pic32mz_da_sk_intddr_meb2/production/_ext/1907747181/libaria_layer.o
                0x9d027c00                laLayer_SetBufferCount

.text.laLayer_SetVSync
                0x9d027c74       0x74
 .text.laLayer_SetVSync
                0x9d027c74       0x74 build/pic32mz_da_sk_intddr_meb2/production/_ext/1907747181/libaria_layer.o
                0x9d027c74                laLayer_SetVSync

.text.laScreen_SetLayer
                0x9d027ce8       0x74
 .text.laScreen_SetLayer
                0x9d027ce8       0x74 build/pic32mz_da_sk_intddr_meb2/production/_ext/1907747181/libaria_screen.o
                0x9d027ce8                laScreen_SetLayer

.text.laUtils_ChildIntersectsParent
                0x9d027d5c       0x74
 .text.laUtils_ChildIntersectsParent
                0x9d027d5c       0x74 build/pic32mz_da_sk_intddr_meb2/production/_ext/1907747181/libaria_utils.o
                0x9d027d5c                laUtils_ChildIntersectsParent

.text.laUtils_GetNextHighestWidget
                0x9d027dd0       0x74
 .text.laUtils_GetNextHighestWidget
                0x9d027dd0       0x74 build/pic32mz_da_sk_intddr_meb2/production/_ext/1907747181/libaria_utils.o
                0x9d027dd0                laUtils_GetNextHighestWidget

.text.laWidget_Invalidate
                0x9d027e44       0x74
 .text.laWidget_Invalidate
                0x9d027e44       0x74 build/pic32mz_da_sk_intddr_meb2/production/_ext/1907747181/libaria_widget.o
                0x9d027e44                laWidget_Invalidate

.text.drawBorder
                0x9d027eb8       0x74
 .text.drawBorder
                0x9d027eb8       0x74 build/pic32mz_da_sk_intddr_meb2/production/_ext/1907747181/libaria_widget_button_skin_classic.o

.text.drawBackground
                0x9d027f2c       0x74
 .text.drawBackground
                0x9d027f2c       0x74 build/pic32mz_da_sk_intddr_meb2/production/_ext/1907747181/libaria_widget_button_skin_classic.o

.text.laImageWidget_SetImage
                0x9d027fa0       0x74
 .text.laImageWidget_SetImage
                0x9d027fa0       0x74 build/pic32mz_da_sk_intddr_meb2/production/_ext/1907747181/libaria_widget_image.o
                0x9d027fa0                laImageWidget_SetImage

.text.laWidget_SkinClassic_DrawStandardRaisedBorder
                0x9d028014       0x74
 .text.laWidget_SkinClassic_DrawStandardRaisedBorder
                0x9d028014       0x74 build/pic32mz_da_sk_intddr_meb2/production/_ext/1907747181/libaria_widget_skin_classic_common.o
                0x9d028014                laWidget_SkinClassic_DrawStandardRaisedBorder

.text.GFXU_StringFontIndexLookup
                0x9d028088       0x74
 .text.GFXU_StringFontIndexLookup
                0x9d028088       0x74 build/pic32mz_da_sk_intddr_meb2/production/_ext/1597685232/gfxu_string_utils.o
                0x9d028088                GFXU_StringFontIndexLookup

.text.ucvector_reserve
                0x9d0280fc       0x74
 .text.ucvector_reserve
                0x9d0280fc       0x74 build/pic32mz_da_sk_intddr_meb2/production/_ext/493934858/lodepng.o

.rodata         0x9d028170       0x74
 .rodata        0x9d028170       0x74 build/pic32mz_da_sk_intddr_meb2/production/_ext/1653314881/system_init.o
                0x9d028170                sysInputInit
                0x9d028174                drvMXT336TInitData
                0x9d028190                drvI2C0InitData

.text._general_exception_handler
                0x9d0281e4       0x74
 .text._general_exception_handler
                0x9d0281e4       0x74 build/pic32mz_da_sk_intddr_meb2/production/_ext/1653314881/general_exception_handler.o
                0x9d0281e4                _general_exception_handler

.text.SYS_Tasks
                0x9d028258       0x74
 .text.SYS_Tasks
                0x9d028258       0x74 build/pic32mz_da_sk_intddr_meb2/production/_ext/1653314881/system_tasks.o
                0x9d028258                SYS_Tasks

.text.GFX_Set   0x9d000110       0x70
 .text.GFX_Set  0x9d000110       0x70 build/pic32mz_da_sk_intddr_meb2/production/_ext/1847583374/gfx.o
                0x9d000110                GFX_Set

.text.GFX_PixelBufferSet_Unsafe
                0x9d000190       0x70
 .text.GFX_PixelBufferSet_Unsafe
                0x9d000190       0x70 build/pic32mz_da_sk_intddr_meb2/production/_ext/1847583374/gfx_pixel_buffer.o
                0x9d000190                GFX_PixelBufferSet_Unsafe

.text.GFX_ScaleInteger
                0x9d0282cc       0x70
 .text.GFX_ScaleInteger
                0x9d0282cc       0x70 build/pic32mz_da_sk_intddr_meb2/production/_ext/1847583374/gfx_math.o
                0x9d0282cc                GFX_ScaleInteger

.text.laString_CreateFromID
                0x9d02833c       0x70
 .text.laString_CreateFromID
                0x9d02833c       0x70 build/pic32mz_da_sk_intddr_meb2/production/_ext/1907747181/libaria_string.o
                0x9d02833c                laString_CreateFromID

.text.laWidget_SkinClassic_DrawStandardLoweredBorder
                0x9d0283ac       0x70
 .text.laWidget_SkinClassic_DrawStandardLoweredBorder
                0x9d0283ac       0x70 build/pic32mz_da_sk_intddr_meb2/production/_ext/1907747181/libaria_widget_skin_classic_common.o
                0x9d0283ac                laWidget_SkinClassic_DrawStandardLoweredBorder

.text.vsnprintf
                0x9d02841c       0x70
 .text.vsnprintf
                0x9d02841c       0x70 f:/software_installations/mplab_xc32/bin/bin/../../lib/gcc/pic32mx/4.8.3/../../../../pic32mx/lib\liblega-c.a(vsnprintf.o)
                0x9d02841c                vsnprintf

.text.GFX_Lerp  0x9d02848c       0x6c
 .text.GFX_Lerp
                0x9d02848c       0x6c build/pic32mz_da_sk_intddr_meb2/production/_ext/1847583374/gfx_math.o
                0x9d02848c                GFX_Lerp

.text.handleTouchUp
                0x9d0284f8       0x6c
 .text.handleTouchUp
                0x9d0284f8       0x6c build/pic32mz_da_sk_intddr_meb2/production/_ext/1907747181/libaria_input.o
                0x9d0284f8                handleTouchUp

.text.handleTouchMoved
                0x9d028564       0x6c
 .text.handleTouchMoved
                0x9d028564       0x6c build/pic32mz_da_sk_intddr_meb2/production/_ext/1907747181/libaria_input.o
                0x9d028564                handleTouchMoved

.text.laString_Destroy
                0x9d0285d0       0x6c
 .text.laString_Destroy
                0x9d0285d0       0x6c build/pic32mz_da_sk_intddr_meb2/production/_ext/1907747181/libaria_string.o
                0x9d0285d0                laString_Destroy

.text.laUtils_GetLayer
                0x9d02863c       0x6c
 .text.laUtils_GetLayer
                0x9d02863c       0x6c build/pic32mz_da_sk_intddr_meb2/production/_ext/1907747181/libaria_utils.o
                0x9d02863c                laUtils_GetLayer

.text._shuffleLeft
                0x9d0286a8       0x6c
 .text._shuffleLeft
                0x9d0286a8       0x6c build/pic32mz_da_sk_intddr_meb2/production/_ext/1907747181/libaria_array.o

.text.laRectArray_RemoveAt
                0x9d028714       0x6c
 .text.laRectArray_RemoveAt
                0x9d028714       0x6c build/pic32mz_da_sk_intddr_meb2/production/_ext/1907747181/libaria_rectarray.o
                0x9d028714                laRectArray_RemoveAt

.text.laWidget_SkinClassic_DrawLineBorder
                0x9d028780       0x6c
 .text.laWidget_SkinClassic_DrawLineBorder
                0x9d028780       0x6c build/pic32mz_da_sk_intddr_meb2/production/_ext/1907747181/libaria_widget_skin_classic_common.o
                0x9d028780                laWidget_SkinClassic_DrawLineBorder

.text.laWidget_SkinClassic_DrawStandardHybridBorder
                0x9d0287ec       0x6c
 .text.laWidget_SkinClassic_DrawStandardHybridBorder
                0x9d0287ec       0x6c build/pic32mz_da_sk_intddr_meb2/production/_ext/1907747181/libaria_widget_skin_classic_common.o
                0x9d0287ec                laWidget_SkinClassic_DrawStandardHybridBorder

.rodata         0x9d028858       0xd8
 .rodata        0x9d028858       0x6c build/pic32mz_da_sk_intddr_meb2/production/_ext/1597685232/gfxu_image_png_external.o
 .rodata        0x9d0288c4       0x6c build/pic32mz_da_sk_intddr_meb2/production/_ext/1597685232/gfxu_image_png_internal.o

.text.JPEG_wGetBits
                0x9d028930       0x6c
 .text.JPEG_wGetBits
                0x9d028930       0x6c build/pic32mz_da_sk_intddr_meb2/production/_ext/1597685232/gfxu_image_jpg_common.o

.rodata         0x9d02899c       0x6c
 .rodata        0x9d02899c       0x6c f:/software_installations/mplab_xc32/bin/bin/../../lib/gcc/pic32mx/4.8.3/../../../../pic32mx/lib\liblega-c.a(_doprnt.o)

.text._MXT336T_FindObject
                0x9d028a08       0x68
 .text._MXT336T_FindObject
                0x9d028a08       0x68 build/pic32mz_da_sk_intddr_meb2/production/_ext/1177928576/drv_mxt336t.o

.text.defDrawGradientColorGet
                0x9d028a70       0x68
 .text.defDrawGradientColorGet
                0x9d028a70       0x68 build/pic32mz_da_sk_intddr_meb2/production/_ext/1847583374/gfx_default_impl.o
                0x9d028a70                defDrawGradientColorGet

.text.defLayerSizeGet
                0x9d028ad8       0x68
 .text.defLayerSizeGet
                0x9d028ad8       0x68 build/pic32mz_da_sk_intddr_meb2/production/_ext/1847583374/gfx_default_impl.o
                0x9d028ad8                defLayerSizeGet

.text.defLayerSizeSet
                0x9d028b40       0x68
 .text.defLayerSizeSet
                0x9d028b40       0x68 build/pic32mz_da_sk_intddr_meb2/production/_ext/1847583374/gfx_default_impl.o
                0x9d028b40                defLayerSizeSet

.text._GFX_LayerSizeSet
                0x9d028ba8       0x68
 .text._GFX_LayerSizeSet
                0x9d028ba8       0x68 build/pic32mz_da_sk_intddr_meb2/production/_ext/1847583374/gfx_layer.o
                0x9d028ba8                _GFX_LayerSizeSet

.text.GFX_PixelBufferSet
                0x9d028c10       0x68
 .text.GFX_PixelBufferSet
                0x9d028c10       0x68 build/pic32mz_da_sk_intddr_meb2/production/_ext/1847583374/gfx_pixel_buffer.o
                0x9d028c10                GFX_PixelBufferSet

.text.laContext_GetScreenRect
                0x9d028c78       0x68
 .text.laContext_GetScreenRect
                0x9d028c78       0x68 build/pic32mz_da_sk_intddr_meb2/production/_ext/1907747181/libaria_context.o
                0x9d028c78                laContext_GetScreenRect

.text.waitString
                0x9d028ce0       0x68
 .text.waitString
                0x9d028ce0       0x68 build/pic32mz_da_sk_intddr_meb2/production/_ext/1907747181/libaria_widget_button_skin_classic.o

.text.waitImage
                0x9d028d48       0x68
 .text.waitImage
                0x9d028d48       0x68 build/pic32mz_da_sk_intddr_meb2/production/_ext/1907747181/libaria_widget_button_skin_classic.o

.text._laImageWidget_Constructor
                0x9d028db0       0x68
 .text._laImageWidget_Constructor
                0x9d028db0       0x68 build/pic32mz_da_sk_intddr_meb2/production/_ext/1907747181/libaria_widget_image.o
                0x9d028db0                _laImageWidget_Constructor

.text.waitString
                0x9d028e18       0x68
 .text.waitString
                0x9d028e18       0x68 build/pic32mz_da_sk_intddr_meb2/production/_ext/1907747181/libaria_widget_label_skin_classic.o

.text.laArray_Remove
                0x9d028e80       0x68
 .text.laArray_Remove
                0x9d028e80       0x68 build/pic32mz_da_sk_intddr_meb2/production/_ext/1907747181/libaria_array.o
                0x9d028e80                laArray_Remove

.text.laRectArray_Destroy
                0x9d028ee8       0x68
 .text.laRectArray_Destroy
                0x9d028ee8       0x68 build/pic32mz_da_sk_intddr_meb2/production/_ext/1907747181/libaria_rectarray.o
                0x9d028ee8                laRectArray_Destroy

.text.JPEG_wReadWord
                0x9d028f50       0x68
 .text.JPEG_wReadWord
                0x9d028f50       0x68 build/pic32mz_da_sk_intddr_meb2/production/_ext/1597685232/gfxu_image_jpg_common.o

.text.externalMemoryRead
                0x9d028fb8       0x68
 .text.externalMemoryRead
                0x9d028fb8       0x68 build/pic32mz_da_sk_intddr_meb2/production/_ext/1597685232/gfxu_image_jpg_external.o

.text.setBitOfReversedStream
                0x9d029020       0x68
 .text.setBitOfReversedStream
                0x9d029020       0x68 build/pic32mz_da_sk_intddr_meb2/production/_ext/493934858/lodepng.o

.text.memmove   0x9d029088       0x68
 .text.memmove  0x9d029088       0x68 f:/software_installations/mplab_xc32/bin/bin/../../lib/gcc/pic32mx/4.8.3/../../../../pic32mx/lib\liblega-c.a(memmove.o)
                0x9d029088                memmove

.text.__sputn   0x9d0290f0       0x68
 .text.__sputn  0x9d0290f0       0x68 f:/software_installations/mplab_xc32/bin/bin/../../lib/gcc/pic32mx/4.8.3/../../../../pic32mx/lib\liblega-c.a(_doprnt.o)

.text.defLayerActiveSet
                0x9d029158       0x64
 .text.defLayerActiveSet
                0x9d029158       0x64 build/pic32mz_da_sk_intddr_meb2/production/_ext/1847583374/gfx_default_impl.o
                0x9d029158                defLayerActiveSet

.text.defDrawMaskEnableSet
                0x9d0291bc       0x64
 .text.defDrawMaskEnableSet
                0x9d0291bc       0x64 build/pic32mz_da_sk_intddr_meb2/production/_ext/1847583374/gfx_default_impl.o
                0x9d0291bc                defDrawMaskEnableSet

.text.rgb565_gs8
                0x9d029220       0x64
 .text.rgb565_gs8
                0x9d029220       0x64 build/pic32mz_da_sk_intddr_meb2/production/_ext/1847583374/gfx_color_convert.o

.text.rgb332_gs8
                0x9d029284       0x64
 .text.rgb332_gs8
                0x9d029284       0x64 build/pic32mz_da_sk_intddr_meb2/production/_ext/1847583374/gfx_color_convert.o

.text._laInput_HandleInputEvent
                0x9d0292e8       0x64
 .text._laInput_HandleInputEvent
                0x9d0292e8       0x64 build/pic32mz_da_sk_intddr_meb2/production/_ext/1907747181/libaria_input.o
                0x9d0292e8                _laInput_HandleInputEvent

.text.isAncestorOf
                0x9d02934c       0x64
 .text.isAncestorOf
                0x9d02934c       0x64 build/pic32mz_da_sk_intddr_meb2/production/_ext/1907747181/libaria_widget.o

.text.laWidget_RemoveChild
                0x9d0293b0       0x64
 .text.laWidget_RemoveChild
                0x9d0293b0       0x64 build/pic32mz_da_sk_intddr_meb2/production/_ext/1907747181/libaria_widget.o
                0x9d0293b0                laWidget_RemoveChild

.text.getNumColorChannels
                0x9d029414       0x64
 .text.getNumColorChannels
                0x9d029414       0x64 build/pic32mz_da_sk_intddr_meb2/production/_ext/493934858/lodepng.o

.text.GFX_PixelBufferOffsetGet
                0x9d029478       0x60
 .text.GFX_PixelBufferOffsetGet
                0x9d029478       0x60 build/pic32mz_da_sk_intddr_meb2/production/_ext/1847583374/gfx_pixel_buffer.o
                0x9d029478                GFX_PixelBufferOffsetGet

.text.GFX_RectFromPoints
                0x9d0294d8       0x60
 .text.GFX_RectFromPoints
                0x9d0294d8       0x60 build/pic32mz_da_sk_intddr_meb2/production/_ext/1847583374/gfx_rect.o
                0x9d0294d8                GFX_RectFromPoints

.text.lut_argb8888
                0x9d029538       0x60
 .text.lut_argb8888
                0x9d029538       0x60 build/pic32mz_da_sk_intddr_meb2/production/_ext/1847583374/gfx_color_convert.o

.text.lut_rgba8888
                0x9d029598       0x60
 .text.lut_rgba8888
                0x9d029598       0x60 build/pic32mz_da_sk_intddr_meb2/production/_ext/1847583374/gfx_color_convert.o

.text.lut_rgb888
                0x9d0295f8       0x60
 .text.lut_rgb888
                0x9d0295f8       0x60 build/pic32mz_da_sk_intddr_meb2/production/_ext/1847583374/gfx_color_convert.o

.text.lut_rgba5551
                0x9d029658       0x60
 .text.lut_rgba5551
                0x9d029658       0x60 build/pic32mz_da_sk_intddr_meb2/production/_ext/1847583374/gfx_color_convert.o

.text.lut_rgb565
                0x9d0296b8       0x60
 .text.lut_rgb565
                0x9d0296b8       0x60 build/pic32mz_da_sk_intddr_meb2/production/_ext/1847583374/gfx_color_convert.o

.text.lut_rgb332
                0x9d029718       0x60
 .text.lut_rgb332
                0x9d029718       0x60 build/pic32mz_da_sk_intddr_meb2/production/_ext/1847583374/gfx_color_convert.o

.text.lut_gs8   0x9d029778       0x60
 .text.lut_gs8  0x9d029778       0x60 build/pic32mz_da_sk_intddr_meb2/production/_ext/1847583374/gfx_color_convert.o

.text.laLayer_Delete
                0x9d0297d8       0x60
 .text.laLayer_Delete
                0x9d0297d8       0x60 build/pic32mz_da_sk_intddr_meb2/production/_ext/1907747181/libaria_layer.o
                0x9d0297d8                laLayer_Delete

.text._laWidget_ValidateChildren
                0x9d029838       0x60
 .text._laWidget_ValidateChildren
                0x9d029838       0x60 build/pic32mz_da_sk_intddr_meb2/production/_ext/1907747181/libaria_widget.o
                0x9d029838                _laWidget_ValidateChildren

.text.GFXU_GetStringHeight
                0x9d029898       0x60
 .text.GFXU_GetStringHeight
                0x9d029898       0x60 build/pic32mz_da_sk_intddr_meb2/production/_ext/1597685232/gfxu_string_query.o
                0x9d029898                GFXU_GetStringHeight

.text.GFXU_GetStringAscent
                0x9d0298f8       0x60
 .text.GFXU_GetStringAscent
                0x9d0298f8       0x60 build/pic32mz_da_sk_intddr_meb2/production/_ext/1597685232/gfxu_string_query.o
                0x9d0298f8                GFXU_GetStringAscent

.text.JPEG_sGetBitsValue
                0x9d029958       0x60
 .text.JPEG_sGetBitsValue
                0x9d029958       0x60 build/pic32mz_da_sk_intddr_meb2/production/_ext/1597685232/gfxu_image_jpg_common.o

.text.color_tree_cleanup
                0x9d0299b8       0x60
 .text.color_tree_cleanup
                0x9d0299b8       0x60 build/pic32mz_da_sk_intddr_meb2/production/_ext/493934858/lodepng.o

.text.sitofp    0x9d029a18       0x60
 .text.sitofp   0x9d029a18       0x60 f:/software_installations/mplab_xc32/bin/bin/../../lib/gcc/pic32mx/4.8.3/../../../../pic32mx/lib\libm.a(sitofp.o)
                0x9d029a18                __floatsisf
                0x9d029a18                litofp
                0x9d029a18                sitofp

.text.defDrawGradientColorSet
                0x9d029a78       0x5c
 .text.defDrawGradientColorSet
                0x9d029a78       0x5c build/pic32mz_da_sk_intddr_meb2/production/_ext/1847583374/gfx_default_impl.o
                0x9d029a78                defDrawGradientColorSet

.text.defLayerPositionGet
                0x9d029ad4       0x5c
 .text.defLayerPositionGet
                0x9d029ad4       0x5c build/pic32mz_da_sk_intddr_meb2/production/_ext/1847583374/gfx_default_impl.o
                0x9d029ad4                defLayerPositionGet

.text.indexGet  0x9d029b30       0x5c
 .text.indexGet
                0x9d029b30       0x5c build/pic32mz_da_sk_intddr_meb2/production/_ext/1847583374/gfx_pixel_buffer.o

.text.GFX_PixelBufferDestroy
                0x9d029b8c       0x5c
 .text.GFX_PixelBufferDestroy
                0x9d029b8c       0x5c build/pic32mz_da_sk_intddr_meb2/production/_ext/1847583374/gfx_pixel_buffer.o
                0x9d029b8c                GFX_PixelBufferDestroy

.text.pointRelPositionFromLine
                0x9d029be8       0x5c
 .text.pointRelPositionFromLine
                0x9d029be8       0x5c build/pic32mz_da_sk_intddr_meb2/production/_ext/1847583374/gfx_draw_arc.o
                0x9d029be8                pointRelPositionFromLine

.text.laUtils_RectToLayerSpace
                0x9d029c44       0x5c
 .text.laUtils_RectToLayerSpace
                0x9d029c44       0x5c build/pic32mz_da_sk_intddr_meb2/production/_ext/1907747181/libaria_utils.o
                0x9d029c44                laUtils_RectToLayerSpace

.text.drawBorder
                0x9d029ca0       0x5c
 .text.drawBorder
                0x9d029ca0       0x5c build/pic32mz_da_sk_intddr_meb2/production/_ext/1907747181/libaria_widget_skin_classic.o

.text.done      0x9d029cfc       0xb8
 .text.done     0x9d029cfc       0x5c build/pic32mz_da_sk_intddr_meb2/production/_ext/1597685232/gfxu_string_external.o
 .text.done     0x9d029d58       0x5c build/pic32mz_da_sk_intddr_meb2/production/_ext/1597685232/gfxu_stringbuffer_external.o

.text.lodepng_chunk_check_crc
                0x9d029db4       0x5c
 .text.lodepng_chunk_check_crc
                0x9d029db4       0x5c build/pic32mz_da_sk_intddr_meb2/production/_ext/493934858/lodepng.o
                0x9d029db4                lodepng_chunk_check_crc

.text.GFX_ColorModeInfoGet
                0x9d029e10       0x58
 .text.GFX_ColorModeInfoGet
                0x9d029e10       0x58 build/pic32mz_da_sk_intddr_meb2/production/_ext/1847583374/gfx_color.o
                0x9d029e10                GFX_ColorModeInfoGet

.text.defDrawPipelineModeSet
                0x9d029e68       0x58
 .text.defDrawPipelineModeSet
                0x9d029e68       0x58 build/pic32mz_da_sk_intddr_meb2/production/_ext/1847583374/gfx_default_impl.o
                0x9d029e68                defDrawPipelineModeSet

.text.defDrawPaletteGet
                0x9d029ec0       0x58
 .text.defDrawPaletteGet
                0x9d029ec0       0x58 build/pic32mz_da_sk_intddr_meb2/production/_ext/1847583374/gfx_default_impl.o
                0x9d029ec0                defDrawPaletteGet

.text.GFX_PixelBufferGetIndex
                0x9d029f18       0x58
 .text.GFX_PixelBufferGetIndex
                0x9d029f18       0x58 build/pic32mz_da_sk_intddr_meb2/production/_ext/1847583374/gfx_pixel_buffer.o
                0x9d029f18                GFX_PixelBufferGetIndex

.text.GFX_ColorLerp
                0x9d029f70       0x58
 .text.GFX_ColorLerp
                0x9d029f70       0x58 build/pic32mz_da_sk_intddr_meb2/production/_ext/1847583374/gfx_color_lerp.o
                0x9d029f70                GFX_ColorLerp

.text.GFX_PercentWholeRounded
                0x9d029fc8       0x58
 .text.GFX_PercentWholeRounded
                0x9d029fc8       0x58 build/pic32mz_da_sk_intddr_meb2/production/_ext/1847583374/gfx_math.o
                0x9d029fc8                GFX_PercentWholeRounded

.text._laLayer_NeedsDraw
                0x9d02a020       0x58
 .text._laLayer_NeedsDraw
                0x9d02a020       0x58 build/pic32mz_da_sk_intddr_meb2/production/_ext/1907747181/libaria_layer.o
                0x9d02a020                _laLayer_NeedsDraw

.text.laImageWidget_New
                0x9d02a078       0x58
 .text.laImageWidget_New
                0x9d02a078       0x58 build/pic32mz_da_sk_intddr_meb2/production/_ext/1907747181/libaria_widget_image.o
                0x9d02a078                laImageWidget_New

.text.drawBorder
                0x9d02a0d0       0xb0
 .text.drawBorder
                0x9d02a0d0       0x58 build/pic32mz_da_sk_intddr_meb2/production/_ext/1907747181/libaria_widget_image_skin_classic.o
 .text.drawBorder
                0x9d02a128       0x58 build/pic32mz_da_sk_intddr_meb2/production/_ext/1907747181/libaria_widget_label_skin_classic.o

.text.createDefaultMemIntf
                0x9d02a180       0x58
 .text.createDefaultMemIntf
                0x9d02a180       0x58 build/pic32mz_da_sk_intddr_meb2/production/_ext/1597685232/gfxu_image_utils.o
                0x9d02a180                createDefaultMemIntf

.text.LibAria_Tasks
                0x9d02a1d8       0x58
 .text.LibAria_Tasks
                0x9d02a1d8       0x58 build/pic32mz_da_sk_intddr_meb2/production/_ext/590040425/libaria_harmony.o
                0x9d02a1d8                LibAria_Tasks

.text.SYS_DEVCON_SystemUnlock
                0x9d02a230       0x58
 .text.SYS_DEVCON_SystemUnlock
                0x9d02a230       0x58 build/pic32mz_da_sk_intddr_meb2/production/_ext/1796496159/sys_devcon.o
                0x9d02a230                SYS_DEVCON_SystemUnlock

.text.main_entry
                0x9d02a288       0x54
 .text.main_entry
                0x9d02a288       0x54 f:/software_installations/mplab_xc32/bin/bin/../../lib/gcc/pic32mx/4.8.3/../../../../pic32mx/lib/./proc/32MZ2064DAG176/crt0_mips32r2.o
                0x9d02a2bc                __crt0_exit

.text.GFX_Get   0x9d02a2dc       0x54
 .text.GFX_Get  0x9d02a2dc       0x54 build/pic32mz_da_sk_intddr_meb2/production/_ext/1847583374/gfx.o
                0x9d02a2dc                GFX_Get

.text.GFX_PixelBufferGet_Unsafe
                0x9d02a330       0x54
 .text.GFX_PixelBufferGet_Unsafe
                0x9d02a330       0x54 build/pic32mz_da_sk_intddr_meb2/production/_ext/1847583374/gfx_pixel_buffer.o
                0x9d02a330                GFX_PixelBufferGet_Unsafe

.text._laLayer_Postframe
                0x9d02a384       0x54
 .text._laLayer_Postframe
                0x9d02a384       0x54 build/pic32mz_da_sk_intddr_meb2/production/_ext/1907747181/libaria_layer.o
                0x9d02a384                _laLayer_Postframe

.text.laWidget_GetCumulativeAlphaEnable
                0x9d02a3d8       0x54
 .text.laWidget_GetCumulativeAlphaEnable
                0x9d02a3d8       0x54 build/pic32mz_da_sk_intddr_meb2/production/_ext/1907747181/libaria_widget.o
                0x9d02a3d8                laWidget_GetCumulativeAlphaEnable

.text._laButtonWidget_Destructor
                0x9d02a42c       0x54
 .text._laButtonWidget_Destructor
                0x9d02a42c       0x54 build/pic32mz_da_sk_intddr_meb2/production/_ext/1907747181/libaria_widget_button.o
                0x9d02a42c                _laButtonWidget_Destructor

.text._laLabelWidget_Destructor
                0x9d02a480       0x54
 .text._laLabelWidget_Destructor
                0x9d02a480       0x54 build/pic32mz_da_sk_intddr_meb2/production/_ext/1907747181/libaria_widget_label.o
                0x9d02a480                _laLabelWidget_Destructor

.text.laWidget_SkinClassic_DrawRoundCornerBackground
                0x9d02a4d4       0x54
 .text.laWidget_SkinClassic_DrawRoundCornerBackground
                0x9d02a4d4       0x54 build/pic32mz_da_sk_intddr_meb2/production/_ext/1907747181/libaria_widget_skin_classic_common.o
                0x9d02a4d4                laWidget_SkinClassic_DrawRoundCornerBackground

.text.laWidget_SkinClassic_DrawStandardBackground
                0x9d02a528       0x54
 .text.laWidget_SkinClassic_DrawStandardBackground
                0x9d02a528       0x54 build/pic32mz_da_sk_intddr_meb2/production/_ext/1907747181/libaria_widget_skin_classic_common.o
                0x9d02a528                laWidget_SkinClassic_DrawStandardBackground

.text.SYS_INT_SourceDisable
                0x9d02a57c       0x54
 .text.SYS_INT_SourceDisable
                0x9d02a57c       0x54 build/pic32mz_da_sk_intddr_meb2/production/_ext/1042686532/sys_int_pic32.o
                0x9d02a57c                SYS_INT_SourceDisable

.text.ucvector_push_back
                0x9d02a5d0       0x54
 .text.ucvector_push_back
                0x9d02a5d0       0x54 build/pic32mz_da_sk_intddr_meb2/production/_ext/493934858/lodepng.o

.text.lodepng_crc32
                0x9d02a624       0x54
 .text.lodepng_crc32
                0x9d02a624       0x54 build/pic32mz_da_sk_intddr_meb2/production/_ext/493934858/lodepng.o
                0x9d02a624                lodepng_crc32

.text.lodepng_get_raw_size_idat
                0x9d02a678       0x54
 .text.lodepng_get_raw_size_idat
                0x9d02a678       0x54 build/pic32mz_da_sk_intddr_meb2/production/_ext/493934858/lodepng.o

.text.lodepng_get_raw_size
                0x9d02a6cc       0x54
 .text.lodepng_get_raw_size
                0x9d02a6cc       0x54 build/pic32mz_da_sk_intddr_meb2/production/_ext/493934858/lodepng.o
                0x9d02a6cc                lodepng_get_raw_size

.text.SYS_CONSOLE_Write
                0x9d02a720       0x54
 .text.SYS_CONSOLE_Write
                0x9d02a720       0x54 build/pic32mz_da_sk_intddr_meb2/production/_ext/639474099/sys_console_static.o
                0x9d02a720                SYS_CONSOLE_Write

.text.GFX_PixelBufferGet
                0x9d02a774       0x50
 .text.GFX_PixelBufferGet
                0x9d02a774       0x50 build/pic32mz_da_sk_intddr_meb2/production/_ext/1847583374/gfx_pixel_buffer.o
                0x9d02a774                GFX_PixelBufferGet

.text.GFX_RectContainsPoint
                0x9d02a7c4       0x50
 .text.GFX_RectContainsPoint
                0x9d02a7c4       0x50 build/pic32mz_da_sk_intddr_meb2/production/_ext/1847583374/gfx_rect.o
                0x9d02a7c4                GFX_RectContainsPoint

.text._laLayer_Reset
                0x9d02a814       0x50
 .text._laLayer_Reset
                0x9d02a814       0x50 build/pic32mz_da_sk_intddr_meb2/production/_ext/1907747181/libaria_layer.o
                0x9d02a814                _laLayer_Reset

.text.laButtonWidget_New
                0x9d02a864       0x50
 .text.laButtonWidget_New
                0x9d02a864       0x50 build/pic32mz_da_sk_intddr_meb2/production/_ext/1907747181/libaria_widget_button.o
                0x9d02a864                laButtonWidget_New

.text.laLabelWidget_New
                0x9d02a8b4       0x50
 .text.laLabelWidget_New
                0x9d02a8b4       0x50 build/pic32mz_da_sk_intddr_meb2/production/_ext/1907747181/libaria_widget_label.o
                0x9d02a8b4                laLabelWidget_New

.text.lodepng_info_cleanup
                0x9d02a904       0x50
 .text.lodepng_info_cleanup
                0x9d02a904       0x50 build/pic32mz_da_sk_intddr_meb2/production/_ext/493934858/lodepng.o
                0x9d02a904                lodepng_info_cleanup

.text._fassert  0x9d02a954       0x50
 .text._fassert
                0x9d02a954       0x50 build/pic32mz_da_sk_intddr_meb2/production/_ext/1653314881/fassert.o
                0x9d02a954                _fassert

.text.sbrk      0x9d02a9a4       0x50
 .text.sbrk     0x9d02a9a4       0x50 f:/software_installations/mplab_xc32/bin/bin/../../lib/gcc/pic32mx/4.8.3/../../../../pic32mx/lib\libpic32.a(sbrk.o)
                0x9d02a9a4                sbrk

.text.defLayerBufferCoherentSet
                0x9d02a9f4       0x4c
 .text.defLayerBufferCoherentSet
                0x9d02a9f4       0x4c build/pic32mz_da_sk_intddr_meb2/production/_ext/1847583374/gfx_default_impl.o
                0x9d02a9f4                defLayerBufferCoherentSet

.text.laWidget_SetBorderType
                0x9d02aa40       0x4c
 .text.laWidget_SetBorderType
                0x9d02aa40       0x4c build/pic32mz_da_sk_intddr_meb2/production/_ext/1907747181/libaria_widget.o
                0x9d02aa40                laWidget_SetBorderType

.text._laWidget_Paint
                0x9d02aa8c       0x4c
 .text._laWidget_Paint
                0x9d02aa8c       0x4c build/pic32mz_da_sk_intddr_meb2/production/_ext/1907747181/libaria_widget_skin_classic.o
                0x9d02aa8c                _laWidget_Paint

.rodata         0x9d02aad8       0x4c
 .rodata        0x9d02aad8       0x4c build/pic32mz_da_sk_intddr_meb2/production/_ext/1597685232/gfxu_image_jpg_common.o

.text.readBitsFromStream
                0x9d02ab24       0x4c
 .text.readBitsFromStream
                0x9d02ab24       0x4c build/pic32mz_da_sk_intddr_meb2/production/_ext/493934858/lodepng.o

.text           0x9d02ab70       0x4c
 .text          0x9d02ab70       0x4c f:/software_installations/mplab_xc32/bin/bin/../../lib/gcc/pic32mx/4.8.3\libgcc.a(floatunsisf.o)
                0x9d02ab70                __floatunsisf

.text._mon_write
                0x9d02abbc       0x4c
 .text._mon_write
                0x9d02abbc       0x4c f:/software_installations/mplab_xc32/bin/bin/../../lib/gcc/pic32mx/4.8.3/../../../../pic32mx/lib\libpic32.a(_mon_write.o)
                0x9d02abbc                _mon_write

.text.defDrawTargetSet
                0x9d02ac08       0x48
 .text.defDrawTargetSet
                0x9d02ac08       0x48 build/pic32mz_da_sk_intddr_meb2/production/_ext/1847583374/gfx_default_impl.o
                0x9d02ac08                defDrawTargetSet

.text.defDrawClipRectGet
                0x9d02ac50       0x48
 .text.defDrawClipRectGet
                0x9d02ac50       0x48 build/pic32mz_da_sk_intddr_meb2/production/_ext/1847583374/gfx_default_impl.o
                0x9d02ac50                defDrawClipRectGet

.text.defDrawClipRectSet
                0x9d02ac98       0x48
 .text.defDrawClipRectSet
                0x9d02ac98       0x48 build/pic32mz_da_sk_intddr_meb2/production/_ext/1847583374/gfx_default_impl.o
                0x9d02ac98                defDrawClipRectSet

.text.GFX_RectCompare
                0x9d02ace0       0x48
 .text.GFX_RectCompare
                0x9d02ace0       0x48 build/pic32mz_da_sk_intddr_meb2/production/_ext/1847583374/gfx_rect.o
                0x9d02ace0                GFX_RectCompare

.text.laContext_AddScreen
                0x9d02ad28       0x48
 .text.laContext_AddScreen
                0x9d02ad28       0x48 build/pic32mz_da_sk_intddr_meb2/production/_ext/1907747181/libaria_context.o
                0x9d02ad28                laContext_AddScreen

.text.laEvent_AddEvent
                0x9d02ad70       0x48
 .text.laEvent_AddEvent
                0x9d02ad70       0x48 build/pic32mz_da_sk_intddr_meb2/production/_ext/1907747181/libaria_event.o
                0x9d02ad70                laEvent_AddEvent

.text.la_strcpy
                0x9d02adb8       0x48
 .text.la_strcpy
                0x9d02adb8       0x48 build/pic32mz_da_sk_intddr_meb2/production/_ext/1907747181/libaria_string.o

.text._laImageWidget_Destructor
                0x9d02ae00       0x48
 .text._laImageWidget_Destructor
                0x9d02ae00       0x48 build/pic32mz_da_sk_intddr_meb2/production/_ext/1907747181/libaria_widget_image.o
                0x9d02ae00                _laImageWidget_Destructor

.text.GFXU_GetStringSizeInBytes
                0x9d02ae48       0x48
 .text.GFXU_GetStringSizeInBytes
                0x9d02ae48       0x48 build/pic32mz_da_sk_intddr_meb2/production/_ext/1597685232/gfxu_string_query.o
                0x9d02ae48                GFXU_GetStringSizeInBytes

.text.SYS_INP_InjectTouchDown
                0x9d02ae90       0x48
 .text.SYS_INP_InjectTouchDown
                0x9d02ae90       0x48 build/pic32mz_da_sk_intddr_meb2/production/_ext/252650337/sys_input.o
                0x9d02ae90                SYS_INP_InjectTouchDown

.text.SYS_INP_InjectTouchUp
                0x9d02aed8       0x48
 .text.SYS_INP_InjectTouchUp
                0x9d02aed8       0x48 build/pic32mz_da_sk_intddr_meb2/production/_ext/252650337/sys_input.o
                0x9d02aed8                SYS_INP_InjectTouchUp

.text.SYS_INP_InjectTouchMove
                0x9d02af20       0x48
 .text.SYS_INP_InjectTouchMove
                0x9d02af20       0x48 build/pic32mz_da_sk_intddr_meb2/production/_ext/252650337/sys_input.o
                0x9d02af20                SYS_INP_InjectTouchMove

.text.driverGLCDInfoGet
                0x9d02af68       0x48
 .text.driverGLCDInfoGet
                0x9d02af68       0x48 build/pic32mz_da_sk_intddr_meb2/production/_ext/1094895838/drv_gfx_glcd_static.o
                0x9d02af68                driverGLCDInfoGet

.text.SYS_DEVCON_SystemLock
                0x9d02afb0       0x48
 .text.SYS_DEVCON_SystemLock
                0x9d02afb0       0x48 build/pic32mz_da_sk_intddr_meb2/production/_ext/1796496159/sys_devcon.o
                0x9d02afb0                SYS_DEVCON_SystemLock

.text._bootstrap_exception_handler
                0x9d02aff8       0x48
 .text._bootstrap_exception_handler
                0x9d02aff8       0x48 f:/software_installations/mplab_xc32/bin/bin/../../lib/gcc/pic32mx/4.8.3/../../../../pic32mx/lib\libpic32.a(default-bootstrap-exception-handler.o)
                0x9d02aff8                _bootstrap_exception_handler

.text._cache_err_exception_handler
                0x9d02b040       0x48
 .text._cache_err_exception_handler
                0x9d02b040       0x48 f:/software_installations/mplab_xc32/bin/bin/../../lib/gcc/pic32mx/4.8.3/../../../../pic32mx/lib\libpic32.a(default-cache-err-exception-handler.o)
                0x9d02b040                _cache_err_exception_handler

.text._simple_tlb_refill_exception_handler
                0x9d02b088       0x48
 .text._simple_tlb_refill_exception_handler
                0x9d02b088       0x48 f:/software_installations/mplab_xc32/bin/bin/../../lib/gcc/pic32mx/4.8.3/../../../../pic32mx/lib\libpic32.a(default-simple-tlb-refill-exception-handler.o)
                0x9d02b088                _simple_tlb_refill_exception_handler

.text.defBegin  0x9d02b0d0       0x44
 .text.defBegin
                0x9d02b0d0       0x44 build/pic32mz_da_sk_intddr_meb2/production/_ext/1847583374/gfx_default_impl.o
                0x9d02b0d0                defBegin

.text.defLayerBufferIsAllocated
                0x9d02b114       0x44
 .text.defLayerBufferIsAllocated
                0x9d02b114       0x44 build/pic32mz_da_sk_intddr_meb2/production/_ext/1847583374/gfx_default_impl.o
                0x9d02b114                defLayerBufferIsAllocated

.text.get_layerBufferAddress
                0x9d02b158       0x44
 .text.get_layerBufferAddress
                0x9d02b158       0x44 build/pic32mz_da_sk_intddr_meb2/production/_ext/1847583374/gfx_get.o
                0x9d02b158                get_layerBufferAddress

.text.get_layerBufferCoherent
                0x9d02b19c       0x44
 .text.get_layerBufferCoherent
                0x9d02b19c       0x44 build/pic32mz_da_sk_intddr_meb2/production/_ext/1847583374/gfx_get.o
                0x9d02b19c                get_layerBufferCoherent

.text.get_layerBufferAllocated
                0x9d02b1e0       0x44
 .text.get_layerBufferAllocated
                0x9d02b1e0       0x44 build/pic32mz_da_sk_intddr_meb2/production/_ext/1847583374/gfx_get.o
                0x9d02b1e0                get_layerBufferAllocated

.text.invalidateImageRect
                0x9d02b224       0x44
 .text.invalidateImageRect
                0x9d02b224       0x44 build/pic32mz_da_sk_intddr_meb2/production/_ext/1907747181/libaria_widget_image.o

.text.invalidateTextRect
                0x9d02b268       0x44
 .text.invalidateTextRect
                0x9d02b268       0x44 build/pic32mz_da_sk_intddr_meb2/production/_ext/1907747181/libaria_widget_label.o

.text.GFXU_DrawGlyphRow
                0x9d02b2ac       0x44
 .text.GFXU_DrawGlyphRow
                0x9d02b2ac       0x44 build/pic32mz_da_sk_intddr_meb2/production/_ext/1597685232/gfxu_string_utils.o
                0x9d02b2ac                GFXU_DrawGlyphRow

.text.SYS_INP_Init
                0x9d02b2f0       0x44
 .text.SYS_INP_Init
                0x9d02b2f0       0x44 build/pic32mz_da_sk_intddr_meb2/production/_ext/252650337/sys_input.o
                0x9d02b2f0                SYS_INP_Init

.text.lodepng_encoder_settings_init
                0x9d02b334       0x44
 .text.lodepng_encoder_settings_init
                0x9d02b334       0x44 build/pic32mz_da_sk_intddr_meb2/production/_ext/493934858/lodepng.o
                0x9d02b334                lodepng_encoder_settings_init

.text.lodepng_state_init
                0x9d02b378       0x44
 .text.lodepng_state_init
                0x9d02b378       0x44 build/pic32mz_da_sk_intddr_meb2/production/_ext/493934858/lodepng.o
                0x9d02b378                lodepng_state_init

.text.glcdDestroy
                0x9d02b3bc       0x44
 .text.glcdDestroy
                0x9d02b3bc       0x44 build/pic32mz_da_sk_intddr_meb2/production/_ext/1094895838/drv_gfx_glcd_static.o

.text           0x9d02b400       0x44
 .text          0x9d02b400       0x44 f:/software_installations/mplab_xc32/bin/bin/../../lib/gcc/pic32mx/4.8.3/../../../../pic32mx/lib\pic32_software_reset.o
                0x9d02b400                __pic32_software_reset

.text.defBrightnessSet
                0x9d02b444       0x40
 .text.defBrightnessSet
                0x9d02b444       0x40 build/pic32mz_da_sk_intddr_meb2/production/_ext/1847583374/gfx_default_impl.o
                0x9d02b444                defBrightnessSet

.text.get_drawGradientColor
                0x9d02b484       0x40
 .text.get_drawGradientColor
                0x9d02b484       0x40 build/pic32mz_da_sk_intddr_meb2/production/_ext/1847583374/gfx_get.o
                0x9d02b484                get_drawGradientColor

.text.rgba5551_rgba8888
                0x9d02b4c4       0x40
 .text.rgba5551_rgba8888
                0x9d02b4c4       0x40 build/pic32mz_da_sk_intddr_meb2/production/_ext/1847583374/gfx_color_convert.o

.text.rgba5551_argb8888
                0x9d02b504       0x40
 .text.rgba5551_argb8888
                0x9d02b504       0x40 build/pic32mz_da_sk_intddr_meb2/production/_ext/1847583374/gfx_color_convert.o

.text.GFX_ColorConvert
                0x9d02b544       0x40
 .text.GFX_ColorConvert
                0x9d02b544       0x40 build/pic32mz_da_sk_intddr_meb2/production/_ext/1847583374/gfx_color_convert.o
                0x9d02b544                GFX_ColorConvert

.text.laContext_Update
                0x9d02b584       0x40
 .text.laContext_Update
                0x9d02b584       0x40 build/pic32mz_da_sk_intddr_meb2/production/_ext/1907747181/libaria_context.o
                0x9d02b584                laContext_Update

.text.laWidget_GetIndexOfChild
                0x9d02b5c4       0x40
 .text.laWidget_GetIndexOfChild
                0x9d02b5c4       0x40 build/pic32mz_da_sk_intddr_meb2/production/_ext/1907747181/libaria_widget.o
                0x9d02b5c4                laWidget_GetIndexOfChild

.text.lodepng_realloc
                0x9d02b604       0x40
 .text.lodepng_realloc
                0x9d02b604       0x40 build/pic32mz_da_sk_intddr_meb2/production/_ext/1597685232/gfxu_image_png_internal.o
                0x9d02b604                lodepng_realloc

.text.internalMemoryRead
                0x9d02b644       0x40
 .text.internalMemoryRead
                0x9d02b644       0x40 build/pic32mz_da_sk_intddr_meb2/production/_ext/1597685232/gfxu_image_jpg_internal.o

.text.ucvector_resize
                0x9d02b684       0x40
 .text.ucvector_resize
                0x9d02b684       0x40 build/pic32mz_da_sk_intddr_meb2/production/_ext/493934858/lodepng.o

.text.string_init
                0x9d02b6c4       0x40
 .text.string_init
                0x9d02b6c4       0x40 build/pic32mz_da_sk_intddr_meb2/production/_ext/493934858/lodepng.o

.text.glcdUpdate
                0x9d02b704       0x40
 .text.glcdUpdate
                0x9d02b704       0x40 build/pic32mz_da_sk_intddr_meb2/production/_ext/1094895838/drv_gfx_glcd_static.o

.rodata         0x9d02b744       0x3c
 .rodata        0x9d02b744       0x3c build/pic32mz_da_sk_intddr_meb2/production/_ext/1360937237/app.o

.text._DRV_I2C_IsQueueEmpty
                0x9d02b780       0x3c
 .text._DRV_I2C_IsQueueEmpty
                0x9d02b780       0x3c build/pic32mz_da_sk_intddr_meb2/production/_ext/475095144/drv_i2c_bb_a.o
                0x9d02b780                _DRV_I2C_IsQueueEmpty

.text.defVSyncCallbackSet
                0x9d02b7bc       0x3c
 .text.defVSyncCallbackSet
                0x9d02b7bc       0x3c build/pic32mz_da_sk_intddr_meb2/production/_ext/1847583374/gfx_default_impl.o
                0x9d02b7bc                defVSyncCallbackSet

.text.defHSyncCallbackSet
                0x9d02b7f8       0x3c
 .text.defHSyncCallbackSet
                0x9d02b7f8       0x3c build/pic32mz_da_sk_intddr_meb2/production/_ext/1847583374/gfx_default_impl.o
                0x9d02b7f8                defHSyncCallbackSet

.text.defLayerBufferAddressGet
                0x9d02b834       0x3c
 .text.defLayerBufferAddressGet
                0x9d02b834       0x3c build/pic32mz_da_sk_intddr_meb2/production/_ext/1847583374/gfx_default_impl.o
                0x9d02b834                defLayerBufferAddressGet

.text.defLayerBufferCoherentGet
                0x9d02b870       0x3c
 .text.defLayerBufferCoherentGet
                0x9d02b870       0x3c build/pic32mz_da_sk_intddr_meb2/production/_ext/1847583374/gfx_default_impl.o
                0x9d02b870                defLayerBufferCoherentGet

.text.defLayerAlphaAmountSet
                0x9d02b8ac       0x3c
 .text.defLayerAlphaAmountSet
                0x9d02b8ac       0x3c build/pic32mz_da_sk_intddr_meb2/production/_ext/1847583374/gfx_default_impl.o
                0x9d02b8ac                defLayerAlphaAmountSet

.text.GFX_RectToPoints
                0x9d02b8e8       0x3c
 .text.GFX_RectToPoints
                0x9d02b8e8       0x3c build/pic32mz_da_sk_intddr_meb2/production/_ext/1847583374/gfx_rect.o
                0x9d02b8e8                GFX_RectToPoints

.text.set_layerAlphaEnable
                0x9d02b924       0x3c
 .text.set_layerAlphaEnable
                0x9d02b924       0x3c build/pic32mz_da_sk_intddr_meb2/production/_ext/1847583374/gfx_set.o
                0x9d02b924                set_layerAlphaEnable

.text.set_layerAlphaAmount
                0x9d02b960       0x3c
 .text.set_layerAlphaAmount
                0x9d02b960       0x3c build/pic32mz_da_sk_intddr_meb2/production/_ext/1847583374/gfx_set.o
                0x9d02b960                set_layerAlphaAmount

.text.set_layerMaskEnable
                0x9d02b99c       0x3c
 .text.set_layerMaskEnable
                0x9d02b99c       0x3c build/pic32mz_da_sk_intddr_meb2/production/_ext/1847583374/gfx_set.o
                0x9d02b99c                set_layerMaskEnable

.text.set_layerMaskColor
                0x9d02b9d8       0x3c
 .text.set_layerMaskColor
                0x9d02b9d8       0x3c build/pic32mz_da_sk_intddr_meb2/production/_ext/1847583374/gfx_set.o
                0x9d02b9d8                set_layerMaskColor

.text.set_drawGradientColor
                0x9d02ba14       0x3c
 .text.set_drawGradientColor
                0x9d02ba14       0x3c build/pic32mz_da_sk_intddr_meb2/production/_ext/1847583374/gfx_set.o
                0x9d02ba14                set_drawGradientColor

.text.laContext_GetActiveScreenIndex
                0x9d02ba50       0x3c
 .text.laContext_GetActiveScreenIndex
                0x9d02ba50       0x3c build/pic32mz_da_sk_intddr_meb2/production/_ext/1907747181/libaria_context.o
                0x9d02ba50                laContext_GetActiveScreenIndex

.text.zlib_decompress
                0x9d02ba8c       0x3c
 .text.zlib_decompress
                0x9d02ba8c       0x3c build/pic32mz_da_sk_intddr_meb2/production/_ext/493934858/lodepng.o

.text.lodepng_compress_settings_init
                0x9d02bac8       0x3c
 .text.lodepng_compress_settings_init
                0x9d02bac8       0x3c build/pic32mz_da_sk_intddr_meb2/production/_ext/493934858/lodepng.o
                0x9d02bac8                lodepng_compress_settings_init

.text.lodepng_palette_clear
                0x9d02bb04       0x3c
 .text.lodepng_palette_clear
                0x9d02bb04       0x3c build/pic32mz_da_sk_intddr_meb2/production/_ext/493934858/lodepng.o
                0x9d02bb04                lodepng_palette_clear

.rodata         0x9d02bb40       0x3c
 .rodata        0x9d02bb40       0x3c build/pic32mz_da_sk_intddr_meb2/production/_ext/1653314881/fassert.o

.text._DRV_I2C_Advance_Queue
                0x9d02bb7c       0x38
 .text._DRV_I2C_Advance_Queue
                0x9d02bb7c       0x38 build/pic32mz_da_sk_intddr_meb2/production/_ext/475095144/drv_i2c_bb_a.o
                0x9d02bb7c                _DRV_I2C_Advance_Queue

.text.GFX_Update
                0x9d02bbb4       0x38
 .text.GFX_Update
                0x9d02bbb4       0x38 build/pic32mz_da_sk_intddr_meb2/production/_ext/1847583374/gfx.o
                0x9d02bbb4                GFX_Update

.text.GFX_Begin
                0x9d02bbec       0x38
 .text.GFX_Begin
                0x9d02bbec       0x38 build/pic32mz_da_sk_intddr_meb2/production/_ext/1847583374/gfx.o
                0x9d02bbec                GFX_Begin

.text.GFX_DriverIntfGet
                0x9d02bc24       0x38
 .text.GFX_DriverIntfGet
                0x9d02bc24       0x38 build/pic32mz_da_sk_intddr_meb2/production/_ext/1847583374/gfx_driver_interface.o
                0x9d02bc24                GFX_DriverIntfGet

.text.get_brightness
                0x9d02bc5c       0x38
 .text.get_brightness
                0x9d02bc5c       0x38 build/pic32mz_da_sk_intddr_meb2/production/_ext/1847583374/gfx_get.o
                0x9d02bc5c                get_brightness

.text.get_vsyncCallback
                0x9d02bc94       0x38
 .text.get_vsyncCallback
                0x9d02bc94       0x38 build/pic32mz_da_sk_intddr_meb2/production/_ext/1847583374/gfx_get.o
                0x9d02bc94                get_vsyncCallback

.text.get_hsyncCallback
                0x9d02bccc       0x38
 .text.get_hsyncCallback
                0x9d02bccc       0x38 build/pic32mz_da_sk_intddr_meb2/production/_ext/1847583374/gfx_get.o
                0x9d02bccc                get_hsyncCallback

.text.get_orientation
                0x9d02bd04       0x38
 .text.get_orientation
                0x9d02bd04       0x38 build/pic32mz_da_sk_intddr_meb2/production/_ext/1847583374/gfx_get.o
                0x9d02bd04                get_orientation

.text.get_mirroring
                0x9d02bd3c       0x38
 .text.get_mirroring
                0x9d02bd3c       0x38 build/pic32mz_da_sk_intddr_meb2/production/_ext/1847583374/gfx_get.o
                0x9d02bd3c                get_mirroring

.text.get_colorMode
                0x9d02bd74       0x38
 .text.get_colorMode
                0x9d02bd74       0x38 build/pic32mz_da_sk_intddr_meb2/production/_ext/1847583374/gfx_get.o
                0x9d02bd74                get_colorMode

.text.get_globalPalette
                0x9d02bdac       0x38
 .text.get_globalPalette
                0x9d02bdac       0x38 build/pic32mz_da_sk_intddr_meb2/production/_ext/1847583374/gfx_get.o
                0x9d02bdac                get_globalPalette

.text.get_layerEnabled
                0x9d02bde4       0x38
 .text.get_layerEnabled
                0x9d02bde4       0x38 build/pic32mz_da_sk_intddr_meb2/production/_ext/1847583374/gfx_get.o
                0x9d02bde4                get_layerEnabled

.text.get_layerVisible
                0x9d02be1c       0x38
 .text.get_layerVisible
                0x9d02be1c       0x38 build/pic32mz_da_sk_intddr_meb2/production/_ext/1847583374/gfx_get.o
                0x9d02be1c                get_layerVisible

.text.get_layerInvalid
                0x9d02be54       0x38
 .text.get_layerInvalid
                0x9d02be54       0x38 build/pic32mz_da_sk_intddr_meb2/production/_ext/1847583374/gfx_get.o
                0x9d02be54                get_layerInvalid

.text.get_layerVsync
                0x9d02be8c       0x38
 .text.get_layerVsync
                0x9d02be8c       0x38 build/pic32mz_da_sk_intddr_meb2/production/_ext/1847583374/gfx_get.o
                0x9d02be8c                get_layerVsync

.text.get_layerSwapSync
                0x9d02bec4       0x38
 .text.get_layerSwapSync
                0x9d02bec4       0x38 build/pic32mz_da_sk_intddr_meb2/production/_ext/1847583374/gfx_get.o
                0x9d02bec4                get_layerSwapSync

.text.get_layerSwap
                0x9d02befc       0x38
 .text.get_layerSwap
                0x9d02befc       0x38 build/pic32mz_da_sk_intddr_meb2/production/_ext/1847583374/gfx_get.o
                0x9d02befc                get_layerSwap

.text.get_layerAlphaEnable
                0x9d02bf34       0x38
 .text.get_layerAlphaEnable
                0x9d02bf34       0x38 build/pic32mz_da_sk_intddr_meb2/production/_ext/1847583374/gfx_get.o
                0x9d02bf34                get_layerAlphaEnable

.text.get_layerAlphaAmount
                0x9d02bf6c       0x38
 .text.get_layerAlphaAmount
                0x9d02bf6c       0x38 build/pic32mz_da_sk_intddr_meb2/production/_ext/1847583374/gfx_get.o
                0x9d02bf6c                get_layerAlphaAmount

.text.get_layerMaskEnable
                0x9d02bfa4       0x38
 .text.get_layerMaskEnable
                0x9d02bfa4       0x38 build/pic32mz_da_sk_intddr_meb2/production/_ext/1847583374/gfx_get.o
                0x9d02bfa4                get_layerMaskEnable

.text.get_layerMaskColor
                0x9d02bfdc       0x38
 .text.get_layerMaskColor
                0x9d02bfdc       0x38 build/pic32mz_da_sk_intddr_meb2/production/_ext/1847583374/gfx_get.o
                0x9d02bfdc                get_layerMaskColor

.text.get_layerBufferCount
                0x9d02c014       0x38
 .text.get_layerBufferCount
                0x9d02c014       0x38 build/pic32mz_da_sk_intddr_meb2/production/_ext/1847583374/gfx_get.o
                0x9d02c014                get_layerBufferCount

.text.get_drawPipelineMode
                0x9d02c04c       0x38
 .text.get_drawPipelineMode
                0x9d02c04c       0x38 build/pic32mz_da_sk_intddr_meb2/production/_ext/1847583374/gfx_get.o
                0x9d02c04c                get_drawPipelineMode

.text.get_drawMode
                0x9d02c084       0x38
 .text.get_drawMode
                0x9d02c084       0x38 build/pic32mz_da_sk_intddr_meb2/production/_ext/1847583374/gfx_get.o
                0x9d02c084                get_drawMode

.text.get_drawColor
                0x9d02c0bc       0x38
 .text.get_drawColor
                0x9d02c0bc       0x38 build/pic32mz_da_sk_intddr_meb2/production/_ext/1847583374/gfx_get.o
                0x9d02c0bc                get_drawColor

.text.get_drawBlendMode
                0x9d02c0f4       0x38
 .text.get_drawBlendMode
                0x9d02c0f4       0x38 build/pic32mz_da_sk_intddr_meb2/production/_ext/1847583374/gfx_get.o
                0x9d02c0f4                get_drawBlendMode

.text.get_drawResizeMode
                0x9d02c12c       0x38
 .text.get_drawResizeMode
                0x9d02c12c       0x38 build/pic32mz_da_sk_intddr_meb2/production/_ext/1847583374/gfx_get.o
                0x9d02c12c                get_drawResizeMode

.text.get_drawAlphaEnable
                0x9d02c164       0x38
 .text.get_drawAlphaEnable
                0x9d02c164       0x38 build/pic32mz_da_sk_intddr_meb2/production/_ext/1847583374/gfx_get.o
                0x9d02c164                get_drawAlphaEnable

.text.get_drawAlphaValue
                0x9d02c19c       0x38
 .text.get_drawAlphaValue
                0x9d02c19c       0x38 build/pic32mz_da_sk_intddr_meb2/production/_ext/1847583374/gfx_get.o
                0x9d02c19c                get_drawAlphaValue

.text.get_drawMaskEnable
                0x9d02c1d4       0x38
 .text.get_drawMaskEnable
                0x9d02c1d4       0x38 build/pic32mz_da_sk_intddr_meb2/production/_ext/1847583374/gfx_get.o
                0x9d02c1d4                get_drawMaskEnable

.text.get_drawMaskValue
                0x9d02c20c       0x38
 .text.get_drawMaskValue
                0x9d02c20c       0x38 build/pic32mz_da_sk_intddr_meb2/production/_ext/1847583374/gfx_get.o
                0x9d02c20c                get_drawMaskValue

.text.get_drawThickness
                0x9d02c244       0x38
 .text.get_drawThickness
                0x9d02c244       0x38 build/pic32mz_da_sk_intddr_meb2/production/_ext/1847583374/gfx_get.o
                0x9d02c244                get_drawThickness

.text.get_drawClipEnable
                0x9d02c27c       0x38
 .text.get_drawClipEnable
                0x9d02c27c       0x38 build/pic32mz_da_sk_intddr_meb2/production/_ext/1847583374/gfx_get.o
                0x9d02c27c                get_drawClipEnable

.text.GFX_PixelBufferOffsetGet_Unsafe
                0x9d02c2b4       0x38
 .text.GFX_PixelBufferOffsetGet_Unsafe
                0x9d02c2b4       0x38 build/pic32mz_da_sk_intddr_meb2/production/_ext/1847583374/gfx_pixel_buffer.o
                0x9d02c2b4                GFX_PixelBufferOffsetGet_Unsafe

.text.GFX_UtilOrientPoint
                0x9d02c2ec       0x38
 .text.GFX_UtilOrientPoint
                0x9d02c2ec       0x38 build/pic32mz_da_sk_intddr_meb2/production/_ext/1847583374/gfx_util.o
                0x9d02c2ec                GFX_UtilOrientPoint

.text.GFX_UtilMirrorPoint
                0x9d02c324       0x38
 .text.GFX_UtilMirrorPoint
                0x9d02c324       0x38 build/pic32mz_da_sk_intddr_meb2/production/_ext/1847583374/gfx_util.o
                0x9d02c324                GFX_UtilMirrorPoint

.text.laInitialize
                0x9d02c35c       0x38
 .text.laInitialize
                0x9d02c35c       0x38 build/pic32mz_da_sk_intddr_meb2/production/_ext/1907747181/libaria.o
                0x9d02c35c                laInitialize

.text.laEditWidget_StartEdit
                0x9d02c394       0x38
 .text.laEditWidget_StartEdit
                0x9d02c394       0x38 build/pic32mz_da_sk_intddr_meb2/production/_ext/1907747181/libaria_editwidget.o
                0x9d02c394                laEditWidget_StartEdit

.text.laUtils_ScreenToOrientedSpace
                0x9d02c3cc       0x38
 .text.laUtils_ScreenToOrientedSpace
                0x9d02c3cc       0x38 build/pic32mz_da_sk_intddr_meb2/production/_ext/1907747181/libaria_utils.o
                0x9d02c3cc                laUtils_ScreenToOrientedSpace

.text.laUtils_ScreenToMirroredSpace
                0x9d02c404       0x38
 .text.laUtils_ScreenToMirroredSpace
                0x9d02c404       0x38 build/pic32mz_da_sk_intddr_meb2/production/_ext/1907747181/libaria_utils.o
                0x9d02c404                laUtils_ScreenToMirroredSpace

.text.languageChanging
                0x9d02c43c       0x70
 .text.languageChanging
                0x9d02c43c       0x38 build/pic32mz_da_sk_intddr_meb2/production/_ext/1907747181/libaria_widget_button.o
 .text.languageChanging
                0x9d02c474       0x38 build/pic32mz_da_sk_intddr_meb2/production/_ext/1907747181/libaria_widget_label.o

.text.lodepng_free
                0x9d02c4ac       0x38
 .text.lodepng_free
                0x9d02c4ac       0x38 build/pic32mz_da_sk_intddr_meb2/production/_ext/1597685232/gfxu_image_png_internal.o
                0x9d02c4ac                lodepng_free

.text.GFXU_DecodeCodePoint
                0x9d02c4e4       0x38
 .text.GFXU_DecodeCodePoint
                0x9d02c4e4       0x38 build/pic32mz_da_sk_intddr_meb2/production/_ext/1597685232/gfxu_string_utils.o
                0x9d02c4e4                GFXU_DecodeCodePoint

.text.HuffmanTree_cleanup
                0x9d02c51c       0x38
 .text.HuffmanTree_cleanup
                0x9d02c51c       0x38 build/pic32mz_da_sk_intddr_meb2/production/_ext/493934858/lodepng.o

.text.layerAlphaAmountGet
                0x9d02c554       0x38
 .text.layerAlphaAmountGet
                0x9d02c554       0x38 build/pic32mz_da_sk_intddr_meb2/production/_ext/1094895838/drv_gfx_glcd_static.o

.text.APP_Initialize
                0x9d02c58c       0x34
 .text.APP_Initialize
                0x9d02c58c       0x34 build/pic32mz_da_sk_intddr_meb2/production/_ext/1360937237/app.o
                0x9d02c58c                APP_Initialize

.text.defLayerBufferFree
                0x9d02c5c0       0x34
 .text.defLayerBufferFree
                0x9d02c5c0       0x34 build/pic32mz_da_sk_intddr_meb2/production/_ext/1847583374/gfx_default_impl.o
                0x9d02c5c0                defLayerBufferFree

.text.defLayerBufferAllocate
                0x9d02c5f4       0x34
 .text.defLayerBufferAllocate
                0x9d02c5f4       0x34 build/pic32mz_da_sk_intddr_meb2/production/_ext/1847583374/gfx_default_impl.o
                0x9d02c5f4                defLayerBufferAllocate

.text.get_driverInfo
                0x9d02c628       0x34
 .text.get_driverInfo
                0x9d02c628       0x34 build/pic32mz_da_sk_intddr_meb2/production/_ext/1847583374/gfx_get.o
                0x9d02c628                get_driverInfo

.text.get_brightnessRange
                0x9d02c65c       0x34
 .text.get_brightnessRange
                0x9d02c65c       0x34 build/pic32mz_da_sk_intddr_meb2/production/_ext/1847583374/gfx_get.o
                0x9d02c65c                get_brightnessRange

.text.get_layerCount
                0x9d02c690       0x34
 .text.get_layerCount
                0x9d02c690       0x34 build/pic32mz_da_sk_intddr_meb2/production/_ext/1847583374/gfx_get.o
                0x9d02c690                get_layerCount

.text.get_layerActive
                0x9d02c6c4       0x34
 .text.get_layerActive
                0x9d02c6c4       0x34 build/pic32mz_da_sk_intddr_meb2/production/_ext/1847583374/gfx_get.o
                0x9d02c6c4                get_layerActive

.text.get_layerPosition
                0x9d02c6f8       0x34
 .text.get_layerPosition
                0x9d02c6f8       0x34 build/pic32mz_da_sk_intddr_meb2/production/_ext/1847583374/gfx_get.o
                0x9d02c6f8                get_layerPosition

.text.get_layerSize
                0x9d02c72c       0x34
 .text.get_layerSize
                0x9d02c72c       0x34 build/pic32mz_da_sk_intddr_meb2/production/_ext/1847583374/gfx_get.o
                0x9d02c72c                get_layerSize

.text.get_drawPalette
                0x9d02c760       0x34
 .text.get_drawPalette
                0x9d02c760       0x34 build/pic32mz_da_sk_intddr_meb2/production/_ext/1847583374/gfx_get.o
                0x9d02c760                get_drawPalette

.text.get_drawTarget
                0x9d02c794       0x34
 .text.get_drawTarget
                0x9d02c794       0x34 build/pic32mz_da_sk_intddr_meb2/production/_ext/1847583374/gfx_get.o
                0x9d02c794                get_drawTarget

.text.set_layerPosition
                0x9d02c7c8       0x34
 .text.set_layerPosition
                0x9d02c7c8       0x34 build/pic32mz_da_sk_intddr_meb2/production/_ext/1847583374/gfx_set.o
                0x9d02c7c8                set_layerPosition

.text.set_layerSize
                0x9d02c7fc       0x34
 .text.set_layerSize
                0x9d02c7fc       0x34 build/pic32mz_da_sk_intddr_meb2/production/_ext/1847583374/gfx_set.o
                0x9d02c7fc                set_layerSize

.text.set_layerBufferAddress
                0x9d02c830       0x34
 .text.set_layerBufferAddress
                0x9d02c830       0x34 build/pic32mz_da_sk_intddr_meb2/production/_ext/1847583374/gfx_set.o
                0x9d02c830                set_layerBufferAddress

.text.set_layerBufferCoherent
                0x9d02c864       0x34
 .text.set_layerBufferCoherent
                0x9d02c864       0x34 build/pic32mz_da_sk_intddr_meb2/production/_ext/1847583374/gfx_set.o
                0x9d02c864                set_layerBufferCoherent

.text.rgba8888_rgba5551
                0x9d02c898       0x34
 .text.rgba8888_rgba5551
                0x9d02c898       0x34 build/pic32mz_da_sk_intddr_meb2/production/_ext/1847583374/gfx_color_convert.o

.text.laInput_SetEnabled
                0x9d02c8cc       0x34
 .text.laInput_SetEnabled
                0x9d02c8cc       0x34 build/pic32mz_da_sk_intddr_meb2/production/_ext/1907747181/libaria_input.o
                0x9d02c8cc                laInput_SetEnabled

.text.la_strlen
                0x9d02c900       0x34
 .text.la_strlen
                0x9d02c900       0x34 build/pic32mz_da_sk_intddr_meb2/production/_ext/1907747181/libaria_string.o

.text.laWidget_GetChildAtIndex
                0x9d02c934       0x34
 .text.laWidget_GetChildAtIndex
                0x9d02c934       0x34 build/pic32mz_da_sk_intddr_meb2/production/_ext/1907747181/libaria_widget.o
                0x9d02c934                laWidget_GetChildAtIndex

.text.uivector_cleanup
                0x9d02c968       0x34
 .text.uivector_cleanup
                0x9d02c968       0x34 build/pic32mz_da_sk_intddr_meb2/production/_ext/493934858/lodepng.o

.text.ucvector_cleanup
                0x9d02c99c       0x34
 .text.ucvector_cleanup
                0x9d02c99c       0x34 build/pic32mz_da_sk_intddr_meb2/production/_ext/493934858/lodepng.o

.text._filbuf_simple
                0x9d02c9d0       0x34
 .text._filbuf_simple
                0x9d02c9d0       0x34 f:/software_installations/mplab_xc32/bin/bin/../../lib/gcc/pic32mx/4.8.3/../../../../pic32mx/lib\liblega-c.a(_iobfuncs.o)
                0x9d02c9d0                _filbuf_simple

.text.__pic32_alloc_coherent
                0x9d02ca04       0x30
 .text.__pic32_alloc_coherent
                0x9d02ca04       0x30 build/pic32mz_da_sk_intddr_meb2/production/_ext/1847583374/gfx.o

.text.GFX_End   0x9d02ca34       0x30
 .text.GFX_End  0x9d02ca34       0x30 build/pic32mz_da_sk_intddr_meb2/production/_ext/1847583374/gfx.o
                0x9d02ca34                GFX_End

.text.defLayerEnabledSet
                0x9d02ca64       0x30
 .text.defLayerEnabledSet
                0x9d02ca64       0x30 build/pic32mz_da_sk_intddr_meb2/production/_ext/1847583374/gfx_default_impl.o
                0x9d02ca64                defLayerEnabledSet

.text.defLayerVisibleSet
                0x9d02ca94       0x30
 .text.defLayerVisibleSet
                0x9d02ca94       0x30 build/pic32mz_da_sk_intddr_meb2/production/_ext/1847583374/gfx_default_impl.o
                0x9d02ca94                defLayerVisibleSet

.text.defLayerVsyncSet
                0x9d02cac4       0x30
 .text.defLayerVsyncSet
                0x9d02cac4       0x30 build/pic32mz_da_sk_intddr_meb2/production/_ext/1847583374/gfx_default_impl.o
                0x9d02cac4                defLayerVsyncSet

.text.defLayerInvalidSet
                0x9d02caf4       0x30
 .text.defLayerInvalidSet
                0x9d02caf4       0x30 build/pic32mz_da_sk_intddr_meb2/production/_ext/1847583374/gfx_default_impl.o
                0x9d02caf4                defLayerInvalidSet

.text.defLayerAlphaEnableSet
                0x9d02cb24       0x30
 .text.defLayerAlphaEnableSet
                0x9d02cb24       0x30 build/pic32mz_da_sk_intddr_meb2/production/_ext/1847583374/gfx_default_impl.o
                0x9d02cb24                defLayerAlphaEnableSet

.text.defLayerMaskEnableSet
                0x9d02cb54       0x30
 .text.defLayerMaskEnableSet
                0x9d02cb54       0x30 build/pic32mz_da_sk_intddr_meb2/production/_ext/1847583374/gfx_default_impl.o
                0x9d02cb54                defLayerMaskEnableSet

.text.defLayerMaskColorSet
                0x9d02cb84       0x30
 .text.defLayerMaskColorSet
                0x9d02cb84       0x30 build/pic32mz_da_sk_intddr_meb2/production/_ext/1847583374/gfx_default_impl.o
                0x9d02cb84                defLayerMaskColorSet

.text.defDrawTargetGet
                0x9d02cbb4       0x30
 .text.defDrawTargetGet
                0x9d02cbb4       0x30 build/pic32mz_da_sk_intddr_meb2/production/_ext/1847583374/gfx_default_impl.o
                0x9d02cbb4                defDrawTargetGet

.text.get_drawClipRect
                0x9d02cbe4       0x30
 .text.get_drawClipRect
                0x9d02cbe4       0x30 build/pic32mz_da_sk_intddr_meb2/production/_ext/1847583374/gfx_get.o
                0x9d02cbe4                get_drawClipRect

.text.orient_180
                0x9d02cc14       0x30
 .text.orient_180
                0x9d02cc14       0x30 build/pic32mz_da_sk_intddr_meb2/production/_ext/1847583374/gfx_util.o

.text.GFX_UtilSizeFromOrientedSpace
                0x9d02cc44       0x30
 .text.GFX_UtilSizeFromOrientedSpace
                0x9d02cc44       0x30 build/pic32mz_da_sk_intddr_meb2/production/_ext/1847583374/gfx_util.o
                0x9d02cc44                GFX_UtilSizeFromOrientedSpace

.text.set_brightness
                0x9d02cc74       0x30
 .text.set_brightness
                0x9d02cc74       0x30 build/pic32mz_da_sk_intddr_meb2/production/_ext/1847583374/gfx_set.o
                0x9d02cc74                set_brightness

.text.set_vsyncCallback
                0x9d02cca4       0x30
 .text.set_vsyncCallback
                0x9d02cca4       0x30 build/pic32mz_da_sk_intddr_meb2/production/_ext/1847583374/gfx_set.o
                0x9d02cca4                set_vsyncCallback

.text.set_hsyncCallback
                0x9d02ccd4       0x30
 .text.set_hsyncCallback
                0x9d02ccd4       0x30 build/pic32mz_da_sk_intddr_meb2/production/_ext/1847583374/gfx_set.o
                0x9d02ccd4                set_hsyncCallback

.text.set_orientation
                0x9d02cd04       0x30
 .text.set_orientation
                0x9d02cd04       0x30 build/pic32mz_da_sk_intddr_meb2/production/_ext/1847583374/gfx_set.o
                0x9d02cd04                set_orientation

.text.set_mirroring
                0x9d02cd34       0x30
 .text.set_mirroring
                0x9d02cd34       0x30 build/pic32mz_da_sk_intddr_meb2/production/_ext/1847583374/gfx_set.o
                0x9d02cd34                set_mirroring

.text.set_colorMode
                0x9d02cd64       0x30
 .text.set_colorMode
                0x9d02cd64       0x30 build/pic32mz_da_sk_intddr_meb2/production/_ext/1847583374/gfx_set.o
                0x9d02cd64                set_colorMode

.text.set_globalPalette
                0x9d02cd94       0x30
 .text.set_globalPalette
                0x9d02cd94       0x30 build/pic32mz_da_sk_intddr_meb2/production/_ext/1847583374/gfx_set.o
                0x9d02cd94                set_globalPalette

.text.set_layerActive
                0x9d02cdc4       0x30
 .text.set_layerActive
                0x9d02cdc4       0x30 build/pic32mz_da_sk_intddr_meb2/production/_ext/1847583374/gfx_set.o
                0x9d02cdc4                set_layerActive

.text.set_layerEnabled
                0x9d02cdf4       0x30
 .text.set_layerEnabled
                0x9d02cdf4       0x30 build/pic32mz_da_sk_intddr_meb2/production/_ext/1847583374/gfx_set.o
                0x9d02cdf4                set_layerEnabled

.text.set_layerVisible
                0x9d02ce24       0x30
 .text.set_layerVisible
                0x9d02ce24       0x30 build/pic32mz_da_sk_intddr_meb2/production/_ext/1847583374/gfx_set.o
                0x9d02ce24                set_layerVisible

.text.set_layerInvalid
                0x9d02ce54       0x30
 .text.set_layerInvalid
                0x9d02ce54       0x30 build/pic32mz_da_sk_intddr_meb2/production/_ext/1847583374/gfx_set.o
                0x9d02ce54                set_layerInvalid

.text.set_layerVsync
                0x9d02ce84       0x30
 .text.set_layerVsync
                0x9d02ce84       0x30 build/pic32mz_da_sk_intddr_meb2/production/_ext/1847583374/gfx_set.o
                0x9d02ce84                set_layerVsync

.text.set_layerSwapSync
                0x9d02ceb4       0x30
 .text.set_layerSwapSync
                0x9d02ceb4       0x30 build/pic32mz_da_sk_intddr_meb2/production/_ext/1847583374/gfx_set.o
                0x9d02ceb4                set_layerSwapSync

.text.set_layerSwap
                0x9d02cee4       0x30
 .text.set_layerSwap
                0x9d02cee4       0x30 build/pic32mz_da_sk_intddr_meb2/production/_ext/1847583374/gfx_set.o
                0x9d02cee4                set_layerSwap

.text.set_layerBufferCount
                0x9d02cf14       0x30
 .text.set_layerBufferCount
                0x9d02cf14       0x30 build/pic32mz_da_sk_intddr_meb2/production/_ext/1847583374/gfx_set.o
                0x9d02cf14                set_layerBufferCount

.text.set_layerBufferAllocated
                0x9d02cf44       0x30
 .text.set_layerBufferAllocated
                0x9d02cf44       0x30 build/pic32mz_da_sk_intddr_meb2/production/_ext/1847583374/gfx_set.o
                0x9d02cf44                set_layerBufferAllocated

.text.set_layerBufferFree
                0x9d02cf74       0x30
 .text.set_layerBufferFree
                0x9d02cf74       0x30 build/pic32mz_da_sk_intddr_meb2/production/_ext/1847583374/gfx_set.o
                0x9d02cf74                set_layerBufferFree

.text.set_drawPipelineMode
                0x9d02cfa4       0x30
 .text.set_drawPipelineMode
                0x9d02cfa4       0x30 build/pic32mz_da_sk_intddr_meb2/production/_ext/1847583374/gfx_set.o
                0x9d02cfa4                set_drawPipelineMode

.text.set_drawMode
                0x9d02cfd4       0x30
 .text.set_drawMode
                0x9d02cfd4       0x30 build/pic32mz_da_sk_intddr_meb2/production/_ext/1847583374/gfx_set.o
                0x9d02cfd4                set_drawMode

.text.set_drawColor
                0x9d02d004       0x30
 .text.set_drawColor
                0x9d02d004       0x30 build/pic32mz_da_sk_intddr_meb2/production/_ext/1847583374/gfx_set.o
                0x9d02d004                set_drawColor

.text.set_drawPalette
                0x9d02d034       0x30
 .text.set_drawPalette
                0x9d02d034       0x30 build/pic32mz_da_sk_intddr_meb2/production/_ext/1847583374/gfx_set.o
                0x9d02d034                set_drawPalette

.text.set_drawTarget
                0x9d02d064       0x30
 .text.set_drawTarget
                0x9d02d064       0x30 build/pic32mz_da_sk_intddr_meb2/production/_ext/1847583374/gfx_set.o
                0x9d02d064                set_drawTarget

.text.set_drawBlendMode
                0x9d02d094       0x30
 .text.set_drawBlendMode
                0x9d02d094       0x30 build/pic32mz_da_sk_intddr_meb2/production/_ext/1847583374/gfx_set.o
                0x9d02d094                set_drawBlendMode

.text.set_drawResizeMode
                0x9d02d0c4       0x30
 .text.set_drawResizeMode
                0x9d02d0c4       0x30 build/pic32mz_da_sk_intddr_meb2/production/_ext/1847583374/gfx_set.o
                0x9d02d0c4                set_drawResizeMode

.text.set_drawAlphaEnable
                0x9d02d0f4       0x30
 .text.set_drawAlphaEnable
                0x9d02d0f4       0x30 build/pic32mz_da_sk_intddr_meb2/production/_ext/1847583374/gfx_set.o
                0x9d02d0f4                set_drawAlphaEnable

.text.set_drawAlphaValue
                0x9d02d124       0x30
 .text.set_drawAlphaValue
                0x9d02d124       0x30 build/pic32mz_da_sk_intddr_meb2/production/_ext/1847583374/gfx_set.o
                0x9d02d124                set_drawAlphaValue

.text.set_drawMaskEnable
                0x9d02d154       0x30
 .text.set_drawMaskEnable
                0x9d02d154       0x30 build/pic32mz_da_sk_intddr_meb2/production/_ext/1847583374/gfx_set.o
                0x9d02d154                set_drawMaskEnable

.text.set_drawMaskValue
                0x9d02d184       0x30
 .text.set_drawMaskValue
                0x9d02d184       0x30 build/pic32mz_da_sk_intddr_meb2/production/_ext/1847583374/gfx_set.o
                0x9d02d184                set_drawMaskValue

.text.set_drawThickness
                0x9d02d1b4       0x30
 .text.set_drawThickness
                0x9d02d1b4       0x30 build/pic32mz_da_sk_intddr_meb2/production/_ext/1847583374/gfx_set.o
                0x9d02d1b4                set_drawThickness

.text.set_drawClipEnable
                0x9d02d1e4       0x30
 .text.set_drawClipEnable
                0x9d02d1e4       0x30 build/pic32mz_da_sk_intddr_meb2/production/_ext/1847583374/gfx_set.o
                0x9d02d1e4                set_drawClipEnable

.text.set_drawClipRect
                0x9d02d214       0x30
 .text.set_drawClipRect
                0x9d02d214       0x30 build/pic32mz_da_sk_intddr_meb2/production/_ext/1847583374/gfx_set.o
                0x9d02d214                set_drawClipRect

.text.rgb332_rgb888
                0x9d02d244       0x30
 .text.rgb332_rgb888
                0x9d02d244       0x30 build/pic32mz_da_sk_intddr_meb2/production/_ext/1847583374/gfx_color_convert.o

.text.rgb332_rgba8888
                0x9d02d274       0x30
 .text.rgb332_rgba8888
                0x9d02d274       0x30 build/pic32mz_da_sk_intddr_meb2/production/_ext/1847583374/gfx_color_convert.o

.text.rgb332_argb8888
                0x9d02d2a4       0x30
 .text.rgb332_argb8888
                0x9d02d2a4       0x30 build/pic32mz_da_sk_intddr_meb2/production/_ext/1847583374/gfx_color_convert.o

.text.rgba5551_rgb888
                0x9d02d2d4       0x30
 .text.rgba5551_rgb888
                0x9d02d2d4       0x30 build/pic32mz_da_sk_intddr_meb2/production/_ext/1847583374/gfx_color_convert.o

.text.argb8888_rgba5551
                0x9d02d304       0x30
 .text.argb8888_rgba5551
                0x9d02d304       0x30 build/pic32mz_da_sk_intddr_meb2/production/_ext/1847583374/gfx_color_convert.o

.text.laEditWidget_EndEdit
                0x9d02d334       0x30
 .text.laEditWidget_EndEdit
                0x9d02d334       0x30 build/pic32mz_da_sk_intddr_meb2/production/_ext/1907747181/libaria_editwidget.o
                0x9d02d334                laEditWidget_EndEdit

.text.orient_180
                0x9d02d364       0x30
 .text.orient_180
                0x9d02d364       0x30 build/pic32mz_da_sk_intddr_meb2/production/_ext/1907747181/libaria_utils.o

.text.laUtils_WidgetLocalRect
                0x9d02d394       0x30
 .text.laUtils_WidgetLocalRect
                0x9d02d394       0x30 build/pic32mz_da_sk_intddr_meb2/production/_ext/1907747181/libaria_utils.o
                0x9d02d394                laUtils_WidgetLocalRect

.text.lodepng_malloc
                0x9d02d3c4       0x30
 .text.lodepng_malloc
                0x9d02d3c4       0x30 build/pic32mz_da_sk_intddr_meb2/production/_ext/1597685232/gfxu_image_png_internal.o
                0x9d02d3c4                lodepng_malloc

.text.JPEG_bReadByte
                0x9d02d3f4       0x30
 .text.JPEG_bReadByte
                0x9d02d3f4       0x30 build/pic32mz_da_sk_intddr_meb2/production/_ext/1597685232/gfxu_image_jpg_common.o

.text.SYS_DEBUG_Initialize
                0x9d02d424       0x30
 .text.SYS_DEBUG_Initialize
                0x9d02d424       0x30 build/pic32mz_da_sk_intddr_meb2/production/_ext/2137108136/sys_debug.o
                0x9d02d424                SYS_DEBUG_Initialize

.text.lodepng_get_bpp
                0x9d02d454       0x30
 .text.lodepng_get_bpp
                0x9d02d454       0x30 build/pic32mz_da_sk_intddr_meb2/production/_ext/493934858/lodepng.o
                0x9d02d454                lodepng_get_bpp

.text.lodepng_state_cleanup
                0x9d02d484       0x30
 .text.lodepng_state_cleanup
                0x9d02d484       0x30 build/pic32mz_da_sk_intddr_meb2/production/_ext/493934858/lodepng.o
                0x9d02d484                lodepng_state_cleanup

.text.DRV_USART_Initialize
                0x9d02d4b4       0x30
 .text.DRV_USART_Initialize
                0x9d02d4b4       0x30 build/pic32mz_da_sk_intddr_meb2/production/_ext/418582516/drv_usart_mapping.o
                0x9d02d4b4                DRV_USART_Initialize

.text.SYS_CLK_PeripheralFrequencyGet
                0x9d02d4e4       0x30
 .text.SYS_CLK_PeripheralFrequencyGet
                0x9d02d4e4       0x30 build/pic32mz_da_sk_intddr_meb2/production/_ext/370156264/sys_clk_pic32mz.o
                0x9d02d4e4                SYS_CLK_PeripheralFrequencyGet

.text._fsync_simple
                0x9d02d514       0x30
 .text._fsync_simple
                0x9d02d514       0x30 f:/software_installations/mplab_xc32/bin/bin/../../lib/gcc/pic32mx/4.8.3/../../../../pic32mx/lib\liblega-c.a(_iobfuncs.o)
                0x9d02d514                _fsync_simple

.text.defGlobalPaletteSet
                0x9d02d544       0x2c
 .text.defGlobalPaletteSet
                0x9d02d544       0x2c build/pic32mz_da_sk_intddr_meb2/production/_ext/1847583374/gfx_default_impl.o
                0x9d02d544                defGlobalPaletteSet

.text.defLayerSwapSyncSet
                0x9d02d570       0x2c
 .text.defLayerSwapSyncSet
                0x9d02d570       0x2c build/pic32mz_da_sk_intddr_meb2/production/_ext/1847583374/gfx_default_impl.o
                0x9d02d570                defLayerSwapSyncSet

.text.defDrawModeSet
                0x9d02d59c       0x2c
 .text.defDrawModeSet
                0x9d02d59c       0x2c build/pic32mz_da_sk_intddr_meb2/production/_ext/1847583374/gfx_default_impl.o
                0x9d02d59c                defDrawModeSet

.text.defDrawColorSet
                0x9d02d5c8       0x2c
 .text.defDrawColorSet
                0x9d02d5c8       0x2c build/pic32mz_da_sk_intddr_meb2/production/_ext/1847583374/gfx_default_impl.o
                0x9d02d5c8                defDrawColorSet

.text.defDrawResizeModeSet
                0x9d02d5f4       0x2c
 .text.defDrawResizeModeSet
                0x9d02d5f4       0x2c build/pic32mz_da_sk_intddr_meb2/production/_ext/1847583374/gfx_default_impl.o
                0x9d02d5f4                defDrawResizeModeSet

.text.defDrawAlphaEnableSet
                0x9d02d620       0x2c
 .text.defDrawAlphaEnableSet
                0x9d02d620       0x2c build/pic32mz_da_sk_intddr_meb2/production/_ext/1847583374/gfx_default_impl.o
                0x9d02d620                defDrawAlphaEnableSet

.text.defDrawAlphaValueSet
                0x9d02d64c       0x2c
 .text.defDrawAlphaValueSet
                0x9d02d64c       0x2c build/pic32mz_da_sk_intddr_meb2/production/_ext/1847583374/gfx_default_impl.o
                0x9d02d64c                defDrawAlphaValueSet

.text.defDrawMaskValueSet
                0x9d02d678       0x2c
 .text.defDrawMaskValueSet
                0x9d02d678       0x2c build/pic32mz_da_sk_intddr_meb2/production/_ext/1847583374/gfx_default_impl.o
                0x9d02d678                defDrawMaskValueSet

.text.defDrawThicknessSet
                0x9d02d6a4       0x2c
 .text.defDrawThicknessSet
                0x9d02d6a4       0x2c build/pic32mz_da_sk_intddr_meb2/production/_ext/1847583374/gfx_default_impl.o
                0x9d02d6a4                defDrawThicknessSet

.text.defDrawClipEnabledSet
                0x9d02d6d0       0x2c
 .text.defDrawClipEnabledSet
                0x9d02d6d0       0x2c build/pic32mz_da_sk_intddr_meb2/production/_ext/1847583374/gfx_default_impl.o
                0x9d02d6d0                defDrawClipEnabledSet

.text.indexGet1bpp
                0x9d02d6fc       0x2c
 .text.indexGet1bpp
                0x9d02d6fc       0x2c build/pic32mz_da_sk_intddr_meb2/production/_ext/1847583374/gfx_pixel_buffer.o

.text.rgb565_argb8888
                0x9d02d728       0x2c
 .text.rgb565_argb8888
                0x9d02d728       0x2c build/pic32mz_da_sk_intddr_meb2/production/_ext/1847583374/gfx_color_convert.o

.text.GFX_Percent
                0x9d02d754       0x2c
 .text.GFX_Percent
                0x9d02d754       0x2c build/pic32mz_da_sk_intddr_meb2/production/_ext/1847583374/gfx_math.o
                0x9d02d754                GFX_Percent

.text._laContext_HandleScreenChangeEvent
                0x9d02d780       0x2c
 .text._laContext_HandleScreenChangeEvent
                0x9d02d780       0x2c build/pic32mz_da_sk_intddr_meb2/production/_ext/1907747181/libaria_context.o
                0x9d02d780                _laContext_HandleScreenChangeEvent

.text.laString_IsEmpty
                0x9d02d7ac       0x2c
 .text.laString_IsEmpty
                0x9d02d7ac       0x2c build/pic32mz_da_sk_intddr_meb2/production/_ext/1907747181/libaria_string.o
                0x9d02d7ac                laString_IsEmpty

.text.drawBackground
                0x9d02d7d8       0x58
 .text.drawBackground
                0x9d02d7d8       0x2c build/pic32mz_da_sk_intddr_meb2/production/_ext/1907747181/libaria_widget_image_skin_classic.o
 .text.drawBackground
                0x9d02d804       0x2c build/pic32mz_da_sk_intddr_meb2/production/_ext/1907747181/libaria_widget_label_skin_classic.o

.text.getDiscreteValueAtIndex
                0x9d02d830       0x2c
 .text.getDiscreteValueAtIndex
                0x9d02d830       0x2c build/pic32mz_da_sk_intddr_meb2/production/_ext/1597685232/gfxu_image_utils.o
                0x9d02d830                getDiscreteValueAtIndex

.text.getOffsetFromIndexAndBPP
                0x9d02d85c       0x2c
 .text.getOffsetFromIndexAndBPP
                0x9d02d85c       0x2c build/pic32mz_da_sk_intddr_meb2/production/_ext/1597685232/gfxu_image_utils.o
                0x9d02d85c                getOffsetFromIndexAndBPP

.text.lodepng_read32bitInt
                0x9d02d888       0x2c
 .text.lodepng_read32bitInt
                0x9d02d888       0x2c build/pic32mz_da_sk_intddr_meb2/production/_ext/493934858/lodepng.o
                0x9d02d888                lodepng_read32bitInt

.text.lodepng_chunk_next_const
                0x9d02d8b4       0x2c
 .text.lodepng_chunk_next_const
                0x9d02d8b4       0x2c build/pic32mz_da_sk_intddr_meb2/production/_ext/493934858/lodepng.o
                0x9d02d8b4                lodepng_chunk_next_const

.text.lodepng_color_mode_init
                0x9d02d8e0       0x2c
 .text.lodepng_color_mode_init
                0x9d02d8e0       0x2c build/pic32mz_da_sk_intddr_meb2/production/_ext/493934858/lodepng.o
                0x9d02d8e0                lodepng_color_mode_init

.text.driverGLCDContextInitialize
                0x9d02d90c       0x2c
 .text.driverGLCDContextInitialize
                0x9d02d90c       0x2c build/pic32mz_da_sk_intddr_meb2/production/_ext/1094895838/drv_gfx_glcd_static.o
                0x9d02d90c                driverGLCDContextInitialize

.text._stub_sbd_memlayout
                0x9d02d938       0x2c
 .text._stub_sbd_memlayout
                0x9d02d938       0x2c f:/software_installations/mplab_xc32/bin/bin/../../lib/gcc/pic32mx/4.8.3/../../../../pic32mx/lib\libpic32.a(sbrk.o)
                0x9d02d938                _sbd_memlayout
                0x9d02d938                _stub_sbd_memlayout

.text.GFX_Initialize
                0x9d02d964       0x28
 .text.GFX_Initialize
                0x9d02d964       0x28 build/pic32mz_da_sk_intddr_meb2/production/_ext/1847583374/gfx.o
                0x9d02d964                GFX_Initialize

.text.defOrientPoint
                0x9d02d98c       0x28
 .text.defOrientPoint
                0x9d02d98c       0x28 build/pic32mz_da_sk_intddr_meb2/production/_ext/1847583374/gfx_default_impl.o
                0x9d02d98c                defOrientPoint

.text.defMirrorPoint
                0x9d02d9b4       0x28
 .text.defMirrorPoint
                0x9d02d9b4       0x28 build/pic32mz_da_sk_intddr_meb2/production/_ext/1847583374/gfx_default_impl.o
                0x9d02d9b4                defMirrorPoint

.text.rgb332_rgb565
                0x9d02d9dc       0x28
 .text.rgb332_rgb565
                0x9d02d9dc       0x28 build/pic32mz_da_sk_intddr_meb2/production/_ext/1847583374/gfx_color_convert.o

.text.rgb332_rgba5551
                0x9d02da04       0x28
 .text.rgb332_rgba5551
                0x9d02da04       0x28 build/pic32mz_da_sk_intddr_meb2/production/_ext/1847583374/gfx_color_convert.o

.text.rgb565_rgba8888
                0x9d02da2c       0x28
 .text.rgb565_rgba8888
                0x9d02da2c       0x28 build/pic32mz_da_sk_intddr_meb2/production/_ext/1847583374/gfx_color_convert.o

.text.rgb888_rgba5551
                0x9d02da54       0x28
 .text.rgb888_rgba5551
                0x9d02da54       0x28 build/pic32mz_da_sk_intddr_meb2/production/_ext/1847583374/gfx_color_convert.o

.text.laContext_SetStringTable
                0x9d02da7c       0x28
 .text.laContext_SetStringTable
                0x9d02da7c       0x28 build/pic32mz_da_sk_intddr_meb2/production/_ext/1907747181/libaria_context.o
                0x9d02da7c                laContext_SetStringTable

.text.headerReadRequestCompleted
                0x9d02daa4       0x28
 .text.headerReadRequestCompleted
                0x9d02daa4       0x28 build/pic32mz_da_sk_intddr_meb2/production/_ext/1597685232/gfxu_image_rle_external.o

.text.GFXU_GetGlyphRowDataSize
                0x9d02dacc       0x28
 .text.GFXU_GetGlyphRowDataSize
                0x9d02dacc       0x28 build/pic32mz_da_sk_intddr_meb2/production/_ext/1597685232/gfxu_string_utils.o
                0x9d02dacc                GFXU_GetGlyphRowDataSize

.text.SYS_INT_ExternalInterruptTriggerSet
                0x9d02daf4       0x28
 .text.SYS_INT_ExternalInterruptTriggerSet
                0x9d02daf4       0x28 build/pic32mz_da_sk_intddr_meb2/production/_ext/1042686532/sys_int_pic32.o
                0x9d02daf4                SYS_INT_ExternalInterruptTriggerSet

.text.readBitFromReversedStream
                0x9d02db1c       0x28
 .text.readBitFromReversedStream
                0x9d02db1c       0x28 build/pic32mz_da_sk_intddr_meb2/production/_ext/493934858/lodepng.o

.text.lodepng_decoder_settings_init
                0x9d02db44       0x28
 .text.lodepng_decoder_settings_init
                0x9d02db44       0x28 build/pic32mz_da_sk_intddr_meb2/production/_ext/493934858/lodepng.o
                0x9d02db44                lodepng_decoder_settings_init

.text.touchMoveHandler
                0x9d02db6c       0x28
 .text.touchMoveHandler
                0x9d02db6c       0x28 build/pic32mz_da_sk_intddr_meb2/production/_ext/590040425/libaria_harmony.o

.text.touchUpHandler
                0x9d02db94       0x28
 .text.touchUpHandler
                0x9d02db94       0x28 build/pic32mz_da_sk_intddr_meb2/production/_ext/590040425/libaria_harmony.o

.text.touchDownHandler
                0x9d02dbbc       0x28
 .text.touchDownHandler
                0x9d02dbbc       0x28 build/pic32mz_da_sk_intddr_meb2/production/_ext/590040425/libaria_harmony.o

.text.GFX_InitializeDriverList
                0x9d02dbe4       0x28
 .text.GFX_InitializeDriverList
                0x9d02dbe4       0x28 build/pic32mz_da_sk_intddr_meb2/production/_ext/1719547748/gfx_driver_def.o
                0x9d02dbe4                GFX_InitializeDriverList

.text.defAlphaGetPoint
                0x9d02dc0c       0x24
 .text.defAlphaGetPoint
                0x9d02dc0c       0x24 build/pic32mz_da_sk_intddr_meb2/production/_ext/1847583374/gfx_default_impl.o
                0x9d02dc0c                defAlphaGetPoint

.text.defEnd    0x9d02dc30       0x24
 .text.defEnd   0x9d02dc30       0x24 build/pic32mz_da_sk_intddr_meb2/production/_ext/1847583374/gfx_default_impl.o
                0x9d02dc30                defEnd

.text.defLayerEnabledGet
                0x9d02dc54       0x24
 .text.defLayerEnabledGet
                0x9d02dc54       0x24 build/pic32mz_da_sk_intddr_meb2/production/_ext/1847583374/gfx_default_impl.o
                0x9d02dc54                defLayerEnabledGet

.text.defLayerVisibleGet
                0x9d02dc78       0x24
 .text.defLayerVisibleGet
                0x9d02dc78       0x24 build/pic32mz_da_sk_intddr_meb2/production/_ext/1847583374/gfx_default_impl.o
                0x9d02dc78                defLayerVisibleGet

.text.defLayerBufferCountGet
                0x9d02dc9c       0x24
 .text.defLayerBufferCountGet
                0x9d02dc9c       0x24 build/pic32mz_da_sk_intddr_meb2/production/_ext/1847583374/gfx_default_impl.o
                0x9d02dc9c                defLayerBufferCountGet

.text.defLayerVsyncGet
                0x9d02dcc0       0x24
 .text.defLayerVsyncGet
                0x9d02dcc0       0x24 build/pic32mz_da_sk_intddr_meb2/production/_ext/1847583374/gfx_default_impl.o
                0x9d02dcc0                defLayerVsyncGet

.text.defLayerInvalidGet
                0x9d02dce4       0x24
 .text.defLayerInvalidGet
                0x9d02dce4       0x24 build/pic32mz_da_sk_intddr_meb2/production/_ext/1847583374/gfx_default_impl.o
                0x9d02dce4                defLayerInvalidGet

.text.defLayerSwapGet
                0x9d02dd08       0x24
 .text.defLayerSwapGet
                0x9d02dd08       0x24 build/pic32mz_da_sk_intddr_meb2/production/_ext/1847583374/gfx_default_impl.o
                0x9d02dd08                defLayerSwapGet

.text.defLayerAlphaEnableGet
                0x9d02dd2c       0x24
 .text.defLayerAlphaEnableGet
                0x9d02dd2c       0x24 build/pic32mz_da_sk_intddr_meb2/production/_ext/1847583374/gfx_default_impl.o
                0x9d02dd2c                defLayerAlphaEnableGet

.text.defLayerAlphaAmountGet
                0x9d02dd50       0x24
 .text.defLayerAlphaAmountGet
                0x9d02dd50       0x24 build/pic32mz_da_sk_intddr_meb2/production/_ext/1847583374/gfx_default_impl.o
                0x9d02dd50                defLayerAlphaAmountGet

.text.defLayerMaskEnableGet
                0x9d02dd74       0x24
 .text.defLayerMaskEnableGet
                0x9d02dd74       0x24 build/pic32mz_da_sk_intddr_meb2/production/_ext/1847583374/gfx_default_impl.o
                0x9d02dd74                defLayerMaskEnableGet

.text.defLayerMaskColorGet
                0x9d02dd98       0x24
 .text.defLayerMaskColorGet
                0x9d02dd98       0x24 build/pic32mz_da_sk_intddr_meb2/production/_ext/1847583374/gfx_default_impl.o
                0x9d02dd98                defLayerMaskColorGet

.text.indexGet4bpp
                0x9d02ddbc       0x24
 .text.indexGet4bpp
                0x9d02ddbc       0x24 build/pic32mz_da_sk_intddr_meb2/production/_ext/1847583374/gfx_pixel_buffer.o

.text.orient_90
                0x9d02dde0       0x24
 .text.orient_90
                0x9d02dde0       0x24 build/pic32mz_da_sk_intddr_meb2/production/_ext/1847583374/gfx_util.o

.text.orient_270
                0x9d02de04       0x24
 .text.orient_270
                0x9d02de04       0x24 build/pic32mz_da_sk_intddr_meb2/production/_ext/1847583374/gfx_util.o

.text.mirror_0  0x9d02de28       0x24
 .text.mirror_0
                0x9d02de28       0x24 build/pic32mz_da_sk_intddr_meb2/production/_ext/1847583374/gfx_util.o

.text.mirror_90
                0x9d02de4c       0x24
 .text.mirror_90
                0x9d02de4c       0x24 build/pic32mz_da_sk_intddr_meb2/production/_ext/1847583374/gfx_util.o

.text.mirror_180
                0x9d02de70       0x24
 .text.mirror_180
                0x9d02de70       0x24 build/pic32mz_da_sk_intddr_meb2/production/_ext/1847583374/gfx_util.o

.text.mirror_270
                0x9d02de94       0x24
 .text.mirror_270
                0x9d02de94       0x24 build/pic32mz_da_sk_intddr_meb2/production/_ext/1847583374/gfx_util.o

.text.rgb565_rgb888
                0x9d02deb8       0x24
 .text.rgb565_rgb888
                0x9d02deb8       0x24 build/pic32mz_da_sk_intddr_meb2/production/_ext/1847583374/gfx_color_convert.o

.text.rgb888_rgb332
                0x9d02dedc       0x24
 .text.rgb888_rgb332
                0x9d02dedc       0x24 build/pic32mz_da_sk_intddr_meb2/production/_ext/1847583374/gfx_color_convert.o

.text.rgba8888_rgb332
                0x9d02df00       0x24
 .text.rgba8888_rgb332
                0x9d02df00       0x24 build/pic32mz_da_sk_intddr_meb2/production/_ext/1847583374/gfx_color_convert.o

.text.rgba8888_rgb565
                0x9d02df24       0x24
 .text.rgba8888_rgb565
                0x9d02df24       0x24 build/pic32mz_da_sk_intddr_meb2/production/_ext/1847583374/gfx_color_convert.o

.text.rgba8888_rgb888
                0x9d02df48       0x24
 .text.rgba8888_rgb888
                0x9d02df48       0x24 build/pic32mz_da_sk_intddr_meb2/production/_ext/1847583374/gfx_color_convert.o

.text.laScreen_GetLayerIndex
                0x9d02df6c       0x24
 .text.laScreen_GetLayerIndex
                0x9d02df6c       0x24 build/pic32mz_da_sk_intddr_meb2/production/_ext/1907747181/libaria_screen.o
                0x9d02df6c                laScreen_GetLayerIndex

.text.laString_Initialize
                0x9d02df90       0x24
 .text.laString_Initialize
                0x9d02df90       0x24 build/pic32mz_da_sk_intddr_meb2/production/_ext/1907747181/libaria_string.o
                0x9d02df90                laString_Initialize

.text.orient_90
                0x9d02dfb4       0x24
 .text.orient_90
                0x9d02dfb4       0x24 build/pic32mz_da_sk_intddr_meb2/production/_ext/1907747181/libaria_utils.o

.text.orient_270
                0x9d02dfd8       0x24
 .text.orient_270
                0x9d02dfd8       0x24 build/pic32mz_da_sk_intddr_meb2/production/_ext/1907747181/libaria_utils.o

.text.mirror_0  0x9d02dffc       0x24
 .text.mirror_0
                0x9d02dffc       0x24 build/pic32mz_da_sk_intddr_meb2/production/_ext/1907747181/libaria_utils.o

.text.mirror_90
                0x9d02e020       0x24
 .text.mirror_90
                0x9d02e020       0x24 build/pic32mz_da_sk_intddr_meb2/production/_ext/1907747181/libaria_utils.o

.text.mirror_180
                0x9d02e044       0x24
 .text.mirror_180
                0x9d02e044       0x24 build/pic32mz_da_sk_intddr_meb2/production/_ext/1907747181/libaria_utils.o

.text.mirror_270
                0x9d02e068       0x24
 .text.mirror_270
                0x9d02e068       0x24 build/pic32mz_da_sk_intddr_meb2/production/_ext/1907747181/libaria_utils.o

.text.laArray_Create
                0x9d02e08c       0x24
 .text.laArray_Create
                0x9d02e08c       0x24 build/pic32mz_da_sk_intddr_meb2/production/_ext/1907747181/libaria_array.o
                0x9d02e08c                laArray_Create

.text.laRectArray_Create
                0x9d02e0b0       0x24
 .text.laRectArray_Create
                0x9d02e0b0       0x24 build/pic32mz_da_sk_intddr_meb2/production/_ext/1907747181/libaria_rectarray.o
                0x9d02e0b0                laRectArray_Create

.text.getGlyphRowDataSize1bpp
                0x9d02e0d4       0x24
 .text.getGlyphRowDataSize1bpp
                0x9d02e0d4       0x24 build/pic32mz_da_sk_intddr_meb2/production/_ext/1597685232/gfxu_string_utils.o
                0x9d02e0d4                getGlyphRowDataSize1bpp

.text.DRV_USART0_WriteByte
                0x9d02e0f8       0x24
 .text.DRV_USART0_WriteByte
                0x9d02e0f8       0x24 build/pic32mz_da_sk_intddr_meb2/production/_ext/418582516/drv_usart_static_byte_model.o
                0x9d02e0f8                DRV_USART0_WriteByte

.text.main      0x9d02e11c       0x20
 .text.main     0x9d02e11c       0x20 build/pic32mz_da_sk_intddr_meb2/production/_ext/1360937237/main.o
                0x9d02e11c                main

.text.defBrightnessGet
                0x9d02e13c       0x20
 .text.defBrightnessGet
                0x9d02e13c       0x20 build/pic32mz_da_sk_intddr_meb2/production/_ext/1847583374/gfx_default_impl.o
                0x9d02e13c                defBrightnessGet

.text.defVSyncCallbackGet
                0x9d02e15c       0x20
 .text.defVSyncCallbackGet
                0x9d02e15c       0x20 build/pic32mz_da_sk_intddr_meb2/production/_ext/1847583374/gfx_default_impl.o
                0x9d02e15c                defVSyncCallbackGet

.text.defHSyncCallbackGet
                0x9d02e17c       0x20
 .text.defHSyncCallbackGet
                0x9d02e17c       0x20 build/pic32mz_da_sk_intddr_meb2/production/_ext/1847583374/gfx_default_impl.o
                0x9d02e17c                defHSyncCallbackGet

.text.defOrientationGet
                0x9d02e19c       0x20
 .text.defOrientationGet
                0x9d02e19c       0x20 build/pic32mz_da_sk_intddr_meb2/production/_ext/1847583374/gfx_default_impl.o
                0x9d02e19c                defOrientationGet

.text.defMirroringGet
                0x9d02e1bc       0x20
 .text.defMirroringGet
                0x9d02e1bc       0x20 build/pic32mz_da_sk_intddr_meb2/production/_ext/1847583374/gfx_default_impl.o
                0x9d02e1bc                defMirroringGet

.text.defColorModeGet
                0x9d02e1dc       0x20
 .text.defColorModeGet
                0x9d02e1dc       0x20 build/pic32mz_da_sk_intddr_meb2/production/_ext/1847583374/gfx_default_impl.o
                0x9d02e1dc                defColorModeGet

.text.defGlobalPaletteGet
                0x9d02e1fc       0x20
 .text.defGlobalPaletteGet
                0x9d02e1fc       0x20 build/pic32mz_da_sk_intddr_meb2/production/_ext/1847583374/gfx_default_impl.o
                0x9d02e1fc                defGlobalPaletteGet

.text.defLayerActiveGet
                0x9d02e21c       0x20
 .text.defLayerActiveGet
                0x9d02e21c       0x20 build/pic32mz_da_sk_intddr_meb2/production/_ext/1847583374/gfx_default_impl.o
                0x9d02e21c                defLayerActiveGet

.text.defLayerSwapSyncGet
                0x9d02e23c       0x20
 .text.defLayerSwapSyncGet
                0x9d02e23c       0x20 build/pic32mz_da_sk_intddr_meb2/production/_ext/1847583374/gfx_default_impl.o
                0x9d02e23c                defLayerSwapSyncGet

.text.defDrawPipelineModeGet
                0x9d02e25c       0x20
 .text.defDrawPipelineModeGet
                0x9d02e25c       0x20 build/pic32mz_da_sk_intddr_meb2/production/_ext/1847583374/gfx_default_impl.o
                0x9d02e25c                defDrawPipelineModeGet

.text.defDrawModeGet
                0x9d02e27c       0x20
 .text.defDrawModeGet
                0x9d02e27c       0x20 build/pic32mz_da_sk_intddr_meb2/production/_ext/1847583374/gfx_default_impl.o
                0x9d02e27c                defDrawModeGet

.text.defDrawColorGet
                0x9d02e29c       0x20
 .text.defDrawColorGet
                0x9d02e29c       0x20 build/pic32mz_da_sk_intddr_meb2/production/_ext/1847583374/gfx_default_impl.o
                0x9d02e29c                defDrawColorGet

.text.defDrawBlendModeGet
                0x9d02e2bc       0x20
 .text.defDrawBlendModeGet
                0x9d02e2bc       0x20 build/pic32mz_da_sk_intddr_meb2/production/_ext/1847583374/gfx_default_impl.o
                0x9d02e2bc                defDrawBlendModeGet

.text.defDrawResizeModeGet
                0x9d02e2dc       0x20
 .text.defDrawResizeModeGet
                0x9d02e2dc       0x20 build/pic32mz_da_sk_intddr_meb2/production/_ext/1847583374/gfx_default_impl.o
                0x9d02e2dc                defDrawResizeModeGet

.text.defDrawAlphaEnableGet
                0x9d02e2fc       0x20
 .text.defDrawAlphaEnableGet
                0x9d02e2fc       0x20 build/pic32mz_da_sk_intddr_meb2/production/_ext/1847583374/gfx_default_impl.o
                0x9d02e2fc                defDrawAlphaEnableGet

.text.defDrawAlphaValueGet
                0x9d02e31c       0x20
 .text.defDrawAlphaValueGet
                0x9d02e31c       0x20 build/pic32mz_da_sk_intddr_meb2/production/_ext/1847583374/gfx_default_impl.o
                0x9d02e31c                defDrawAlphaValueGet

.text.defDrawMaskEnableGet
                0x9d02e33c       0x20
 .text.defDrawMaskEnableGet
                0x9d02e33c       0x20 build/pic32mz_da_sk_intddr_meb2/production/_ext/1847583374/gfx_default_impl.o
                0x9d02e33c                defDrawMaskEnableGet

.text.defDrawMaskValueGet
                0x9d02e35c       0x20
 .text.defDrawMaskValueGet
                0x9d02e35c       0x20 build/pic32mz_da_sk_intddr_meb2/production/_ext/1847583374/gfx_default_impl.o
                0x9d02e35c                defDrawMaskValueGet

.text.defDrawThicknessGet
                0x9d02e37c       0x20
 .text.defDrawThicknessGet
                0x9d02e37c       0x20 build/pic32mz_da_sk_intddr_meb2/production/_ext/1847583374/gfx_default_impl.o
                0x9d02e37c                defDrawThicknessGet

.text.defDrawClipEnabledGet
                0x9d02e39c       0x20
 .text.defDrawClipEnabledGet
                0x9d02e39c       0x20 build/pic32mz_da_sk_intddr_meb2/production/_ext/1847583374/gfx_default_impl.o
                0x9d02e39c                defDrawClipEnabledGet

.text.get3byte  0x9d02e3bc       0x20
 .text.get3byte
                0x9d02e3bc       0x20 build/pic32mz_da_sk_intddr_meb2/production/_ext/1847583374/gfx_pixel_buffer.o

.rodata         0x9d02e3dc       0x20
 .rodata        0x9d02e3dc       0x20 build/pic32mz_da_sk_intddr_meb2/production/_ext/1847583374/gfx_util.o

.text.gs8_rgb565
                0x9d02e3fc       0x20
 .text.gs8_rgb565
                0x9d02e3fc       0x20 build/pic32mz_da_sk_intddr_meb2/production/_ext/1847583374/gfx_color_convert.o

.text.gs8_rgba5551
                0x9d02e41c       0x20
 .text.gs8_rgba5551
                0x9d02e41c       0x20 build/pic32mz_da_sk_intddr_meb2/production/_ext/1847583374/gfx_color_convert.o

.text.rgb565_rgb332
                0x9d02e43c       0x20
 .text.rgb565_rgb332
                0x9d02e43c       0x20 build/pic32mz_da_sk_intddr_meb2/production/_ext/1847583374/gfx_color_convert.o

.text.rgba5551_rgb332
                0x9d02e45c       0x20
 .text.rgba5551_rgb332
                0x9d02e45c       0x20 build/pic32mz_da_sk_intddr_meb2/production/_ext/1847583374/gfx_color_convert.o

.text.rgb888_rgb565
                0x9d02e47c       0x20
 .text.rgb888_rgb565
                0x9d02e47c       0x20 build/pic32mz_da_sk_intddr_meb2/production/_ext/1847583374/gfx_color_convert.o

.rodata         0x9d02e49c       0x20
 .rodata        0x9d02e49c       0x20 build/pic32mz_da_sk_intddr_meb2/production/_ext/1907747181/libaria_utils.o

.text.getDiscreteValueAtIndex1
                0x9d02e4bc       0x20
 .text.getDiscreteValueAtIndex1
                0x9d02e4bc       0x20 build/pic32mz_da_sk_intddr_meb2/production/_ext/1597685232/gfxu_image_utils.o
                0x9d02e4bc                getDiscreteValueAtIndex1

.text.JPEG_vResetDecoder
                0x9d02e4dc       0x20
 .text.JPEG_vResetDecoder
                0x9d02e4dc       0x20 build/pic32mz_da_sk_intddr_meb2/production/_ext/1597685232/gfxu_image_jpg_common.o
                0x9d02e4dc                JPEG_vResetDecoder

.text.__pic32_free_coherent
                0x9d02e4fc       0x1c
 .text.__pic32_free_coherent
                0x9d02e4fc       0x1c build/pic32mz_da_sk_intddr_meb2/production/_ext/1847583374/gfx.o

.text.defPixelGet
                0x9d02e518       0x1c
 .text.defPixelGet
                0x9d02e518       0x1c build/pic32mz_da_sk_intddr_meb2/production/_ext/1847583374/gfx_default_impl.o
                0x9d02e518                defPixelGet

.text.defPixelSet
                0x9d02e534       0x1c
 .text.defPixelSet
                0x9d02e534       0x1c build/pic32mz_da_sk_intddr_meb2/production/_ext/1847583374/gfx_default_impl.o
                0x9d02e534                defPixelSet

.text.GFX_DriverIntfInitialize
                0x9d02e550       0x1c
 .text.GFX_DriverIntfInitialize
                0x9d02e550       0x1c build/pic32mz_da_sk_intddr_meb2/production/_ext/1847583374/gfx_driver_interface.o
                0x9d02e550                GFX_DriverIntfInitialize

.text.set3byte  0x9d02e56c       0x1c
 .text.set3byte
                0x9d02e56c       0x1c build/pic32mz_da_sk_intddr_meb2/production/_ext/1847583374/gfx_pixel_buffer.o

.text.gs8_rgba8888
                0x9d02e588       0x1c
 .text.gs8_rgba8888
                0x9d02e588       0x1c build/pic32mz_da_sk_intddr_meb2/production/_ext/1847583374/gfx_color_convert.o

.text.gs8_argb8888
                0x9d02e5a4       0x1c
 .text.gs8_argb8888
                0x9d02e5a4       0x1c build/pic32mz_da_sk_intddr_meb2/production/_ext/1847583374/gfx_color_convert.o

.text.lerp_gs8  0x9d02e5c0       0x1c
 .text.lerp_gs8
                0x9d02e5c0       0x1c build/pic32mz_da_sk_intddr_meb2/production/_ext/1847583374/gfx_color_lerp.o

.text.laUpdate  0x9d02e5dc       0x1c
 .text.laUpdate
                0x9d02e5dc       0x1c build/pic32mz_da_sk_intddr_meb2/production/_ext/1907747181/libaria.o
                0x9d02e5dc                laUpdate

.text.laContext_GetStringTable
                0x9d02e5f8       0x1c
 .text.laContext_GetStringTable
                0x9d02e5f8       0x1c build/pic32mz_da_sk_intddr_meb2/production/_ext/1907747181/libaria_context.o
                0x9d02e5f8                laContext_GetStringTable

.text.laContext_GetStringLanguage
                0x9d02e614       0x1c
 .text.laContext_GetStringLanguage
                0x9d02e614       0x1c build/pic32mz_da_sk_intddr_meb2/production/_ext/1907747181/libaria_context.o
                0x9d02e614                laContext_GetStringLanguage

.text.laContext_GetEditWidget
                0x9d02e630       0x1c
 .text.laContext_GetEditWidget
                0x9d02e630       0x1c build/pic32mz_da_sk_intddr_meb2/production/_ext/1907747181/libaria_context.o
                0x9d02e630                laContext_GetEditWidget

.text.laRectArray_Clear
                0x9d02e64c       0x1c
 .text.laRectArray_Clear
                0x9d02e64c       0x1c build/pic32mz_da_sk_intddr_meb2/production/_ext/1907747181/libaria_rectarray.o
                0x9d02e64c                laRectArray_Clear

.text.SYS_MEMORY_Initialize
                0x9d02e668       0x1c
 .text.SYS_MEMORY_Initialize
                0x9d02e668       0x1c build/pic32mz_da_sk_intddr_meb2/production/_ext/85614229/sys_memory_static.o
                0x9d02e668                SYS_MEMORY_Initialize

.text.APP_Tasks
                0x9d02e684       0x18
 .text.APP_Tasks
                0x9d02e684       0x18 build/pic32mz_da_sk_intddr_meb2/production/_ext/1360937237/app.o
                0x9d02e684                APP_Tasks

.text.DRV_MXT336T_ReadRequest
                0x9d02e69c       0x18
 .text.DRV_MXT336T_ReadRequest
                0x9d02e69c       0x18 build/pic32mz_da_sk_intddr_meb2/production/_ext/1177928576/drv_mxt336t.o
                0x9d02e69c                DRV_MXT336T_ReadRequest

.text.defMirrorPointEmpty
                0x9d02e6b4       0x18
 .text.defMirrorPointEmpty
                0x9d02e6b4       0x18 build/pic32mz_da_sk_intddr_meb2/production/_ext/1847583374/gfx_default_impl.o
                0x9d02e6b4                defMirrorPointEmpty

.text.GFX_DisplayInfoPtrGet
                0x9d02e6cc       0x18
 .text.GFX_DisplayInfoPtrGet
                0x9d02e6cc       0x18 build/pic32mz_da_sk_intddr_meb2/production/_ext/1847583374/gfx_display.o
                0x9d02e6cc                GFX_DisplayInfoPtrGet

.text.orient_0  0x9d02e6e4       0x18
 .text.orient_0
                0x9d02e6e4       0x18 build/pic32mz_da_sk_intddr_meb2/production/_ext/1847583374/gfx_util.o

.text.gs8_rgb332
                0x9d02e6fc       0x18
 .text.gs8_rgb332
                0x9d02e6fc       0x18 build/pic32mz_da_sk_intddr_meb2/production/_ext/1847583374/gfx_color_convert.o

.text.rgb565_rgba5551
                0x9d02e714       0x18
 .text.rgb565_rgba5551
                0x9d02e714       0x18 build/pic32mz_da_sk_intddr_meb2/production/_ext/1847583374/gfx_color_convert.o

.text.orient_0  0x9d02e72c       0x18
 .text.orient_0
                0x9d02e72c       0x18 build/pic32mz_da_sk_intddr_meb2/production/_ext/1907747181/libaria_utils.o

.text._laWidget_IncreaseDirtyState
                0x9d02e744       0x18
 .text._laWidget_IncreaseDirtyState
                0x9d02e744       0x18 build/pic32mz_da_sk_intddr_meb2/production/_ext/1907747181/libaria_widget.o
                0x9d02e744                _laWidget_IncreaseDirtyState

.text.getDiscreteValueAtIndex4
                0x9d02e75c       0x18
 .text.getDiscreteValueAtIndex4
                0x9d02e75c       0x18 build/pic32mz_da_sk_intddr_meb2/production/_ext/1597685232/gfxu_image_utils.o
                0x9d02e75c                getDiscreteValueAtIndex4

.text.GFXU_DecodeASCII
                0x9d02e774       0x18
 .text.GFXU_DecodeASCII
                0x9d02e774       0x18 build/pic32mz_da_sk_intddr_meb2/production/_ext/1597685232/gfxu_string_utils.o
                0x9d02e774                GFXU_DecodeASCII

.text           0x9d02e78c       0x18
 .text          0x9d02e78c       0x18 f:/software_installations/mplab_xc32/bin/bin/../../lib/gcc/pic32mx/4.8.3/../../../../pic32mx/lib\libpic32.a(default-nmi-handler.o)
                0x9d02e78c                _nmi_handler

.text.defBrightnessRangeGet
                0x9d02e7a4       0x14
 .text.defBrightnessRangeGet
                0x9d02e7a4       0x14 build/pic32mz_da_sk_intddr_meb2/production/_ext/1847583374/gfx_default_impl.o
                0x9d02e7a4                defBrightnessRangeGet

.text.get_displayCount
                0x9d02e7b8       0x14
 .text.get_displayCount
                0x9d02e7b8       0x14 build/pic32mz_da_sk_intddr_meb2/production/_ext/1847583374/gfx_get.o
                0x9d02e7b8                get_displayCount

.text.get_driverCount
                0x9d02e7cc       0x14
 .text.get_driverCount
                0x9d02e7cc       0x14 build/pic32mz_da_sk_intddr_meb2/production/_ext/1847583374/gfx_get.o
                0x9d02e7cc                get_driverCount

.text.gs8_rgb888
                0x9d02e7e0       0x14
 .text.gs8_rgb888
                0x9d02e7e0       0x14 build/pic32mz_da_sk_intddr_meb2/production/_ext/1847583374/gfx_color_convert.o

.text.rgba5551_rgb565
                0x9d02e7f4       0x14
 .text.rgba5551_rgb565
                0x9d02e7f4       0x14 build/pic32mz_da_sk_intddr_meb2/production/_ext/1847583374/gfx_color_convert.o

.text.laContext_GetDefaultScheme
                0x9d02e808       0x14
 .text.laContext_GetDefaultScheme
                0x9d02e808       0x14 build/pic32mz_da_sk_intddr_meb2/production/_ext/1907747181/libaria_context.o
                0x9d02e808                laContext_GetDefaultScheme

.text.paletteReadRequestCompleted
                0x9d02e81c       0x28
 .text.paletteReadRequestCompleted
                0x9d02e81c       0x14 build/pic32mz_da_sk_intddr_meb2/production/_ext/1597685232/gfxu_image_raw_external.o
 .text.paletteReadRequestCompleted
                0x9d02e830       0x14 build/pic32mz_da_sk_intddr_meb2/production/_ext/1597685232/gfxu_image_rle_external.o

.text.fontDataRequestCompleted
                0x9d02e844       0x28
 .text.fontDataRequestCompleted
                0x9d02e844       0x14 build/pic32mz_da_sk_intddr_meb2/production/_ext/1597685232/gfxu_string_external.o
 .text.fontDataRequestCompleted
                0x9d02e858       0x14 build/pic32mz_da_sk_intddr_meb2/production/_ext/1597685232/gfxu_stringbuffer_external.o

.text.SYS_INT_Initialize
                0x9d02e86c       0x14
 .text.SYS_INT_Initialize
                0x9d02e86c       0x14 build/pic32mz_da_sk_intddr_meb2/production/_ext/1042686532/sys_int_pic32.o
                0x9d02e86c                SYS_INT_Initialize

.text.SYS_DEVCON_Initialize
                0x9d02e880       0x14
 .text.SYS_DEVCON_Initialize
                0x9d02e880       0x14 build/pic32mz_da_sk_intddr_meb2/production/_ext/1796496159/sys_devcon.o
                0x9d02e880                SYS_DEVCON_Initialize

.rodata         0x9d02e894       0x28
 .rodata        0x9d02e894       0x14 f:/software_installations/mplab_xc32/bin/bin/../../lib/gcc/pic32mx/4.8.3/../../../../pic32mx/lib\liblega-c.a(_iobdata.o)
                0x9d02e894                _io_funcs
 .rodata        0x9d02e8a8       0x14 f:/software_installations/mplab_xc32/bin/bin/../../lib/gcc/pic32mx/4.8.3/../../../../pic32mx/lib\liblega-c.a(_iobstring.o)
                0x9d02e8a8                _io_strfuncs

.text.defMaskColor
                0x9d02e8bc       0x10
 .text.defMaskColor
                0x9d02e8bc       0x10 build/pic32mz_da_sk_intddr_meb2/production/_ext/1847583374/gfx_default_impl.o
                0x9d02e8bc                defMaskColor

.text.GFX_Mini  0x9d02e8cc       0x10
 .text.GFX_Mini
                0x9d02e8cc       0x10 build/pic32mz_da_sk_intddr_meb2/production/_ext/1847583374/gfx_math.o
                0x9d02e8cc                GFX_Mini

.text.GFX_Maxi  0x9d02e8dc       0x10
 .text.GFX_Maxi
                0x9d02e8dc       0x10 build/pic32mz_da_sk_intddr_meb2/production/_ext/1847583374/gfx_math.o
                0x9d02e8dc                GFX_Maxi

.rodata         0x9d02e8ec       0x20
 .rodata        0x9d02e8ec       0x10 build/pic32mz_da_sk_intddr_meb2/production/_ext/1907747181/libaria_widget_image_skin_classic.o
 .rodata        0x9d02e8fc       0x10 build/pic32mz_da_sk_intddr_meb2/production/_ext/1907747181/libaria_widget_label_skin_classic.o

.text.GFX_DriverIntfPtrGet
                0x9d02e90c        0xc
 .text.GFX_DriverIntfPtrGet
                0x9d02e90c        0xc build/pic32mz_da_sk_intddr_meb2/production/_ext/1847583374/gfx_driver_interface.o
                0x9d02e90c                GFX_DriverIntfPtrGet

.text.set1byte  0x9d02e918        0xc
 .text.set1byte
                0x9d02e918        0xc build/pic32mz_da_sk_intddr_meb2/production/_ext/1847583374/gfx_pixel_buffer.o

.text.set2byte  0x9d02e924        0xc
 .text.set2byte
                0x9d02e924        0xc build/pic32mz_da_sk_intddr_meb2/production/_ext/1847583374/gfx_pixel_buffer.o

.text.set4byte  0x9d02e930        0xc
 .text.set4byte
                0x9d02e930        0xc build/pic32mz_da_sk_intddr_meb2/production/_ext/1847583374/gfx_pixel_buffer.o

.text.rgb888_rgba8888
                0x9d02e93c        0xc
 .text.rgb888_rgba8888
                0x9d02e93c        0xc build/pic32mz_da_sk_intddr_meb2/production/_ext/1847583374/gfx_color_convert.o

.text.rgb888_argb8888
                0x9d02e948        0xc
 .text.rgb888_argb8888
                0x9d02e948        0xc build/pic32mz_da_sk_intddr_meb2/production/_ext/1847583374/gfx_color_convert.o

.text.laContext_SetActive
                0x9d02e954        0xc
 .text.laContext_SetActive
                0x9d02e954        0xc build/pic32mz_da_sk_intddr_meb2/production/_ext/1907747181/libaria_context.o
                0x9d02e954                laContext_SetActive

.text.calcOffset24bpp
                0x9d02e960        0xc
 .text.calcOffset24bpp
                0x9d02e960        0xc build/pic32mz_da_sk_intddr_meb2/production/_ext/1597685232/gfxu_image_utils.o

.text.JPEG_vInitDisplay
                0x9d02e96c        0xc
 .text.JPEG_vInitDisplay
                0x9d02e96c        0xc build/pic32mz_da_sk_intddr_meb2/production/_ext/1597685232/gfxu_image_jpg_common.o
                0x9d02e96c                JPEG_vInitDisplay

.text.SYS_CLK_SystemFrequencyGet
                0x9d02e978        0xc
 .text.SYS_CLK_SystemFrequencyGet
                0x9d02e978        0xc build/pic32mz_da_sk_intddr_meb2/production/_ext/370156264/sys_clk_pic32mz.o
                0x9d02e978                SYS_CLK_SystemFrequencyGet

.text.DRV_I2C_TransferStatusGet
                0x9d02e984        0x8
 .text.DRV_I2C_TransferStatusGet
                0x9d02e984        0x8 build/pic32mz_da_sk_intddr_meb2/production/_ext/475095144/drv_i2c_bb_a.o
                0x9d02e984                DRV_I2C_TransferStatusGet

.text.GFX_ActiveContext
                0x9d02e98c        0x8
 .text.GFX_ActiveContext
                0x9d02e98c        0x8 build/pic32mz_da_sk_intddr_meb2/production/_ext/1847583374/gfx_context.o
                0x9d02e98c                GFX_ActiveContext

.text.GFX_ContextActiveSet
                0x9d02e994        0x8
 .text.GFX_ContextActiveSet
                0x9d02e994        0x8 build/pic32mz_da_sk_intddr_meb2/production/_ext/1847583374/gfx_context.o
                0x9d02e994                GFX_ContextActiveSet

.text._GFX_DefaultSyncCallback
                0x9d02e99c        0x8
 .text._GFX_DefaultSyncCallback
                0x9d02e99c        0x8 build/pic32mz_da_sk_intddr_meb2/production/_ext/1847583374/gfx_context.o
                0x9d02e99c                _GFX_DefaultSyncCallback

.text.defUpdate
                0x9d02e9a4        0x8
 .text.defUpdate
                0x9d02e9a4        0x8 build/pic32mz_da_sk_intddr_meb2/production/_ext/1847583374/gfx_default_impl.o
                0x9d02e9a4                defUpdate

.text.defLayerSwapPending
                0x9d02e9ac        0x8
 .text.defLayerSwapPending
                0x9d02e9ac        0x8 build/pic32mz_da_sk_intddr_meb2/production/_ext/1847583374/gfx_default_impl.o
                0x9d02e9ac                defLayerSwapPending

.text.defLayerSwapped
                0x9d02e9b4        0x8
 .text.defLayerSwapped
                0x9d02e9b4        0x8 build/pic32mz_da_sk_intddr_meb2/production/_ext/1847583374/gfx_default_impl.o
                0x9d02e9b4                defLayerSwapped

.text.defMaskEmpty
                0x9d02e9bc        0x8
 .text.defMaskEmpty
                0x9d02e9bc        0x8 build/pic32mz_da_sk_intddr_meb2/production/_ext/1847583374/gfx_default_impl.o
                0x9d02e9bc                defMaskEmpty

.text.defAlphaEmptyPoint
                0x9d02e9c4        0x8
 .text.defAlphaEmptyPoint
                0x9d02e9c4        0x8 build/pic32mz_da_sk_intddr_meb2/production/_ext/1847583374/gfx_default_impl.o
                0x9d02e9c4                defAlphaEmptyPoint

.text.defEmptyAlphaBlend
                0x9d02e9cc        0x8
 .text.defEmptyAlphaBlend
                0x9d02e9cc        0x8 build/pic32mz_da_sk_intddr_meb2/production/_ext/1847583374/gfx_default_impl.o
                0x9d02e9cc                defEmptyAlphaBlend

.text.defInterrupt
                0x9d02e9d4        0x8
 .text.defInterrupt
                0x9d02e9d4        0x8 build/pic32mz_da_sk_intddr_meb2/production/_ext/1847583374/gfx_default_impl.o
                0x9d02e9d4                defInterrupt

.text.get_unimplemented
                0x9d02e9dc        0x8
 .text.get_unimplemented
                0x9d02e9dc        0x8 build/pic32mz_da_sk_intddr_meb2/production/_ext/1847583374/gfx_get.o
                0x9d02e9dc                get_unimplemented

.text.get1byte  0x9d02e9e4        0x8
 .text.get1byte
                0x9d02e9e4        0x8 build/pic32mz_da_sk_intddr_meb2/production/_ext/1847583374/gfx_pixel_buffer.o

.text.get2byte  0x9d02e9ec        0x8
 .text.get2byte
                0x9d02e9ec        0x8 build/pic32mz_da_sk_intddr_meb2/production/_ext/1847583374/gfx_pixel_buffer.o

.text.get4byte  0x9d02e9f4        0x8
 .text.get4byte
                0x9d02e9f4        0x8 build/pic32mz_da_sk_intddr_meb2/production/_ext/1847583374/gfx_pixel_buffer.o

.text.set_unimplemented
                0x9d02e9fc        0x8
 .text.set_unimplemented
                0x9d02e9fc        0x8 build/pic32mz_da_sk_intddr_meb2/production/_ext/1847583374/gfx_set.o
                0x9d02e9fc                set_unimplemented

.text.no_conv   0x9d02ea04        0x8
 .text.no_conv  0x9d02ea04        0x8 build/pic32mz_da_sk_intddr_meb2/production/_ext/1847583374/gfx_color_convert.o

.text.gs8_yuv   0x9d02ea0c        0x8
 .text.gs8_yuv  0x9d02ea0c        0x8 build/pic32mz_da_sk_intddr_meb2/production/_ext/1847583374/gfx_color_convert.o

.text.rgb332_yuv
                0x9d02ea14        0x8
 .text.rgb332_yuv
                0x9d02ea14        0x8 build/pic32mz_da_sk_intddr_meb2/production/_ext/1847583374/gfx_color_convert.o

.text.rgb565_yuv
                0x9d02ea1c        0x8
 .text.rgb565_yuv
                0x9d02ea1c        0x8 build/pic32mz_da_sk_intddr_meb2/production/_ext/1847583374/gfx_color_convert.o

.text.rgba5551_gs8
                0x9d02ea24        0x8
 .text.rgba5551_gs8
                0x9d02ea24        0x8 build/pic32mz_da_sk_intddr_meb2/production/_ext/1847583374/gfx_color_convert.o

.text.rgba5551_yuv
                0x9d02ea2c        0x8
 .text.rgba5551_yuv
                0x9d02ea2c        0x8 build/pic32mz_da_sk_intddr_meb2/production/_ext/1847583374/gfx_color_convert.o

.text.rgb888_gs8
                0x9d02ea34        0x8
 .text.rgb888_gs8
                0x9d02ea34        0x8 build/pic32mz_da_sk_intddr_meb2/production/_ext/1847583374/gfx_color_convert.o

.text.rgb888_yuv
                0x9d02ea3c        0x8
 .text.rgb888_yuv
                0x9d02ea3c        0x8 build/pic32mz_da_sk_intddr_meb2/production/_ext/1847583374/gfx_color_convert.o

.text.rgba8888_gs8
                0x9d02ea44        0x8
 .text.rgba8888_gs8
                0x9d02ea44        0x8 build/pic32mz_da_sk_intddr_meb2/production/_ext/1847583374/gfx_color_convert.o

.text.rgba8888_argb8888
                0x9d02ea4c        0x8
 .text.rgba8888_argb8888
                0x9d02ea4c        0x8 build/pic32mz_da_sk_intddr_meb2/production/_ext/1847583374/gfx_color_convert.o

.text.rgba8888_yuv
                0x9d02ea54        0x8
 .text.rgba8888_yuv
                0x9d02ea54        0x8 build/pic32mz_da_sk_intddr_meb2/production/_ext/1847583374/gfx_color_convert.o

.text.argb8888_rgb888
                0x9d02ea5c        0x8
 .text.argb8888_rgb888
                0x9d02ea5c        0x8 build/pic32mz_da_sk_intddr_meb2/production/_ext/1847583374/gfx_color_convert.o

.text.argb8888_rgba8888
                0x9d02ea64        0x8
 .text.argb8888_rgba8888
                0x9d02ea64        0x8 build/pic32mz_da_sk_intddr_meb2/production/_ext/1847583374/gfx_color_convert.o

.text.yuv_gs8   0x9d02ea6c        0x8
 .text.yuv_gs8  0x9d02ea6c        0x8 build/pic32mz_da_sk_intddr_meb2/production/_ext/1847583374/gfx_color_convert.o

.text.yuv_rgb332
                0x9d02ea74        0x8
 .text.yuv_rgb332
                0x9d02ea74        0x8 build/pic32mz_da_sk_intddr_meb2/production/_ext/1847583374/gfx_color_convert.o

.text.yuv_rgb565
                0x9d02ea7c        0x8
 .text.yuv_rgb565
                0x9d02ea7c        0x8 build/pic32mz_da_sk_intddr_meb2/production/_ext/1847583374/gfx_color_convert.o

.text.yuv_rgba5551
                0x9d02ea84        0x8
 .text.yuv_rgba5551
                0x9d02ea84        0x8 build/pic32mz_da_sk_intddr_meb2/production/_ext/1847583374/gfx_color_convert.o

.text.yuv_rgb888
                0x9d02ea8c        0x8
 .text.yuv_rgb888
                0x9d02ea8c        0x8 build/pic32mz_da_sk_intddr_meb2/production/_ext/1847583374/gfx_color_convert.o

.text.yuv_rgba8888
                0x9d02ea94        0x8
 .text.yuv_rgba8888
                0x9d02ea94        0x8 build/pic32mz_da_sk_intddr_meb2/production/_ext/1847583374/gfx_color_convert.o

.text.yuv_argb8888
                0x9d02ea9c        0x8
 .text.yuv_argb8888
                0x9d02ea9c        0x8 build/pic32mz_da_sk_intddr_meb2/production/_ext/1847583374/gfx_color_convert.o

.text.lut_yuv   0x9d02eaa4        0x8
 .text.lut_yuv  0x9d02eaa4        0x8 build/pic32mz_da_sk_intddr_meb2/production/_ext/1847583374/gfx_color_convert.o

.text.cpuDrawLine_AA
                0x9d02eaac        0x8
 .text.cpuDrawLine_AA
                0x9d02eaac        0x8 build/pic32mz_da_sk_intddr_meb2/production/_ext/1847583374/gfx_draw_line.o
                0x9d02eaac                cpuDrawLine_AA

.text.cpuDrawRect_Line_AA
                0x9d02eab4        0x8
 .text.cpuDrawRect_Line_AA
                0x9d02eab4        0x8 build/pic32mz_da_sk_intddr_meb2/production/_ext/1847583374/gfx_draw_rect.o
                0x9d02eab4                cpuDrawRect_Line_AA

.text.cpuDrawRect_Fill_AA
                0x9d02eabc        0x8
 .text.cpuDrawRect_Fill_AA
                0x9d02eabc        0x8 build/pic32mz_da_sk_intddr_meb2/production/_ext/1847583374/gfx_draw_rect.o
                0x9d02eabc                cpuDrawRect_Fill_AA

.text.laContext_GetActive
                0x9d02eac4        0x8
 .text.laContext_GetActive
                0x9d02eac4        0x8 build/pic32mz_da_sk_intddr_meb2/production/_ext/1907747181/libaria_context.o
                0x9d02eac4                laContext_GetActive

.text.update    0x9d02eacc        0x8
 .text.update   0x9d02eacc        0x8 build/pic32mz_da_sk_intddr_meb2/production/_ext/1907747181/libaria_widget.o

.text.moved     0x9d02ead4        0x8
 .text.moved    0x9d02ead4        0x8 build/pic32mz_da_sk_intddr_meb2/production/_ext/1907747181/libaria_widget.o

.text.resized   0x9d02eadc        0x8
 .text.resized  0x9d02eadc        0x8 build/pic32mz_da_sk_intddr_meb2/production/_ext/1907747181/libaria_widget.o

.text.focusGained
                0x9d02eae4        0x8
 .text.focusGained
                0x9d02eae4        0x8 build/pic32mz_da_sk_intddr_meb2/production/_ext/1907747181/libaria_widget.o

.text.focusLost
                0x9d02eaec        0x8
 .text.focusLost
                0x9d02eaec        0x8 build/pic32mz_da_sk_intddr_meb2/production/_ext/1907747181/libaria_widget.o

.text.touchDownEvent
                0x9d02eaf4        0x8
 .text.touchDownEvent
                0x9d02eaf4        0x8 build/pic32mz_da_sk_intddr_meb2/production/_ext/1907747181/libaria_widget.o

.text.touchUpEvent
                0x9d02eafc        0x8
 .text.touchUpEvent
                0x9d02eafc        0x8 build/pic32mz_da_sk_intddr_meb2/production/_ext/1907747181/libaria_widget.o

.text.touchMovedEvent
                0x9d02eb04        0x8
 .text.touchMovedEvent
                0x9d02eb04        0x8 build/pic32mz_da_sk_intddr_meb2/production/_ext/1907747181/libaria_widget.o

.text.languageChangingEvent
                0x9d02eb0c        0x8
 .text.languageChangingEvent
                0x9d02eb0c        0x8 build/pic32mz_da_sk_intddr_meb2/production/_ext/1907747181/libaria_widget.o

.text._laWidget_SetDirtyState
                0x9d02eb14        0x8
 .text._laWidget_SetDirtyState
                0x9d02eb14        0x8 build/pic32mz_da_sk_intddr_meb2/production/_ext/1907747181/libaria_widget.o
                0x9d02eb14                _laWidget_SetDirtyState

.text._laWidget_ClearDirtyState
                0x9d02eb1c        0x8
 .text._laWidget_ClearDirtyState
                0x9d02eb1c        0x8 build/pic32mz_da_sk_intddr_meb2/production/_ext/1907747181/libaria_widget.o
                0x9d02eb1c                _laWidget_ClearDirtyState

.text.getDiscreteValueAtIndex8
                0x9d02eb24        0x8
 .text.getDiscreteValueAtIndex8
                0x9d02eb24        0x8 build/pic32mz_da_sk_intddr_meb2/production/_ext/1597685232/gfxu_image_utils.o
                0x9d02eb24                getDiscreteValueAtIndex8

.text.calcOffset1bpp
                0x9d02eb2c        0x8
 .text.calcOffset1bpp
                0x9d02eb2c        0x8 build/pic32mz_da_sk_intddr_meb2/production/_ext/1597685232/gfxu_image_utils.o

.text.calcOffset4bpp
                0x9d02eb34        0x8
 .text.calcOffset4bpp
                0x9d02eb34        0x8 build/pic32mz_da_sk_intddr_meb2/production/_ext/1597685232/gfxu_image_utils.o

.text.calcOffset8bpp
                0x9d02eb3c        0x8
 .text.calcOffset8bpp
                0x9d02eb3c        0x8 build/pic32mz_da_sk_intddr_meb2/production/_ext/1597685232/gfxu_image_utils.o

.text.calcOffset16bpp
                0x9d02eb44        0x8
 .text.calcOffset16bpp
                0x9d02eb44        0x8 build/pic32mz_da_sk_intddr_meb2/production/_ext/1597685232/gfxu_image_utils.o

.text.calcOffset32bpp
                0x9d02eb4c        0x8
 .text.calcOffset32bpp
                0x9d02eb4c        0x8 build/pic32mz_da_sk_intddr_meb2/production/_ext/1597685232/gfxu_image_utils.o

.text.getGlyphRowDataSize8bpp
                0x9d02eb54        0x8
 .text.getGlyphRowDataSize8bpp
                0x9d02eb54        0x8 build/pic32mz_da_sk_intddr_meb2/production/_ext/1597685232/gfxu_string_utils.o
                0x9d02eb54                getGlyphRowDataSize8bpp

.text.SYS_DEBUG_ErrorLevelGet
                0x9d02eb5c        0x8
 .text.SYS_DEBUG_ErrorLevelGet
                0x9d02eb5c        0x8 build/pic32mz_da_sk_intddr_meb2/production/_ext/2137108136/sys_debug.o
                0x9d02eb5c                SYS_DEBUG_ErrorLevelGet

.text.DRV_USART_TasksTransmit
                0x9d02eb64        0x8
 .text.DRV_USART_TasksTransmit
                0x9d02eb64        0x8 build/pic32mz_da_sk_intddr_meb2/production/_ext/418582516/drv_usart_mapping.o
                0x9d02eb64                DRV_USART_TasksTransmit

.text.DRV_USART_TasksReceive
                0x9d02eb6c        0x8
 .text.DRV_USART_TasksReceive
                0x9d02eb6c        0x8 build/pic32mz_da_sk_intddr_meb2/production/_ext/418582516/drv_usart_mapping.o
                0x9d02eb6c                DRV_USART_TasksReceive

.text.DRV_USART_TasksError
                0x9d02eb74        0x8
 .text.DRV_USART_TasksError
                0x9d02eb74        0x8 build/pic32mz_da_sk_intddr_meb2/production/_ext/418582516/drv_usart_mapping.o
                0x9d02eb74                DRV_USART_TasksError

.text.layerBufferFree
                0x9d02eb7c        0x8
 .text.layerBufferFree
                0x9d02eb7c        0x8 build/pic32mz_da_sk_intddr_meb2/production/_ext/1094895838/drv_gfx_glcd_static.o

.rodata         0x9d02eb84        0x8
 .rodata        0x9d02eb84        0x8 build/pic32mz_da_sk_intddr_meb2/production/_ext/1094895838/drv_gfx_glcd_static.o

.text.SYS_CONSOLE_Initialize
                0x9d02eb8c        0x8
 .text.SYS_CONSOLE_Initialize
                0x9d02eb8c        0x8 build/pic32mz_da_sk_intddr_meb2/production/_ext/639474099/sys_console_static.o
                0x9d02eb8c                SYS_CONSOLE_Initialize

.text.SYS_CONSOLE_Tasks
                0x9d02eb94        0x8
 .text.SYS_CONSOLE_Tasks
                0x9d02eb94        0x8 build/pic32mz_da_sk_intddr_meb2/production/_ext/639474099/sys_console_static.o
                0x9d02eb94                SYS_CONSOLE_Tasks

.text.BSP_Initialize
                0x9d02eb9c        0x8
 .text.BSP_Initialize
                0x9d02eb9c        0x8 build/pic32mz_da_sk_intddr_meb2/production/_ext/1547055377/bsp.o
                0x9d02eb9c                BSP_Initialize

.text._on_reset
                0x9d02eba4        0x8
 .text._on_reset
                0x9d02eba4        0x8 f:/software_installations/mplab_xc32/bin/bin/../../lib/gcc/pic32mx/4.8.3/../../../../pic32mx/lib\libpic32.a(default-on-reset.o)
                0x9d02eba4                _on_reset

.text._on_bootstrap
                0x9d02ebac        0x8
 .text._on_bootstrap
                0x9d02ebac        0x8 f:/software_installations/mplab_xc32/bin/bin/../../lib/gcc/pic32mx/4.8.3/../../../../pic32mx/lib\libpic32.a(default-on-bootstrap.o)
                0x9d02ebac                _on_bootstrap

.text._filbuf_string
                0x9d02ebb4        0x8
 .text._filbuf_string
                0x9d02ebb4        0x8 f:/software_installations/mplab_xc32/bin/bin/../../lib/gcc/pic32mx/4.8.3/../../../../pic32mx/lib\liblega-c.a(_iobstring.o)

.text._flsbuf_string
                0x9d02ebbc        0x8
 .text._flsbuf_string
                0x9d02ebbc        0x8 f:/software_installations/mplab_xc32/bin/bin/../../lib/gcc/pic32mx/4.8.3/../../../../pic32mx/lib\liblega-c.a(_iobstring.o)

.text._fflush_string
                0x9d02ebc4        0x8
 .text._fflush_string
                0x9d02ebc4        0x8 f:/software_installations/mplab_xc32/bin/bin/../../lib/gcc/pic32mx/4.8.3/../../../../pic32mx/lib\liblega-c.a(_iobstring.o)

.text._fwrite_string
                0x9d02ebcc        0x8
 .text._fwrite_string
                0x9d02ebcc        0x8 f:/software_installations/mplab_xc32/bin/bin/../../lib/gcc/pic32mx/4.8.3/../../../../pic32mx/lib\liblega-c.a(_iobstring.o)

.text._fsync_string
                0x9d02ebd4        0x8
 .text._fsync_string
                0x9d02ebd4        0x8 f:/software_installations/mplab_xc32/bin/bin/../../lib/gcc/pic32mx/4.8.3/../../../../pic32mx/lib\liblega-c.a(_iobstring.o)

.text.getpagesize
                0x9d02ebdc        0x8
 .text.getpagesize
                0x9d02ebdc        0x8 f:/software_installations/mplab_xc32/bin/bin/../../lib/gcc/pic32mx/4.8.3/../../../../pic32mx/lib\libpic32.a(sbrk.o)
                0x9d02ebdc                getpagesize
